                              1 ;--------------------------------------------------------
                              2 ; File Created by SDCC : free open source ISO C Compiler 
                              3 ; Version 4.2.14 #0 (Linux)
                              4 ;--------------------------------------------------------
                              5 	.module __stdc_count_trailing_onesull
                              6 	.optsdcc -mmos6502
                              7 	
                              8 ;--------------------------------------------------------
                              9 ; Public variables in this module
                             10 ;--------------------------------------------------------
                             11 	.globl ___stdc_count_trailing_onesull
                             12 ;--------------------------------------------------------
                             13 ; ZP ram data
                             14 ;--------------------------------------------------------
                             15 	.area ZP      (PAG)
                             16 ;--------------------------------------------------------
                             17 ; overlayable items in ram
                             18 ;--------------------------------------------------------
                             19 ;--------------------------------------------------------
                             20 ; uninitialized external ram data
                             21 ;--------------------------------------------------------
                             22 	.area BSS
                             23 ;--------------------------------------------------------
                             24 ; absolute external ram data
                             25 ;--------------------------------------------------------
                             26 	.area DABS    (ABS)
                             27 ;--------------------------------------------------------
                             28 ; initialized external ram data
                             29 ;--------------------------------------------------------
                             30 	.area DATA
                             31 ;--------------------------------------------------------
                             32 ; global & static initialisations
                             33 ;--------------------------------------------------------
                             34 	.area _CODE
                             35 	.area GSINIT
                             36 	.area GSFINAL
                             37 	.area GSINIT
                             38 ;--------------------------------------------------------
                             39 ; Home
                             40 ;--------------------------------------------------------
                             41 	.area _CODE
                             42 	.area _CODE
                             43 ;--------------------------------------------------------
                             44 ; code
                             45 ;--------------------------------------------------------
                             46 	.area CODE
                             47 ;------------------------------------------------------------
                             48 ;Allocation info for local variables in function '__stdc_count_trailing_onesull'
                             49 ;------------------------------------------------------------
                             50 ;value                     Allocated to stack - sp +12
                             51 ;count                     Allocated to stack - sp +9
                             52 ;i                         Allocated to registers y 
                             53 ;sloc0                     Allocated to stack - sp +1
                             54 ;------------------------------------------------------------
                             55 ;	../__stdc_count_trailing_onesull.c: 37: int_fast8_t __stdc_count_trailing_onesull(unsigned long long value)
                             56 ;	-----------------------------------------
                             57 ;	 function __stdc_count_trailing_onesull
                             58 ;	-----------------------------------------
                             59 ;	Register assignment is optimal.
                             60 ;	Stack space usage: 9 bytes.
   0000                      61 ___stdc_count_trailing_onesull:
   0000 85*00         [ 3]   62 	sta	*(__TEMP+0)
   0002 86*01         [ 3]   63 	stx	*(__TEMP+1)
   0004 BA            [ 2]   64 	tsx
   0005 8A            [ 2]   65 	txa
   0006 18            [ 2]   66 	clc
   0007 69 F7         [ 2]   67 	adc	#0xf7
   0009 AA            [ 2]   68 	tax
   000A 9A            [ 2]   69 	txs
                             70 ;	../__stdc_count_trailing_onesull.c: 40: for(uint_fast8_t i = 0; i < ULLONG_WIDTH; i++)
   000B BA            [ 2]   71 	tsx
   000C A9 00         [ 2]   72 	lda	#0x00
   000E 9D 09 01      [ 5]   73 	sta	0x109,x
   0011 A8            [ 2]   74 	tay
   0012                      75 00106$:
   0012 C0 40         [ 2]   76 	cpy	#0x40
   0014 90 03         [ 4]   77 	bcc	00123$
   0016 4CrBBr00      [ 3]   78 	jmp	00104$
   0019                      79 00123$:
                             80 ;	../__stdc_count_trailing_onesull.c: 41: if(value & (1ull << i))
   0019 85*00         [ 3]   81 	sta	*(__TEMP+0)
   001B 98            [ 2]   82 	tya
   001C 48            [ 3]   83 	pha
   001D 98            [ 2]   84 	tya
   001E 48            [ 3]   85 	pha
   001F A9 00         [ 2]   86 	lda	#0x00
   0021 48            [ 3]   87 	pha
   0022 48            [ 3]   88 	pha
   0023 48            [ 3]   89 	pha
   0024 48            [ 3]   90 	pha
   0025 48            [ 3]   91 	pha
   0026 48            [ 3]   92 	pha
   0027 48            [ 3]   93 	pha
   0028 A9 01         [ 2]   94 	lda	#0x01
   002A 48            [ 3]   95 	pha
   002B 20r00r00      [ 6]   96 	jsr	__rlulonglong
   002E 86*00         [ 3]   97 	stx	*(__TEMP+0)
   0030 BA            [ 2]   98 	tsx
   0031 9D 0B 01      [ 5]   99 	sta	0x10b,x
   0034 A6*00         [ 3]  100 	ldx	*(__TEMP+0)
   0036 8A            [ 2]  101 	txa
   0037 BA            [ 2]  102 	tsx
   0038 9D 0C 01      [ 5]  103 	sta	0x10c,x
   003B A6*00         [ 3]  104 	ldx	*(__TEMP+0)
   003D A5*00         [ 3]  105 	lda	*___SDCC_m6502_ret2
   003F BA            [ 2]  106 	tsx
   0040 9D 0D 01      [ 5]  107 	sta	0x10d,x
   0043 A5*00         [ 3]  108 	lda	*___SDCC_m6502_ret3
   0045 9D 0E 01      [ 5]  109 	sta	0x10e,x
   0048 A5*00         [ 3]  110 	lda	*___SDCC_m6502_ret4
   004A 9D 0F 01      [ 5]  111 	sta	0x10f,x
   004D A5*00         [ 3]  112 	lda	*___SDCC_m6502_ret5
   004F 9D 10 01      [ 5]  113 	sta	0x110,x
   0052 A5*00         [ 3]  114 	lda	*___SDCC_m6502_ret6
   0054 9D 11 01      [ 5]  115 	sta	0x111,x
   0057 A5*00         [ 3]  116 	lda	*___SDCC_m6502_ret7
   0059 9D 12 01      [ 5]  117 	sta	0x112,x
   005C 85*00         [ 3]  118 	sta	*(__TEMP+0)
   005E 86*01         [ 3]  119 	stx	*(__TEMP+1)
   0060 BA            [ 2]  120 	tsx
   0061 8A            [ 2]  121 	txa
   0062 18            [ 2]  122 	clc
   0063 69 09         [ 2]  123 	adc	#0x09
   0065 AA            [ 2]  124 	tax
   0066 9A            [ 2]  125 	txs
   0067 A6*01         [ 3]  126 	ldx	*(__TEMP+1)
   0069 68            [ 4]  127 	pla
   006A A8            [ 2]  128 	tay
   006B A5*00         [ 3]  129 	lda	*(__TEMP+0)
   006D BA            [ 2]  130 	tsx
   006E BD 01 01      [ 5]  131 	lda	0x101,x
   0071 3D 0C 01      [ 5]  132 	and	0x10c,x
   0074 D0 36         [ 4]  133 	bne	00124$
   0076 BD 02 01      [ 5]  134 	lda	0x102,x
   0079 3D 0D 01      [ 5]  135 	and	0x10d,x
   007C D0 2E         [ 4]  136 	bne	00124$
   007E BD 03 01      [ 5]  137 	lda	0x103,x
   0081 3D 0E 01      [ 5]  138 	and	0x10e,x
   0084 D0 26         [ 4]  139 	bne	00124$
   0086 BD 04 01      [ 5]  140 	lda	0x104,x
   0089 3D 0F 01      [ 5]  141 	and	0x10f,x
   008C D0 1E         [ 4]  142 	bne	00124$
   008E BD 05 01      [ 5]  143 	lda	0x105,x
   0091 3D 10 01      [ 5]  144 	and	0x110,x
   0094 D0 16         [ 4]  145 	bne	00124$
   0096 BD 06 01      [ 5]  146 	lda	0x106,x
   0099 3D 11 01      [ 5]  147 	and	0x111,x
   009C D0 0E         [ 4]  148 	bne	00124$
   009E BD 07 01      [ 5]  149 	lda	0x107,x
   00A1 3D 12 01      [ 5]  150 	and	0x112,x
   00A4 D0 06         [ 4]  151 	bne	00124$
   00A6 BD 08 01      [ 5]  152 	lda	0x108,x
   00A9 3D 13 01      [ 5]  153 	and	0x113,x
   00AC                     154 00124$:
   00AC F0 0D         [ 4]  155 	beq	00104$
                            156 ;	../__stdc_count_trailing_onesull.c: 42: count++;
   00AE BD 09 01      [ 5]  157 	lda	0x109,x
   00B1 18            [ 2]  158 	clc
   00B2 69 01         [ 2]  159 	adc	#0x01
   00B4 9D 09 01      [ 5]  160 	sta	0x109,x
                            161 ;	../__stdc_count_trailing_onesull.c: 40: for(uint_fast8_t i = 0; i < ULLONG_WIDTH; i++)
   00B7 C8            [ 2]  162 	iny
   00B8 4Cr12r00      [ 3]  163 	jmp	00106$
   00BB                     164 00104$:
                            165 ;	../__stdc_count_trailing_onesull.c: 45: return count;
   00BB BA            [ 2]  166 	tsx
   00BC BD 09 01      [ 5]  167 	lda	0x109,x
                            168 ;	../__stdc_count_trailing_onesull.c: 46: }
   00BF 85*00         [ 3]  169 	sta	*(__TEMP+0)
   00C1 86*01         [ 3]  170 	stx	*(__TEMP+1)
   00C3 BA            [ 2]  171 	tsx
   00C4 8A            [ 2]  172 	txa
   00C5 18            [ 2]  173 	clc
   00C6 69 09         [ 2]  174 	adc	#0x09
   00C8 AA            [ 2]  175 	tax
   00C9 9A            [ 2]  176 	txs
   00CA A6*01         [ 3]  177 	ldx	*(__TEMP+1)
   00CC A5*00         [ 3]  178 	lda	*(__TEMP+0)
   00CE 60            [ 6]  179 	rts
                            180 	.area CODE
                            181 	.area RODATA
                            182 	.area XINIT
                            183 	.area CABS    (ABS)
