                              1 ;--------------------------------------------------------
                              2 ; File Created by SDCC : free open source ISO C Compiler 
                              3 ; Version 4.2.14 #0 (Linux)
                              4 ;--------------------------------------------------------
                              5 	.module _ulonglong2fs
                              6 	.optsdcc -mmos6502
                              7 	
                              8 ;--------------------------------------------------------
                              9 ; Public variables in this module
                             10 ;--------------------------------------------------------
                             11 	.globl ___ulonglong2fs
                             12 ;--------------------------------------------------------
                             13 ; ZP ram data
                             14 ;--------------------------------------------------------
                             15 	.area ZP      (PAG)
                             16 ;--------------------------------------------------------
                             17 ; overlayable items in ram
                             18 ;--------------------------------------------------------
                             19 ;--------------------------------------------------------
                             20 ; uninitialized external ram data
                             21 ;--------------------------------------------------------
                             22 	.area BSS
                             23 ;--------------------------------------------------------
                             24 ; absolute external ram data
                             25 ;--------------------------------------------------------
                             26 	.area DABS    (ABS)
                             27 ;--------------------------------------------------------
                             28 ; initialized external ram data
                             29 ;--------------------------------------------------------
                             30 	.area DATA
                             31 ;--------------------------------------------------------
                             32 ; global & static initialisations
                             33 ;--------------------------------------------------------
                             34 	.area _CODE
                             35 	.area GSINIT
                             36 	.area GSFINAL
                             37 	.area GSINIT
                             38 ;--------------------------------------------------------
                             39 ; Home
                             40 ;--------------------------------------------------------
                             41 	.area _CODE
                             42 	.area _CODE
                             43 ;--------------------------------------------------------
                             44 ; code
                             45 ;--------------------------------------------------------
                             46 	.area CODE
                             47 ;------------------------------------------------------------
                             48 ;Allocation info for local variables in function '__ulonglong2fs'
                             49 ;------------------------------------------------------------
                             50 ;a                         Allocated to stack - sp +17
                             51 ;exp                       Allocated to registers y 
                             52 ;fl                        Allocated to stack - sp +1
                             53 ;sloc0                     Allocated to stack - sp +13
                             54 ;sloc1                     Allocated to stack - sp +9
                             55 ;sloc2                     Allocated to stack - sp +5
                             56 ;------------------------------------------------------------
                             57 ;	../_ulonglong2fs.c: 61: float __ulonglong2fs (unsigned long long a ) __SDCC_FLOAT_NONBANKED
                             58 ;	-----------------------------------------
                             59 ;	 function __ulonglong2fs
                             60 ;	-----------------------------------------
                             61 ;	Register assignment is optimal.
                             62 ;	Stack space usage: 14 bytes.
   0000                      63 ___ulonglong2fs:
   0000 85*00         [ 3]   64 	sta	*(__TEMP+0)
   0002 86*01         [ 3]   65 	stx	*(__TEMP+1)
   0004 BA            [ 2]   66 	tsx
   0005 8A            [ 2]   67 	txa
   0006 18            [ 2]   68 	clc
   0007 69 F2         [ 2]   69 	adc	#0xf2
   0009 AA            [ 2]   70 	tax
   000A 9A            [ 2]   71 	txs
   000B A6*01         [ 3]   72 	ldx	*(__TEMP+1)
   000D A5*00         [ 3]   73 	lda	*(__TEMP+0)
                             74 ;	../_ulonglong2fs.c: 66: if (!a)
   000F BA            [ 2]   75 	tsx
   0010 BD 18 01      [ 5]   76 	lda	0x118,x
   0013 1D 17 01      [ 5]   77 	ora	0x117,x
   0016 1D 16 01      [ 5]   78 	ora	0x116,x
   0019 1D 15 01      [ 5]   79 	ora	0x115,x
   001C 1D 14 01      [ 5]   80 	ora	0x114,x
   001F 1D 13 01      [ 5]   81 	ora	0x113,x
   0022 1D 12 01      [ 5]   82 	ora	0x112,x
   0025 1D 11 01      [ 5]   83 	ora	0x111,x
   0028 D0 0A         [ 4]   84 	bne	00102$
                             85 ;	../_ulonglong2fs.c: 68: return 0.0;
   002A A9 00         [ 2]   86 	lda	#0x00
   002C AA            [ 2]   87 	tax
   002D 85*00         [ 3]   88 	sta	*___SDCC_m6502_ret2
   002F 85*00         [ 3]   89 	sta	*___SDCC_m6502_ret3
   0031 4CrE0r02      [ 3]   90 	jmp	00113$
   0034                      91 00102$:
                             92 ;	../_ulonglong2fs.c: 71: if (a == 0xffffffffffffffffull)
   0034 BA            [ 2]   93 	tsx
   0035 BD 11 01      [ 5]   94 	lda	0x111,x
   0038 C9 FF         [ 2]   95 	cmp	#0xff
   003A D0 3F         [ 4]   96 	bne	00118$
   003C BD 12 01      [ 5]   97 	lda	0x112,x
   003F C9 FF         [ 2]   98 	cmp	#0xff
   0041 D0 38         [ 4]   99 	bne	00118$
   0043 BD 13 01      [ 5]  100 	lda	0x113,x
   0046 C9 FF         [ 2]  101 	cmp	#0xff
   0048 D0 31         [ 4]  102 	bne	00118$
   004A BD 14 01      [ 5]  103 	lda	0x114,x
   004D C9 FF         [ 2]  104 	cmp	#0xff
   004F D0 2A         [ 4]  105 	bne	00118$
   0051 BD 15 01      [ 5]  106 	lda	0x115,x
   0054 C9 FF         [ 2]  107 	cmp	#0xff
   0056 D0 23         [ 4]  108 	bne	00118$
   0058 BD 16 01      [ 5]  109 	lda	0x116,x
   005B C9 FF         [ 2]  110 	cmp	#0xff
   005D D0 1C         [ 4]  111 	bne	00118$
   005F BD 17 01      [ 5]  112 	lda	0x117,x
   0062 C9 FF         [ 2]  113 	cmp	#0xff
   0064 D0 15         [ 4]  114 	bne	00118$
   0066 BD 18 01      [ 5]  115 	lda	0x118,x
   0069 C9 FF         [ 2]  116 	cmp	#0xff
   006B D0 0E         [ 4]  117 	bne	00118$
                            118 ;	../_ulonglong2fs.c: 73: return 18446744073709551616.0f;
   006D A9 00         [ 2]  119 	lda	#0x00
   006F AA            [ 2]  120 	tax
   0070 A0 80         [ 2]  121 	ldy	#0x80
   0072 84*00         [ 3]  122 	sty	*___SDCC_m6502_ret2
   0074 A0 5F         [ 2]  123 	ldy	#0x5f
   0076 84*00         [ 3]  124 	sty	*___SDCC_m6502_ret3
   0078 4CrE0r02      [ 3]  125 	jmp	00113$
                            126 ;	../_ulonglong2fs.c: 76: while (a < HIDDEN)
   007B                     127 00118$:
   007B A0 96         [ 2]  128 	ldy	#0x96
   007D                     129 00105$:
   007D BA            [ 2]  130 	tsx
   007E BD 13 01      [ 5]  131 	lda	0x113,x
   0081 38            [ 2]  132 	sec
   0082 E9 80         [ 2]  133 	sbc	#0x80
   0084 BD 14 01      [ 5]  134 	lda	0x114,x
   0087 E9 00         [ 2]  135 	sbc	#0x00
   0089 BD 15 01      [ 5]  136 	lda	0x115,x
   008C E9 00         [ 2]  137 	sbc	#0x00
   008E BD 16 01      [ 5]  138 	lda	0x116,x
   0091 E9 00         [ 2]  139 	sbc	#0x00
   0093 BD 17 01      [ 5]  140 	lda	0x117,x
   0096 E9 00         [ 2]  141 	sbc	#0x00
   0098 BD 18 01      [ 5]  142 	lda	0x118,x
   009B E9 00         [ 2]  143 	sbc	#0x00
   009D 90 03         [ 4]  144 	bcc	00155$
   009F 4Cr20r01      [ 3]  145 	jmp	00121$
   00A2                     146 00155$:
                            147 ;	../_ulonglong2fs.c: 78: a <<= 1;
   00A2 85*00         [ 3]  148 	sta	*(__TEMP+0)
   00A4 98            [ 2]  149 	tya
   00A5 48            [ 3]  150 	pha
   00A6 A5*00         [ 3]  151 	lda	*(__TEMP+0)
   00A8 A9 00         [ 2]  152 	lda	#0x00
   00AA 48            [ 3]  153 	pha
   00AB 48            [ 3]  154 	pha
   00AC 48            [ 3]  155 	pha
   00AD 48            [ 3]  156 	pha
   00AE 48            [ 3]  157 	pha
   00AF 48            [ 3]  158 	pha
   00B0 48            [ 3]  159 	pha
   00B1 A9 01         [ 2]  160 	lda	#0x01
   00B3 48            [ 3]  161 	pha
   00B4 BD 18 01      [ 5]  162 	lda	0x118,x
   00B7 48            [ 3]  163 	pha
   00B8 BD 17 01      [ 5]  164 	lda	0x117,x
   00BB 48            [ 3]  165 	pha
   00BC BD 16 01      [ 5]  166 	lda	0x116,x
   00BF 48            [ 3]  167 	pha
   00C0 BD 15 01      [ 5]  168 	lda	0x115,x
   00C3 48            [ 3]  169 	pha
   00C4 BD 14 01      [ 5]  170 	lda	0x114,x
   00C7 48            [ 3]  171 	pha
   00C8 BD 13 01      [ 5]  172 	lda	0x113,x
   00CB 48            [ 3]  173 	pha
   00CC BD 12 01      [ 5]  174 	lda	0x112,x
   00CF 48            [ 3]  175 	pha
   00D0 BD 11 01      [ 5]  176 	lda	0x111,x
   00D3 48            [ 3]  177 	pha
   00D4 20r00r00      [ 6]  178 	jsr	__rlulonglong
   00D7 86*00         [ 3]  179 	stx	*(__TEMP+0)
   00D9 BA            [ 2]  180 	tsx
   00DA 9D 22 01      [ 5]  181 	sta	0x122,x
   00DD A6*00         [ 3]  182 	ldx	*(__TEMP+0)
   00DF 8A            [ 2]  183 	txa
   00E0 86*00         [ 3]  184 	stx	*(__TEMP+0)
   00E2 BA            [ 2]  185 	tsx
   00E3 9D 23 01      [ 5]  186 	sta	0x123,x
   00E6 A6*00         [ 3]  187 	ldx	*(__TEMP+0)
   00E8 A5*00         [ 3]  188 	lda	*___SDCC_m6502_ret2
   00EA BA            [ 2]  189 	tsx
   00EB 9D 24 01      [ 5]  190 	sta	0x124,x
   00EE A5*00         [ 3]  191 	lda	*___SDCC_m6502_ret3
   00F0 9D 25 01      [ 5]  192 	sta	0x125,x
   00F3 A5*00         [ 3]  193 	lda	*___SDCC_m6502_ret4
   00F5 9D 26 01      [ 5]  194 	sta	0x126,x
   00F8 A5*00         [ 3]  195 	lda	*___SDCC_m6502_ret5
   00FA 9D 27 01      [ 5]  196 	sta	0x127,x
   00FD A5*00         [ 3]  197 	lda	*___SDCC_m6502_ret6
   00FF 9D 28 01      [ 5]  198 	sta	0x128,x
   0102 A5*00         [ 3]  199 	lda	*___SDCC_m6502_ret7
   0104 9D 29 01      [ 5]  200 	sta	0x129,x
   0107 85*00         [ 3]  201 	sta	*(__TEMP+0)
   0109 86*01         [ 3]  202 	stx	*(__TEMP+1)
   010B BA            [ 2]  203 	tsx
   010C 8A            [ 2]  204 	txa
   010D 18            [ 2]  205 	clc
   010E 69 10         [ 2]  206 	adc	#0x10
   0110 AA            [ 2]  207 	tax
   0111 9A            [ 2]  208 	txs
   0112 A6*01         [ 3]  209 	ldx	*(__TEMP+1)
   0114 A5*00         [ 3]  210 	lda	*(__TEMP+0)
   0116 85*00         [ 3]  211 	sta	*(__TEMP+0)
   0118 68            [ 4]  212 	pla
   0119 A8            [ 2]  213 	tay
   011A A5*00         [ 3]  214 	lda	*(__TEMP+0)
                            215 ;	../_ulonglong2fs.c: 79: exp--;
   011C 88            [ 2]  216 	dey
   011D 4Cr7Dr00      [ 3]  217 	jmp	00105$
                            218 ;	../_ulonglong2fs.c: 82: while (a & NORM)
   0120                     219 00121$:
   0120                     220 00110$:
   0120 BA            [ 2]  221 	tsx
   0121 BD 14 01      [ 5]  222 	lda	0x114,x
   0124 D0 03         [ 4]  223 	bne	00157$
   0126 4CrEAr01      [ 3]  224 	jmp	00112$
   0129                     225 00157$:
                            226 ;	../_ulonglong2fs.c: 85: if (a & 1)
   0129 A9 01         [ 2]  227 	lda	#0x01
   012B 3D 11 01      [ 5]  228 	and	0x111,x
   012E F0 41         [ 4]  229 	beq	00109$
                            230 ;	../_ulonglong2fs.c: 86: a += 2;
   0130 BD 11 01      [ 5]  231 	lda	0x111,x
   0133 18            [ 2]  232 	clc
   0134 69 02         [ 2]  233 	adc	#0x02
   0136 9D 11 01      [ 5]  234 	sta	0x111,x
   0139 BD 12 01      [ 5]  235 	lda	0x112,x
   013C 69 00         [ 2]  236 	adc	#0x00
   013E 9D 12 01      [ 5]  237 	sta	0x112,x
   0141 BD 13 01      [ 5]  238 	lda	0x113,x
   0144 69 00         [ 2]  239 	adc	#0x00
   0146 9D 13 01      [ 5]  240 	sta	0x113,x
   0149 BD 14 01      [ 5]  241 	lda	0x114,x
   014C 69 00         [ 2]  242 	adc	#0x00
   014E 9D 14 01      [ 5]  243 	sta	0x114,x
   0151 BD 15 01      [ 5]  244 	lda	0x115,x
   0154 69 00         [ 2]  245 	adc	#0x00
   0156 9D 15 01      [ 5]  246 	sta	0x115,x
   0159 BD 16 01      [ 5]  247 	lda	0x116,x
   015C 69 00         [ 2]  248 	adc	#0x00
   015E 9D 16 01      [ 5]  249 	sta	0x116,x
   0161 BD 17 01      [ 5]  250 	lda	0x117,x
   0164 69 00         [ 2]  251 	adc	#0x00
   0166 9D 17 01      [ 5]  252 	sta	0x117,x
   0169 BD 18 01      [ 5]  253 	lda	0x118,x
   016C 69 00         [ 2]  254 	adc	#0x00
   016E 9D 18 01      [ 5]  255 	sta	0x118,x
   0171                     256 00109$:
                            257 ;	../_ulonglong2fs.c: 87: a >>= 1;
   0171 85*00         [ 3]  258 	sta	*(__TEMP+0)
   0173 98            [ 2]  259 	tya
   0174 48            [ 3]  260 	pha
   0175 A5*00         [ 3]  261 	lda	*(__TEMP+0)
   0177 A9 00         [ 2]  262 	lda	#0x00
   0179 48            [ 3]  263 	pha
   017A A9 01         [ 2]  264 	lda	#0x01
   017C 48            [ 3]  265 	pha
   017D BA            [ 2]  266 	tsx
   017E BD 1B 01      [ 5]  267 	lda	0x11b,x
   0181 48            [ 3]  268 	pha
   0182 BD 1A 01      [ 5]  269 	lda	0x11a,x
   0185 48            [ 3]  270 	pha
   0186 BD 19 01      [ 5]  271 	lda	0x119,x
   0189 48            [ 3]  272 	pha
   018A BD 18 01      [ 5]  273 	lda	0x118,x
   018D 48            [ 3]  274 	pha
   018E BD 17 01      [ 5]  275 	lda	0x117,x
   0191 48            [ 3]  276 	pha
   0192 BD 16 01      [ 5]  277 	lda	0x116,x
   0195 48            [ 3]  278 	pha
   0196 BD 15 01      [ 5]  279 	lda	0x115,x
   0199 48            [ 3]  280 	pha
   019A BD 14 01      [ 5]  281 	lda	0x114,x
   019D 48            [ 3]  282 	pha
   019E 20r00r00      [ 6]  283 	jsr	__rrulonglong
   01A1 86*00         [ 3]  284 	stx	*(__TEMP+0)
   01A3 BA            [ 2]  285 	tsx
   01A4 9D 1C 01      [ 5]  286 	sta	0x11c,x
   01A7 A6*00         [ 3]  287 	ldx	*(__TEMP+0)
   01A9 8A            [ 2]  288 	txa
   01AA 86*00         [ 3]  289 	stx	*(__TEMP+0)
   01AC BA            [ 2]  290 	tsx
   01AD 9D 1D 01      [ 5]  291 	sta	0x11d,x
   01B0 A6*00         [ 3]  292 	ldx	*(__TEMP+0)
   01B2 A5*00         [ 3]  293 	lda	*___SDCC_m6502_ret2
   01B4 BA            [ 2]  294 	tsx
   01B5 9D 1E 01      [ 5]  295 	sta	0x11e,x
   01B8 A5*00         [ 3]  296 	lda	*___SDCC_m6502_ret3
   01BA 9D 1F 01      [ 5]  297 	sta	0x11f,x
   01BD A5*00         [ 3]  298 	lda	*___SDCC_m6502_ret4
   01BF 9D 20 01      [ 5]  299 	sta	0x120,x
   01C2 A5*00         [ 3]  300 	lda	*___SDCC_m6502_ret5
   01C4 9D 21 01      [ 5]  301 	sta	0x121,x
   01C7 A5*00         [ 3]  302 	lda	*___SDCC_m6502_ret6
   01C9 9D 22 01      [ 5]  303 	sta	0x122,x
   01CC A5*00         [ 3]  304 	lda	*___SDCC_m6502_ret7
   01CE 9D 23 01      [ 5]  305 	sta	0x123,x
   01D1 85*00         [ 3]  306 	sta	*(__TEMP+0)
   01D3 86*01         [ 3]  307 	stx	*(__TEMP+1)
   01D5 BA            [ 2]  308 	tsx
   01D6 8A            [ 2]  309 	txa
   01D7 18            [ 2]  310 	clc
   01D8 69 0A         [ 2]  311 	adc	#0x0a
   01DA AA            [ 2]  312 	tax
   01DB 9A            [ 2]  313 	txs
   01DC A6*01         [ 3]  314 	ldx	*(__TEMP+1)
   01DE A5*00         [ 3]  315 	lda	*(__TEMP+0)
   01E0 85*00         [ 3]  316 	sta	*(__TEMP+0)
   01E2 68            [ 4]  317 	pla
   01E3 A8            [ 2]  318 	tay
   01E4 A5*00         [ 3]  319 	lda	*(__TEMP+0)
                            320 ;	../_ulonglong2fs.c: 88: exp++;
   01E6 C8            [ 2]  321 	iny
   01E7 4Cr20r01      [ 3]  322 	jmp	00110$
   01EA                     323 00112$:
                            324 ;	../_ulonglong2fs.c: 91: a &= ~HIDDEN ;
   01EA BA            [ 2]  325 	tsx
   01EB BD 13 01      [ 5]  326 	lda	0x113,x
   01EE 29 7F         [ 2]  327 	and	#0x7f
   01F0 9D 13 01      [ 5]  328 	sta	0x113,x
   01F3 48            [ 3]  329 	pha
   01F4 A9 00         [ 2]  330 	lda	#0x00
   01F6 9D 15 01      [ 5]  331 	sta	0x115,x
   01F9 A9 00         [ 2]  332 	lda	#0x00
   01FB 9D 16 01      [ 5]  333 	sta	0x116,x
   01FE A9 00         [ 2]  334 	lda	#0x00
   0200 9D 17 01      [ 5]  335 	sta	0x117,x
   0203 A9 00         [ 2]  336 	lda	#0x00
   0205 9D 18 01      [ 5]  337 	sta	0x118,x
   0208 68            [ 4]  338 	pla
                            339 ;	../_ulonglong2fs.c: 93: fl.l = PACK(0,(unsigned long)exp, a);
   0209 E8            [ 2]  340 	inx
   020A 8A            [ 2]  341 	txa
   020B 9D 0C 01      [ 5]  342 	sta	0x10c,x
   020E A9 01         [ 2]  343 	lda	#0x01
   0210 9D 0D 01      [ 5]  344 	sta	0x10d,x
   0213 98            [ 2]  345 	tya
   0214 9D 08 01      [ 5]  346 	sta	0x108,x
   0217 A9 00         [ 2]  347 	lda	#0x00
   0219 9D 09 01      [ 5]  348 	sta	0x109,x
   021C 9D 0A 01      [ 5]  349 	sta	0x10a,x
   021F 9D 0B 01      [ 5]  350 	sta	0x10b,x
   0222 BD 08 01      [ 5]  351 	lda	0x108,x
   0225 85*00         [ 3]  352 	sta	*(__TEMP+0)
   0227 BD 09 01      [ 5]  353 	lda	0x109,x
   022A AA            [ 2]  354 	tax
   022B A5*00         [ 3]  355 	lda	*(__TEMP+0)
   022D 48            [ 3]  356 	pha
   022E 8A            [ 2]  357 	txa
   022F 4A            [ 2]  358 	lsr	a
   0230 AA            [ 2]  359 	tax
   0231 68            [ 4]  360 	pla
   0232 6A            [ 2]  361 	ror	a
   0233 AA            [ 2]  362 	tax
   0234 A9 00         [ 2]  363 	lda	#0x00
   0236 6A            [ 2]  364 	ror	a
   0237 48            [ 3]  365 	pha
   0238 8A            [ 2]  366 	txa
   0239 BA            [ 2]  367 	tsx
   023A 9D 0D 01      [ 5]  368 	sta	0x10d,x
   023D 68            [ 4]  369 	pla
   023E 9D 0C 01      [ 5]  370 	sta	0x10c,x
   0241 A9 00         [ 2]  371 	lda	#0x00
   0243 9D 0A 01      [ 5]  372 	sta	0x10a,x
   0246 9D 0B 01      [ 5]  373 	sta	0x10b,x
   0249 BD 12 01      [ 5]  374 	lda	0x112,x
   024C 9D 06 01      [ 5]  375 	sta	0x106,x
   024F BD 13 01      [ 5]  376 	lda	0x113,x
   0252 9D 07 01      [ 5]  377 	sta	0x107,x
   0255 BD 14 01      [ 5]  378 	lda	0x114,x
   0258 9D 08 01      [ 5]  379 	sta	0x108,x
   025B BD 15 01      [ 5]  380 	lda	0x115,x
   025E 9D 09 01      [ 5]  381 	sta	0x109,x
   0261 BD 0A 01      [ 5]  382 	lda	0x10a,x
   0264 1D 06 01      [ 5]  383 	ora	0x106,x
   0267 9D 06 01      [ 5]  384 	sta	0x106,x
   026A BD 0B 01      [ 5]  385 	lda	0x10b,x
   026D 1D 07 01      [ 5]  386 	ora	0x107,x
   0270 9D 07 01      [ 5]  387 	sta	0x107,x
   0273 BD 0C 01      [ 5]  388 	lda	0x10c,x
   0276 1D 08 01      [ 5]  389 	ora	0x108,x
   0279 9D 08 01      [ 5]  390 	sta	0x108,x
   027C BD 0D 01      [ 5]  391 	lda	0x10d,x
   027F 1D 09 01      [ 5]  392 	ora	0x109,x
   0282 9D 09 01      [ 5]  393 	sta	0x109,x
   0285 BD 0E 01      [ 5]  394 	lda	0x10e,x
   0288 85*00         [ 3]  395 	sta	*(__DPTR+0)
   028A BD 0F 01      [ 5]  396 	lda	0x10f,x
   028D 85*01         [ 3]  397 	sta	*(__DPTR+1)
   028F BD 06 01      [ 5]  398 	lda	0x106,x
   0292 A0 00         [ 2]  399 	ldy	#0x00
   0294 91*00         [ 6]  400 	sta	[__DPTR],y
   0296 BD 07 01      [ 5]  401 	lda	0x107,x
   0299 C8            [ 2]  402 	iny
   029A 91*00         [ 6]  403 	sta	[__DPTR],y
   029C BD 08 01      [ 5]  404 	lda	0x108,x
   029F C8            [ 2]  405 	iny
   02A0 91*00         [ 6]  406 	sta	[__DPTR],y
   02A2 BD 09 01      [ 5]  407 	lda	0x109,x
   02A5 C8            [ 2]  408 	iny
   02A6 91*00         [ 6]  409 	sta	[__DPTR],y
                            410 ;	../_ulonglong2fs.c: 95: return (fl.f);
   02A8 E8            [ 2]  411 	inx
   02A9 E8            [ 2]  412 	inx
   02AA 8A            [ 2]  413 	txa
   02AB A2 01         [ 2]  414 	ldx	#0x01
   02AD 85*00         [ 3]  415 	sta	*(__DPTR+0)
   02AF 86*01         [ 3]  416 	stx	*(__DPTR+1)
   02B1 A0 00         [ 2]  417 	ldy	#0x00
   02B3 B1*00         [ 6]  418 	lda	[__DPTR],y
   02B5 BA            [ 2]  419 	tsx
   02B6 9D 05 01      [ 5]  420 	sta	0x105,x
   02B9 C8            [ 2]  421 	iny
   02BA B1*00         [ 6]  422 	lda	[__DPTR],y
   02BC 9D 06 01      [ 5]  423 	sta	0x106,x
   02BF C8            [ 2]  424 	iny
   02C0 B1*00         [ 6]  425 	lda	[__DPTR],y
   02C2 9D 07 01      [ 5]  426 	sta	0x107,x
   02C5 C8            [ 2]  427 	iny
   02C6 B1*00         [ 6]  428 	lda	[__DPTR],y
   02C8 9D 08 01      [ 5]  429 	sta	0x108, x
   02CB 85*00         [ 3]  430 	sta	*___SDCC_m6502_ret3
   02CD BD 07 01      [ 5]  431 	lda	0x107,x
   02D0 85*00         [ 3]  432 	sta	*___SDCC_m6502_ret2
   02D2 BD 06 01      [ 5]  433 	lda	0x106,x
   02D5 AA            [ 2]  434 	tax
   02D6 86*00         [ 3]  435 	stx	*(__TEMP+0)
   02D8 BA            [ 2]  436 	tsx
   02D9 BD 05 01      [ 5]  437 	lda	0x105,x
   02DC 08            [ 3]  438 	php
   02DD A6*00         [ 3]  439 	ldx	*(__TEMP+0)
   02DF 28            [ 4]  440 	plp
   02E0                     441 00113$:
                            442 ;	../_ulonglong2fs.c: 96: }
   02E0 85*00         [ 3]  443 	sta	*(__TEMP+0)
   02E2 86*01         [ 3]  444 	stx	*(__TEMP+1)
   02E4 BA            [ 2]  445 	tsx
   02E5 8A            [ 2]  446 	txa
   02E6 18            [ 2]  447 	clc
   02E7 69 0E         [ 2]  448 	adc	#0x0e
   02E9 AA            [ 2]  449 	tax
   02EA 9A            [ 2]  450 	txs
   02EB A6*01         [ 3]  451 	ldx	*(__TEMP+1)
   02ED A5*00         [ 3]  452 	lda	*(__TEMP+0)
   02EF 60            [ 6]  453 	rts
                            454 	.area CODE
                            455 	.area RODATA
                            456 	.area XINIT
                            457 	.area CABS    (ABS)
