;--------------------------------------------------------
; File Created by SDCC : free open source ISO C Compiler 
; Version 4.2.14 #0 (Linux)
;--------------------------------------------------------
	.module atanf
	.optsdcc -mmos6502
	
;--------------------------------------------------------
; Public variables in this module
;--------------------------------------------------------
	.globl _fabsf
	.globl _atanf
;--------------------------------------------------------
; ZP ram data
;--------------------------------------------------------
	.area ZP      (PAG)
;--------------------------------------------------------
; overlayable items in ram
;--------------------------------------------------------
;--------------------------------------------------------
; uninitialized external ram data
;--------------------------------------------------------
	.area BSS
;--------------------------------------------------------
; absolute external ram data
;--------------------------------------------------------
	.area DABS    (ABS)
;--------------------------------------------------------
; initialized external ram data
;--------------------------------------------------------
	.area DATA
;--------------------------------------------------------
; global & static initialisations
;--------------------------------------------------------
	.area _CODE
	.area GSINIT
	.area GSFINAL
	.area GSINIT
;--------------------------------------------------------
; Home
;--------------------------------------------------------
	.area _CODE
	.area _CODE
;--------------------------------------------------------
; code
;--------------------------------------------------------
	.area CODE
;------------------------------------------------------------
;Allocation info for local variables in function 'atanf'
;------------------------------------------------------------
;x                         Allocated to stack - sp +21
;f                         Allocated to stack - sp +5
;r                         Allocated to stack - sp +1
;g                         Allocated to stack - sp +7
;n                         Allocated to stack - sp +17
;sloc0                     Allocated to stack - sp +13
;sloc1                     Allocated to stack - sp +9
;------------------------------------------------------------
;	../atanf.c: 55: float atanf(float x) _FLOAT_FUNC_REENTRANT
;	-----------------------------------------
;	 function atanf
;	-----------------------------------------
;	Register assignment is optimal.
;	Stack space usage: 18 bytes.
_atanf:
	sta	*(__TEMP+0)
	stx	*(__TEMP+1)
	tsx
	txa
	clc
	adc	#0xee
	tax
	txs
;	../atanf.c: 58: int n=0;
	tsx
	lda	#0x00
	sta	0x111,x
	sta	0x112,x
;	../atanf.c: 61: f=fabsf(x);
	lda	0x118,x
	pha
	lda	0x117,x
	pha
	lda	0x116,x
	pha
	lda	0x115,x
	pha
	jsr	_fabsf
	stx	*(__TEMP+0)
	tsx
	sta	0x111,x
	ldx	*(__TEMP+0)
	txa
	tsx
	sta	0x112,x
	ldx	*(__TEMP+0)
	lda	*___SDCC_m6502_ret2
	tsx
	sta	0x113,x
	lda	*___SDCC_m6502_ret3
	sta	0x114,x
	sta	*(__TEMP+0)
	pla
	pla
	pla
	pla
	lda	0x111, x
	sta	0x109,x
	lda	0x112,x
	sta	0x10a,x
	lda	0x113,x
	sta	0x10b,x
	lda	0x114,x
	sta	0x10c,x
;	../atanf.c: 62: if(f>1.0)
	lda	0x114,x
	pha
	lda	0x113,x
	pha
	lda	0x112,x
	pha
	lda	0x111,x
	pha
	lda	#0x3f
	pha
	lda	#0x80
	pha
	lda	#0x00
	pha
	pha
	jsr	___fslt
	sta	*(__TEMP+0)
	stx	*(__TEMP+1)
	tsx
	txa
	clc
	adc	#0x08
	tax
	txs
	ldx	*(__TEMP+1)
	lda	*(__TEMP+0)
	beq	00102$
;	../atanf.c: 64: f=1.0/f;
	tsx
	lda	0x110,x
	pha
	lda	0x10f,x
	pha
	lda	0x10e,x
	pha
	lda	0x10d,x
	pha
	lda	#0x3f
	pha
	lda	#0x80
	pha
	lda	#0x00
	pha
	pha
	jsr	___fsdiv
	stx	*(__TEMP+0)
	tsx
	sta	0x10d,x
	ldx	*(__TEMP+0)
	txa
	tsx
	sta	0x10e,x
	ldx	*(__TEMP+0)
	lda	*___SDCC_m6502_ret2
	tsx
	sta	0x10f,x
	lda	*___SDCC_m6502_ret3
	sta	0x110,x
	sta	*(__TEMP+0)
	stx	*(__TEMP+1)
	tsx
	txa
	clc
	adc	#0x08
	tax
	txs
;	../atanf.c: 65: n=2;
	tsx
	lda	#0x02
	sta	0x111,x
	lda	#0x00
	sta	0x112,x
00102$:
;	../atanf.c: 67: if(f>K1)
	tsx
	lda	0x108,x
	pha
	lda	0x107,x
	pha
	lda	0x106,x
	pha
	lda	0x105,x
	pha
	lda	#0x3e
	pha
	lda	#0x89
	pha
	lda	#0x30
	pha
	lda	#0xa3
	pha
	jsr	___fslt
	sta	*(__TEMP+0)
	stx	*(__TEMP+1)
	tsx
	txa
	clc
	adc	#0x08
	tax
	txs
	ldx	*(__TEMP+1)
	lda	*(__TEMP+0)
	bne	00135$
	jmp	00104$
00135$:
;	../atanf.c: 69: f=((K2*f-1.0)+f)/(K3+f);
	tsx
	lda	0x108,x
	pha
	lda	0x107,x
	pha
	lda	0x106,x
	pha
	lda	0x105,x
	pha
	lda	#0x3f
	pha
	lda	#0x3b
	pha
	lda	#0x67
	pha
	lda	#0xaf
	pha
	jsr	___fsmul
	stx	*(__TEMP+0)
	tsx
	sta	0x115,x
	ldx	*(__TEMP+0)
	txa
	tsx
	sta	0x116,x
	ldx	*(__TEMP+0)
	lda	*___SDCC_m6502_ret2
	tsx
	sta	0x117,x
	lda	*___SDCC_m6502_ret3
	sta	0x118,x
	sta	*(__TEMP+0)
	stx	*(__TEMP+1)
	tsx
	txa
	clc
	adc	#0x08
	tax
	txs
	ldx	*(__TEMP+1)
	lda	#0x3f
	pha
	lda	#0x80
	pha
	lda	#0x00
	pha
	pha
	tsx
	lda	0x114,x
	pha
	lda	0x113,x
	pha
	lda	0x112,x
	pha
	lda	0x111,x
	pha
	jsr	___fssub
	stx	*(__TEMP+0)
	tsx
	sta	0x115,x
	ldx	*(__TEMP+0)
	txa
	tsx
	sta	0x116,x
	ldx	*(__TEMP+0)
	lda	*___SDCC_m6502_ret2
	tsx
	sta	0x117,x
	lda	*___SDCC_m6502_ret3
	sta	0x118,x
	sta	*(__TEMP+0)
	stx	*(__TEMP+1)
	tsx
	txa
	clc
	adc	#0x08
	tax
	txs
	ldx	*(__TEMP+1)
	lda	*(__TEMP+0)
	tsx
	lda	0x108,x
	pha
	lda	0x107,x
	pha
	lda	0x106,x
	pha
	lda	0x105,x
	pha
	lda	0x110,x
	pha
	lda	0x10f,x
	pha
	lda	0x10e,x
	pha
	lda	0x10d,x
	pha
	jsr	___fsadd
	stx	*(__TEMP+0)
	tsx
	sta	0x115,x
	ldx	*(__TEMP+0)
	txa
	tsx
	sta	0x116,x
	ldx	*(__TEMP+0)
	lda	*___SDCC_m6502_ret2
	tsx
	sta	0x117,x
	lda	*___SDCC_m6502_ret3
	sta	0x118,x
	sta	*(__TEMP+0)
	stx	*(__TEMP+1)
	tsx
	txa
	clc
	adc	#0x08
	tax
	txs
	ldx	*(__TEMP+1)
	lda	#0x3f
	pha
	lda	#0xdd
	pha
	lda	#0xb3
	pha
	lda	#0xd7
	pha
	tsx
	lda	0x10c,x
	pha
	lda	0x10b,x
	pha
	lda	0x10a,x
	pha
	lda	0x109,x
	pha
	jsr	___fsadd
	stx	*(__TEMP+0)
	tsx
	sta	0x111,x
	ldx	*(__TEMP+0)
	txa
	tsx
	sta	0x112,x
	ldx	*(__TEMP+0)
	lda	*___SDCC_m6502_ret2
	tsx
	sta	0x113,x
	lda	*___SDCC_m6502_ret3
	sta	0x114,x
	sta	*(__TEMP+0)
	stx	*(__TEMP+1)
	tsx
	txa
	clc
	adc	#0x08
	tax
	txs
	ldx	*(__TEMP+1)
	lda	*(__TEMP+0)
	tsx
	lda	0x10c,x
	pha
	lda	0x10b,x
	pha
	lda	0x10a,x
	pha
	lda	0x109,x
	pha
	lda	0x110,x
	pha
	lda	0x10f,x
	pha
	lda	0x10e,x
	pha
	lda	0x10d,x
	pha
	jsr	___fsdiv
	stx	*(__TEMP+0)
	tsx
	sta	0x10d,x
	ldx	*(__TEMP+0)
	txa
	tsx
	sta	0x10e,x
	ldx	*(__TEMP+0)
	lda	*___SDCC_m6502_ret2
	tsx
	sta	0x10f,x
	lda	*___SDCC_m6502_ret3
	sta	0x110,x
	sta	*(__TEMP+0)
	stx	*(__TEMP+1)
	tsx
	txa
	clc
	adc	#0x08
	tax
	txs
	ldx	*(__TEMP+1)
	lda	*(__TEMP+0)
;	../atanf.c: 73: n++;
	tsx
	lda	0x111,x
	clc
	adc	#0x01
	sta	0x111,x
	lda	0x112,x
	adc	#0x00
	sta	0x112,x
00104$:
;	../atanf.c: 75: if(fabsf(f)<EPS) r=f;
	tsx
	lda	0x108,x
	pha
	lda	0x107,x
	pha
	lda	0x106,x
	pha
	lda	0x105,x
	pha
	jsr	_fabsf
	stx	*(__TEMP+0)
	tsx
	sta	0x10d,x
	ldx	*(__TEMP+0)
	txa
	tsx
	sta	0x10e,x
	ldx	*(__TEMP+0)
	lda	*___SDCC_m6502_ret2
	tsx
	sta	0x10f,x
	lda	*___SDCC_m6502_ret3
	sta	0x110,x
	sta	*(__TEMP+0)
	pla
	pla
	pla
	pla
	lda	#0x39
	pha
	lda	#0x80
	pha
	lda	#0x00
	pha
	pha
	lda	0x110,x
	pha
	lda	0x10f,x
	pha
	lda	0x10e,x
	pha
	lda	0x10d,x
	pha
	jsr	___fslt
	sta	*(__TEMP+0)
	stx	*(__TEMP+1)
	tsx
	txa
	clc
	adc	#0x08
	tax
	txs
	ldx	*(__TEMP+1)
	lda	*(__TEMP+0)
	beq	00106$
	tsx
	lda	0x105,x
	sta	0x101,x
	lda	0x106,x
	sta	0x102,x
	lda	0x107,x
	sta	0x103,x
	lda	0x108,x
	sta	0x104,x
	jmp	00107$
00106$:
;	../atanf.c: 78: g=f*f;
	tsx
	lda	0x108,x
	pha
	lda	0x107,x
	pha
	lda	0x106,x
	pha
	lda	0x105,x
	pha
	lda	0x108,x
	pha
	lda	0x107,x
	pha
	lda	0x106,x
	pha
	lda	0x105,x
	pha
;	../atanf.c: 79: r=f+P(g,f)/Q(g);
	jsr	___fsmul
	stx	*(__TEMP+0)
	tsx
	sta	0x111,x
	ldx	*(__TEMP+0)
	txa
	tsx
	sta	0x112,x
	ldx	*(__TEMP+0)
	lda	*___SDCC_m6502_ret2
	tsx
	sta	0x113,x
	lda	*___SDCC_m6502_ret3
	sta	0x114,x
	sta	*(__TEMP+0)
	stx	*(__TEMP+1)
	tsx
	txa
	clc
	adc	#0x08
	tax
	txs
	ldx	*(__TEMP+1)
	lda	*(__TEMP+0)
	tsx
	lda	0x10c,x
	pha
	lda	0x10b,x
	pha
	lda	0x10a,x
	pha
	lda	0x109,x
	pha
	lda	#0xbd
	pha
	lda	#0x50
	pha
	lda	#0x86
	pha
	lda	#0x91
	pha
	jsr	___fsmul
	stx	*(__TEMP+0)
	tsx
	sta	0x115,x
	ldx	*(__TEMP+0)
	txa
	tsx
	sta	0x116,x
	ldx	*(__TEMP+0)
	lda	*___SDCC_m6502_ret2
	tsx
	sta	0x117,x
	lda	*___SDCC_m6502_ret3
	sta	0x118,x
	sta	*(__TEMP+0)
	stx	*(__TEMP+1)
	tsx
	txa
	clc
	adc	#0x08
	tax
	txs
	ldx	*(__TEMP+1)
	lda	#0xbe
	pha
	lda	#0xf1
	pha
	lda	#0x10
	pha
	lda	#0xf6
	pha
	tsx
	lda	0x114,x
	pha
	lda	0x113,x
	pha
	lda	0x112,x
	pha
	lda	0x111,x
	pha
	jsr	___fsadd
	stx	*(__TEMP+0)
	tsx
	sta	0x115,x
	ldx	*(__TEMP+0)
	txa
	tsx
	sta	0x116,x
	ldx	*(__TEMP+0)
	lda	*___SDCC_m6502_ret2
	tsx
	sta	0x117,x
	lda	*___SDCC_m6502_ret3
	sta	0x118,x
	sta	*(__TEMP+0)
	stx	*(__TEMP+1)
	tsx
	txa
	clc
	adc	#0x08
	tax
	txs
	ldx	*(__TEMP+1)
	lda	*(__TEMP+0)
	tsx
	lda	0x10c,x
	pha
	lda	0x10b,x
	pha
	lda	0x10a,x
	pha
	lda	0x109,x
	pha
	lda	0x110,x
	pha
	lda	0x10f,x
	pha
	lda	0x10e,x
	pha
	lda	0x10d,x
	pha
	jsr	___fsmul
	stx	*(__TEMP+0)
	tsx
	sta	0x115,x
	ldx	*(__TEMP+0)
	txa
	tsx
	sta	0x116,x
	ldx	*(__TEMP+0)
	lda	*___SDCC_m6502_ret2
	tsx
	sta	0x117,x
	lda	*___SDCC_m6502_ret3
	sta	0x118,x
	sta	*(__TEMP+0)
	stx	*(__TEMP+1)
	tsx
	txa
	clc
	adc	#0x08
	tax
	txs
	ldx	*(__TEMP+1)
	lda	*(__TEMP+0)
	tsx
	lda	0x108,x
	pha
	lda	0x107,x
	pha
	lda	0x106,x
	pha
	lda	0x105,x
	pha
	lda	0x110,x
	pha
	lda	0x10f,x
	pha
	lda	0x10e,x
	pha
	lda	0x10d,x
	pha
	jsr	___fsmul
	stx	*(__TEMP+0)
	tsx
	sta	0x115,x
	ldx	*(__TEMP+0)
	txa
	tsx
	sta	0x116,x
	ldx	*(__TEMP+0)
	lda	*___SDCC_m6502_ret2
	tsx
	sta	0x117,x
	lda	*___SDCC_m6502_ret3
	sta	0x118,x
	sta	*(__TEMP+0)
	stx	*(__TEMP+1)
	tsx
	txa
	clc
	adc	#0x08
	tax
	txs
	ldx	*(__TEMP+1)
	lda	#0x3f
	pha
	lda	#0xb4
	pha
	lda	#0xcc
	pha
	lda	#0xd3
	pha
	tsx
	lda	0x110,x
	pha
	lda	0x10f,x
	pha
	lda	0x10e,x
	pha
	lda	0x10d,x
	pha
	jsr	___fsadd
	stx	*(__TEMP+0)
	tsx
	sta	0x111,x
	ldx	*(__TEMP+0)
	txa
	tsx
	sta	0x112,x
	ldx	*(__TEMP+0)
	lda	*___SDCC_m6502_ret2
	tsx
	sta	0x113,x
	lda	*___SDCC_m6502_ret3
	sta	0x114,x
	sta	*(__TEMP+0)
	stx	*(__TEMP+1)
	tsx
	txa
	clc
	adc	#0x08
	tax
	txs
	ldx	*(__TEMP+1)
	lda	*(__TEMP+0)
	tsx
	lda	0x10c,x
	pha
	lda	0x10b,x
	pha
	lda	0x10a,x
	pha
	lda	0x109,x
	pha
	lda	0x110,x
	pha
	lda	0x10f,x
	pha
	lda	0x10e,x
	pha
	lda	0x10d,x
	pha
	jsr	___fsdiv
	stx	*(__TEMP+0)
	tsx
	sta	0x111,x
	ldx	*(__TEMP+0)
	txa
	tsx
	sta	0x112,x
	ldx	*(__TEMP+0)
	lda	*___SDCC_m6502_ret2
	tsx
	sta	0x113,x
	lda	*___SDCC_m6502_ret3
	sta	0x114,x
	sta	*(__TEMP+0)
	stx	*(__TEMP+1)
	tsx
	txa
	clc
	adc	#0x08
	tax
	txs
	ldx	*(__TEMP+1)
	lda	*(__TEMP+0)
	tsx
	lda	0x10c,x
	pha
	lda	0x10b,x
	pha
	lda	0x10a,x
	pha
	lda	0x109,x
	pha
	lda	0x108,x
	pha
	lda	0x107,x
	pha
	lda	0x106,x
	pha
	lda	0x105,x
	pha
	jsr	___fsadd
	stx	*(__TEMP+0)
	tsx
	sta	0x109,x
	ldx	*(__TEMP+0)
	txa
	tsx
	sta	0x10a,x
	ldx	*(__TEMP+0)
	lda	*___SDCC_m6502_ret2
	tsx
	sta	0x10b,x
	lda	*___SDCC_m6502_ret3
	sta	0x10c,x
	sta	*(__TEMP+0)
	stx	*(__TEMP+1)
	tsx
	txa
	clc
	adc	#0x08
	tax
	txs
	ldx	*(__TEMP+1)
	lda	*(__TEMP+0)
00107$:
;	../atanf.c: 81: if(n>1) r=-r;
	tsx
	lda	#0x01
	sec
	sbc	0x111,x
	lda	#0x00
	sbc	0x112,x
	bvc	00138$
	bpl	00137$
	bmi	00109$
00138$:
	bpl	00109$
00137$:
	lda	0x104,x
	eor	#0x80
	sta	0x104,x
00109$:
;	../atanf.c: 82: r+=a[n];
	tsx
	lda	0x111,x
	sta	*(__TEMP+0)
	lda	0x112,x
	tax
	lda	*(__TEMP+0)
	stx	*(__TEMP+0)
	asl	a
	rol	*(__TEMP+0)
	asl	a
	rol	*(__TEMP+0)
	ldx	*(__TEMP+0)
	pha
	txa
	tsx
	sta	0x10b,x
	pla
	sta	0x10a,x
	clc
	lda	0x10a,x
	adc	#<(_atanf_a_65536_26+0)
	sta	*(__DPTR+0)
	lda	0x10b,x
	adc	#>(_atanf_a_65536_26+0)
	sta	*(__DPTR+1)
	ldy	#0x00
	lda	[__DPTR],y
	sta	0x10a,x
	iny
	lda	[__DPTR],y
	sta	0x10b,x
	iny
	lda	[__DPTR],y
	sta	0x10c,x
	iny
	lda	[__DPTR],y
	sta	0x10d, x
	pha
	lda	0x10c,x
	pha
	lda	0x10b,x
	pha
	lda	0x10a,x
	pha
	lda	0x105,x
	pha
	lda	0x104,x
	pha
	lda	0x103,x
	pha
	lda	0x102,x
	pha
	jsr	___fsadd
	stx	*(__TEMP+0)
	tsx
	sta	0x109,x
	ldx	*(__TEMP+0)
	txa
	tsx
	sta	0x10a,x
	ldx	*(__TEMP+0)
	lda	*___SDCC_m6502_ret2
	tsx
	sta	0x10b,x
	lda	*___SDCC_m6502_ret3
	sta	0x10c,x
	sta	*(__TEMP+0)
	stx	*(__TEMP+1)
	tsx
	txa
	clc
	adc	#0x08
	tax
	txs
	ldx	*(__TEMP+1)
;	../atanf.c: 83: if(x<0.0) r=-r;
	lda	#0x00
	pha
	pha
	pha
	pha
	tsx
	lda	0x11c,x
	pha
	lda	0x11b,x
	pha
	lda	0x11a,x
	pha
	lda	0x119,x
	pha
	jsr	___fslt
	sta	*(__TEMP+0)
	stx	*(__TEMP+1)
	tsx
	txa
	clc
	adc	#0x08
	tax
	txs
	ldx	*(__TEMP+1)
	lda	*(__TEMP+0)
	beq	00111$
	tsx
	lda	0x104,x
	eor	#0x80
	sta	0x104,x
00111$:
;	../atanf.c: 84: return r;
	tsx
	lda	0x104,x
	sta	*___SDCC_m6502_ret3
	lda	0x103,x
	sta	*___SDCC_m6502_ret2
	lda	0x102,x
	tax
	stx	*(__TEMP+0)
	tsx
	lda	0x101,x
	php
	ldx	*(__TEMP+0)
	plp
;	../atanf.c: 85: }
	sta	*(__TEMP+0)
	stx	*(__TEMP+1)
	tsx
	txa
	clc
	adc	#0x12
	tax
	txs
	ldx	*(__TEMP+1)
	lda	*(__TEMP+0)
	rts
	.area CODE
	.area RODATA
_atanf_a_65536_26:
	.byte #0x00, #0x00, #0x00, #0x00	;  0.000000e+00
	.byte #0x92, #0x0a, #0x06, #0x3f	;  5.235988e-01
	.byte #0xdb, #0x0f, #0xc9, #0x3f	;  1.570796e+00
	.byte #0x92, #0x0a, #0x86, #0x3f	;  1.047198e+00
	.area XINIT
	.area CABS    (ABS)
