                              1 ;--------------------------------------------------------
                              2 ; File Created by SDCC : free open source ISO C Compiler 
                              3 ; Version 4.2.14 #0 (Linux)
                              4 ;--------------------------------------------------------
                              5 	.module atan2f
                              6 	.optsdcc -mmos6502
                              7 	
                              8 ;--------------------------------------------------------
                              9 ; Public variables in this module
                             10 ;--------------------------------------------------------
                             11 	.globl _fabsf
                             12 	.globl _atanf
                             13 	.globl _atan2f
                             14 ;--------------------------------------------------------
                             15 ; ZP ram data
                             16 ;--------------------------------------------------------
                             17 	.area ZP      (PAG)
                             18 ;--------------------------------------------------------
                             19 ; overlayable items in ram
                             20 ;--------------------------------------------------------
                             21 ;--------------------------------------------------------
                             22 ; uninitialized external ram data
                             23 ;--------------------------------------------------------
                             24 	.area BSS
                             25 ;--------------------------------------------------------
                             26 ; absolute external ram data
                             27 ;--------------------------------------------------------
                             28 	.area DABS    (ABS)
                             29 ;--------------------------------------------------------
                             30 ; initialized external ram data
                             31 ;--------------------------------------------------------
                             32 	.area DATA
                             33 ;--------------------------------------------------------
                             34 ; global & static initialisations
                             35 ;--------------------------------------------------------
                             36 	.area _CODE
                             37 	.area GSINIT
                             38 	.area GSFINAL
                             39 	.area GSINIT
                             40 ;--------------------------------------------------------
                             41 ; Home
                             42 ;--------------------------------------------------------
                             43 	.area _CODE
                             44 	.area _CODE
                             45 ;--------------------------------------------------------
                             46 ; code
                             47 ;--------------------------------------------------------
                             48 	.area CODE
                             49 ;------------------------------------------------------------
                             50 ;Allocation info for local variables in function 'atan2f'
                             51 ;------------------------------------------------------------
                             52 ;x                         Allocated to stack - sp +15
                             53 ;y                         Allocated to stack - sp +19
                             54 ;r                         Allocated to stack - sp +1
                             55 ;sloc0                     Allocated to stack - sp +9
                             56 ;sloc1                     Allocated to stack - sp +5
                             57 ;------------------------------------------------------------
                             58 ;	../atan2f.c: 34: float atan2f(float x, float y)
                             59 ;	-----------------------------------------
                             60 ;	 function atan2f
                             61 ;	-----------------------------------------
                             62 ;	Register assignment is optimal.
                             63 ;	Stack space usage: 12 bytes.
   0000                      64 _atan2f:
   0000 85*00         [ 3]   65 	sta	*(__TEMP+0)
   0002 86*01         [ 3]   66 	stx	*(__TEMP+1)
   0004 BA            [ 2]   67 	tsx
   0005 8A            [ 2]   68 	txa
   0006 18            [ 2]   69 	clc
   0007 69 F4         [ 2]   70 	adc	#0xf4
   0009 AA            [ 2]   71 	tax
   000A 9A            [ 2]   72 	txs
   000B A6*01         [ 3]   73 	ldx	*(__TEMP+1)
   000D A5*00         [ 3]   74 	lda	*(__TEMP+0)
                             75 ;	../atan2f.c: 38: if ((x==0.0) && (y==0.0))
   000F BA            [ 2]   76 	tsx
   0010 BD 12 01      [ 5]   77 	lda	0x112,x
   0013 29 7F         [ 2]   78 	and	#0x7F
   0015 1D 11 01      [ 5]   79 	ora	0x111,x
   0018 1D 10 01      [ 5]   80 	ora	0x110,x
   001B 1D 0F 01      [ 5]   81 	ora	0x10f,x
   001E D0 23         [ 4]   82 	bne	00102$
   0020 BD 16 01      [ 5]   83 	lda	0x116,x
   0023 29 7F         [ 2]   84 	and	#0x7F
   0025 1D 15 01      [ 5]   85 	ora	0x115,x
   0028 1D 14 01      [ 5]   86 	ora	0x114,x
   002B 1D 13 01      [ 5]   87 	ora	0x113,x
   002E D0 13         [ 4]   88 	bne	00102$
                             89 ;	../atan2f.c: 40: errno=EDOM;
   0030 A2 21         [ 2]   90 	ldx	#0x21
   0032 8Er00r00      [ 4]   91 	stx	_errno
   0035 A2 00         [ 2]   92 	ldx	#0x00
   0037 8Er01r00      [ 4]   93 	stx	(_errno + 1)
                             94 ;	../atan2f.c: 41: return 0.0;
   003A 8A            [ 2]   95 	txa
   003B AA            [ 2]   96 	tax
   003C 85*00         [ 3]   97 	sta	*___SDCC_m6502_ret2
   003E 85*00         [ 3]   98 	sta	*___SDCC_m6502_ret3
   0040 4Cr95r03      [ 3]   99 	jmp	00109$
   0043                     100 00102$:
                            101 ;	../atan2f.c: 44: if(fabsf(y)>=fabsf(x))
   0043 BA            [ 2]  102 	tsx
   0044 BD 16 01      [ 5]  103 	lda	0x116,x
   0047 48            [ 3]  104 	pha
   0048 BD 15 01      [ 5]  105 	lda	0x115,x
   004B 48            [ 3]  106 	pha
   004C BD 14 01      [ 5]  107 	lda	0x114,x
   004F 48            [ 3]  108 	pha
   0050 BD 13 01      [ 5]  109 	lda	0x113,x
   0053 48            [ 3]  110 	pha
   0054 20r00r00      [ 6]  111 	jsr	_fabsf
   0057 86*00         [ 3]  112 	stx	*(__TEMP+0)
   0059 BA            [ 2]  113 	tsx
   005A 9D 0D 01      [ 5]  114 	sta	0x10d,x
   005D A6*00         [ 3]  115 	ldx	*(__TEMP+0)
   005F 8A            [ 2]  116 	txa
   0060 BA            [ 2]  117 	tsx
   0061 9D 0E 01      [ 5]  118 	sta	0x10e,x
   0064 A6*00         [ 3]  119 	ldx	*(__TEMP+0)
   0066 A5*00         [ 3]  120 	lda	*___SDCC_m6502_ret2
   0068 BA            [ 2]  121 	tsx
   0069 9D 0F 01      [ 5]  122 	sta	0x10f,x
   006C A5*00         [ 3]  123 	lda	*___SDCC_m6502_ret3
   006E 9D 10 01      [ 5]  124 	sta	0x110,x
   0071 85*00         [ 3]  125 	sta	*(__TEMP+0)
   0073 68            [ 4]  126 	pla
   0074 68            [ 4]  127 	pla
   0075 68            [ 4]  128 	pla
   0076 68            [ 4]  129 	pla
   0077 BD 16 01      [ 5]  130 	lda	0x116, x
   007A 48            [ 3]  131 	pha
   007B BD 15 01      [ 5]  132 	lda	0x115,x
   007E 48            [ 3]  133 	pha
   007F BD 14 01      [ 5]  134 	lda	0x114,x
   0082 48            [ 3]  135 	pha
   0083 BD 13 01      [ 5]  136 	lda	0x113,x
   0086 48            [ 3]  137 	pha
   0087 20r00r00      [ 6]  138 	jsr	_fabsf
   008A 86*00         [ 3]  139 	stx	*(__TEMP+0)
   008C BA            [ 2]  140 	tsx
   008D 9D 09 01      [ 5]  141 	sta	0x109,x
   0090 A6*00         [ 3]  142 	ldx	*(__TEMP+0)
   0092 8A            [ 2]  143 	txa
   0093 BA            [ 2]  144 	tsx
   0094 9D 0A 01      [ 5]  145 	sta	0x10a,x
   0097 A6*00         [ 3]  146 	ldx	*(__TEMP+0)
   0099 A5*00         [ 3]  147 	lda	*___SDCC_m6502_ret2
   009B BA            [ 2]  148 	tsx
   009C 9D 0B 01      [ 5]  149 	sta	0x10b,x
   009F A5*00         [ 3]  150 	lda	*___SDCC_m6502_ret3
   00A1 9D 0C 01      [ 5]  151 	sta	0x10c,x
   00A4 85*00         [ 3]  152 	sta	*(__TEMP+0)
   00A6 68            [ 4]  153 	pla
   00A7 68            [ 4]  154 	pla
   00A8 68            [ 4]  155 	pla
   00A9 68            [ 4]  156 	pla
   00AA BD 0C 01      [ 5]  157 	lda	0x10c, x
   00AD 48            [ 3]  158 	pha
   00AE BD 0B 01      [ 5]  159 	lda	0x10b,x
   00B1 48            [ 3]  160 	pha
   00B2 BD 0A 01      [ 5]  161 	lda	0x10a,x
   00B5 48            [ 3]  162 	pha
   00B6 BD 09 01      [ 5]  163 	lda	0x109,x
   00B9 48            [ 3]  164 	pha
   00BA BD 10 01      [ 5]  165 	lda	0x110,x
   00BD 48            [ 3]  166 	pha
   00BE BD 0F 01      [ 5]  167 	lda	0x10f,x
   00C1 48            [ 3]  168 	pha
   00C2 BD 0E 01      [ 5]  169 	lda	0x10e,x
   00C5 48            [ 3]  170 	pha
   00C6 BD 0D 01      [ 5]  171 	lda	0x10d,x
   00C9 48            [ 3]  172 	pha
   00CA 20r00r00      [ 6]  173 	jsr	___fslt
   00CD 85*00         [ 3]  174 	sta	*(__TEMP+0)
   00CF 86*01         [ 3]  175 	stx	*(__TEMP+1)
   00D1 BA            [ 2]  176 	tsx
   00D2 8A            [ 2]  177 	txa
   00D3 18            [ 2]  178 	clc
   00D4 69 08         [ 2]  179 	adc	#0x08
   00D6 AA            [ 2]  180 	tax
   00D7 9A            [ 2]  181 	txs
   00D8 A6*01         [ 3]  182 	ldx	*(__TEMP+1)
   00DA A5*00         [ 3]  183 	lda	*(__TEMP+0)
   00DC F0 03         [ 4]  184 	beq	00141$
   00DE 4Cr4Fr02      [ 3]  185 	jmp	00107$
   00E1                     186 00141$:
                            187 ;	../atan2f.c: 46: r=atanf(x/y);
   00E1 BA            [ 2]  188 	tsx
   00E2 BD 16 01      [ 5]  189 	lda	0x116,x
   00E5 48            [ 3]  190 	pha
   00E6 BD 15 01      [ 5]  191 	lda	0x115,x
   00E9 48            [ 3]  192 	pha
   00EA BD 14 01      [ 5]  193 	lda	0x114,x
   00ED 48            [ 3]  194 	pha
   00EE BD 13 01      [ 5]  195 	lda	0x113,x
   00F1 48            [ 3]  196 	pha
   00F2 BD 12 01      [ 5]  197 	lda	0x112,x
   00F5 48            [ 3]  198 	pha
   00F6 BD 11 01      [ 5]  199 	lda	0x111,x
   00F9 48            [ 3]  200 	pha
   00FA BD 10 01      [ 5]  201 	lda	0x110,x
   00FD 48            [ 3]  202 	pha
   00FE BD 0F 01      [ 5]  203 	lda	0x10f,x
   0101 48            [ 3]  204 	pha
   0102 20r00r00      [ 6]  205 	jsr	___fsdiv
   0105 86*00         [ 3]  206 	stx	*(__TEMP+0)
   0107 BA            [ 2]  207 	tsx
   0108 9D 0D 01      [ 5]  208 	sta	0x10d,x
   010B A6*00         [ 3]  209 	ldx	*(__TEMP+0)
   010D 8A            [ 2]  210 	txa
   010E BA            [ 2]  211 	tsx
   010F 9D 0E 01      [ 5]  212 	sta	0x10e,x
   0112 A6*00         [ 3]  213 	ldx	*(__TEMP+0)
   0114 A5*00         [ 3]  214 	lda	*___SDCC_m6502_ret2
   0116 BA            [ 2]  215 	tsx
   0117 9D 0F 01      [ 5]  216 	sta	0x10f,x
   011A A5*00         [ 3]  217 	lda	*___SDCC_m6502_ret3
   011C 9D 10 01      [ 5]  218 	sta	0x110,x
   011F 85*00         [ 3]  219 	sta	*(__TEMP+0)
   0121 86*01         [ 3]  220 	stx	*(__TEMP+1)
   0123 BA            [ 2]  221 	tsx
   0124 8A            [ 2]  222 	txa
   0125 18            [ 2]  223 	clc
   0126 69 08         [ 2]  224 	adc	#0x08
   0128 AA            [ 2]  225 	tax
   0129 9A            [ 2]  226 	txs
   012A A6*01         [ 3]  227 	ldx	*(__TEMP+1)
   012C A5*00         [ 3]  228 	lda	*(__TEMP+0)
   012E BA            [ 2]  229 	tsx
   012F BD 08 01      [ 5]  230 	lda	0x108,x
   0132 48            [ 3]  231 	pha
   0133 BD 07 01      [ 5]  232 	lda	0x107,x
   0136 48            [ 3]  233 	pha
   0137 BD 06 01      [ 5]  234 	lda	0x106,x
   013A 48            [ 3]  235 	pha
   013B BD 05 01      [ 5]  236 	lda	0x105,x
   013E 48            [ 3]  237 	pha
   013F 20r00r00      [ 6]  238 	jsr	_atanf
   0142 86*00         [ 3]  239 	stx	*(__TEMP+0)
   0144 BA            [ 2]  240 	tsx
   0145 9D 09 01      [ 5]  241 	sta	0x109,x
   0148 A6*00         [ 3]  242 	ldx	*(__TEMP+0)
   014A 8A            [ 2]  243 	txa
   014B BA            [ 2]  244 	tsx
   014C 9D 0A 01      [ 5]  245 	sta	0x10a,x
   014F A6*00         [ 3]  246 	ldx	*(__TEMP+0)
   0151 A5*00         [ 3]  247 	lda	*___SDCC_m6502_ret2
   0153 BA            [ 2]  248 	tsx
   0154 9D 0B 01      [ 5]  249 	sta	0x10b,x
   0157 A5*00         [ 3]  250 	lda	*___SDCC_m6502_ret3
   0159 9D 0C 01      [ 5]  251 	sta	0x10c,x
   015C 85*00         [ 3]  252 	sta	*(__TEMP+0)
   015E 68            [ 4]  253 	pla
   015F 68            [ 4]  254 	pla
   0160 68            [ 4]  255 	pla
   0161 68            [ 4]  256 	pla
   0162 BD 09 01      [ 5]  257 	lda	0x109, x
   0165 9D 05 01      [ 5]  258 	sta	0x105,x
   0168 BD 0A 01      [ 5]  259 	lda	0x10a,x
   016B 9D 06 01      [ 5]  260 	sta	0x106,x
   016E BD 0B 01      [ 5]  261 	lda	0x10b,x
   0171 9D 07 01      [ 5]  262 	sta	0x107,x
   0174 BD 0C 01      [ 5]  263 	lda	0x10c,x
   0177 9D 08 01      [ 5]  264 	sta	0x108,x
                            265 ;	../atan2f.c: 47: if(y<0.0) r+=(x>=0?PI:-PI);
   017A A9 00         [ 2]  266 	lda	#0x00
   017C 48            [ 3]  267 	pha
   017D 48            [ 3]  268 	pha
   017E 48            [ 3]  269 	pha
   017F 48            [ 3]  270 	pha
   0180 BD 1A 01      [ 5]  271 	lda	0x11a,x
   0183 48            [ 3]  272 	pha
   0184 BD 19 01      [ 5]  273 	lda	0x119,x
   0187 48            [ 3]  274 	pha
   0188 BD 18 01      [ 5]  275 	lda	0x118,x
   018B 48            [ 3]  276 	pha
   018C BD 17 01      [ 5]  277 	lda	0x117,x
   018F 48            [ 3]  278 	pha
   0190 20r00r00      [ 6]  279 	jsr	___fslt
   0193 85*00         [ 3]  280 	sta	*(__TEMP+0)
   0195 86*01         [ 3]  281 	stx	*(__TEMP+1)
   0197 BA            [ 2]  282 	tsx
   0198 8A            [ 2]  283 	txa
   0199 18            [ 2]  284 	clc
   019A 69 08         [ 2]  285 	adc	#0x08
   019C AA            [ 2]  286 	tax
   019D 9A            [ 2]  287 	txs
   019E A6*01         [ 3]  288 	ldx	*(__TEMP+1)
   01A0 A5*00         [ 3]  289 	lda	*(__TEMP+0)
   01A2 D0 03         [ 4]  290 	bne	00142$
   01A4 4Cr7Cr03      [ 3]  291 	jmp	00108$
   01A7                     292 00142$:
   01A7 A9 00         [ 2]  293 	lda	#0x00
   01A9 48            [ 3]  294 	pha
   01AA 48            [ 3]  295 	pha
   01AB 48            [ 3]  296 	pha
   01AC 48            [ 3]  297 	pha
   01AD BA            [ 2]  298 	tsx
   01AE BD 16 01      [ 5]  299 	lda	0x116,x
   01B1 48            [ 3]  300 	pha
   01B2 BD 15 01      [ 5]  301 	lda	0x115,x
   01B5 48            [ 3]  302 	pha
   01B6 BD 14 01      [ 5]  303 	lda	0x114,x
   01B9 48            [ 3]  304 	pha
   01BA BD 13 01      [ 5]  305 	lda	0x113,x
   01BD 48            [ 3]  306 	pha
   01BE 20r00r00      [ 6]  307 	jsr	___fslt
   01C1 85*00         [ 3]  308 	sta	*(__TEMP+0)
   01C3 86*01         [ 3]  309 	stx	*(__TEMP+1)
   01C5 BA            [ 2]  310 	tsx
   01C6 8A            [ 2]  311 	txa
   01C7 18            [ 2]  312 	clc
   01C8 69 08         [ 2]  313 	adc	#0x08
   01CA AA            [ 2]  314 	tax
   01CB 9A            [ 2]  315 	txs
   01CC A6*01         [ 3]  316 	ldx	*(__TEMP+1)
   01CE A5*00         [ 3]  317 	lda	*(__TEMP+0)
   01D0 D0 18         [ 4]  318 	bne	00111$
   01D2 BA            [ 2]  319 	tsx
   01D3 A9 DB         [ 2]  320 	lda	#0xdb
   01D5 9D 09 01      [ 5]  321 	sta	0x109,x
   01D8 A9 0F         [ 2]  322 	lda	#0x0f
   01DA 9D 0A 01      [ 5]  323 	sta	0x10a,x
   01DD A9 49         [ 2]  324 	lda	#0x49
   01DF 9D 0B 01      [ 5]  325 	sta	0x10b,x
   01E2 A9 40         [ 2]  326 	lda	#0x40
   01E4 9D 0C 01      [ 5]  327 	sta	0x10c,x
   01E7 4CrFFr01      [ 3]  328 	jmp	00112$
   01EA                     329 00111$:
   01EA BA            [ 2]  330 	tsx
   01EB A9 DB         [ 2]  331 	lda	#0xdb
   01ED 9D 09 01      [ 5]  332 	sta	0x109,x
   01F0 A9 0F         [ 2]  333 	lda	#0x0f
   01F2 9D 0A 01      [ 5]  334 	sta	0x10a,x
   01F5 A9 49         [ 2]  335 	lda	#0x49
   01F7 9D 0B 01      [ 5]  336 	sta	0x10b,x
   01FA A9 C0         [ 2]  337 	lda	#0xc0
   01FC 9D 0C 01      [ 5]  338 	sta	0x10c,x
   01FF                     339 00112$:
   01FF BA            [ 2]  340 	tsx
   0200 BD 0C 01      [ 5]  341 	lda	0x10c,x
   0203 48            [ 3]  342 	pha
   0204 BD 0B 01      [ 5]  343 	lda	0x10b,x
   0207 48            [ 3]  344 	pha
   0208 BD 0A 01      [ 5]  345 	lda	0x10a,x
   020B 48            [ 3]  346 	pha
   020C BD 09 01      [ 5]  347 	lda	0x109,x
   020F 48            [ 3]  348 	pha
   0210 BD 08 01      [ 5]  349 	lda	0x108,x
   0213 48            [ 3]  350 	pha
   0214 BD 07 01      [ 5]  351 	lda	0x107,x
   0217 48            [ 3]  352 	pha
   0218 BD 06 01      [ 5]  353 	lda	0x106,x
   021B 48            [ 3]  354 	pha
   021C BD 05 01      [ 5]  355 	lda	0x105,x
   021F 48            [ 3]  356 	pha
   0220 20r00r00      [ 6]  357 	jsr	___fsadd
   0223 86*00         [ 3]  358 	stx	*(__TEMP+0)
   0225 BA            [ 2]  359 	tsx
   0226 9D 09 01      [ 5]  360 	sta	0x109,x
   0229 A6*00         [ 3]  361 	ldx	*(__TEMP+0)
   022B 8A            [ 2]  362 	txa
   022C BA            [ 2]  363 	tsx
   022D 9D 0A 01      [ 5]  364 	sta	0x10a,x
   0230 A6*00         [ 3]  365 	ldx	*(__TEMP+0)
   0232 A5*00         [ 3]  366 	lda	*___SDCC_m6502_ret2
   0234 BA            [ 2]  367 	tsx
   0235 9D 0B 01      [ 5]  368 	sta	0x10b,x
   0238 A5*00         [ 3]  369 	lda	*___SDCC_m6502_ret3
   023A 9D 0C 01      [ 5]  370 	sta	0x10c,x
   023D 85*00         [ 3]  371 	sta	*(__TEMP+0)
   023F 86*01         [ 3]  372 	stx	*(__TEMP+1)
   0241 BA            [ 2]  373 	tsx
   0242 8A            [ 2]  374 	txa
   0243 18            [ 2]  375 	clc
   0244 69 08         [ 2]  376 	adc	#0x08
   0246 AA            [ 2]  377 	tax
   0247 9A            [ 2]  378 	txs
   0248 A6*01         [ 3]  379 	ldx	*(__TEMP+1)
   024A A5*00         [ 3]  380 	lda	*(__TEMP+0)
   024C 4Cr7Cr03      [ 3]  381 	jmp	00108$
   024F                     382 00107$:
                            383 ;	../atan2f.c: 51: r=-atanf(y/x);
   024F BA            [ 2]  384 	tsx
   0250 BD 12 01      [ 5]  385 	lda	0x112,x
   0253 48            [ 3]  386 	pha
   0254 BD 11 01      [ 5]  387 	lda	0x111,x
   0257 48            [ 3]  388 	pha
   0258 BD 10 01      [ 5]  389 	lda	0x110,x
   025B 48            [ 3]  390 	pha
   025C BD 0F 01      [ 5]  391 	lda	0x10f,x
   025F 48            [ 3]  392 	pha
   0260 BD 16 01      [ 5]  393 	lda	0x116,x
   0263 48            [ 3]  394 	pha
   0264 BD 15 01      [ 5]  395 	lda	0x115,x
   0267 48            [ 3]  396 	pha
   0268 BD 14 01      [ 5]  397 	lda	0x114,x
   026B 48            [ 3]  398 	pha
   026C BD 13 01      [ 5]  399 	lda	0x113,x
   026F 48            [ 3]  400 	pha
   0270 20r00r00      [ 6]  401 	jsr	___fsdiv
   0273 86*00         [ 3]  402 	stx	*(__TEMP+0)
   0275 BA            [ 2]  403 	tsx
   0276 9D 0D 01      [ 5]  404 	sta	0x10d,x
   0279 A6*00         [ 3]  405 	ldx	*(__TEMP+0)
   027B 8A            [ 2]  406 	txa
   027C BA            [ 2]  407 	tsx
   027D 9D 0E 01      [ 5]  408 	sta	0x10e,x
   0280 A6*00         [ 3]  409 	ldx	*(__TEMP+0)
   0282 A5*00         [ 3]  410 	lda	*___SDCC_m6502_ret2
   0284 BA            [ 2]  411 	tsx
   0285 9D 0F 01      [ 5]  412 	sta	0x10f,x
   0288 A5*00         [ 3]  413 	lda	*___SDCC_m6502_ret3
   028A 9D 10 01      [ 5]  414 	sta	0x110,x
   028D 85*00         [ 3]  415 	sta	*(__TEMP+0)
   028F 86*01         [ 3]  416 	stx	*(__TEMP+1)
   0291 BA            [ 2]  417 	tsx
   0292 8A            [ 2]  418 	txa
   0293 18            [ 2]  419 	clc
   0294 69 08         [ 2]  420 	adc	#0x08
   0296 AA            [ 2]  421 	tax
   0297 9A            [ 2]  422 	txs
   0298 A6*01         [ 3]  423 	ldx	*(__TEMP+1)
   029A A5*00         [ 3]  424 	lda	*(__TEMP+0)
   029C BA            [ 2]  425 	tsx
   029D BD 08 01      [ 5]  426 	lda	0x108,x
   02A0 48            [ 3]  427 	pha
   02A1 BD 07 01      [ 5]  428 	lda	0x107,x
   02A4 48            [ 3]  429 	pha
   02A5 BD 06 01      [ 5]  430 	lda	0x106,x
   02A8 48            [ 3]  431 	pha
   02A9 BD 05 01      [ 5]  432 	lda	0x105,x
   02AC 48            [ 3]  433 	pha
   02AD 20r00r00      [ 6]  434 	jsr	_atanf
   02B0 86*00         [ 3]  435 	stx	*(__TEMP+0)
   02B2 BA            [ 2]  436 	tsx
   02B3 9D 09 01      [ 5]  437 	sta	0x109,x
   02B6 A6*00         [ 3]  438 	ldx	*(__TEMP+0)
   02B8 8A            [ 2]  439 	txa
   02B9 BA            [ 2]  440 	tsx
   02BA 9D 0A 01      [ 5]  441 	sta	0x10a,x
   02BD A6*00         [ 3]  442 	ldx	*(__TEMP+0)
   02BF A5*00         [ 3]  443 	lda	*___SDCC_m6502_ret2
   02C1 BA            [ 2]  444 	tsx
   02C2 9D 0B 01      [ 5]  445 	sta	0x10b,x
   02C5 A5*00         [ 3]  446 	lda	*___SDCC_m6502_ret3
   02C7 9D 0C 01      [ 5]  447 	sta	0x10c,x
   02CA 85*00         [ 3]  448 	sta	*(__TEMP+0)
   02CC 68            [ 4]  449 	pla
   02CD 68            [ 4]  450 	pla
   02CE 68            [ 4]  451 	pla
   02CF 68            [ 4]  452 	pla
   02D0 BD 0C 01      [ 5]  453 	lda	0x10c, x
   02D3 49 80         [ 2]  454 	eor	#0x80
   02D5 9D 0C 01      [ 5]  455 	sta	0x10c,x
                            456 ;	../atan2f.c: 52: r+=(x<0.0?-HALF_PI:HALF_PI);
   02D8 A9 00         [ 2]  457 	lda	#0x00
   02DA 48            [ 3]  458 	pha
   02DB 48            [ 3]  459 	pha
   02DC 48            [ 3]  460 	pha
   02DD 48            [ 3]  461 	pha
   02DE BD 16 01      [ 5]  462 	lda	0x116,x
   02E1 48            [ 3]  463 	pha
   02E2 BD 15 01      [ 5]  464 	lda	0x115,x
   02E5 48            [ 3]  465 	pha
   02E6 BD 14 01      [ 5]  466 	lda	0x114,x
   02E9 48            [ 3]  467 	pha
   02EA BD 13 01      [ 5]  468 	lda	0x113,x
   02ED 48            [ 3]  469 	pha
   02EE 20r00r00      [ 6]  470 	jsr	___fslt
   02F1 85*00         [ 3]  471 	sta	*(__TEMP+0)
   02F3 86*01         [ 3]  472 	stx	*(__TEMP+1)
   02F5 BA            [ 2]  473 	tsx
   02F6 8A            [ 2]  474 	txa
   02F7 18            [ 2]  475 	clc
   02F8 69 08         [ 2]  476 	adc	#0x08
   02FA AA            [ 2]  477 	tax
   02FB 9A            [ 2]  478 	txs
   02FC A6*01         [ 3]  479 	ldx	*(__TEMP+1)
   02FE A5*00         [ 3]  480 	lda	*(__TEMP+0)
   0300 F0 18         [ 4]  481 	beq	00113$
   0302 BA            [ 2]  482 	tsx
   0303 A9 DB         [ 2]  483 	lda	#0xdb
   0305 9D 09 01      [ 5]  484 	sta	0x109,x
   0308 A9 0F         [ 2]  485 	lda	#0x0f
   030A 9D 0A 01      [ 5]  486 	sta	0x10a,x
   030D A9 C9         [ 2]  487 	lda	#0xc9
   030F 9D 0B 01      [ 5]  488 	sta	0x10b,x
   0312 A9 BF         [ 2]  489 	lda	#0xbf
   0314 9D 0C 01      [ 5]  490 	sta	0x10c,x
   0317 4Cr2Fr03      [ 3]  491 	jmp	00114$
   031A                     492 00113$:
   031A BA            [ 2]  493 	tsx
   031B A9 DB         [ 2]  494 	lda	#0xdb
   031D 9D 09 01      [ 5]  495 	sta	0x109,x
   0320 A9 0F         [ 2]  496 	lda	#0x0f
   0322 9D 0A 01      [ 5]  497 	sta	0x10a,x
   0325 A9 C9         [ 2]  498 	lda	#0xc9
   0327 9D 0B 01      [ 5]  499 	sta	0x10b,x
   032A A9 3F         [ 2]  500 	lda	#0x3f
   032C 9D 0C 01      [ 5]  501 	sta	0x10c,x
   032F                     502 00114$:
   032F BA            [ 2]  503 	tsx
   0330 BD 0C 01      [ 5]  504 	lda	0x10c,x
   0333 48            [ 3]  505 	pha
   0334 BD 0B 01      [ 5]  506 	lda	0x10b,x
   0337 48            [ 3]  507 	pha
   0338 BD 0A 01      [ 5]  508 	lda	0x10a,x
   033B 48            [ 3]  509 	pha
   033C BD 09 01      [ 5]  510 	lda	0x109,x
   033F 48            [ 3]  511 	pha
   0340 BD 08 01      [ 5]  512 	lda	0x108,x
   0343 48            [ 3]  513 	pha
   0344 BD 07 01      [ 5]  514 	lda	0x107,x
   0347 48            [ 3]  515 	pha
   0348 BD 06 01      [ 5]  516 	lda	0x106,x
   034B 48            [ 3]  517 	pha
   034C BD 05 01      [ 5]  518 	lda	0x105,x
   034F 48            [ 3]  519 	pha
   0350 20r00r00      [ 6]  520 	jsr	___fsadd
   0353 86*00         [ 3]  521 	stx	*(__TEMP+0)
   0355 BA            [ 2]  522 	tsx
   0356 9D 09 01      [ 5]  523 	sta	0x109,x
   0359 A6*00         [ 3]  524 	ldx	*(__TEMP+0)
   035B 8A            [ 2]  525 	txa
   035C BA            [ 2]  526 	tsx
   035D 9D 0A 01      [ 5]  527 	sta	0x10a,x
   0360 A6*00         [ 3]  528 	ldx	*(__TEMP+0)
   0362 A5*00         [ 3]  529 	lda	*___SDCC_m6502_ret2
   0364 BA            [ 2]  530 	tsx
   0365 9D 0B 01      [ 5]  531 	sta	0x10b,x
   0368 A5*00         [ 3]  532 	lda	*___SDCC_m6502_ret3
   036A 9D 0C 01      [ 5]  533 	sta	0x10c,x
   036D 85*00         [ 3]  534 	sta	*(__TEMP+0)
   036F 86*01         [ 3]  535 	stx	*(__TEMP+1)
   0371 BA            [ 2]  536 	tsx
   0372 8A            [ 2]  537 	txa
   0373 18            [ 2]  538 	clc
   0374 69 08         [ 2]  539 	adc	#0x08
   0376 AA            [ 2]  540 	tax
   0377 9A            [ 2]  541 	txs
   0378 A6*01         [ 3]  542 	ldx	*(__TEMP+1)
   037A A5*00         [ 3]  543 	lda	*(__TEMP+0)
   037C                     544 00108$:
                            545 ;	../atan2f.c: 54: return r;
   037C BA            [ 2]  546 	tsx
   037D BD 04 01      [ 5]  547 	lda	0x104,x
   0380 85*00         [ 3]  548 	sta	*___SDCC_m6502_ret3
   0382 BD 03 01      [ 5]  549 	lda	0x103,x
   0385 85*00         [ 3]  550 	sta	*___SDCC_m6502_ret2
   0387 BD 02 01      [ 5]  551 	lda	0x102,x
   038A AA            [ 2]  552 	tax
   038B 86*00         [ 3]  553 	stx	*(__TEMP+0)
   038D BA            [ 2]  554 	tsx
   038E BD 01 01      [ 5]  555 	lda	0x101,x
   0391 08            [ 3]  556 	php
   0392 A6*00         [ 3]  557 	ldx	*(__TEMP+0)
   0394 28            [ 4]  558 	plp
   0395                     559 00109$:
                            560 ;	../atan2f.c: 55: }
   0395 85*00         [ 3]  561 	sta	*(__TEMP+0)
   0397 86*01         [ 3]  562 	stx	*(__TEMP+1)
   0399 BA            [ 2]  563 	tsx
   039A 8A            [ 2]  564 	txa
   039B 18            [ 2]  565 	clc
   039C 69 0C         [ 2]  566 	adc	#0x0c
   039E AA            [ 2]  567 	tax
   039F 9A            [ 2]  568 	txs
   03A0 A6*01         [ 3]  569 	ldx	*(__TEMP+1)
   03A2 A5*00         [ 3]  570 	lda	*(__TEMP+0)
   03A4 60            [ 6]  571 	rts
                            572 	.area CODE
                            573 	.area RODATA
                            574 	.area XINIT
                            575 	.area CABS    (ABS)
