                              1 ;--------------------------------------------------------
                              2 ; File Created by SDCC : free open source ISO C Compiler 
                              3 ; Version 4.2.14 #0 (Linux)
                              4 ;--------------------------------------------------------
                              5 	.module ckd_mul
                              6 	.optsdcc -mmos6502
                              7 	
                              8 ;--------------------------------------------------------
                              9 ; Public variables in this module
                             10 ;--------------------------------------------------------
                             11 	.globl ___ckd_mul_schar
                             12 	.globl ___ckd_mul_uchar
                             13 	.globl ___ckd_mul_short
                             14 	.globl ___ckd_mul_ushort
                             15 	.globl ___ckd_mul_int
                             16 	.globl ___ckd_mul_uint
                             17 	.globl ___ckd_mul_long
                             18 	.globl ___ckd_mul_ulong
                             19 ;--------------------------------------------------------
                             20 ; ZP ram data
                             21 ;--------------------------------------------------------
                             22 	.area ZP      (PAG)
                             23 ;--------------------------------------------------------
                             24 ; overlayable items in ram
                             25 ;--------------------------------------------------------
                             26 ;--------------------------------------------------------
                             27 ; uninitialized external ram data
                             28 ;--------------------------------------------------------
                             29 	.area BSS
                             30 ;--------------------------------------------------------
                             31 ; absolute external ram data
                             32 ;--------------------------------------------------------
                             33 	.area DABS    (ABS)
                             34 ;--------------------------------------------------------
                             35 ; initialized external ram data
                             36 ;--------------------------------------------------------
                             37 	.area DATA
                             38 ;--------------------------------------------------------
                             39 ; global & static initialisations
                             40 ;--------------------------------------------------------
                             41 	.area _CODE
                             42 	.area GSINIT
                             43 	.area GSFINAL
                             44 	.area GSINIT
                             45 ;--------------------------------------------------------
                             46 ; Home
                             47 ;--------------------------------------------------------
                             48 	.area _CODE
                             49 	.area _CODE
                             50 ;--------------------------------------------------------
                             51 ; code
                             52 ;--------------------------------------------------------
                             53 	.area CODE
                             54 ;------------------------------------------------------------
                             55 ;Allocation info for local variables in function '__ckd_mul_schar'
                             56 ;------------------------------------------------------------
                             57 ;a                         Allocated to stack - sp +21
                             58 ;b                         Allocated to stack - sp +29
                             59 ;r                         Allocated to stack - sp +17
                             60 ;result                    Allocated to stack - sp +9
                             61 ;sloc0                     Allocated to stack - sp +9
                             62 ;sloc1                     Allocated to stack - sp +1
                             63 ;------------------------------------------------------------
                             64 ;	./../../include/stdckdint.h: 69: inline _Bool __ckd_mul_schar __CKD_DEFAULT_IMPL(signed char, *)
                             65 ;	-----------------------------------------
                             66 ;	 function __ckd_mul_schar
                             67 ;	-----------------------------------------
                             68 ;	Register assignment might be sub-optimal.
                             69 ;	Stack space usage: 18 bytes.
   0000                      70 ___ckd_mul_schar:
   0000 85*00         [ 3]   71 	sta	*(__TEMP+0)
   0002 8A            [ 2]   72 	txa
   0003 48            [ 3]   73 	pha
   0004 A5*00         [ 3]   74 	lda	*(__TEMP+0)
   0006 48            [ 3]   75 	pha
   0007 86*01         [ 3]   76 	stx	*(__TEMP+1)
   0009 BA            [ 2]   77 	tsx
   000A 8A            [ 2]   78 	txa
   000B 18            [ 2]   79 	clc
   000C 69 F0         [ 2]   80 	adc	#0xf0
   000E AA            [ 2]   81 	tax
   000F 9A            [ 2]   82 	txs
   0010 A6*01         [ 3]   83 	ldx	*(__TEMP+1)
   0012 A5*00         [ 3]   84 	lda	*(__TEMP+0)
   0014 BA            [ 2]   85 	tsx
   0015 BD 24 01      [ 5]   86 	lda	0x124,x
   0018 48            [ 3]   87 	pha
   0019 BD 23 01      [ 5]   88 	lda	0x123,x
   001C 48            [ 3]   89 	pha
   001D BD 22 01      [ 5]   90 	lda	0x122,x
   0020 48            [ 3]   91 	pha
   0021 BD 21 01      [ 5]   92 	lda	0x121,x
   0024 48            [ 3]   93 	pha
   0025 BD 20 01      [ 5]   94 	lda	0x120,x
   0028 48            [ 3]   95 	pha
   0029 BD 1F 01      [ 5]   96 	lda	0x11f,x
   002C 48            [ 3]   97 	pha
   002D BD 1E 01      [ 5]   98 	lda	0x11e,x
   0030 48            [ 3]   99 	pha
   0031 BD 1D 01      [ 5]  100 	lda	0x11d,x
   0034 48            [ 3]  101 	pha
   0035 BD 1C 01      [ 5]  102 	lda	0x11c,x
   0038 48            [ 3]  103 	pha
   0039 BD 1B 01      [ 5]  104 	lda	0x11b,x
   003C 48            [ 3]  105 	pha
   003D BD 1A 01      [ 5]  106 	lda	0x11a,x
   0040 48            [ 3]  107 	pha
   0041 BD 19 01      [ 5]  108 	lda	0x119,x
   0044 48            [ 3]  109 	pha
   0045 BD 18 01      [ 5]  110 	lda	0x118,x
   0048 48            [ 3]  111 	pha
   0049 BD 17 01      [ 5]  112 	lda	0x117,x
   004C 48            [ 3]  113 	pha
   004D BD 16 01      [ 5]  114 	lda	0x116,x
   0050 48            [ 3]  115 	pha
   0051 BD 15 01      [ 5]  116 	lda	0x115,x
   0054 48            [ 3]  117 	pha
   0055 20r00r00      [ 6]  118 	jsr	__mullonglong
   0058 86*00         [ 3]  119 	stx	*(__TEMP+0)
   005A BA            [ 2]  120 	tsx
   005B 9D 19 01      [ 5]  121 	sta	0x119,x
   005E A6*00         [ 3]  122 	ldx	*(__TEMP+0)
   0060 8A            [ 2]  123 	txa
   0061 BA            [ 2]  124 	tsx
   0062 9D 1A 01      [ 5]  125 	sta	0x11a,x
   0065 A6*00         [ 3]  126 	ldx	*(__TEMP+0)
   0067 A5*00         [ 3]  127 	lda	*___SDCC_m6502_ret2
   0069 BA            [ 2]  128 	tsx
   006A 9D 1B 01      [ 5]  129 	sta	0x11b,x
   006D A5*00         [ 3]  130 	lda	*___SDCC_m6502_ret3
   006F 9D 1C 01      [ 5]  131 	sta	0x11c,x
   0072 A5*00         [ 3]  132 	lda	*___SDCC_m6502_ret4
   0074 9D 1D 01      [ 5]  133 	sta	0x11d,x
   0077 A5*00         [ 3]  134 	lda	*___SDCC_m6502_ret5
   0079 9D 1E 01      [ 5]  135 	sta	0x11e,x
   007C A5*00         [ 3]  136 	lda	*___SDCC_m6502_ret6
   007E 9D 1F 01      [ 5]  137 	sta	0x11f,x
   0081 A5*00         [ 3]  138 	lda	*___SDCC_m6502_ret7
   0083 9D 20 01      [ 5]  139 	sta	0x120,x
   0086 85*00         [ 3]  140 	sta	*(__TEMP+0)
   0088 86*01         [ 3]  141 	stx	*(__TEMP+1)
   008A BA            [ 2]  142 	tsx
   008B 8A            [ 2]  143 	txa
   008C 18            [ 2]  144 	clc
   008D 69 10         [ 2]  145 	adc	#0x10
   008F AA            [ 2]  146 	tax
   0090 9A            [ 2]  147 	txs
   0091 A6*01         [ 3]  148 	ldx	*(__TEMP+1)
   0093 A5*00         [ 3]  149 	lda	*(__TEMP+0)
   0095 BA            [ 2]  150 	tsx
   0096 BD 09 01      [ 5]  151 	lda	0x109,x
   0099 85*00         [ 3]  152 	sta	*(__TEMP+0)
   009B BD 11 01      [ 5]  153 	lda	0x111,x
   009E 85*00         [ 3]  154 	sta	*(__DPTR+0)
   00A0 BD 12 01      [ 5]  155 	lda	0x112,x
   00A3 85*01         [ 3]  156 	sta	*(__DPTR+1)
   00A5 A5*00         [ 3]  157 	lda	*(__TEMP+0)
   00A7 A0 00         [ 2]  158 	ldy	#0x00
   00A9 91*00         [ 6]  159 	sta	[__DPTR],y
   00AB A5*00         [ 3]  160 	lda	*(__TEMP+0)
   00AD 9D 01 01      [ 5]  161 	sta	0x101,x
   00B0 0A            [ 2]  162 	asl	a
   00B1 98            [ 2]  163 	tya
   00B2 69 FF         [ 2]  164 	adc	#0xff
   00B4 49 FF         [ 2]  165 	eor	#0xff
   00B6 9D 02 01      [ 5]  166 	sta	0x102,x
   00B9 9D 03 01      [ 5]  167 	sta	0x103,x
   00BC 9D 04 01      [ 5]  168 	sta	0x104,x
   00BF 9D 05 01      [ 5]  169 	sta	0x105,x
   00C2 9D 06 01      [ 5]  170 	sta	0x106,x
   00C5 9D 07 01      [ 5]  171 	sta	0x107,x
   00C8 9D 08 01      [ 5]  172 	sta	0x108,x
   00CB BD 01 01      [ 5]  173 	lda	0x101,x
   00CE DD 09 01      [ 5]  174 	cmp	0x109,x
   00D1 D0 38         [ 4]  175 	bne	00104$
   00D3 BD 02 01      [ 5]  176 	lda	0x102,x
   00D6 DD 0A 01      [ 5]  177 	cmp	0x10a,x
   00D9 D0 30         [ 4]  178 	bne	00104$
   00DB BD 03 01      [ 5]  179 	lda	0x103,x
   00DE DD 0B 01      [ 5]  180 	cmp	0x10b,x
   00E1 D0 28         [ 4]  181 	bne	00104$
   00E3 BD 04 01      [ 5]  182 	lda	0x104,x
   00E6 DD 0C 01      [ 5]  183 	cmp	0x10c,x
   00E9 D0 20         [ 4]  184 	bne	00104$
   00EB BD 05 01      [ 5]  185 	lda	0x105,x
   00EE DD 0D 01      [ 5]  186 	cmp	0x10d,x
   00F1 D0 18         [ 4]  187 	bne	00104$
   00F3 BD 06 01      [ 5]  188 	lda	0x106,x
   00F6 DD 0E 01      [ 5]  189 	cmp	0x10e,x
   00F9 D0 10         [ 4]  190 	bne	00104$
   00FB BD 07 01      [ 5]  191 	lda	0x107,x
   00FE DD 0F 01      [ 5]  192 	cmp	0x10f,x
   0101 D0 08         [ 4]  193 	bne	00104$
   0103 BD 08 01      [ 5]  194 	lda	0x108,x
   0106 DD 10 01      [ 5]  195 	cmp	0x110,x
   0109 F0 04         [ 4]  196 	beq	00112$
   010B                     197 00104$:
   010B 98            [ 2]  198 	tya
   010C 4Cr11r01      [ 3]  199 	jmp	00111$
   010F                     200 00112$:
   010F A9 01         [ 2]  201 	lda	#0x01
   0111                     202 00111$:
   0111 49 01         [ 2]  203 	eor	#0x01
   0113 85*00         [ 3]  204 	sta	*(__TEMP+0)
   0115 86*01         [ 3]  205 	stx	*(__TEMP+1)
   0117 BA            [ 2]  206 	tsx
   0118 8A            [ 2]  207 	txa
   0119 18            [ 2]  208 	clc
   011A 69 12         [ 2]  209 	adc	#0x12
   011C AA            [ 2]  210 	tax
   011D 9A            [ 2]  211 	txs
   011E A6*01         [ 3]  212 	ldx	*(__TEMP+1)
   0120 A5*00         [ 3]  213 	lda	*(__TEMP+0)
   0122 60            [ 6]  214 	rts
                            215 ;------------------------------------------------------------
                            216 ;Allocation info for local variables in function '__ckd_mul_uchar'
                            217 ;------------------------------------------------------------
                            218 ;a                         Allocated to stack - sp +22
                            219 ;b                         Allocated to stack - sp +30
                            220 ;r                         Allocated to stack - sp +18
                            221 ;result                    Allocated to stack - sp +10
                            222 ;sloc0                     Allocated to stack - sp +10
                            223 ;sloc1                     Allocated to stack - sp +9
                            224 ;sloc2                     Allocated to stack - sp +1
                            225 ;------------------------------------------------------------
                            226 ;	./../../include/stdckdint.h: 70: inline _Bool __ckd_mul_uchar __CKD_DEFAULT_IMPL(unsigned char, *)
                            227 ;	-----------------------------------------
                            228 ;	 function __ckd_mul_uchar
                            229 ;	-----------------------------------------
                            230 ;	Register assignment might be sub-optimal.
                            231 ;	Stack space usage: 19 bytes.
   0123                     232 ___ckd_mul_uchar:
   0123 85*00         [ 3]  233 	sta	*(__TEMP+0)
   0125 8A            [ 2]  234 	txa
   0126 48            [ 3]  235 	pha
   0127 A5*00         [ 3]  236 	lda	*(__TEMP+0)
   0129 48            [ 3]  237 	pha
   012A 86*01         [ 3]  238 	stx	*(__TEMP+1)
   012C BA            [ 2]  239 	tsx
   012D 8A            [ 2]  240 	txa
   012E 18            [ 2]  241 	clc
   012F 69 EF         [ 2]  242 	adc	#0xef
   0131 AA            [ 2]  243 	tax
   0132 9A            [ 2]  244 	txs
   0133 A6*01         [ 3]  245 	ldx	*(__TEMP+1)
   0135 A5*00         [ 3]  246 	lda	*(__TEMP+0)
   0137 BA            [ 2]  247 	tsx
   0138 BD 25 01      [ 5]  248 	lda	0x125,x
   013B 48            [ 3]  249 	pha
   013C BD 24 01      [ 5]  250 	lda	0x124,x
   013F 48            [ 3]  251 	pha
   0140 BD 23 01      [ 5]  252 	lda	0x123,x
   0143 48            [ 3]  253 	pha
   0144 BD 22 01      [ 5]  254 	lda	0x122,x
   0147 48            [ 3]  255 	pha
   0148 BD 21 01      [ 5]  256 	lda	0x121,x
   014B 48            [ 3]  257 	pha
   014C BD 20 01      [ 5]  258 	lda	0x120,x
   014F 48            [ 3]  259 	pha
   0150 BD 1F 01      [ 5]  260 	lda	0x11f,x
   0153 48            [ 3]  261 	pha
   0154 BD 1E 01      [ 5]  262 	lda	0x11e,x
   0157 48            [ 3]  263 	pha
   0158 BD 1D 01      [ 5]  264 	lda	0x11d,x
   015B 48            [ 3]  265 	pha
   015C BD 1C 01      [ 5]  266 	lda	0x11c,x
   015F 48            [ 3]  267 	pha
   0160 BD 1B 01      [ 5]  268 	lda	0x11b,x
   0163 48            [ 3]  269 	pha
   0164 BD 1A 01      [ 5]  270 	lda	0x11a,x
   0167 48            [ 3]  271 	pha
   0168 BD 19 01      [ 5]  272 	lda	0x119,x
   016B 48            [ 3]  273 	pha
   016C BD 18 01      [ 5]  274 	lda	0x118,x
   016F 48            [ 3]  275 	pha
   0170 BD 17 01      [ 5]  276 	lda	0x117,x
   0173 48            [ 3]  277 	pha
   0174 BD 16 01      [ 5]  278 	lda	0x116,x
   0177 48            [ 3]  279 	pha
   0178 20r00r00      [ 6]  280 	jsr	__mullonglong
   017B 86*00         [ 3]  281 	stx	*(__TEMP+0)
   017D BA            [ 2]  282 	tsx
   017E 9D 1A 01      [ 5]  283 	sta	0x11a,x
   0181 A6*00         [ 3]  284 	ldx	*(__TEMP+0)
   0183 8A            [ 2]  285 	txa
   0184 BA            [ 2]  286 	tsx
   0185 9D 1B 01      [ 5]  287 	sta	0x11b,x
   0188 A6*00         [ 3]  288 	ldx	*(__TEMP+0)
   018A A5*00         [ 3]  289 	lda	*___SDCC_m6502_ret2
   018C BA            [ 2]  290 	tsx
   018D 9D 1C 01      [ 5]  291 	sta	0x11c,x
   0190 A5*00         [ 3]  292 	lda	*___SDCC_m6502_ret3
   0192 9D 1D 01      [ 5]  293 	sta	0x11d,x
   0195 A5*00         [ 3]  294 	lda	*___SDCC_m6502_ret4
   0197 9D 1E 01      [ 5]  295 	sta	0x11e,x
   019A A5*00         [ 3]  296 	lda	*___SDCC_m6502_ret5
   019C 9D 1F 01      [ 5]  297 	sta	0x11f,x
   019F A5*00         [ 3]  298 	lda	*___SDCC_m6502_ret6
   01A1 9D 20 01      [ 5]  299 	sta	0x120,x
   01A4 A5*00         [ 3]  300 	lda	*___SDCC_m6502_ret7
   01A6 9D 21 01      [ 5]  301 	sta	0x121,x
   01A9 85*00         [ 3]  302 	sta	*(__TEMP+0)
   01AB 86*01         [ 3]  303 	stx	*(__TEMP+1)
   01AD BA            [ 2]  304 	tsx
   01AE 8A            [ 2]  305 	txa
   01AF 18            [ 2]  306 	clc
   01B0 69 10         [ 2]  307 	adc	#0x10
   01B2 AA            [ 2]  308 	tax
   01B3 9A            [ 2]  309 	txs
   01B4 A6*01         [ 3]  310 	ldx	*(__TEMP+1)
   01B6 A5*00         [ 3]  311 	lda	*(__TEMP+0)
   01B8 BA            [ 2]  312 	tsx
   01B9 BD 0A 01      [ 5]  313 	lda	0x10a,x
   01BC 9D 09 01      [ 5]  314 	sta	0x109,x
   01BF BD 12 01      [ 5]  315 	lda	0x112,x
   01C2 85*00         [ 3]  316 	sta	*(__DPTR+0)
   01C4 BD 13 01      [ 5]  317 	lda	0x113,x
   01C7 85*01         [ 3]  318 	sta	*(__DPTR+1)
   01C9 BD 09 01      [ 5]  319 	lda	0x109,x
   01CC A0 00         [ 2]  320 	ldy	#0x00
   01CE 91*00         [ 6]  321 	sta	[__DPTR],y
   01D0 BD 09 01      [ 5]  322 	lda	0x109,x
   01D3 9D 01 01      [ 5]  323 	sta	0x101,x
   01D6 98            [ 2]  324 	tya
   01D7 9D 02 01      [ 5]  325 	sta	0x102,x
   01DA 9D 03 01      [ 5]  326 	sta	0x103,x
   01DD 9D 04 01      [ 5]  327 	sta	0x104,x
   01E0 9D 05 01      [ 5]  328 	sta	0x105,x
   01E3 9D 06 01      [ 5]  329 	sta	0x106,x
   01E6 9D 07 01      [ 5]  330 	sta	0x107,x
   01E9 9D 08 01      [ 5]  331 	sta	0x108,x
   01EC BD 01 01      [ 5]  332 	lda	0x101,x
   01EF DD 0A 01      [ 5]  333 	cmp	0x10a,x
   01F2 D0 38         [ 4]  334 	bne	00104$
   01F4 BD 02 01      [ 5]  335 	lda	0x102,x
   01F7 DD 0B 01      [ 5]  336 	cmp	0x10b,x
   01FA D0 30         [ 4]  337 	bne	00104$
   01FC BD 03 01      [ 5]  338 	lda	0x103,x
   01FF DD 0C 01      [ 5]  339 	cmp	0x10c,x
   0202 D0 28         [ 4]  340 	bne	00104$
   0204 BD 04 01      [ 5]  341 	lda	0x104,x
   0207 DD 0D 01      [ 5]  342 	cmp	0x10d,x
   020A D0 20         [ 4]  343 	bne	00104$
   020C BD 05 01      [ 5]  344 	lda	0x105,x
   020F DD 0E 01      [ 5]  345 	cmp	0x10e,x
   0212 D0 18         [ 4]  346 	bne	00104$
   0214 BD 06 01      [ 5]  347 	lda	0x106,x
   0217 DD 0F 01      [ 5]  348 	cmp	0x10f,x
   021A D0 10         [ 4]  349 	bne	00104$
   021C BD 07 01      [ 5]  350 	lda	0x107,x
   021F DD 10 01      [ 5]  351 	cmp	0x110,x
   0222 D0 08         [ 4]  352 	bne	00104$
   0224 BD 08 01      [ 5]  353 	lda	0x108,x
   0227 DD 11 01      [ 5]  354 	cmp	0x111,x
   022A F0 04         [ 4]  355 	beq	00112$
   022C                     356 00104$:
   022C 98            [ 2]  357 	tya
   022D 4Cr32r02      [ 3]  358 	jmp	00111$
   0230                     359 00112$:
   0230 A9 01         [ 2]  360 	lda	#0x01
   0232                     361 00111$:
   0232 49 01         [ 2]  362 	eor	#0x01
   0234 85*00         [ 3]  363 	sta	*(__TEMP+0)
   0236 86*01         [ 3]  364 	stx	*(__TEMP+1)
   0238 BA            [ 2]  365 	tsx
   0239 8A            [ 2]  366 	txa
   023A 18            [ 2]  367 	clc
   023B 69 13         [ 2]  368 	adc	#0x13
   023D AA            [ 2]  369 	tax
   023E 9A            [ 2]  370 	txs
   023F A6*01         [ 3]  371 	ldx	*(__TEMP+1)
   0241 A5*00         [ 3]  372 	lda	*(__TEMP+0)
   0243 60            [ 6]  373 	rts
                            374 ;------------------------------------------------------------
                            375 ;Allocation info for local variables in function '__ckd_mul_short'
                            376 ;------------------------------------------------------------
                            377 ;a                         Allocated to stack - sp +23
                            378 ;b                         Allocated to stack - sp +31
                            379 ;r                         Allocated to stack - sp +19
                            380 ;result                    Allocated to stack - sp +11
                            381 ;sloc0                     Allocated to stack - sp +11
                            382 ;sloc1                     Allocated to stack - sp +9
                            383 ;sloc2                     Allocated to stack - sp +1
                            384 ;------------------------------------------------------------
                            385 ;	./../../include/stdckdint.h: 71: inline _Bool __ckd_mul_short __CKD_DEFAULT_IMPL(short, *)
                            386 ;	-----------------------------------------
                            387 ;	 function __ckd_mul_short
                            388 ;	-----------------------------------------
                            389 ;	Register assignment might be sub-optimal.
                            390 ;	Stack space usage: 20 bytes.
   0244                     391 ___ckd_mul_short:
   0244 85*00         [ 3]  392 	sta	*(__TEMP+0)
   0246 8A            [ 2]  393 	txa
   0247 48            [ 3]  394 	pha
   0248 A5*00         [ 3]  395 	lda	*(__TEMP+0)
   024A 48            [ 3]  396 	pha
   024B 86*01         [ 3]  397 	stx	*(__TEMP+1)
   024D BA            [ 2]  398 	tsx
   024E 8A            [ 2]  399 	txa
   024F 18            [ 2]  400 	clc
   0250 69 EE         [ 2]  401 	adc	#0xee
   0252 AA            [ 2]  402 	tax
   0253 9A            [ 2]  403 	txs
   0254 A6*01         [ 3]  404 	ldx	*(__TEMP+1)
   0256 A5*00         [ 3]  405 	lda	*(__TEMP+0)
   0258 BA            [ 2]  406 	tsx
   0259 BD 26 01      [ 5]  407 	lda	0x126,x
   025C 48            [ 3]  408 	pha
   025D BD 25 01      [ 5]  409 	lda	0x125,x
   0260 48            [ 3]  410 	pha
   0261 BD 24 01      [ 5]  411 	lda	0x124,x
   0264 48            [ 3]  412 	pha
   0265 BD 23 01      [ 5]  413 	lda	0x123,x
   0268 48            [ 3]  414 	pha
   0269 BD 22 01      [ 5]  415 	lda	0x122,x
   026C 48            [ 3]  416 	pha
   026D BD 21 01      [ 5]  417 	lda	0x121,x
   0270 48            [ 3]  418 	pha
   0271 BD 20 01      [ 5]  419 	lda	0x120,x
   0274 48            [ 3]  420 	pha
   0275 BD 1F 01      [ 5]  421 	lda	0x11f,x
   0278 48            [ 3]  422 	pha
   0279 BD 1E 01      [ 5]  423 	lda	0x11e,x
   027C 48            [ 3]  424 	pha
   027D BD 1D 01      [ 5]  425 	lda	0x11d,x
   0280 48            [ 3]  426 	pha
   0281 BD 1C 01      [ 5]  427 	lda	0x11c,x
   0284 48            [ 3]  428 	pha
   0285 BD 1B 01      [ 5]  429 	lda	0x11b,x
   0288 48            [ 3]  430 	pha
   0289 BD 1A 01      [ 5]  431 	lda	0x11a,x
   028C 48            [ 3]  432 	pha
   028D BD 19 01      [ 5]  433 	lda	0x119,x
   0290 48            [ 3]  434 	pha
   0291 BD 18 01      [ 5]  435 	lda	0x118,x
   0294 48            [ 3]  436 	pha
   0295 BD 17 01      [ 5]  437 	lda	0x117,x
   0298 48            [ 3]  438 	pha
   0299 20r00r00      [ 6]  439 	jsr	__mullonglong
   029C 86*00         [ 3]  440 	stx	*(__TEMP+0)
   029E BA            [ 2]  441 	tsx
   029F 9D 1B 01      [ 5]  442 	sta	0x11b,x
   02A2 A6*00         [ 3]  443 	ldx	*(__TEMP+0)
   02A4 8A            [ 2]  444 	txa
   02A5 BA            [ 2]  445 	tsx
   02A6 9D 1C 01      [ 5]  446 	sta	0x11c,x
   02A9 A6*00         [ 3]  447 	ldx	*(__TEMP+0)
   02AB A5*00         [ 3]  448 	lda	*___SDCC_m6502_ret2
   02AD BA            [ 2]  449 	tsx
   02AE 9D 1D 01      [ 5]  450 	sta	0x11d,x
   02B1 A5*00         [ 3]  451 	lda	*___SDCC_m6502_ret3
   02B3 9D 1E 01      [ 5]  452 	sta	0x11e,x
   02B6 A5*00         [ 3]  453 	lda	*___SDCC_m6502_ret4
   02B8 9D 1F 01      [ 5]  454 	sta	0x11f,x
   02BB A5*00         [ 3]  455 	lda	*___SDCC_m6502_ret5
   02BD 9D 20 01      [ 5]  456 	sta	0x120,x
   02C0 A5*00         [ 3]  457 	lda	*___SDCC_m6502_ret6
   02C2 9D 21 01      [ 5]  458 	sta	0x121,x
   02C5 A5*00         [ 3]  459 	lda	*___SDCC_m6502_ret7
   02C7 9D 22 01      [ 5]  460 	sta	0x122,x
   02CA 85*00         [ 3]  461 	sta	*(__TEMP+0)
   02CC 86*01         [ 3]  462 	stx	*(__TEMP+1)
   02CE BA            [ 2]  463 	tsx
   02CF 8A            [ 2]  464 	txa
   02D0 18            [ 2]  465 	clc
   02D1 69 10         [ 2]  466 	adc	#0x10
   02D3 AA            [ 2]  467 	tax
   02D4 9A            [ 2]  468 	txs
   02D5 A6*01         [ 3]  469 	ldx	*(__TEMP+1)
   02D7 A5*00         [ 3]  470 	lda	*(__TEMP+0)
   02D9 BA            [ 2]  471 	tsx
   02DA BD 0B 01      [ 5]  472 	lda	0x10b,x
   02DD 9D 09 01      [ 5]  473 	sta	0x109,x
   02E0 BD 0C 01      [ 5]  474 	lda	0x10c,x
   02E3 9D 0A 01      [ 5]  475 	sta	0x10a,x
   02E6 BD 13 01      [ 5]  476 	lda	0x113,x
   02E9 85*00         [ 3]  477 	sta	*(__DPTR+0)
   02EB BD 14 01      [ 5]  478 	lda	0x114,x
   02EE 85*01         [ 3]  479 	sta	*(__DPTR+1)
   02F0 BD 09 01      [ 5]  480 	lda	0x109,x
   02F3 A0 00         [ 2]  481 	ldy	#0x00
   02F5 91*00         [ 6]  482 	sta	[__DPTR],y
   02F7 BD 0A 01      [ 5]  483 	lda	0x10a,x
   02FA C8            [ 2]  484 	iny
   02FB 91*00         [ 6]  485 	sta	[__DPTR],y
   02FD BD 09 01      [ 5]  486 	lda	0x109,x
   0300 9D 01 01      [ 5]  487 	sta	0x101,x
   0303 BD 0A 01      [ 5]  488 	lda	0x10a,x
   0306 9D 02 01      [ 5]  489 	sta	0x102,x
   0309 0A            [ 2]  490 	asl	a
   030A A9 00         [ 2]  491 	lda	#0x00
   030C 69 FF         [ 2]  492 	adc	#0xff
   030E 49 FF         [ 2]  493 	eor	#0xff
   0310 9D 03 01      [ 5]  494 	sta	0x103,x
   0313 9D 04 01      [ 5]  495 	sta	0x104,x
   0316 9D 05 01      [ 5]  496 	sta	0x105,x
   0319 9D 06 01      [ 5]  497 	sta	0x106,x
   031C 9D 07 01      [ 5]  498 	sta	0x107,x
   031F 9D 08 01      [ 5]  499 	sta	0x108,x
   0322 BD 01 01      [ 5]  500 	lda	0x101,x
   0325 DD 0B 01      [ 5]  501 	cmp	0x10b,x
   0328 D0 38         [ 4]  502 	bne	00104$
   032A BD 02 01      [ 5]  503 	lda	0x102,x
   032D DD 0C 01      [ 5]  504 	cmp	0x10c,x
   0330 D0 30         [ 4]  505 	bne	00104$
   0332 BD 03 01      [ 5]  506 	lda	0x103,x
   0335 DD 0D 01      [ 5]  507 	cmp	0x10d,x
   0338 D0 28         [ 4]  508 	bne	00104$
   033A BD 04 01      [ 5]  509 	lda	0x104,x
   033D DD 0E 01      [ 5]  510 	cmp	0x10e,x
   0340 D0 20         [ 4]  511 	bne	00104$
   0342 BD 05 01      [ 5]  512 	lda	0x105,x
   0345 DD 0F 01      [ 5]  513 	cmp	0x10f,x
   0348 D0 18         [ 4]  514 	bne	00104$
   034A BD 06 01      [ 5]  515 	lda	0x106,x
   034D DD 10 01      [ 5]  516 	cmp	0x110,x
   0350 D0 10         [ 4]  517 	bne	00104$
   0352 BD 07 01      [ 5]  518 	lda	0x107,x
   0355 DD 11 01      [ 5]  519 	cmp	0x111,x
   0358 D0 08         [ 4]  520 	bne	00104$
   035A BD 08 01      [ 5]  521 	lda	0x108,x
   035D DD 12 01      [ 5]  522 	cmp	0x112,x
   0360 F0 05         [ 4]  523 	beq	00112$
   0362                     524 00104$:
   0362 A9 00         [ 2]  525 	lda	#0x00
   0364 4Cr68r03      [ 3]  526 	jmp	00111$
   0367                     527 00112$:
   0367 98            [ 2]  528 	tya
   0368                     529 00111$:
   0368 49 01         [ 2]  530 	eor	#0x01
   036A 85*00         [ 3]  531 	sta	*(__TEMP+0)
   036C 86*01         [ 3]  532 	stx	*(__TEMP+1)
   036E BA            [ 2]  533 	tsx
   036F 8A            [ 2]  534 	txa
   0370 18            [ 2]  535 	clc
   0371 69 14         [ 2]  536 	adc	#0x14
   0373 AA            [ 2]  537 	tax
   0374 9A            [ 2]  538 	txs
   0375 A6*01         [ 3]  539 	ldx	*(__TEMP+1)
   0377 A5*00         [ 3]  540 	lda	*(__TEMP+0)
   0379 60            [ 6]  541 	rts
                            542 ;------------------------------------------------------------
                            543 ;Allocation info for local variables in function '__ckd_mul_ushort'
                            544 ;------------------------------------------------------------
                            545 ;a                         Allocated to stack - sp +23
                            546 ;b                         Allocated to stack - sp +31
                            547 ;r                         Allocated to stack - sp +19
                            548 ;result                    Allocated to stack - sp +11
                            549 ;sloc0                     Allocated to stack - sp +11
                            550 ;sloc1                     Allocated to stack - sp +9
                            551 ;sloc2                     Allocated to stack - sp +1
                            552 ;------------------------------------------------------------
                            553 ;	./../../include/stdckdint.h: 72: inline _Bool __ckd_mul_ushort __CKD_DEFAULT_IMPL(unsigned short, *)
                            554 ;	-----------------------------------------
                            555 ;	 function __ckd_mul_ushort
                            556 ;	-----------------------------------------
                            557 ;	Register assignment might be sub-optimal.
                            558 ;	Stack space usage: 20 bytes.
   037A                     559 ___ckd_mul_ushort:
   037A 85*00         [ 3]  560 	sta	*(__TEMP+0)
   037C 8A            [ 2]  561 	txa
   037D 48            [ 3]  562 	pha
   037E A5*00         [ 3]  563 	lda	*(__TEMP+0)
   0380 48            [ 3]  564 	pha
   0381 86*01         [ 3]  565 	stx	*(__TEMP+1)
   0383 BA            [ 2]  566 	tsx
   0384 8A            [ 2]  567 	txa
   0385 18            [ 2]  568 	clc
   0386 69 EE         [ 2]  569 	adc	#0xee
   0388 AA            [ 2]  570 	tax
   0389 9A            [ 2]  571 	txs
   038A A6*01         [ 3]  572 	ldx	*(__TEMP+1)
   038C A5*00         [ 3]  573 	lda	*(__TEMP+0)
   038E BA            [ 2]  574 	tsx
   038F BD 26 01      [ 5]  575 	lda	0x126,x
   0392 48            [ 3]  576 	pha
   0393 BD 25 01      [ 5]  577 	lda	0x125,x
   0396 48            [ 3]  578 	pha
   0397 BD 24 01      [ 5]  579 	lda	0x124,x
   039A 48            [ 3]  580 	pha
   039B BD 23 01      [ 5]  581 	lda	0x123,x
   039E 48            [ 3]  582 	pha
   039F BD 22 01      [ 5]  583 	lda	0x122,x
   03A2 48            [ 3]  584 	pha
   03A3 BD 21 01      [ 5]  585 	lda	0x121,x
   03A6 48            [ 3]  586 	pha
   03A7 BD 20 01      [ 5]  587 	lda	0x120,x
   03AA 48            [ 3]  588 	pha
   03AB BD 1F 01      [ 5]  589 	lda	0x11f,x
   03AE 48            [ 3]  590 	pha
   03AF BD 1E 01      [ 5]  591 	lda	0x11e,x
   03B2 48            [ 3]  592 	pha
   03B3 BD 1D 01      [ 5]  593 	lda	0x11d,x
   03B6 48            [ 3]  594 	pha
   03B7 BD 1C 01      [ 5]  595 	lda	0x11c,x
   03BA 48            [ 3]  596 	pha
   03BB BD 1B 01      [ 5]  597 	lda	0x11b,x
   03BE 48            [ 3]  598 	pha
   03BF BD 1A 01      [ 5]  599 	lda	0x11a,x
   03C2 48            [ 3]  600 	pha
   03C3 BD 19 01      [ 5]  601 	lda	0x119,x
   03C6 48            [ 3]  602 	pha
   03C7 BD 18 01      [ 5]  603 	lda	0x118,x
   03CA 48            [ 3]  604 	pha
   03CB BD 17 01      [ 5]  605 	lda	0x117,x
   03CE 48            [ 3]  606 	pha
   03CF 20r00r00      [ 6]  607 	jsr	__mullonglong
   03D2 86*00         [ 3]  608 	stx	*(__TEMP+0)
   03D4 BA            [ 2]  609 	tsx
   03D5 9D 1B 01      [ 5]  610 	sta	0x11b,x
   03D8 A6*00         [ 3]  611 	ldx	*(__TEMP+0)
   03DA 8A            [ 2]  612 	txa
   03DB BA            [ 2]  613 	tsx
   03DC 9D 1C 01      [ 5]  614 	sta	0x11c,x
   03DF A6*00         [ 3]  615 	ldx	*(__TEMP+0)
   03E1 A5*00         [ 3]  616 	lda	*___SDCC_m6502_ret2
   03E3 BA            [ 2]  617 	tsx
   03E4 9D 1D 01      [ 5]  618 	sta	0x11d,x
   03E7 A5*00         [ 3]  619 	lda	*___SDCC_m6502_ret3
   03E9 9D 1E 01      [ 5]  620 	sta	0x11e,x
   03EC A5*00         [ 3]  621 	lda	*___SDCC_m6502_ret4
   03EE 9D 1F 01      [ 5]  622 	sta	0x11f,x
   03F1 A5*00         [ 3]  623 	lda	*___SDCC_m6502_ret5
   03F3 9D 20 01      [ 5]  624 	sta	0x120,x
   03F6 A5*00         [ 3]  625 	lda	*___SDCC_m6502_ret6
   03F8 9D 21 01      [ 5]  626 	sta	0x121,x
   03FB A5*00         [ 3]  627 	lda	*___SDCC_m6502_ret7
   03FD 9D 22 01      [ 5]  628 	sta	0x122,x
   0400 85*00         [ 3]  629 	sta	*(__TEMP+0)
   0402 86*01         [ 3]  630 	stx	*(__TEMP+1)
   0404 BA            [ 2]  631 	tsx
   0405 8A            [ 2]  632 	txa
   0406 18            [ 2]  633 	clc
   0407 69 10         [ 2]  634 	adc	#0x10
   0409 AA            [ 2]  635 	tax
   040A 9A            [ 2]  636 	txs
   040B A6*01         [ 3]  637 	ldx	*(__TEMP+1)
   040D A5*00         [ 3]  638 	lda	*(__TEMP+0)
   040F BA            [ 2]  639 	tsx
   0410 BD 0B 01      [ 5]  640 	lda	0x10b,x
   0413 9D 09 01      [ 5]  641 	sta	0x109,x
   0416 BD 0C 01      [ 5]  642 	lda	0x10c,x
   0419 9D 0A 01      [ 5]  643 	sta	0x10a,x
   041C BD 13 01      [ 5]  644 	lda	0x113,x
   041F 85*00         [ 3]  645 	sta	*(__DPTR+0)
   0421 BD 14 01      [ 5]  646 	lda	0x114,x
   0424 85*01         [ 3]  647 	sta	*(__DPTR+1)
   0426 BD 09 01      [ 5]  648 	lda	0x109,x
   0429 A0 00         [ 2]  649 	ldy	#0x00
   042B 91*00         [ 6]  650 	sta	[__DPTR],y
   042D BD 0A 01      [ 5]  651 	lda	0x10a,x
   0430 C8            [ 2]  652 	iny
   0431 91*00         [ 6]  653 	sta	[__DPTR],y
   0433 BD 09 01      [ 5]  654 	lda	0x109,x
   0436 9D 01 01      [ 5]  655 	sta	0x101,x
   0439 BD 0A 01      [ 5]  656 	lda	0x10a,x
   043C 9D 02 01      [ 5]  657 	sta	0x102,x
   043F A9 00         [ 2]  658 	lda	#0x00
   0441 9D 03 01      [ 5]  659 	sta	0x103,x
   0444 9D 04 01      [ 5]  660 	sta	0x104,x
   0447 9D 05 01      [ 5]  661 	sta	0x105,x
   044A 9D 06 01      [ 5]  662 	sta	0x106,x
   044D 9D 07 01      [ 5]  663 	sta	0x107,x
   0450 9D 08 01      [ 5]  664 	sta	0x108,x
   0453 BD 01 01      [ 5]  665 	lda	0x101,x
   0456 DD 0B 01      [ 5]  666 	cmp	0x10b,x
   0459 D0 38         [ 4]  667 	bne	00104$
   045B BD 02 01      [ 5]  668 	lda	0x102,x
   045E DD 0C 01      [ 5]  669 	cmp	0x10c,x
   0461 D0 30         [ 4]  670 	bne	00104$
   0463 BD 03 01      [ 5]  671 	lda	0x103,x
   0466 DD 0D 01      [ 5]  672 	cmp	0x10d,x
   0469 D0 28         [ 4]  673 	bne	00104$
   046B BD 04 01      [ 5]  674 	lda	0x104,x
   046E DD 0E 01      [ 5]  675 	cmp	0x10e,x
   0471 D0 20         [ 4]  676 	bne	00104$
   0473 BD 05 01      [ 5]  677 	lda	0x105,x
   0476 DD 0F 01      [ 5]  678 	cmp	0x10f,x
   0479 D0 18         [ 4]  679 	bne	00104$
   047B BD 06 01      [ 5]  680 	lda	0x106,x
   047E DD 10 01      [ 5]  681 	cmp	0x110,x
   0481 D0 10         [ 4]  682 	bne	00104$
   0483 BD 07 01      [ 5]  683 	lda	0x107,x
   0486 DD 11 01      [ 5]  684 	cmp	0x111,x
   0489 D0 08         [ 4]  685 	bne	00104$
   048B BD 08 01      [ 5]  686 	lda	0x108,x
   048E DD 12 01      [ 5]  687 	cmp	0x112,x
   0491 F0 05         [ 4]  688 	beq	00112$
   0493                     689 00104$:
   0493 A9 00         [ 2]  690 	lda	#0x00
   0495 4Cr99r04      [ 3]  691 	jmp	00111$
   0498                     692 00112$:
   0498 98            [ 2]  693 	tya
   0499                     694 00111$:
   0499 49 01         [ 2]  695 	eor	#0x01
   049B 85*00         [ 3]  696 	sta	*(__TEMP+0)
   049D 86*01         [ 3]  697 	stx	*(__TEMP+1)
   049F BA            [ 2]  698 	tsx
   04A0 8A            [ 2]  699 	txa
   04A1 18            [ 2]  700 	clc
   04A2 69 14         [ 2]  701 	adc	#0x14
   04A4 AA            [ 2]  702 	tax
   04A5 9A            [ 2]  703 	txs
   04A6 A6*01         [ 3]  704 	ldx	*(__TEMP+1)
   04A8 A5*00         [ 3]  705 	lda	*(__TEMP+0)
   04AA 60            [ 6]  706 	rts
                            707 ;------------------------------------------------------------
                            708 ;Allocation info for local variables in function '__ckd_mul_int'
                            709 ;------------------------------------------------------------
                            710 ;a                         Allocated to stack - sp +23
                            711 ;b                         Allocated to stack - sp +31
                            712 ;r                         Allocated to stack - sp +19
                            713 ;result                    Allocated to stack - sp +11
                            714 ;sloc0                     Allocated to stack - sp +11
                            715 ;sloc1                     Allocated to stack - sp +9
                            716 ;sloc2                     Allocated to stack - sp +1
                            717 ;------------------------------------------------------------
                            718 ;	./../../include/stdckdint.h: 73: inline _Bool __ckd_mul_int __CKD_DEFAULT_IMPL(int, *)
                            719 ;	-----------------------------------------
                            720 ;	 function __ckd_mul_int
                            721 ;	-----------------------------------------
                            722 ;	Register assignment might be sub-optimal.
                            723 ;	Stack space usage: 20 bytes.
   04AB                     724 ___ckd_mul_int:
   04AB 85*00         [ 3]  725 	sta	*(__TEMP+0)
   04AD 8A            [ 2]  726 	txa
   04AE 48            [ 3]  727 	pha
   04AF A5*00         [ 3]  728 	lda	*(__TEMP+0)
   04B1 48            [ 3]  729 	pha
   04B2 86*01         [ 3]  730 	stx	*(__TEMP+1)
   04B4 BA            [ 2]  731 	tsx
   04B5 8A            [ 2]  732 	txa
   04B6 18            [ 2]  733 	clc
   04B7 69 EE         [ 2]  734 	adc	#0xee
   04B9 AA            [ 2]  735 	tax
   04BA 9A            [ 2]  736 	txs
   04BB A6*01         [ 3]  737 	ldx	*(__TEMP+1)
   04BD A5*00         [ 3]  738 	lda	*(__TEMP+0)
   04BF BA            [ 2]  739 	tsx
   04C0 BD 26 01      [ 5]  740 	lda	0x126,x
   04C3 48            [ 3]  741 	pha
   04C4 BD 25 01      [ 5]  742 	lda	0x125,x
   04C7 48            [ 3]  743 	pha
   04C8 BD 24 01      [ 5]  744 	lda	0x124,x
   04CB 48            [ 3]  745 	pha
   04CC BD 23 01      [ 5]  746 	lda	0x123,x
   04CF 48            [ 3]  747 	pha
   04D0 BD 22 01      [ 5]  748 	lda	0x122,x
   04D3 48            [ 3]  749 	pha
   04D4 BD 21 01      [ 5]  750 	lda	0x121,x
   04D7 48            [ 3]  751 	pha
   04D8 BD 20 01      [ 5]  752 	lda	0x120,x
   04DB 48            [ 3]  753 	pha
   04DC BD 1F 01      [ 5]  754 	lda	0x11f,x
   04DF 48            [ 3]  755 	pha
   04E0 BD 1E 01      [ 5]  756 	lda	0x11e,x
   04E3 48            [ 3]  757 	pha
   04E4 BD 1D 01      [ 5]  758 	lda	0x11d,x
   04E7 48            [ 3]  759 	pha
   04E8 BD 1C 01      [ 5]  760 	lda	0x11c,x
   04EB 48            [ 3]  761 	pha
   04EC BD 1B 01      [ 5]  762 	lda	0x11b,x
   04EF 48            [ 3]  763 	pha
   04F0 BD 1A 01      [ 5]  764 	lda	0x11a,x
   04F3 48            [ 3]  765 	pha
   04F4 BD 19 01      [ 5]  766 	lda	0x119,x
   04F7 48            [ 3]  767 	pha
   04F8 BD 18 01      [ 5]  768 	lda	0x118,x
   04FB 48            [ 3]  769 	pha
   04FC BD 17 01      [ 5]  770 	lda	0x117,x
   04FF 48            [ 3]  771 	pha
   0500 20r00r00      [ 6]  772 	jsr	__mullonglong
   0503 86*00         [ 3]  773 	stx	*(__TEMP+0)
   0505 BA            [ 2]  774 	tsx
   0506 9D 1B 01      [ 5]  775 	sta	0x11b,x
   0509 A6*00         [ 3]  776 	ldx	*(__TEMP+0)
   050B 8A            [ 2]  777 	txa
   050C BA            [ 2]  778 	tsx
   050D 9D 1C 01      [ 5]  779 	sta	0x11c,x
   0510 A6*00         [ 3]  780 	ldx	*(__TEMP+0)
   0512 A5*00         [ 3]  781 	lda	*___SDCC_m6502_ret2
   0514 BA            [ 2]  782 	tsx
   0515 9D 1D 01      [ 5]  783 	sta	0x11d,x
   0518 A5*00         [ 3]  784 	lda	*___SDCC_m6502_ret3
   051A 9D 1E 01      [ 5]  785 	sta	0x11e,x
   051D A5*00         [ 3]  786 	lda	*___SDCC_m6502_ret4
   051F 9D 1F 01      [ 5]  787 	sta	0x11f,x
   0522 A5*00         [ 3]  788 	lda	*___SDCC_m6502_ret5
   0524 9D 20 01      [ 5]  789 	sta	0x120,x
   0527 A5*00         [ 3]  790 	lda	*___SDCC_m6502_ret6
   0529 9D 21 01      [ 5]  791 	sta	0x121,x
   052C A5*00         [ 3]  792 	lda	*___SDCC_m6502_ret7
   052E 9D 22 01      [ 5]  793 	sta	0x122,x
   0531 85*00         [ 3]  794 	sta	*(__TEMP+0)
   0533 86*01         [ 3]  795 	stx	*(__TEMP+1)
   0535 BA            [ 2]  796 	tsx
   0536 8A            [ 2]  797 	txa
   0537 18            [ 2]  798 	clc
   0538 69 10         [ 2]  799 	adc	#0x10
   053A AA            [ 2]  800 	tax
   053B 9A            [ 2]  801 	txs
   053C A6*01         [ 3]  802 	ldx	*(__TEMP+1)
   053E A5*00         [ 3]  803 	lda	*(__TEMP+0)
   0540 BA            [ 2]  804 	tsx
   0541 BD 0B 01      [ 5]  805 	lda	0x10b,x
   0544 9D 09 01      [ 5]  806 	sta	0x109,x
   0547 BD 0C 01      [ 5]  807 	lda	0x10c,x
   054A 9D 0A 01      [ 5]  808 	sta	0x10a,x
   054D BD 13 01      [ 5]  809 	lda	0x113,x
   0550 85*00         [ 3]  810 	sta	*(__DPTR+0)
   0552 BD 14 01      [ 5]  811 	lda	0x114,x
   0555 85*01         [ 3]  812 	sta	*(__DPTR+1)
   0557 BD 09 01      [ 5]  813 	lda	0x109,x
   055A A0 00         [ 2]  814 	ldy	#0x00
   055C 91*00         [ 6]  815 	sta	[__DPTR],y
   055E BD 0A 01      [ 5]  816 	lda	0x10a,x
   0561 C8            [ 2]  817 	iny
   0562 91*00         [ 6]  818 	sta	[__DPTR],y
   0564 BD 09 01      [ 5]  819 	lda	0x109,x
   0567 9D 01 01      [ 5]  820 	sta	0x101,x
   056A BD 0A 01      [ 5]  821 	lda	0x10a,x
   056D 9D 02 01      [ 5]  822 	sta	0x102,x
   0570 0A            [ 2]  823 	asl	a
   0571 A9 00         [ 2]  824 	lda	#0x00
   0573 69 FF         [ 2]  825 	adc	#0xff
   0575 49 FF         [ 2]  826 	eor	#0xff
   0577 9D 03 01      [ 5]  827 	sta	0x103,x
   057A 9D 04 01      [ 5]  828 	sta	0x104,x
   057D 9D 05 01      [ 5]  829 	sta	0x105,x
   0580 9D 06 01      [ 5]  830 	sta	0x106,x
   0583 9D 07 01      [ 5]  831 	sta	0x107,x
   0586 9D 08 01      [ 5]  832 	sta	0x108,x
   0589 BD 01 01      [ 5]  833 	lda	0x101,x
   058C DD 0B 01      [ 5]  834 	cmp	0x10b,x
   058F D0 38         [ 4]  835 	bne	00104$
   0591 BD 02 01      [ 5]  836 	lda	0x102,x
   0594 DD 0C 01      [ 5]  837 	cmp	0x10c,x
   0597 D0 30         [ 4]  838 	bne	00104$
   0599 BD 03 01      [ 5]  839 	lda	0x103,x
   059C DD 0D 01      [ 5]  840 	cmp	0x10d,x
   059F D0 28         [ 4]  841 	bne	00104$
   05A1 BD 04 01      [ 5]  842 	lda	0x104,x
   05A4 DD 0E 01      [ 5]  843 	cmp	0x10e,x
   05A7 D0 20         [ 4]  844 	bne	00104$
   05A9 BD 05 01      [ 5]  845 	lda	0x105,x
   05AC DD 0F 01      [ 5]  846 	cmp	0x10f,x
   05AF D0 18         [ 4]  847 	bne	00104$
   05B1 BD 06 01      [ 5]  848 	lda	0x106,x
   05B4 DD 10 01      [ 5]  849 	cmp	0x110,x
   05B7 D0 10         [ 4]  850 	bne	00104$
   05B9 BD 07 01      [ 5]  851 	lda	0x107,x
   05BC DD 11 01      [ 5]  852 	cmp	0x111,x
   05BF D0 08         [ 4]  853 	bne	00104$
   05C1 BD 08 01      [ 5]  854 	lda	0x108,x
   05C4 DD 12 01      [ 5]  855 	cmp	0x112,x
   05C7 F0 05         [ 4]  856 	beq	00112$
   05C9                     857 00104$:
   05C9 A9 00         [ 2]  858 	lda	#0x00
   05CB 4CrCFr05      [ 3]  859 	jmp	00111$
   05CE                     860 00112$:
   05CE 98            [ 2]  861 	tya
   05CF                     862 00111$:
   05CF 49 01         [ 2]  863 	eor	#0x01
   05D1 85*00         [ 3]  864 	sta	*(__TEMP+0)
   05D3 86*01         [ 3]  865 	stx	*(__TEMP+1)
   05D5 BA            [ 2]  866 	tsx
   05D6 8A            [ 2]  867 	txa
   05D7 18            [ 2]  868 	clc
   05D8 69 14         [ 2]  869 	adc	#0x14
   05DA AA            [ 2]  870 	tax
   05DB 9A            [ 2]  871 	txs
   05DC A6*01         [ 3]  872 	ldx	*(__TEMP+1)
   05DE A5*00         [ 3]  873 	lda	*(__TEMP+0)
   05E0 60            [ 6]  874 	rts
                            875 ;------------------------------------------------------------
                            876 ;Allocation info for local variables in function '__ckd_mul_uint'
                            877 ;------------------------------------------------------------
                            878 ;a                         Allocated to stack - sp +23
                            879 ;b                         Allocated to stack - sp +31
                            880 ;r                         Allocated to stack - sp +19
                            881 ;result                    Allocated to stack - sp +11
                            882 ;sloc0                     Allocated to stack - sp +11
                            883 ;sloc1                     Allocated to stack - sp +9
                            884 ;sloc2                     Allocated to stack - sp +1
                            885 ;------------------------------------------------------------
                            886 ;	./../../include/stdckdint.h: 74: inline _Bool __ckd_mul_uint __CKD_DEFAULT_IMPL(unsigned int, *)
                            887 ;	-----------------------------------------
                            888 ;	 function __ckd_mul_uint
                            889 ;	-----------------------------------------
                            890 ;	Register assignment might be sub-optimal.
                            891 ;	Stack space usage: 20 bytes.
   05E1                     892 ___ckd_mul_uint:
   05E1 85*00         [ 3]  893 	sta	*(__TEMP+0)
   05E3 8A            [ 2]  894 	txa
   05E4 48            [ 3]  895 	pha
   05E5 A5*00         [ 3]  896 	lda	*(__TEMP+0)
   05E7 48            [ 3]  897 	pha
   05E8 86*01         [ 3]  898 	stx	*(__TEMP+1)
   05EA BA            [ 2]  899 	tsx
   05EB 8A            [ 2]  900 	txa
   05EC 18            [ 2]  901 	clc
   05ED 69 EE         [ 2]  902 	adc	#0xee
   05EF AA            [ 2]  903 	tax
   05F0 9A            [ 2]  904 	txs
   05F1 A6*01         [ 3]  905 	ldx	*(__TEMP+1)
   05F3 A5*00         [ 3]  906 	lda	*(__TEMP+0)
   05F5 BA            [ 2]  907 	tsx
   05F6 BD 26 01      [ 5]  908 	lda	0x126,x
   05F9 48            [ 3]  909 	pha
   05FA BD 25 01      [ 5]  910 	lda	0x125,x
   05FD 48            [ 3]  911 	pha
   05FE BD 24 01      [ 5]  912 	lda	0x124,x
   0601 48            [ 3]  913 	pha
   0602 BD 23 01      [ 5]  914 	lda	0x123,x
   0605 48            [ 3]  915 	pha
   0606 BD 22 01      [ 5]  916 	lda	0x122,x
   0609 48            [ 3]  917 	pha
   060A BD 21 01      [ 5]  918 	lda	0x121,x
   060D 48            [ 3]  919 	pha
   060E BD 20 01      [ 5]  920 	lda	0x120,x
   0611 48            [ 3]  921 	pha
   0612 BD 1F 01      [ 5]  922 	lda	0x11f,x
   0615 48            [ 3]  923 	pha
   0616 BD 1E 01      [ 5]  924 	lda	0x11e,x
   0619 48            [ 3]  925 	pha
   061A BD 1D 01      [ 5]  926 	lda	0x11d,x
   061D 48            [ 3]  927 	pha
   061E BD 1C 01      [ 5]  928 	lda	0x11c,x
   0621 48            [ 3]  929 	pha
   0622 BD 1B 01      [ 5]  930 	lda	0x11b,x
   0625 48            [ 3]  931 	pha
   0626 BD 1A 01      [ 5]  932 	lda	0x11a,x
   0629 48            [ 3]  933 	pha
   062A BD 19 01      [ 5]  934 	lda	0x119,x
   062D 48            [ 3]  935 	pha
   062E BD 18 01      [ 5]  936 	lda	0x118,x
   0631 48            [ 3]  937 	pha
   0632 BD 17 01      [ 5]  938 	lda	0x117,x
   0635 48            [ 3]  939 	pha
   0636 20r00r00      [ 6]  940 	jsr	__mullonglong
   0639 86*00         [ 3]  941 	stx	*(__TEMP+0)
   063B BA            [ 2]  942 	tsx
   063C 9D 1B 01      [ 5]  943 	sta	0x11b,x
   063F A6*00         [ 3]  944 	ldx	*(__TEMP+0)
   0641 8A            [ 2]  945 	txa
   0642 BA            [ 2]  946 	tsx
   0643 9D 1C 01      [ 5]  947 	sta	0x11c,x
   0646 A6*00         [ 3]  948 	ldx	*(__TEMP+0)
   0648 A5*00         [ 3]  949 	lda	*___SDCC_m6502_ret2
   064A BA            [ 2]  950 	tsx
   064B 9D 1D 01      [ 5]  951 	sta	0x11d,x
   064E A5*00         [ 3]  952 	lda	*___SDCC_m6502_ret3
   0650 9D 1E 01      [ 5]  953 	sta	0x11e,x
   0653 A5*00         [ 3]  954 	lda	*___SDCC_m6502_ret4
   0655 9D 1F 01      [ 5]  955 	sta	0x11f,x
   0658 A5*00         [ 3]  956 	lda	*___SDCC_m6502_ret5
   065A 9D 20 01      [ 5]  957 	sta	0x120,x
   065D A5*00         [ 3]  958 	lda	*___SDCC_m6502_ret6
   065F 9D 21 01      [ 5]  959 	sta	0x121,x
   0662 A5*00         [ 3]  960 	lda	*___SDCC_m6502_ret7
   0664 9D 22 01      [ 5]  961 	sta	0x122,x
   0667 85*00         [ 3]  962 	sta	*(__TEMP+0)
   0669 86*01         [ 3]  963 	stx	*(__TEMP+1)
   066B BA            [ 2]  964 	tsx
   066C 8A            [ 2]  965 	txa
   066D 18            [ 2]  966 	clc
   066E 69 10         [ 2]  967 	adc	#0x10
   0670 AA            [ 2]  968 	tax
   0671 9A            [ 2]  969 	txs
   0672 A6*01         [ 3]  970 	ldx	*(__TEMP+1)
   0674 A5*00         [ 3]  971 	lda	*(__TEMP+0)
   0676 BA            [ 2]  972 	tsx
   0677 BD 0B 01      [ 5]  973 	lda	0x10b,x
   067A 9D 09 01      [ 5]  974 	sta	0x109,x
   067D BD 0C 01      [ 5]  975 	lda	0x10c,x
   0680 9D 0A 01      [ 5]  976 	sta	0x10a,x
   0683 BD 13 01      [ 5]  977 	lda	0x113,x
   0686 85*00         [ 3]  978 	sta	*(__DPTR+0)
   0688 BD 14 01      [ 5]  979 	lda	0x114,x
   068B 85*01         [ 3]  980 	sta	*(__DPTR+1)
   068D BD 09 01      [ 5]  981 	lda	0x109,x
   0690 A0 00         [ 2]  982 	ldy	#0x00
   0692 91*00         [ 6]  983 	sta	[__DPTR],y
   0694 BD 0A 01      [ 5]  984 	lda	0x10a,x
   0697 C8            [ 2]  985 	iny
   0698 91*00         [ 6]  986 	sta	[__DPTR],y
   069A BD 09 01      [ 5]  987 	lda	0x109,x
   069D 9D 01 01      [ 5]  988 	sta	0x101,x
   06A0 BD 0A 01      [ 5]  989 	lda	0x10a,x
   06A3 9D 02 01      [ 5]  990 	sta	0x102,x
   06A6 A9 00         [ 2]  991 	lda	#0x00
   06A8 9D 03 01      [ 5]  992 	sta	0x103,x
   06AB 9D 04 01      [ 5]  993 	sta	0x104,x
   06AE 9D 05 01      [ 5]  994 	sta	0x105,x
   06B1 9D 06 01      [ 5]  995 	sta	0x106,x
   06B4 9D 07 01      [ 5]  996 	sta	0x107,x
   06B7 9D 08 01      [ 5]  997 	sta	0x108,x
   06BA BD 01 01      [ 5]  998 	lda	0x101,x
   06BD DD 0B 01      [ 5]  999 	cmp	0x10b,x
   06C0 D0 38         [ 4] 1000 	bne	00104$
   06C2 BD 02 01      [ 5] 1001 	lda	0x102,x
   06C5 DD 0C 01      [ 5] 1002 	cmp	0x10c,x
   06C8 D0 30         [ 4] 1003 	bne	00104$
   06CA BD 03 01      [ 5] 1004 	lda	0x103,x
   06CD DD 0D 01      [ 5] 1005 	cmp	0x10d,x
   06D0 D0 28         [ 4] 1006 	bne	00104$
   06D2 BD 04 01      [ 5] 1007 	lda	0x104,x
   06D5 DD 0E 01      [ 5] 1008 	cmp	0x10e,x
   06D8 D0 20         [ 4] 1009 	bne	00104$
   06DA BD 05 01      [ 5] 1010 	lda	0x105,x
   06DD DD 0F 01      [ 5] 1011 	cmp	0x10f,x
   06E0 D0 18         [ 4] 1012 	bne	00104$
   06E2 BD 06 01      [ 5] 1013 	lda	0x106,x
   06E5 DD 10 01      [ 5] 1014 	cmp	0x110,x
   06E8 D0 10         [ 4] 1015 	bne	00104$
   06EA BD 07 01      [ 5] 1016 	lda	0x107,x
   06ED DD 11 01      [ 5] 1017 	cmp	0x111,x
   06F0 D0 08         [ 4] 1018 	bne	00104$
   06F2 BD 08 01      [ 5] 1019 	lda	0x108,x
   06F5 DD 12 01      [ 5] 1020 	cmp	0x112,x
   06F8 F0 05         [ 4] 1021 	beq	00112$
   06FA                    1022 00104$:
   06FA A9 00         [ 2] 1023 	lda	#0x00
   06FC 4Cr00r07      [ 3] 1024 	jmp	00111$
   06FF                    1025 00112$:
   06FF 98            [ 2] 1026 	tya
   0700                    1027 00111$:
   0700 49 01         [ 2] 1028 	eor	#0x01
   0702 85*00         [ 3] 1029 	sta	*(__TEMP+0)
   0704 86*01         [ 3] 1030 	stx	*(__TEMP+1)
   0706 BA            [ 2] 1031 	tsx
   0707 8A            [ 2] 1032 	txa
   0708 18            [ 2] 1033 	clc
   0709 69 14         [ 2] 1034 	adc	#0x14
   070B AA            [ 2] 1035 	tax
   070C 9A            [ 2] 1036 	txs
   070D A6*01         [ 3] 1037 	ldx	*(__TEMP+1)
   070F A5*00         [ 3] 1038 	lda	*(__TEMP+0)
   0711 60            [ 6] 1039 	rts
                           1040 ;------------------------------------------------------------
                           1041 ;Allocation info for local variables in function '__ckd_mul_long'
                           1042 ;------------------------------------------------------------
                           1043 ;a                         Allocated to stack - sp +25
                           1044 ;b                         Allocated to stack - sp +33
                           1045 ;r                         Allocated to stack - sp +21
                           1046 ;result                    Allocated to stack - sp +13
                           1047 ;sloc0                     Allocated to stack - sp +13
                           1048 ;sloc1                     Allocated to stack - sp +9
                           1049 ;sloc2                     Allocated to stack - sp +1
                           1050 ;------------------------------------------------------------
                           1051 ;	./../../include/stdckdint.h: 75: inline _Bool __ckd_mul_long __CKD_DEFAULT_IMPL(long, *)
                           1052 ;	-----------------------------------------
                           1053 ;	 function __ckd_mul_long
                           1054 ;	-----------------------------------------
                           1055 ;	Register assignment might be sub-optimal.
                           1056 ;	Stack space usage: 22 bytes.
   0712                    1057 ___ckd_mul_long:
   0712 85*00         [ 3] 1058 	sta	*(__TEMP+0)
   0714 8A            [ 2] 1059 	txa
   0715 48            [ 3] 1060 	pha
   0716 A5*00         [ 3] 1061 	lda	*(__TEMP+0)
   0718 48            [ 3] 1062 	pha
   0719 86*01         [ 3] 1063 	stx	*(__TEMP+1)
   071B BA            [ 2] 1064 	tsx
   071C 8A            [ 2] 1065 	txa
   071D 18            [ 2] 1066 	clc
   071E 69 EC         [ 2] 1067 	adc	#0xec
   0720 AA            [ 2] 1068 	tax
   0721 9A            [ 2] 1069 	txs
   0722 A6*01         [ 3] 1070 	ldx	*(__TEMP+1)
   0724 A5*00         [ 3] 1071 	lda	*(__TEMP+0)
   0726 BA            [ 2] 1072 	tsx
   0727 BD 28 01      [ 5] 1073 	lda	0x128,x
   072A 48            [ 3] 1074 	pha
   072B BD 27 01      [ 5] 1075 	lda	0x127,x
   072E 48            [ 3] 1076 	pha
   072F BD 26 01      [ 5] 1077 	lda	0x126,x
   0732 48            [ 3] 1078 	pha
   0733 BD 25 01      [ 5] 1079 	lda	0x125,x
   0736 48            [ 3] 1080 	pha
   0737 BD 24 01      [ 5] 1081 	lda	0x124,x
   073A 48            [ 3] 1082 	pha
   073B BD 23 01      [ 5] 1083 	lda	0x123,x
   073E 48            [ 3] 1084 	pha
   073F BD 22 01      [ 5] 1085 	lda	0x122,x
   0742 48            [ 3] 1086 	pha
   0743 BD 21 01      [ 5] 1087 	lda	0x121,x
   0746 48            [ 3] 1088 	pha
   0747 BD 20 01      [ 5] 1089 	lda	0x120,x
   074A 48            [ 3] 1090 	pha
   074B BD 1F 01      [ 5] 1091 	lda	0x11f,x
   074E 48            [ 3] 1092 	pha
   074F BD 1E 01      [ 5] 1093 	lda	0x11e,x
   0752 48            [ 3] 1094 	pha
   0753 BD 1D 01      [ 5] 1095 	lda	0x11d,x
   0756 48            [ 3] 1096 	pha
   0757 BD 1C 01      [ 5] 1097 	lda	0x11c,x
   075A 48            [ 3] 1098 	pha
   075B BD 1B 01      [ 5] 1099 	lda	0x11b,x
   075E 48            [ 3] 1100 	pha
   075F BD 1A 01      [ 5] 1101 	lda	0x11a,x
   0762 48            [ 3] 1102 	pha
   0763 BD 19 01      [ 5] 1103 	lda	0x119,x
   0766 48            [ 3] 1104 	pha
   0767 20r00r00      [ 6] 1105 	jsr	__mullonglong
   076A 86*00         [ 3] 1106 	stx	*(__TEMP+0)
   076C BA            [ 2] 1107 	tsx
   076D 9D 1D 01      [ 5] 1108 	sta	0x11d,x
   0770 A6*00         [ 3] 1109 	ldx	*(__TEMP+0)
   0772 8A            [ 2] 1110 	txa
   0773 BA            [ 2] 1111 	tsx
   0774 9D 1E 01      [ 5] 1112 	sta	0x11e,x
   0777 A6*00         [ 3] 1113 	ldx	*(__TEMP+0)
   0779 A5*00         [ 3] 1114 	lda	*___SDCC_m6502_ret2
   077B BA            [ 2] 1115 	tsx
   077C 9D 1F 01      [ 5] 1116 	sta	0x11f,x
   077F A5*00         [ 3] 1117 	lda	*___SDCC_m6502_ret3
   0781 9D 20 01      [ 5] 1118 	sta	0x120,x
   0784 A5*00         [ 3] 1119 	lda	*___SDCC_m6502_ret4
   0786 9D 21 01      [ 5] 1120 	sta	0x121,x
   0789 A5*00         [ 3] 1121 	lda	*___SDCC_m6502_ret5
   078B 9D 22 01      [ 5] 1122 	sta	0x122,x
   078E A5*00         [ 3] 1123 	lda	*___SDCC_m6502_ret6
   0790 9D 23 01      [ 5] 1124 	sta	0x123,x
   0793 A5*00         [ 3] 1125 	lda	*___SDCC_m6502_ret7
   0795 9D 24 01      [ 5] 1126 	sta	0x124,x
   0798 85*00         [ 3] 1127 	sta	*(__TEMP+0)
   079A 86*01         [ 3] 1128 	stx	*(__TEMP+1)
   079C BA            [ 2] 1129 	tsx
   079D 8A            [ 2] 1130 	txa
   079E 18            [ 2] 1131 	clc
   079F 69 10         [ 2] 1132 	adc	#0x10
   07A1 AA            [ 2] 1133 	tax
   07A2 9A            [ 2] 1134 	txs
   07A3 A6*01         [ 3] 1135 	ldx	*(__TEMP+1)
   07A5 A5*00         [ 3] 1136 	lda	*(__TEMP+0)
   07A7 BA            [ 2] 1137 	tsx
   07A8 BD 0D 01      [ 5] 1138 	lda	0x10d,x
   07AB 9D 09 01      [ 5] 1139 	sta	0x109,x
   07AE BD 0E 01      [ 5] 1140 	lda	0x10e,x
   07B1 9D 0A 01      [ 5] 1141 	sta	0x10a,x
   07B4 BD 0F 01      [ 5] 1142 	lda	0x10f,x
   07B7 9D 0B 01      [ 5] 1143 	sta	0x10b,x
   07BA BD 10 01      [ 5] 1144 	lda	0x110,x
   07BD 9D 0C 01      [ 5] 1145 	sta	0x10c,x
   07C0 BD 15 01      [ 5] 1146 	lda	0x115,x
   07C3 85*00         [ 3] 1147 	sta	*(__DPTR+0)
   07C5 BD 16 01      [ 5] 1148 	lda	0x116,x
   07C8 85*01         [ 3] 1149 	sta	*(__DPTR+1)
   07CA BD 09 01      [ 5] 1150 	lda	0x109,x
   07CD A0 00         [ 2] 1151 	ldy	#0x00
   07CF 91*00         [ 6] 1152 	sta	[__DPTR],y
   07D1 BD 0A 01      [ 5] 1153 	lda	0x10a,x
   07D4 C8            [ 2] 1154 	iny
   07D5 91*00         [ 6] 1155 	sta	[__DPTR],y
   07D7 BD 0B 01      [ 5] 1156 	lda	0x10b,x
   07DA C8            [ 2] 1157 	iny
   07DB 91*00         [ 6] 1158 	sta	[__DPTR],y
   07DD BD 0C 01      [ 5] 1159 	lda	0x10c,x
   07E0 C8            [ 2] 1160 	iny
   07E1 91*00         [ 6] 1161 	sta	[__DPTR],y
   07E3 BD 09 01      [ 5] 1162 	lda	0x109,x
   07E6 9D 01 01      [ 5] 1163 	sta	0x101,x
   07E9 BD 0A 01      [ 5] 1164 	lda	0x10a,x
   07EC 9D 02 01      [ 5] 1165 	sta	0x102,x
   07EF BD 0B 01      [ 5] 1166 	lda	0x10b,x
   07F2 9D 03 01      [ 5] 1167 	sta	0x103,x
   07F5 BD 0C 01      [ 5] 1168 	lda	0x10c,x
   07F8 9D 04 01      [ 5] 1169 	sta	0x104,x
   07FB 0A            [ 2] 1170 	asl	a
   07FC A9 00         [ 2] 1171 	lda	#0x00
   07FE 69 FF         [ 2] 1172 	adc	#0xff
   0800 49 FF         [ 2] 1173 	eor	#0xff
   0802 9D 05 01      [ 5] 1174 	sta	0x105,x
   0805 9D 06 01      [ 5] 1175 	sta	0x106,x
   0808 9D 07 01      [ 5] 1176 	sta	0x107,x
   080B 9D 08 01      [ 5] 1177 	sta	0x108,x
   080E BD 01 01      [ 5] 1178 	lda	0x101,x
   0811 DD 0D 01      [ 5] 1179 	cmp	0x10d,x
   0814 D0 38         [ 4] 1180 	bne	00104$
   0816 BD 02 01      [ 5] 1181 	lda	0x102,x
   0819 DD 0E 01      [ 5] 1182 	cmp	0x10e,x
   081C D0 30         [ 4] 1183 	bne	00104$
   081E BD 03 01      [ 5] 1184 	lda	0x103,x
   0821 DD 0F 01      [ 5] 1185 	cmp	0x10f,x
   0824 D0 28         [ 4] 1186 	bne	00104$
   0826 BD 04 01      [ 5] 1187 	lda	0x104,x
   0829 DD 10 01      [ 5] 1188 	cmp	0x110,x
   082C D0 20         [ 4] 1189 	bne	00104$
   082E BD 05 01      [ 5] 1190 	lda	0x105,x
   0831 DD 11 01      [ 5] 1191 	cmp	0x111,x
   0834 D0 18         [ 4] 1192 	bne	00104$
   0836 BD 06 01      [ 5] 1193 	lda	0x106,x
   0839 DD 12 01      [ 5] 1194 	cmp	0x112,x
   083C D0 10         [ 4] 1195 	bne	00104$
   083E BD 07 01      [ 5] 1196 	lda	0x107,x
   0841 DD 13 01      [ 5] 1197 	cmp	0x113,x
   0844 D0 08         [ 4] 1198 	bne	00104$
   0846 BD 08 01      [ 5] 1199 	lda	0x108,x
   0849 DD 14 01      [ 5] 1200 	cmp	0x114,x
   084C F0 05         [ 4] 1201 	beq	00112$
   084E                    1202 00104$:
   084E A9 00         [ 2] 1203 	lda	#0x00
   0850 4Cr55r08      [ 3] 1204 	jmp	00111$
   0853                    1205 00112$:
   0853 A9 01         [ 2] 1206 	lda	#0x01
   0855                    1207 00111$:
   0855 49 01         [ 2] 1208 	eor	#0x01
   0857 85*00         [ 3] 1209 	sta	*(__TEMP+0)
   0859 86*01         [ 3] 1210 	stx	*(__TEMP+1)
   085B BA            [ 2] 1211 	tsx
   085C 8A            [ 2] 1212 	txa
   085D 18            [ 2] 1213 	clc
   085E 69 16         [ 2] 1214 	adc	#0x16
   0860 AA            [ 2] 1215 	tax
   0861 9A            [ 2] 1216 	txs
   0862 A6*01         [ 3] 1217 	ldx	*(__TEMP+1)
   0864 A5*00         [ 3] 1218 	lda	*(__TEMP+0)
   0866 60            [ 6] 1219 	rts
                           1220 ;------------------------------------------------------------
                           1221 ;Allocation info for local variables in function '__ckd_mul_ulong'
                           1222 ;------------------------------------------------------------
                           1223 ;a                         Allocated to stack - sp +25
                           1224 ;b                         Allocated to stack - sp +33
                           1225 ;r                         Allocated to stack - sp +21
                           1226 ;result                    Allocated to stack - sp +13
                           1227 ;sloc0                     Allocated to stack - sp +13
                           1228 ;sloc1                     Allocated to stack - sp +9
                           1229 ;sloc2                     Allocated to stack - sp +1
                           1230 ;------------------------------------------------------------
                           1231 ;	./../../include/stdckdint.h: 76: inline _Bool __ckd_mul_ulong __CKD_DEFAULT_IMPL(unsigned long, *)
                           1232 ;	-----------------------------------------
                           1233 ;	 function __ckd_mul_ulong
                           1234 ;	-----------------------------------------
                           1235 ;	Register assignment might be sub-optimal.
                           1236 ;	Stack space usage: 22 bytes.
   0867                    1237 ___ckd_mul_ulong:
   0867 85*00         [ 3] 1238 	sta	*(__TEMP+0)
   0869 8A            [ 2] 1239 	txa
   086A 48            [ 3] 1240 	pha
   086B A5*00         [ 3] 1241 	lda	*(__TEMP+0)
   086D 48            [ 3] 1242 	pha
   086E 86*01         [ 3] 1243 	stx	*(__TEMP+1)
   0870 BA            [ 2] 1244 	tsx
   0871 8A            [ 2] 1245 	txa
   0872 18            [ 2] 1246 	clc
   0873 69 EC         [ 2] 1247 	adc	#0xec
   0875 AA            [ 2] 1248 	tax
   0876 9A            [ 2] 1249 	txs
   0877 A6*01         [ 3] 1250 	ldx	*(__TEMP+1)
   0879 A5*00         [ 3] 1251 	lda	*(__TEMP+0)
   087B BA            [ 2] 1252 	tsx
   087C BD 28 01      [ 5] 1253 	lda	0x128,x
   087F 48            [ 3] 1254 	pha
   0880 BD 27 01      [ 5] 1255 	lda	0x127,x
   0883 48            [ 3] 1256 	pha
   0884 BD 26 01      [ 5] 1257 	lda	0x126,x
   0887 48            [ 3] 1258 	pha
   0888 BD 25 01      [ 5] 1259 	lda	0x125,x
   088B 48            [ 3] 1260 	pha
   088C BD 24 01      [ 5] 1261 	lda	0x124,x
   088F 48            [ 3] 1262 	pha
   0890 BD 23 01      [ 5] 1263 	lda	0x123,x
   0893 48            [ 3] 1264 	pha
   0894 BD 22 01      [ 5] 1265 	lda	0x122,x
   0897 48            [ 3] 1266 	pha
   0898 BD 21 01      [ 5] 1267 	lda	0x121,x
   089B 48            [ 3] 1268 	pha
   089C BD 20 01      [ 5] 1269 	lda	0x120,x
   089F 48            [ 3] 1270 	pha
   08A0 BD 1F 01      [ 5] 1271 	lda	0x11f,x
   08A3 48            [ 3] 1272 	pha
   08A4 BD 1E 01      [ 5] 1273 	lda	0x11e,x
   08A7 48            [ 3] 1274 	pha
   08A8 BD 1D 01      [ 5] 1275 	lda	0x11d,x
   08AB 48            [ 3] 1276 	pha
   08AC BD 1C 01      [ 5] 1277 	lda	0x11c,x
   08AF 48            [ 3] 1278 	pha
   08B0 BD 1B 01      [ 5] 1279 	lda	0x11b,x
   08B3 48            [ 3] 1280 	pha
   08B4 BD 1A 01      [ 5] 1281 	lda	0x11a,x
   08B7 48            [ 3] 1282 	pha
   08B8 BD 19 01      [ 5] 1283 	lda	0x119,x
   08BB 48            [ 3] 1284 	pha
   08BC 20r00r00      [ 6] 1285 	jsr	__mullonglong
   08BF 86*00         [ 3] 1286 	stx	*(__TEMP+0)
   08C1 BA            [ 2] 1287 	tsx
   08C2 9D 1D 01      [ 5] 1288 	sta	0x11d,x
   08C5 A6*00         [ 3] 1289 	ldx	*(__TEMP+0)
   08C7 8A            [ 2] 1290 	txa
   08C8 BA            [ 2] 1291 	tsx
   08C9 9D 1E 01      [ 5] 1292 	sta	0x11e,x
   08CC A6*00         [ 3] 1293 	ldx	*(__TEMP+0)
   08CE A5*00         [ 3] 1294 	lda	*___SDCC_m6502_ret2
   08D0 BA            [ 2] 1295 	tsx
   08D1 9D 1F 01      [ 5] 1296 	sta	0x11f,x
   08D4 A5*00         [ 3] 1297 	lda	*___SDCC_m6502_ret3
   08D6 9D 20 01      [ 5] 1298 	sta	0x120,x
   08D9 A5*00         [ 3] 1299 	lda	*___SDCC_m6502_ret4
   08DB 9D 21 01      [ 5] 1300 	sta	0x121,x
   08DE A5*00         [ 3] 1301 	lda	*___SDCC_m6502_ret5
   08E0 9D 22 01      [ 5] 1302 	sta	0x122,x
   08E3 A5*00         [ 3] 1303 	lda	*___SDCC_m6502_ret6
   08E5 9D 23 01      [ 5] 1304 	sta	0x123,x
   08E8 A5*00         [ 3] 1305 	lda	*___SDCC_m6502_ret7
   08EA 9D 24 01      [ 5] 1306 	sta	0x124,x
   08ED 85*00         [ 3] 1307 	sta	*(__TEMP+0)
   08EF 86*01         [ 3] 1308 	stx	*(__TEMP+1)
   08F1 BA            [ 2] 1309 	tsx
   08F2 8A            [ 2] 1310 	txa
   08F3 18            [ 2] 1311 	clc
   08F4 69 10         [ 2] 1312 	adc	#0x10
   08F6 AA            [ 2] 1313 	tax
   08F7 9A            [ 2] 1314 	txs
   08F8 A6*01         [ 3] 1315 	ldx	*(__TEMP+1)
   08FA A5*00         [ 3] 1316 	lda	*(__TEMP+0)
   08FC BA            [ 2] 1317 	tsx
   08FD BD 0D 01      [ 5] 1318 	lda	0x10d,x
   0900 9D 09 01      [ 5] 1319 	sta	0x109,x
   0903 BD 0E 01      [ 5] 1320 	lda	0x10e,x
   0906 9D 0A 01      [ 5] 1321 	sta	0x10a,x
   0909 BD 0F 01      [ 5] 1322 	lda	0x10f,x
   090C 9D 0B 01      [ 5] 1323 	sta	0x10b,x
   090F BD 10 01      [ 5] 1324 	lda	0x110,x
   0912 9D 0C 01      [ 5] 1325 	sta	0x10c,x
   0915 BD 15 01      [ 5] 1326 	lda	0x115,x
   0918 85*00         [ 3] 1327 	sta	*(__DPTR+0)
   091A BD 16 01      [ 5] 1328 	lda	0x116,x
   091D 85*01         [ 3] 1329 	sta	*(__DPTR+1)
   091F BD 09 01      [ 5] 1330 	lda	0x109,x
   0922 A0 00         [ 2] 1331 	ldy	#0x00
   0924 91*00         [ 6] 1332 	sta	[__DPTR],y
   0926 BD 0A 01      [ 5] 1333 	lda	0x10a,x
   0929 C8            [ 2] 1334 	iny
   092A 91*00         [ 6] 1335 	sta	[__DPTR],y
   092C BD 0B 01      [ 5] 1336 	lda	0x10b,x
   092F C8            [ 2] 1337 	iny
   0930 91*00         [ 6] 1338 	sta	[__DPTR],y
   0932 BD 0C 01      [ 5] 1339 	lda	0x10c,x
   0935 C8            [ 2] 1340 	iny
   0936 91*00         [ 6] 1341 	sta	[__DPTR],y
   0938 BD 09 01      [ 5] 1342 	lda	0x109,x
   093B 9D 01 01      [ 5] 1343 	sta	0x101,x
   093E BD 0A 01      [ 5] 1344 	lda	0x10a,x
   0941 9D 02 01      [ 5] 1345 	sta	0x102,x
   0944 BD 0B 01      [ 5] 1346 	lda	0x10b,x
   0947 9D 03 01      [ 5] 1347 	sta	0x103,x
   094A BD 0C 01      [ 5] 1348 	lda	0x10c,x
   094D 9D 04 01      [ 5] 1349 	sta	0x104,x
   0950 A9 00         [ 2] 1350 	lda	#0x00
   0952 9D 05 01      [ 5] 1351 	sta	0x105,x
   0955 9D 06 01      [ 5] 1352 	sta	0x106,x
   0958 9D 07 01      [ 5] 1353 	sta	0x107,x
   095B 9D 08 01      [ 5] 1354 	sta	0x108,x
   095E BD 01 01      [ 5] 1355 	lda	0x101,x
   0961 DD 0D 01      [ 5] 1356 	cmp	0x10d,x
   0964 D0 38         [ 4] 1357 	bne	00104$
   0966 BD 02 01      [ 5] 1358 	lda	0x102,x
   0969 DD 0E 01      [ 5] 1359 	cmp	0x10e,x
   096C D0 30         [ 4] 1360 	bne	00104$
   096E BD 03 01      [ 5] 1361 	lda	0x103,x
   0971 DD 0F 01      [ 5] 1362 	cmp	0x10f,x
   0974 D0 28         [ 4] 1363 	bne	00104$
   0976 BD 04 01      [ 5] 1364 	lda	0x104,x
   0979 DD 10 01      [ 5] 1365 	cmp	0x110,x
   097C D0 20         [ 4] 1366 	bne	00104$
   097E BD 05 01      [ 5] 1367 	lda	0x105,x
   0981 DD 11 01      [ 5] 1368 	cmp	0x111,x
   0984 D0 18         [ 4] 1369 	bne	00104$
   0986 BD 06 01      [ 5] 1370 	lda	0x106,x
   0989 DD 12 01      [ 5] 1371 	cmp	0x112,x
   098C D0 10         [ 4] 1372 	bne	00104$
   098E BD 07 01      [ 5] 1373 	lda	0x107,x
   0991 DD 13 01      [ 5] 1374 	cmp	0x113,x
   0994 D0 08         [ 4] 1375 	bne	00104$
   0996 BD 08 01      [ 5] 1376 	lda	0x108,x
   0999 DD 14 01      [ 5] 1377 	cmp	0x114,x
   099C F0 05         [ 4] 1378 	beq	00112$
   099E                    1379 00104$:
   099E A9 00         [ 2] 1380 	lda	#0x00
   09A0 4CrA5r09      [ 3] 1381 	jmp	00111$
   09A3                    1382 00112$:
   09A3 A9 01         [ 2] 1383 	lda	#0x01
   09A5                    1384 00111$:
   09A5 49 01         [ 2] 1385 	eor	#0x01
   09A7 85*00         [ 3] 1386 	sta	*(__TEMP+0)
   09A9 86*01         [ 3] 1387 	stx	*(__TEMP+1)
   09AB BA            [ 2] 1388 	tsx
   09AC 8A            [ 2] 1389 	txa
   09AD 18            [ 2] 1390 	clc
   09AE 69 16         [ 2] 1391 	adc	#0x16
   09B0 AA            [ 2] 1392 	tax
   09B1 9A            [ 2] 1393 	txs
   09B2 A6*01         [ 3] 1394 	ldx	*(__TEMP+1)
   09B4 A5*00         [ 3] 1395 	lda	*(__TEMP+0)
   09B6 60            [ 6] 1396 	rts
                           1397 	.area CODE
                           1398 	.area RODATA
                           1399 	.area XINIT
                           1400 	.area CABS    (ABS)
