;--------------------------------------------------------
; File Created by SDCC : free open source ISO C Compiler 
; Version 4.2.14 #0 (Linux)
;--------------------------------------------------------
	.module tanhf
	.optsdcc -mmos6502
	
;--------------------------------------------------------
; Public variables in this module
;--------------------------------------------------------
	.globl _fabsf
	.globl _expf
	.globl _tanhf
;--------------------------------------------------------
; ZP ram data
;--------------------------------------------------------
	.area ZP      (PAG)
;--------------------------------------------------------
; overlayable items in ram
;--------------------------------------------------------
;--------------------------------------------------------
; uninitialized external ram data
;--------------------------------------------------------
	.area BSS
;--------------------------------------------------------
; absolute external ram data
;--------------------------------------------------------
	.area DABS    (ABS)
;--------------------------------------------------------
; initialized external ram data
;--------------------------------------------------------
	.area DATA
;--------------------------------------------------------
; global & static initialisations
;--------------------------------------------------------
	.area _CODE
	.area GSINIT
	.area GSFINAL
	.area GSINIT
;--------------------------------------------------------
; Home
;--------------------------------------------------------
	.area _CODE
	.area _CODE
;--------------------------------------------------------
; code
;--------------------------------------------------------
	.area CODE
;------------------------------------------------------------
;Allocation info for local variables in function 'tanhf'
;------------------------------------------------------------
;x                         Allocated to stack - sp +19
;f                         Allocated to stack - sp +13
;g                         Allocated to stack - sp +9
;r                         Allocated to stack - sp +1
;sloc0                     Allocated to stack - sp +13
;sloc1                     Allocated to stack - sp +9
;sloc2                     Allocated to stack - sp +5
;------------------------------------------------------------
;	../tanhf.c: 50: float tanhf(float x) _FLOAT_FUNC_REENTRANT
;	-----------------------------------------
;	 function tanhf
;	-----------------------------------------
;	Register assignment is optimal.
;	Stack space usage: 16 bytes.
_tanhf:
	sta	*(__TEMP+0)
	stx	*(__TEMP+1)
	tsx
	txa
	clc
	adc	#0xf0
	tax
	txs
	ldx	*(__TEMP+1)
	lda	*(__TEMP+0)
;	../tanhf.c: 54: f=fabsf(x);
	tsx
	lda	0x116,x
	pha
	lda	0x115,x
	pha
	lda	0x114,x
	pha
	lda	0x113,x
	pha
	jsr	_fabsf
	stx	*(__TEMP+0)
	tsx
	sta	0x111,x
	ldx	*(__TEMP+0)
	txa
	tsx
	sta	0x112,x
	ldx	*(__TEMP+0)
	lda	*___SDCC_m6502_ret2
	tsx
	sta	0x113,x
	lda	*___SDCC_m6502_ret3
	sta	0x114,x
	sta	*(__TEMP+0)
	pla
	pla
	pla
	pla
;	../tanhf.c: 55: if(f>SBIG) r=1.0;
	lda	0x114, x
	pha
	lda	0x113,x
	pha
	lda	0x112,x
	pha
	lda	0x111,x
	pha
	lda	#0x41
	pha
	lda	#0x10
	pha
	lda	#0x2c
	pha
	lda	#0xb0
	pha
	jsr	___fslt
	sta	*(__TEMP+0)
	stx	*(__TEMP+1)
	tsx
	txa
	clc
	adc	#0x08
	tax
	txs
	ldx	*(__TEMP+1)
	lda	*(__TEMP+0)
	beq	00108$
	tsx
	lda	#0x00
	sta	0x101,x
	sta	0x102,x
	lda	#0x80
	sta	0x103,x
	lda	#0x3f
	sta	0x104,x
	jmp	00109$
00108$:
;	../tanhf.c: 56: else if(f>K1)
	tsx
	lda	0x110,x
	pha
	lda	0x10f,x
	pha
	lda	0x10e,x
	pha
	lda	0x10d,x
	pha
	lda	#0x3f
	pha
	lda	#0x0c
	pha
	lda	#0x9f
	pha
	lda	#0x54
	pha
	jsr	___fslt
	sta	*(__TEMP+0)
	stx	*(__TEMP+1)
	tsx
	txa
	clc
	adc	#0x08
	tax
	txs
	ldx	*(__TEMP+1)
	lda	*(__TEMP+0)
	bne	00131$
	jmp	00105$
00131$:
;	../tanhf.c: 58: r=0.5-1.0/(expf(f+f)+1.0);
	tsx
	lda	0x110,x
	pha
	lda	0x10f,x
	pha
	lda	0x10e,x
	pha
	lda	0x10d,x
	pha
	lda	0x110,x
	pha
	lda	0x10f,x
	pha
	lda	0x10e,x
	pha
	lda	0x10d,x
	pha
	jsr	___fsadd
	stx	*(__TEMP+0)
	tsx
	sta	0x111,x
	ldx	*(__TEMP+0)
	txa
	tsx
	sta	0x112,x
	ldx	*(__TEMP+0)
	lda	*___SDCC_m6502_ret2
	tsx
	sta	0x113,x
	lda	*___SDCC_m6502_ret3
	sta	0x114,x
	sta	*(__TEMP+0)
	stx	*(__TEMP+1)
	tsx
	txa
	clc
	adc	#0x08
	tax
	txs
	ldx	*(__TEMP+1)
	lda	*(__TEMP+0)
	tsx
	lda	0x10c,x
	pha
	lda	0x10b,x
	pha
	lda	0x10a,x
	pha
	lda	0x109,x
	pha
	jsr	_expf
	stx	*(__TEMP+0)
	tsx
	sta	0x10d,x
	ldx	*(__TEMP+0)
	txa
	tsx
	sta	0x10e,x
	ldx	*(__TEMP+0)
	lda	*___SDCC_m6502_ret2
	tsx
	sta	0x10f,x
	lda	*___SDCC_m6502_ret3
	sta	0x110,x
	sta	*(__TEMP+0)
	pla
	pla
	pla
	pla
	lda	#0x3f
	pha
	lda	#0x80
	pha
	lda	#0x00
	pha
	pha
	lda	0x110,x
	pha
	lda	0x10f,x
	pha
	lda	0x10e,x
	pha
	lda	0x10d,x
	pha
	jsr	___fsadd
	stx	*(__TEMP+0)
	tsx
	sta	0x111,x
	ldx	*(__TEMP+0)
	txa
	tsx
	sta	0x112,x
	ldx	*(__TEMP+0)
	lda	*___SDCC_m6502_ret2
	tsx
	sta	0x113,x
	lda	*___SDCC_m6502_ret3
	sta	0x114,x
	sta	*(__TEMP+0)
	stx	*(__TEMP+1)
	tsx
	txa
	clc
	adc	#0x08
	tax
	txs
	ldx	*(__TEMP+1)
	lda	*(__TEMP+0)
	tsx
	lda	0x10c,x
	pha
	lda	0x10b,x
	pha
	lda	0x10a,x
	pha
	lda	0x109,x
	pha
	lda	#0x3f
	pha
	lda	#0x80
	pha
	lda	#0x00
	pha
	pha
	jsr	___fsdiv
	stx	*(__TEMP+0)
	tsx
	sta	0x111,x
	ldx	*(__TEMP+0)
	txa
	tsx
	sta	0x112,x
	ldx	*(__TEMP+0)
	lda	*___SDCC_m6502_ret2
	tsx
	sta	0x113,x
	lda	*___SDCC_m6502_ret3
	sta	0x114,x
	sta	*(__TEMP+0)
	stx	*(__TEMP+1)
	tsx
	txa
	clc
	adc	#0x08
	tax
	txs
	ldx	*(__TEMP+1)
	lda	*(__TEMP+0)
	tsx
	lda	0x10c,x
	pha
	lda	0x10b,x
	pha
	lda	0x10a,x
	pha
	lda	0x109,x
	pha
	lda	#0x3f
	pha
	lda	#0x00
	pha
	pha
	pha
;	../tanhf.c: 59: r+=r;
	jsr	___fssub
	stx	*(__TEMP+0)
	tsx
	sta	0x111,x
	ldx	*(__TEMP+0)
	txa
	tsx
	sta	0x112,x
	ldx	*(__TEMP+0)
	lda	*___SDCC_m6502_ret2
	tsx
	sta	0x113,x
	lda	*___SDCC_m6502_ret3
	sta	0x114,x
	sta	*(__TEMP+0)
	stx	*(__TEMP+1)
	tsx
	txa
	clc
	adc	#0x08
	tax
	txs
	ldx	*(__TEMP+1)
	lda	*(__TEMP+0)
	tsx
	lda	0x10c,x
	pha
	lda	0x10b,x
	pha
	lda	0x10a,x
	pha
	lda	0x109,x
	pha
	lda	0x10c,x
	pha
	lda	0x10b,x
	pha
	lda	0x10a,x
	pha
	lda	0x109,x
	pha
	jsr	___fsadd
	stx	*(__TEMP+0)
	tsx
	sta	0x109,x
	ldx	*(__TEMP+0)
	txa
	tsx
	sta	0x10a,x
	ldx	*(__TEMP+0)
	lda	*___SDCC_m6502_ret2
	tsx
	sta	0x10b,x
	lda	*___SDCC_m6502_ret3
	sta	0x10c,x
	sta	*(__TEMP+0)
	stx	*(__TEMP+1)
	tsx
	txa
	clc
	adc	#0x08
	tax
	txs
	ldx	*(__TEMP+1)
	lda	*(__TEMP+0)
	jmp	00109$
00105$:
;	../tanhf.c: 61: else if(f<EPS) r=f;
	lda	#0x39
	pha
	lda	#0x80
	pha
	lda	#0x00
	pha
	pha
	tsx
	lda	0x114,x
	pha
	lda	0x113,x
	pha
	lda	0x112,x
	pha
	lda	0x111,x
	pha
	jsr	___fslt
	sta	*(__TEMP+0)
	stx	*(__TEMP+1)
	tsx
	txa
	clc
	adc	#0x08
	tax
	txs
	ldx	*(__TEMP+1)
	lda	*(__TEMP+0)
	beq	00102$
	tsx
	lda	0x10d,x
	sta	0x101,x
	lda	0x10e,x
	sta	0x102,x
	lda	0x10f,x
	sta	0x103,x
	lda	0x110,x
	sta	0x104,x
	jmp	00109$
00102$:
;	../tanhf.c: 64: g=f*f;
	tsx
	lda	0x110,x
	pha
	lda	0x10f,x
	pha
	lda	0x10e,x
	pha
	lda	0x10d,x
	pha
	lda	0x110,x
	pha
	lda	0x10f,x
	pha
	lda	0x10e,x
	pha
	lda	0x10d,x
	pha
;	../tanhf.c: 65: r=f+f*(P(g)/Q(g));
	jsr	___fsmul
	stx	*(__TEMP+0)
	tsx
	sta	0x111,x
	ldx	*(__TEMP+0)
	txa
	tsx
	sta	0x112,x
	ldx	*(__TEMP+0)
	lda	*___SDCC_m6502_ret2
	tsx
	sta	0x113,x
	lda	*___SDCC_m6502_ret3
	sta	0x114,x
	sta	*(__TEMP+0)
	stx	*(__TEMP+1)
	tsx
	txa
	clc
	adc	#0x08
	tax
	txs
	ldx	*(__TEMP+1)
	lda	*(__TEMP+0)
	tsx
	lda	0x10c,x
	pha
	lda	0x10b,x
	pha
	lda	0x10a,x
	pha
	lda	0x109,x
	pha
	lda	#0xbb
	pha
	lda	#0x7b
	pha
	lda	#0x11
	pha
	lda	#0xb2
	pha
	jsr	___fsmul
	stx	*(__TEMP+0)
	tsx
	sta	0x10d,x
	ldx	*(__TEMP+0)
	txa
	tsx
	sta	0x10e,x
	ldx	*(__TEMP+0)
	lda	*___SDCC_m6502_ret2
	tsx
	sta	0x10f,x
	lda	*___SDCC_m6502_ret3
	sta	0x110,x
	sta	*(__TEMP+0)
	stx	*(__TEMP+1)
	tsx
	txa
	clc
	adc	#0x08
	tax
	txs
	ldx	*(__TEMP+1)
	lda	#0xbf
	pha
	lda	#0x52
	pha
	lda	#0xe2
	pha
	lda	#0xc6
	pha
	tsx
	lda	0x10c,x
	pha
	lda	0x10b,x
	pha
	lda	0x10a,x
	pha
	lda	0x109,x
	pha
	jsr	___fsadd
	stx	*(__TEMP+0)
	tsx
	sta	0x10d,x
	ldx	*(__TEMP+0)
	txa
	tsx
	sta	0x10e,x
	ldx	*(__TEMP+0)
	lda	*___SDCC_m6502_ret2
	tsx
	sta	0x10f,x
	lda	*___SDCC_m6502_ret3
	sta	0x110,x
	sta	*(__TEMP+0)
	stx	*(__TEMP+1)
	tsx
	txa
	clc
	adc	#0x08
	tax
	txs
	ldx	*(__TEMP+1)
	lda	*(__TEMP+0)
	tsx
	lda	0x10c,x
	pha
	lda	0x10b,x
	pha
	lda	0x10a,x
	pha
	lda	0x109,x
	pha
	lda	0x108,x
	pha
	lda	0x107,x
	pha
	lda	0x106,x
	pha
	lda	0x105,x
	pha
	jsr	___fsmul
	stx	*(__TEMP+0)
	tsx
	sta	0x10d,x
	ldx	*(__TEMP+0)
	txa
	tsx
	sta	0x10e,x
	ldx	*(__TEMP+0)
	lda	*___SDCC_m6502_ret2
	tsx
	sta	0x10f,x
	lda	*___SDCC_m6502_ret3
	sta	0x110,x
	sta	*(__TEMP+0)
	stx	*(__TEMP+1)
	tsx
	txa
	clc
	adc	#0x08
	tax
	txs
	ldx	*(__TEMP+1)
	lda	#0x40
	pha
	lda	#0x1e
	pha
	lda	#0x2a
	pha
	lda	#0x1a
	pha
	tsx
	lda	0x110,x
	pha
	lda	0x10f,x
	pha
	lda	0x10e,x
	pha
	lda	0x10d,x
	pha
	jsr	___fsadd
	stx	*(__TEMP+0)
	tsx
	sta	0x111,x
	ldx	*(__TEMP+0)
	txa
	tsx
	sta	0x112,x
	ldx	*(__TEMP+0)
	lda	*___SDCC_m6502_ret2
	tsx
	sta	0x113,x
	lda	*___SDCC_m6502_ret3
	sta	0x114,x
	sta	*(__TEMP+0)
	stx	*(__TEMP+1)
	tsx
	txa
	clc
	adc	#0x08
	tax
	txs
	ldx	*(__TEMP+1)
	lda	*(__TEMP+0)
	tsx
	lda	0x10c,x
	pha
	lda	0x10b,x
	pha
	lda	0x10a,x
	pha
	lda	0x109,x
	pha
	lda	0x108,x
	pha
	lda	0x107,x
	pha
	lda	0x106,x
	pha
	lda	0x105,x
	pha
	jsr	___fsdiv
	stx	*(__TEMP+0)
	tsx
	sta	0x10d,x
	ldx	*(__TEMP+0)
	txa
	tsx
	sta	0x10e,x
	ldx	*(__TEMP+0)
	lda	*___SDCC_m6502_ret2
	tsx
	sta	0x10f,x
	lda	*___SDCC_m6502_ret3
	sta	0x110,x
	sta	*(__TEMP+0)
	stx	*(__TEMP+1)
	tsx
	txa
	clc
	adc	#0x08
	tax
	txs
	ldx	*(__TEMP+1)
	lda	*(__TEMP+0)
	tsx
	lda	0x108,x
	pha
	lda	0x107,x
	pha
	lda	0x106,x
	pha
	lda	0x105,x
	pha
	lda	0x110,x
	pha
	lda	0x10f,x
	pha
	lda	0x10e,x
	pha
	lda	0x10d,x
	pha
	jsr	___fsmul
	stx	*(__TEMP+0)
	tsx
	sta	0x10d,x
	ldx	*(__TEMP+0)
	txa
	tsx
	sta	0x10e,x
	ldx	*(__TEMP+0)
	lda	*___SDCC_m6502_ret2
	tsx
	sta	0x10f,x
	lda	*___SDCC_m6502_ret3
	sta	0x110,x
	sta	*(__TEMP+0)
	stx	*(__TEMP+1)
	tsx
	txa
	clc
	adc	#0x08
	tax
	txs
	ldx	*(__TEMP+1)
	lda	*(__TEMP+0)
	tsx
	lda	0x108,x
	pha
	lda	0x107,x
	pha
	lda	0x106,x
	pha
	lda	0x105,x
	pha
	lda	0x110,x
	pha
	lda	0x10f,x
	pha
	lda	0x10e,x
	pha
	lda	0x10d,x
	pha
	jsr	___fsadd
	stx	*(__TEMP+0)
	tsx
	sta	0x109,x
	ldx	*(__TEMP+0)
	txa
	tsx
	sta	0x10a,x
	ldx	*(__TEMP+0)
	lda	*___SDCC_m6502_ret2
	tsx
	sta	0x10b,x
	lda	*___SDCC_m6502_ret3
	sta	0x10c,x
	sta	*(__TEMP+0)
	stx	*(__TEMP+1)
	tsx
	txa
	clc
	adc	#0x08
	tax
	txs
	ldx	*(__TEMP+1)
	lda	*(__TEMP+0)
00109$:
;	../tanhf.c: 67: if(x<0.0) r=-r;
	lda	#0x00
	pha
	pha
	pha
	pha
	tsx
	lda	0x11a,x
	pha
	lda	0x119,x
	pha
	lda	0x118,x
	pha
	lda	0x117,x
	pha
	jsr	___fslt
	sta	*(__TEMP+0)
	stx	*(__TEMP+1)
	tsx
	txa
	clc
	adc	#0x08
	tax
	txs
	ldx	*(__TEMP+1)
	lda	*(__TEMP+0)
	beq	00111$
	tsx
	lda	0x104,x
	eor	#0x80
	sta	0x104,x
00111$:
;	../tanhf.c: 68: return r;
	tsx
	lda	0x104,x
	sta	*___SDCC_m6502_ret3
	lda	0x103,x
	sta	*___SDCC_m6502_ret2
	lda	0x102,x
	tax
	stx	*(__TEMP+0)
	tsx
	lda	0x101,x
	php
	ldx	*(__TEMP+0)
	plp
;	../tanhf.c: 69: }
	sta	*(__TEMP+0)
	stx	*(__TEMP+1)
	tsx
	txa
	clc
	adc	#0x10
	tax
	txs
	ldx	*(__TEMP+1)
	lda	*(__TEMP+0)
	rts
	.area CODE
	.area RODATA
	.area XINIT
	.area CABS    (ABS)
