                                      1 ;--------------------------------------------------------
                                      2 ; File Created by SDCC : free open source ISO C Compiler 
                                      3 ; Version 4.2.14 #0 (Linux)
                                      4 ;--------------------------------------------------------
                                      5 	.module _fs2ulong
                                      6 	.optsdcc -mds390 --model-flat24
                                      7 	
                                      8 ;--------------------------------------------------------
                                      9 ; CPU specific extensions
                                     10 ;--------------------------------------------------------
                                     11 	.DS80C390
                                     12 	.amode	2	; 24 bit flat addressing
                           000082    13 dpl	=	0x82
                           000083    14 dph	=	0x83
                           000084    15 dpl1	=	0x84
                           000085    16 dph1	=	0x85
                           000086    17 dps	=	0x86
                           000093    18 dpx	=	0x93
                           000095    19 dpx1	=	0x95
                           00009B    20 esp	=	0x9B
                           00009C    21 ap	=	0x9C
                           00009C    22 acc1	=	0x9C
                           0000D1    23 mcnt0	=	0xD1
                           0000D2    24 mcnt1	=	0xD2
                           0000D3    25 ma	=	0xD3
                           0000D4    26 mb	=	0xD4
                           0000D5    27 mc	=	0xD5
                           00009D    28 acon	=	0x9D
                           0000C6    29 mcon	=	0xC6
                           0000D1    30 F1	=	0xD1	; user flag
                                     31 ;--------------------------------------------------------
                                     32 ; Public variables in this module
                                     33 ;--------------------------------------------------------
                                     34 	.globl ___fs2ulong
                                     35 ;--------------------------------------------------------
                                     36 ; special function registers
                                     37 ;--------------------------------------------------------
                                     38 ;--------------------------------------------------------
                                     39 ; special function bits
                                     40 ;--------------------------------------------------------
                                     41 ;--------------------------------------------------------
                                     42 ; overlayable register banks
                                     43 ;--------------------------------------------------------
                                     44 	.area REG_BANK_0	(REL,OVR,DATA)
      000000                         45 	.ds 8
                                     46 ;--------------------------------------------------------
                                     47 ; internal ram data
                                     48 ;--------------------------------------------------------
                                     49 	.area DSEG    (DATA)
                                     50 ;--------------------------------------------------------
                                     51 ; overlayable items in internal ram
                                     52 ;--------------------------------------------------------
                                     53 ;--------------------------------------------------------
                                     54 ; indirectly addressable internal ram data
                                     55 ;--------------------------------------------------------
                                     56 	.area ISEG    (DATA)
                                     57 ;--------------------------------------------------------
                                     58 ; absolute internal ram data
                                     59 ;--------------------------------------------------------
                                     60 	.area IABS    (ABS,DATA)
                                     61 	.area IABS    (ABS,DATA)
                                     62 ;--------------------------------------------------------
                                     63 ; bit data
                                     64 ;--------------------------------------------------------
                                     65 	.area BSEG    (BIT)
                                     66 ;--------------------------------------------------------
                                     67 ; paged external ram data
                                     68 ;--------------------------------------------------------
                                     69 	.area PSEG    (PAG,XDATA)
                                     70 ;--------------------------------------------------------
                                     71 ; uninitialized external ram data
                                     72 ;--------------------------------------------------------
                                     73 	.area XSEG    (XDATA)
      000000                         74 ___fs2ulong_fl1_65536_21:
      000000                         75 	.ds 4
      000004                         76 ___fs2ulong_sloc0_1_0:
      000004                         77 	.ds 4
                                     78 ;--------------------------------------------------------
                                     79 ; absolute external ram data
                                     80 ;--------------------------------------------------------
                                     81 	.area XABS    (ABS,XDATA)
                                     82 ;--------------------------------------------------------
                                     83 ; initialized external ram data
                                     84 ;--------------------------------------------------------
                                     85 	.area XISEG   (XDATA)
                                     86 ;--------------------------------------------------------
                                     87 ; global & static initialisations
                                     88 ;--------------------------------------------------------
                                     89 	.area HOME    (CODE)
                                     90 	.area GSINIT  (CODE)
                                     91 	.area GSFINAL (CODE)
                                     92 	.area GSINIT  (CODE)
                                     93 ;--------------------------------------------------------
                                     94 ; Home
                                     95 ;--------------------------------------------------------
                                     96 	.area HOME    (CODE)
                                     97 	.area HOME    (CODE)
                                     98 ;--------------------------------------------------------
                                     99 ; code
                                    100 ;--------------------------------------------------------
                                    101 	.area CSEG    (CODE)
                                    102 ;------------------------------------------------------------
                                    103 ;Allocation info for local variables in function '__fs2ulong'
                                    104 ;------------------------------------------------------------
                                    105 ;a1                        Allocated to registers r2 r3 r4 r5 
                                    106 ;fl1                       Allocated with name '___fs2ulong_fl1_65536_21'
                                    107 ;exp                       Allocated to registers r2 r3 
                                    108 ;l                         Allocated to registers r6 r7 r4 r5 
                                    109 ;sloc0                     Allocated with name '___fs2ulong_sloc0_1_0'
                                    110 ;------------------------------------------------------------
                                    111 ;	_fs2ulong.c:104: __fs2ulong (float a1)
                                    112 ;	-----------------------------------------
                                    113 ;	 function __fs2ulong
                                    114 ;	-----------------------------------------
      000000                        115 ___fs2ulong:
                           000002   116 	ar2 = 0x02
                           000003   117 	ar3 = 0x03
                           000004   118 	ar4 = 0x04
                           000005   119 	ar5 = 0x05
                           000006   120 	ar6 = 0x06
                           000007   121 	ar7 = 0x07
                           000000   122 	ar0 = 0x00
                           000001   123 	ar1 = 0x01
      000000 AA 82            [ 8]  124 	mov	r2,dpl
      000002 AB 83            [ 8]  125 	mov	r3,dph
      000004 AC 93            [ 8]  126 	mov	r4,dpx
      000006 AD F0            [ 8]  127 	mov	r5,b
                                    128 ;	_fs2ulong.c:110: fl1.f = a1;
      000008 90s00r00r00      [12]  129 	mov	dptr,#___fs2ulong_fl1_65536_21
      00000C EA               [ 4]  130 	mov	a,r2
      00000D F0               [ 8]  131 	movx	@dptr,a
      00000E A3               [12]  132 	inc	dptr
      00000F EB               [ 4]  133 	mov	a,r3
      000010 F0               [ 8]  134 	movx	@dptr,a
      000011 A3               [12]  135 	inc	dptr
      000012 EC               [ 4]  136 	mov	a,r4
      000013 F0               [ 8]  137 	movx	@dptr,a
      000014 A3               [12]  138 	inc	dptr
      000015 ED               [ 4]  139 	mov	a,r5
      000016 F0               [ 8]  140 	movx	@dptr,a
                                    141 ;	_fs2ulong.c:112: if (!fl1.l || SIGN(fl1.l))
      000017 90s00r00r00      [12]  142 	mov	dptr,#___fs2ulong_fl1_65536_21
      00001B E0               [ 8]  143 	movx	a,@dptr
      00001C A3               [12]  144 	inc	dptr
      00001D FA               [ 4]  145 	mov	r2,a
      00001E E0               [ 8]  146 	movx	a,@dptr
      00001F A3               [12]  147 	inc	dptr
      000020 FB               [ 4]  148 	mov	r3,a
      000021 E0               [ 8]  149 	movx	a,@dptr
      000022 A3               [12]  150 	inc	dptr
      000023 FC               [ 4]  151 	mov	r4,a
      000024 E0               [ 8]  152 	movx	a,@dptr
      000025 FD               [ 4]  153 	mov	r5,a
      000026 EA               [ 4]  154 	mov	a,r2
      000027 4B               [ 4]  155 	orl	a,r3
      000028 4C               [ 4]  156 	orl	a,r4
      000029 4D               [ 4]  157 	orl	a,r5
      00002A 60 15            [12]  158 	jz  00101$
      00002C                        159 00126$:
      00002C 90s00r00r00      [12]  160 	mov	dptr,#___fs2ulong_fl1_65536_21
      000030 E0               [ 8]  161 	movx	a,@dptr
      000031 A3               [12]  162 	inc	dptr
      000032 FA               [ 4]  163 	mov	r2,a
      000033 E0               [ 8]  164 	movx	a,@dptr
      000034 A3               [12]  165 	inc	dptr
      000035 FB               [ 4]  166 	mov	r3,a
      000036 E0               [ 8]  167 	movx	a,@dptr
      000037 A3               [12]  168 	inc	dptr
      000038 FC               [ 4]  169 	mov	r4,a
      000039 E0               [ 8]  170 	movx	a,@dptr
      00003A FD               [ 4]  171 	mov  r5,a
      00003B 23               [ 4]  172 	rl	a
      00003C 54 01            [ 8]  173 	anl	a,#0x01
      00003E FA               [ 4]  174 	mov  r2,a
      00003F 60 0B            [12]  175 	jz  00102$
      000041                        176 00127$:
      000041                        177 00101$:
                                    178 ;	_fs2ulong.c:113: return (0);
      000041 90 00 00 00      [12]  179 	mov  dptr,#0x0000
      000045 75 F0 00         [12]  180 	mov	b,#0x00
      000048 02s00r01r19      [16]  181 	ljmp	00109$
      00004C                        182 00102$:
                                    183 ;	_fs2ulong.c:115: exp = EXP (fl1.l) - EXCESS - 24;
      00004C 90s00r00r00      [12]  184 	mov	dptr,#___fs2ulong_fl1_65536_21
      000050 E0               [ 8]  185 	movx	a,@dptr
      000051 A3               [12]  186 	inc	dptr
      000052 FA               [ 4]  187 	mov	r2,a
      000053 E0               [ 8]  188 	movx	a,@dptr
      000054 A3               [12]  189 	inc	dptr
      000055 FB               [ 4]  190 	mov	r3,a
      000056 E0               [ 8]  191 	movx	a,@dptr
      000057 A3               [12]  192 	inc	dptr
      000058 FC               [ 4]  193 	mov	r4,a
      000059 E0               [ 8]  194 	movx	a,@dptr
      00005A FD               [ 4]  195 	mov	r5,a
      00005B 8C 02            [ 8]  196 	mov	ar2,r4
      00005D ED               [ 4]  197 	mov	a,r5
      00005E A2 E7            [ 8]  198 	mov	c,acc[7]
      000060 CA               [ 4]  199 	xch	a,r2
      000061 33               [ 4]  200 	rlc	a
      000062 CA               [ 4]  201 	xch	a,r2
      000063 33               [ 4]  202 	rlc	a
      000064 CA               [ 4]  203 	xch	a,r2
      000065 54 01            [ 8]  204 	anl	a,#0x01
      000067 FB               [ 4]  205 	mov	r3,a
      000068 E4               [ 4]  206 	clr  a
      000069 FC               [ 4]  207 	mov  r4,a
      00006A FD               [ 4]  208 	mov  r5,a
      00006B FB               [ 4]  209 	mov  r3,a
      00006C EA               [ 4]  210 	mov  a,r2
      00006D 24 6A            [ 8]  211 	add	a,#0x6a
      00006F FA               [ 4]  212 	mov	r2,a
      000070 EB               [ 4]  213 	mov	a,r3
      000071 34 FF            [ 8]  214 	addc	a,#0xff
      000073 FB               [ 4]  215 	mov	r3,a
                                    216 ;	genAssign: resultIsFar = TRUE
                                    217 ;	_fs2ulong.c:116: l = MANT (fl1.l);
      000074 90s00r00r00      [12]  218 	mov	dptr,#___fs2ulong_fl1_65536_21
      000078 E0               [ 8]  219 	movx	a,@dptr
      000079 A3               [12]  220 	inc	dptr
      00007A FC               [ 4]  221 	mov	r4,a
      00007B E0               [ 8]  222 	movx	a,@dptr
      00007C A3               [12]  223 	inc	dptr
      00007D FD               [ 4]  224 	mov	r5,a
      00007E E0               [ 8]  225 	movx	a,@dptr
      00007F A3               [12]  226 	inc	dptr
      000080 FE               [ 4]  227 	mov	r6,a
      000081 E0               [ 8]  228 	movx	a,@dptr
      000082 FF               [ 4]  229 	mov	r7,a
      000083 7F 00            [ 8]  230 	mov	r7,#0x00
      000085 90s00r00r04      [12]  231 	mov	dptr,#___fs2ulong_sloc0_1_0
      000089 EC               [ 4]  232 	mov	a,r4
      00008A F0               [ 8]  233 	movx	@dptr,a
      00008B A3               [12]  234 	inc	dptr
      00008C ED               [ 4]  235 	mov	a,r5
      00008D F0               [ 8]  236 	movx	@dptr,a
      00008E 74 80            [ 8]  237 	mov	a,#0x80
      000090 4E               [ 4]  238 	orl	a,r6
      000091 A3               [12]  239 	inc	dptr
      000092 F0               [ 8]  240 	movx	@dptr,a
      000093 A3               [12]  241 	inc	dptr
      000094 EF               [ 4]  242 	mov	a,r7
      000095 F0               [ 8]  243 	movx	@dptr,a
                                    244 ;	_fs2ulong.c:118: if (exp > 8)
      000096 C3               [ 4]  245 	clr	c
      000097 74 08            [ 8]  246 	mov	a,#0x08
      000099 9A               [ 4]  247 	subb	a,r2
      00009A E4               [ 4]  248 	clr	a
      00009B 64 80            [ 8]  249 	xrl	a,#0x80
      00009D 8B F0            [ 8]  250 	mov	b,r3
      00009F 63 F0 80         [12]  251 	xrl	b,#0x80
      0000A2 95 F0            [ 8]  252 	subb	a,b
      0000A4 50 09            [12]  253 	jnc  00105$
      0000A6                        254 00128$:
                                    255 ;	_fs2ulong.c:119: return 0xfffffffful;
      0000A6 90 FF FF FF      [12]  256 	mov	dptr,#0xffffff
      0000AA 75 F0 FF         [12]  257 	mov	b,#0xff
      0000AD 80 6A            [12]  258 	sjmp 00109$
      0000AF                        259 00105$:
                                    260 ;	_fs2ulong.c:121: if (exp < 0)
      0000AF EB               [ 4]  261 	mov	a,r3
      0000B0 30 E7 31         [12]  262 	jnb  acc[7],00107$
      0000B3                        263 00129$:
                                    264 ;	_fs2ulong.c:122: l >>= -exp;
      0000B3 8A 00            [ 8]  265 	mov	ar0,r2
      0000B5 C3               [ 4]  266 	clr	c
      0000B6 E4               [ 4]  267 	clr	a
      0000B7 98               [ 4]  268 	subb	a,r0
      0000B8 F8               [ 4]  269 	mov	r0,a
      0000B9 88 F0            [ 8]  270 	mov	b,r0
      0000BB 05 F0            [ 8]  271 	inc	b
      0000BD 90s00r00r04      [12]  272 	mov	dptr,#___fs2ulong_sloc0_1_0
      0000C1 E0               [ 8]  273 	movx	a,@dptr
      0000C2 F8               [ 4]  274 	mov     r0,a
      0000C3 A3               [12]  275 	inc	dptr
      0000C4 E0               [ 8]  276 	movx	a,@dptr
      0000C5 F9               [ 4]  277 	mov     r1,a
      0000C6 A3               [12]  278 	inc	dptr
      0000C7 E0               [ 8]  279 	movx	a,@dptr
      0000C8 FC               [ 4]  280 	mov     r4,a
      0000C9 A3               [12]  281 	inc	dptr
      0000CA E0               [ 8]  282 	movx	a,@dptr
      0000CB FD               [ 4]  283 	mov     r5,a
      0000CC 80 0D            [12]  284 	sjmp	00131$
      0000CE                        285 00130$:
      0000CE C3               [ 4]  286 	clr	c
      0000CF ED               [ 4]  287 	mov	a,r5
      0000D0 13               [ 4]  288 	rrc	a
      0000D1 FD               [ 4]  289 	mov	r5,a
      0000D2 EC               [ 4]  290 	mov	a,r4
      0000D3 13               [ 4]  291 	rrc	a
      0000D4 FC               [ 4]  292 	mov	r4,a
      0000D5 E9               [ 4]  293 	mov	a,r1
      0000D6 13               [ 4]  294 	rrc	a
      0000D7 F9               [ 4]  295 	mov	r1,a
      0000D8 E8               [ 4]  296 	mov	a,r0
      0000D9 13               [ 4]  297 	rrc	a
      0000DA F8               [ 4]  298 	mov	r0,a
      0000DB                        299 00131$:
      0000DB D5 F0 F0         [16]  300 	djnz	b,00130$
                                    301 ;	genAssign: resultIsFar = TRUE
      0000DE 88 06            [ 8]  302 	mov	ar6,r0
      0000E0 89 07            [ 8]  303 	mov	ar7,r1
      0000E2 80 2D            [12]  304 	sjmp 00108$
      0000E4                        305 00107$:
                                    306 ;	_fs2ulong.c:124: l <<= exp;
      0000E4 8A F0            [ 8]  307 	mov	b,r2
      0000E6 05 F0            [ 8]  308 	inc	b
      0000E8 90s00r00r04      [12]  309 	mov	dptr,#___fs2ulong_sloc0_1_0
      0000EC E0               [ 8]  310 	movx	a,@dptr
      0000ED FA               [ 4]  311 	mov     r2,a
      0000EE A3               [12]  312 	inc	dptr
      0000EF E0               [ 8]  313 	movx	a,@dptr
      0000F0 FB               [ 4]  314 	mov     r3,a
      0000F1 A3               [12]  315 	inc	dptr
      0000F2 E0               [ 8]  316 	movx	a,@dptr
      0000F3 F8               [ 4]  317 	mov     r0,a
      0000F4 A3               [12]  318 	inc	dptr
      0000F5 E0               [ 8]  319 	movx	a,@dptr
      0000F6 F9               [ 4]  320 	mov     r1,a
      0000F7 80 0D            [12]  321 	sjmp	00133$
      0000F9                        322 00132$:
      0000F9 EA               [ 4]  323 	mov	a,r2
      0000FA 25 E0            [ 8]  324 	add	a,acc
      0000FC FA               [ 4]  325 	mov	r2,a
      0000FD EB               [ 4]  326 	mov	a,r3
      0000FE 33               [ 4]  327 	rlc	a
      0000FF FB               [ 4]  328 	mov	r3,a
      000100 E8               [ 4]  329 	mov	a,r0
      000101 33               [ 4]  330 	rlc	a
      000102 F8               [ 4]  331 	mov	r0,a
      000103 E9               [ 4]  332 	mov	a,r1
      000104 33               [ 4]  333 	rlc	a
      000105 F9               [ 4]  334 	mov	r1,a
      000106                        335 00133$:
      000106 D5 F0 F0         [16]  336 	djnz	b,00132$
                                    337 ;	genAssign: resultIsFar = TRUE
      000109 8A 06            [ 8]  338 	mov	ar6,r2
      00010B 8B 07            [ 8]  339 	mov	ar7,r3
      00010D 88 04            [ 8]  340 	mov	ar4,r0
      00010F 89 05            [ 8]  341 	mov	ar5,r1
      000111                        342 00108$:
                                    343 ;	_fs2ulong.c:126: return l;
      000111 8E 82            [ 8]  344 	mov	dpl,r6
      000113 8F 83            [ 8]  345 	mov	dph,r7
      000115 8C 93            [ 8]  346 	mov	dpx,r4
      000117 8D F0            [ 8]  347 	mov	b,r5
      000119                        348 00109$:
                                    349 ;	_fs2ulong.c:127: }
      000119 22               [16]  350 	ret
                                    351 	.area CSEG    (CODE)
                                    352 	.area CONST   (CODE)
                                    353 	.area XINIT   (CODE)
                                    354 	.area CABS    (ABS,CODE)
