                                      1 ;--------------------------------------------------------
                                      2 ; File Created by SDCC : free open source ISO C Compiler 
                                      3 ; Version 4.2.14 #0 (Linux)
                                      4 ;--------------------------------------------------------
                                      5 	.module _rlulonglong
                                      6 	.optsdcc -mds390 --model-flat24
                                      7 	
                                      8 ;--------------------------------------------------------
                                      9 ; CPU specific extensions
                                     10 ;--------------------------------------------------------
                                     11 	.DS80C390
                                     12 	.amode	2	; 24 bit flat addressing
                           000082    13 dpl	=	0x82
                           000083    14 dph	=	0x83
                           000084    15 dpl1	=	0x84
                           000085    16 dph1	=	0x85
                           000086    17 dps	=	0x86
                           000093    18 dpx	=	0x93
                           000095    19 dpx1	=	0x95
                           00009B    20 esp	=	0x9B
                           00009C    21 ap	=	0x9C
                           00009C    22 acc1	=	0x9C
                           0000D1    23 mcnt0	=	0xD1
                           0000D2    24 mcnt1	=	0xD2
                           0000D3    25 ma	=	0xD3
                           0000D4    26 mb	=	0xD4
                           0000D5    27 mc	=	0xD5
                           00009D    28 acon	=	0x9D
                           0000C6    29 mcon	=	0xC6
                           0000D1    30 F1	=	0xD1	; user flag
                                     31 ;--------------------------------------------------------
                                     32 ; Public variables in this module
                                     33 ;--------------------------------------------------------
                                     34 	.globl __rlulonglong_PARM_2
                                     35 	.globl __rlulonglong
                                     36 ;--------------------------------------------------------
                                     37 ; special function registers
                                     38 ;--------------------------------------------------------
                                     39 ;--------------------------------------------------------
                                     40 ; special function bits
                                     41 ;--------------------------------------------------------
                                     42 ;--------------------------------------------------------
                                     43 ; overlayable register banks
                                     44 ;--------------------------------------------------------
                                     45 	.area REG_BANK_0	(REL,OVR,DATA)
      000000                         46 	.ds 8
                                     47 ;--------------------------------------------------------
                                     48 ; internal ram data
                                     49 ;--------------------------------------------------------
                                     50 	.area DSEG    (DATA)
                                     51 ;--------------------------------------------------------
                                     52 ; overlayable items in internal ram
                                     53 ;--------------------------------------------------------
                                     54 ;--------------------------------------------------------
                                     55 ; indirectly addressable internal ram data
                                     56 ;--------------------------------------------------------
                                     57 	.area ISEG    (DATA)
                                     58 ;--------------------------------------------------------
                                     59 ; absolute internal ram data
                                     60 ;--------------------------------------------------------
                                     61 	.area IABS    (ABS,DATA)
                                     62 	.area IABS    (ABS,DATA)
                                     63 ;--------------------------------------------------------
                                     64 ; bit data
                                     65 ;--------------------------------------------------------
                                     66 	.area BSEG    (BIT)
                                     67 ;--------------------------------------------------------
                                     68 ; paged external ram data
                                     69 ;--------------------------------------------------------
                                     70 	.area PSEG    (PAG,XDATA)
                                     71 ;--------------------------------------------------------
                                     72 ; uninitialized external ram data
                                     73 ;--------------------------------------------------------
                                     74 	.area XSEG    (XDATA)
      000000                         75 __rlulonglong_PARM_2:
      000000                         76 	.ds 1
      000001                         77 __rlulonglong_l_65536_8:
      000001                         78 	.ds 8
      000009                         79 __rlulonglong_top_65536_9:
      000009                         80 	.ds 4
      00000D                         81 __rlulonglong_middle_65536_9:
      00000D                         82 	.ds 4
      000011                         83 __rlulonglong_bottom_65536_9:
      000011                         84 	.ds 4
      000015                         85 __rlulonglong_b_65536_9:
      000015                         86 	.ds 4
      000019                         87 __rlulonglong_sloc0_1_0:
      000019                         88 	.ds 4
                                     89 ;--------------------------------------------------------
                                     90 ; absolute external ram data
                                     91 ;--------------------------------------------------------
                                     92 	.area XABS    (ABS,XDATA)
                                     93 ;--------------------------------------------------------
                                     94 ; initialized external ram data
                                     95 ;--------------------------------------------------------
                                     96 	.area XISEG   (XDATA)
                                     97 ;--------------------------------------------------------
                                     98 ; global & static initialisations
                                     99 ;--------------------------------------------------------
                                    100 	.area HOME    (CODE)
                                    101 	.area GSINIT  (CODE)
                                    102 	.area GSFINAL (CODE)
                                    103 	.area GSINIT  (CODE)
                                    104 ;--------------------------------------------------------
                                    105 ; Home
                                    106 ;--------------------------------------------------------
                                    107 	.area HOME    (CODE)
                                    108 	.area HOME    (CODE)
                                    109 ;--------------------------------------------------------
                                    110 ; code
                                    111 ;--------------------------------------------------------
                                    112 	.area CSEG    (CODE)
                                    113 ;------------------------------------------------------------
                                    114 ;Allocation info for local variables in function '_rlulonglong'
                                    115 ;------------------------------------------------------------
                                    116 ;s                         Allocated with name '__rlulonglong_PARM_2'
                                    117 ;l                         Allocated with name '__rlulonglong_l_65536_8'
                                    118 ;top                       Allocated with name '__rlulonglong_top_65536_9'
                                    119 ;middle                    Allocated with name '__rlulonglong_middle_65536_9'
                                    120 ;bottom                    Allocated with name '__rlulonglong_bottom_65536_9'
                                    121 ;b                         Allocated with name '__rlulonglong_b_65536_9'
                                    122 ;sloc0                     Allocated with name '__rlulonglong_sloc0_1_0'
                                    123 ;------------------------------------------------------------
                                    124 ;	_rlulonglong.c:67: unsigned long long _rlulonglong(unsigned long long l, char s) __SDCC_NONBANKED
                                    125 ;	-----------------------------------------
                                    126 ;	 function _rlulonglong
                                    127 ;	-----------------------------------------
      000000                        128 __rlulonglong:
                           000002   129 	ar2 = 0x02
                           000003   130 	ar3 = 0x03
                           000004   131 	ar4 = 0x04
                           000005   132 	ar5 = 0x05
                           000006   133 	ar6 = 0x06
                           000007   134 	ar7 = 0x07
                           000000   135 	ar0 = 0x00
                           000001   136 	ar1 = 0x01
      000000 75 86 01         [12]  137 	mov	dps, #1
      000003 90s00r00r01      [12]  138 	mov	dptr, #__rlulonglong_l_65536_8
      000007 15 86            [ 8]  139 	dec	dps
                                    140 ;	assignResultValue special case for ACC.
      000009 C0 E0            [ 8]  141 	push	acc
      00000B 05 86            [ 8]  142 	inc	dps
      00000D E5 82            [ 8]  143 	mov	a,dpl
      00000F F0               [ 8]  144 	movx	@dptr,a
      000010 A3               [12]  145 	inc	dptr
      000011 E5 83            [ 8]  146 	mov	a,dph
      000013 F0               [ 8]  147 	movx	@dptr,a
      000014 A3               [12]  148 	inc	dptr
      000015 E5 93            [ 8]  149 	mov	a,dpx
      000017 F0               [ 8]  150 	movx	@dptr,a
      000018 A3               [12]  151 	inc	dptr
      000019 E5 F0            [ 8]  152 	mov	a,b
      00001B F0               [ 8]  153 	movx	@dptr,a
      00001C D0 E0            [ 8]  154 	pop	acc
      00001E A3               [12]  155 	inc	dptr
      00001F F0               [ 8]  156 	movx	@dptr,a
      000020 A3               [12]  157 	inc	dptr
      000021 EC               [ 4]  158 	mov	a,r4
      000022 F0               [ 8]  159 	movx	@dptr,a
      000023 A3               [12]  160 	inc	dptr
      000024 ED               [ 4]  161 	mov	a,r5
      000025 F0               [ 8]  162 	movx	@dptr,a
      000026 A3               [12]  163 	inc	dptr
      000027 EE               [ 4]  164 	mov	a,r6
      000028 F0               [ 8]  165 	movx	@dptr,a
      000029 75 86 00         [12]  166 	mov	dps,#0
                                    167 ;	_rlulonglong.c:69: uint32_t *const top = (uint32_t *)((char *)(&l) + 4);
      00002C 90s00r00r09      [12]  168 	mov	dptr,#__rlulonglong_top_65536_9
      000030 74r05            [ 8]  169 	mov	a,#(__rlulonglong_l_65536_8 + 0x000004)
      000032 F0               [ 8]  170 	movx	@dptr,a
      000033 A3               [12]  171 	inc	dptr
      000034 74s00            [ 8]  172 	mov	a,#((__rlulonglong_l_65536_8 + 0x000004) >> 8)
      000036 F0               [ 8]  173 	movx	@dptr,a
      000037 A3               [12]  174 	inc	dptr
      000038 74s00            [ 8]  175 	mov	a,#((__rlulonglong_l_65536_8 + 0x000004) >> 16)
      00003A F0               [ 8]  176 	movx	@dptr,a
      00003B A3               [12]  177 	inc	dptr
      00003C E4               [ 4]  178 	clr	a
      00003D F0               [ 8]  179 	movx	@dptr,a
                                    180 ;	_rlulonglong.c:70: uint16_t *const middle = (uint16_t *)((char *)(&l) + 2);
      00003E 90s00r00r0D      [12]  181 	mov	dptr,#__rlulonglong_middle_65536_9
      000042 74r03            [ 8]  182 	mov	a,#(__rlulonglong_l_65536_8 + 0x000002)
      000044 F0               [ 8]  183 	movx	@dptr,a
      000045 A3               [12]  184 	inc	dptr
      000046 74s00            [ 8]  185 	mov	a,#((__rlulonglong_l_65536_8 + 0x000002) >> 8)
      000048 F0               [ 8]  186 	movx	@dptr,a
      000049 A3               [12]  187 	inc	dptr
      00004A 74s00            [ 8]  188 	mov	a,#((__rlulonglong_l_65536_8 + 0x000002) >> 16)
      00004C F0               [ 8]  189 	movx	@dptr,a
      00004D A3               [12]  190 	inc	dptr
      00004E E4               [ 4]  191 	clr	a
      00004F F0               [ 8]  192 	movx	@dptr,a
                                    193 ;	_rlulonglong.c:71: uint32_t *const bottom = (uint32_t *)(&l);
      000050 7Er01            [ 8]  194 	mov	r6,#__rlulonglong_l_65536_8
      000052 7Fs00            [ 8]  195 	mov	r7,#(__rlulonglong_l_65536_8 >> 8)
      000054 78s00            [ 8]  196 	mov	r0,#(__rlulonglong_l_65536_8 >> 16)
      000056 90s00r00r11      [12]  197 	mov	dptr,#__rlulonglong_bottom_65536_9
      00005A EE               [ 4]  198 	mov	a,r6
      00005B F0               [ 8]  199 	movx	@dptr,a
      00005C A3               [12]  200 	inc	dptr
      00005D EF               [ 4]  201 	mov	a,r7
      00005E F0               [ 8]  202 	movx	@dptr,a
      00005F A3               [12]  203 	inc	dptr
      000060 E8               [ 4]  204 	mov	a,r0
      000061 F0               [ 8]  205 	movx	@dptr,a
      000062 A3               [12]  206 	inc	dptr
      000063 E4               [ 4]  207 	clr	a
      000064 F0               [ 8]  208 	movx	@dptr,a
                                    209 ;	_rlulonglong.c:72: uint16_t *const b = (uint16_t *)(&l);
      000065 7Er01            [ 8]  210 	mov	r6,#__rlulonglong_l_65536_8
      000067 7Fs00            [ 8]  211 	mov	r7,#(__rlulonglong_l_65536_8 >> 8)
      000069 78s00            [ 8]  212 	mov	r0,#(__rlulonglong_l_65536_8 >> 16)
      00006B 90s00r00r15      [12]  213 	mov	dptr,#__rlulonglong_b_65536_9
      00006F EE               [ 4]  214 	mov	a,r6
      000070 F0               [ 8]  215 	movx	@dptr,a
      000071 A3               [12]  216 	inc	dptr
      000072 EF               [ 4]  217 	mov	a,r7
      000073 F0               [ 8]  218 	movx	@dptr,a
      000074 A3               [12]  219 	inc	dptr
      000075 E8               [ 4]  220 	mov	a,r0
      000076 F0               [ 8]  221 	movx	@dptr,a
      000077 A3               [12]  222 	inc	dptr
      000078 E4               [ 4]  223 	clr	a
      000079 F0               [ 8]  224 	movx	@dptr,a
                                    225 ;	_rlulonglong.c:82: (*top) <<= s;
      00007A                        226 00103$:
                                    227 ;	_rlulonglong.c:74: for(;s >= 16; s-= 16)
      00007A 90s00r00r00      [12]  228 	mov	dptr,#__rlulonglong_PARM_2
      00007E E0               [ 8]  229 	movx	a,@dptr
      00007F B4 10 00         [16]  230 	cjne	a,#0x10,00115$
      000082                        231 00115$:
      000082 50 04            [12]  232 	jnc	00116$
      000084 02s00r01rD4      [16]  233 	ljmp	00101$
      000088                        234 00116$:
                                    235 ;	_rlulonglong.c:76: b[3] = b[2];
      000088 90s00r00r15      [12]  236 	mov	dptr,#__rlulonglong_b_65536_9
      00008C 75 86 01         [12]  237 	mov	dps, #1
      00008F 90s00r00r19      [12]  238 	mov	dptr, #__rlulonglong_sloc0_1_0
      000093 15 86            [ 8]  239 	dec	dps
      000095 E0               [ 8]  240 	movx	a,@dptr
      000096 24 06            [ 8]  241 	add	a,#0x06
      000098 05 86            [ 8]  242 	inc	dps
      00009A F0               [ 8]  243 	movx	@dptr,a
      00009B 15 86            [ 8]  244 	dec	dps
      00009D A3               [12]  245 	inc	dptr
      00009E E0               [ 8]  246 	movx	a,@dptr
      00009F 34 00            [ 8]  247 	addc	a,#0x00
      0000A1 05 86            [ 8]  248 	inc	dps
      0000A3 A3               [12]  249 	inc	dptr
      0000A4 F0               [ 8]  250 	movx	@dptr,a
      0000A5 15 86            [ 8]  251 	dec	dps
      0000A7 A3               [12]  252 	inc	dptr
      0000A8 E0               [ 8]  253 	movx	a,@dptr
      0000A9 34 00            [ 8]  254 	addc	a,#0x00
      0000AB 05 86            [ 8]  255 	inc	dps
      0000AD A3               [12]  256 	inc	dptr
      0000AE F0               [ 8]  257 	movx	@dptr,a
      0000AF 75 86 00         [12]  258 	mov	dps,#0
      0000B2 A3               [12]  259 	inc	dptr
      0000B3 E0               [ 8]  260 	movx	a,@dptr
      0000B4 75 86 01         [12]  261 	mov	dps,#1
      0000B7 A3               [12]  262 	inc	dptr
      0000B8 F0               [ 8]  263 	movx	@dptr,a
      0000B9 75 86 00         [12]  264 	mov	dps,#0
      0000BC 90s00r00r15      [12]  265 	mov	dptr,#__rlulonglong_b_65536_9
      0000C0 E0               [ 8]  266 	movx	a,@dptr
      0000C1 24 04            [ 8]  267 	add	a,#0x04
      0000C3 FE               [ 4]  268 	mov	r6,a
      0000C4 A3               [12]  269 	inc	dptr
      0000C5 E0               [ 8]  270 	movx	a,@dptr
      0000C6 34 00            [ 8]  271 	addc	a,#0x00
      0000C8 FF               [ 4]  272 	mov	r7,a
      0000C9 A3               [12]  273 	inc	dptr
      0000CA E0               [ 8]  274 	movx	a,@dptr
      0000CB 34 00            [ 8]  275 	addc	a,#0x00
      0000CD F8               [ 4]  276 	mov	r0,a
      0000CE A3               [12]  277 	inc	dptr
      0000CF E0               [ 8]  278 	movx	a,@dptr
      0000D0 F9               [ 4]  279 	mov	r1,a
      0000D1 8E 82            [ 8]  280 	mov	dpl,r6
      0000D3 8F 83            [ 8]  281 	mov	dph,r7
      0000D5 88 93            [ 8]  282 	mov	dpx,r0
      0000D7 89 F0            [ 8]  283 	mov	b,r1
      0000D9 12s00r00r00      [16]  284 	lcall	__gptrgetWord
      0000DD FA               [ 4]  285 	mov	r2,a
      0000DE AB 9C            [ 8]  286 	mov	r3,acc1
      0000E0 90s00r00r19      [12]  287 	mov	dptr,#__rlulonglong_sloc0_1_0
      0000E4 E0               [ 8]  288 	movx	a,@dptr
      0000E5 C0 E0            [ 8]  289 	push	acc
      0000E7 A3               [12]  290 	inc	dptr
      0000E8 E0               [ 8]  291 	movx	a,@dptr
      0000E9 C0 E0            [ 8]  292 	push	acc
      0000EB A3               [12]  293 	inc	dptr
      0000EC E0               [ 8]  294 	movx	a,@dptr
      0000ED C0 E0            [ 8]  295 	push	acc
      0000EF A3               [12]  296 	inc	dptr
      0000F0 E0               [ 8]  297 	movx	a,@dptr
      0000F1 F5 F0            [ 8]  298 	mov	b,a
      0000F3 D0 93            [ 8]  299 	pop	dpx
      0000F5 D0 83            [ 8]  300 	pop	dph
      0000F7 D0 82            [ 8]  301 	pop	dpl
      0000F9 8A 9C            [ 8]  302 	mov	acc1, r2
      0000FB EB               [ 4]  303 	mov	a,r3
      0000FC 12s00r00r00      [16]  304 	lcall	__gptrputWord
                                    305 ;	_rlulonglong.c:77: b[2] = b[1];
      000100 90s00r00r15      [12]  306 	mov	dptr,#__rlulonglong_b_65536_9
      000104 75 86 01         [12]  307 	mov	dps, #1
      000107 90s00r00r19      [12]  308 	mov	dptr, #__rlulonglong_sloc0_1_0
      00010B 15 86            [ 8]  309 	dec	dps
      00010D E0               [ 8]  310 	movx	a,@dptr
      00010E 24 02            [ 8]  311 	add	a,#0x02
      000110 05 86            [ 8]  312 	inc	dps
      000112 F0               [ 8]  313 	movx	@dptr,a
      000113 15 86            [ 8]  314 	dec	dps
      000115 A3               [12]  315 	inc	dptr
      000116 E0               [ 8]  316 	movx	a,@dptr
      000117 34 00            [ 8]  317 	addc	a,#0x00
      000119 05 86            [ 8]  318 	inc	dps
      00011B A3               [12]  319 	inc	dptr
      00011C F0               [ 8]  320 	movx	@dptr,a
      00011D 15 86            [ 8]  321 	dec	dps
      00011F A3               [12]  322 	inc	dptr
      000120 E0               [ 8]  323 	movx	a,@dptr
      000121 34 00            [ 8]  324 	addc	a,#0x00
      000123 05 86            [ 8]  325 	inc	dps
      000125 A3               [12]  326 	inc	dptr
      000126 F0               [ 8]  327 	movx	@dptr,a
      000127 75 86 00         [12]  328 	mov	dps,#0
      00012A A3               [12]  329 	inc	dptr
      00012B E0               [ 8]  330 	movx	a,@dptr
      00012C 75 86 01         [12]  331 	mov	dps,#1
      00012F A3               [12]  332 	inc	dptr
      000130 F0               [ 8]  333 	movx	@dptr,a
      000131 75 86 00         [12]  334 	mov	dps,#0
      000134 90s00r00r19      [12]  335 	mov	dptr,#__rlulonglong_sloc0_1_0
      000138 E0               [ 8]  336 	movx	a,@dptr
      000139 C0 E0            [ 8]  337 	push	acc
      00013B A3               [12]  338 	inc	dptr
      00013C E0               [ 8]  339 	movx	a,@dptr
      00013D C0 E0            [ 8]  340 	push	acc
      00013F A3               [12]  341 	inc	dptr
      000140 E0               [ 8]  342 	movx	a,@dptr
      000141 C0 E0            [ 8]  343 	push	acc
      000143 A3               [12]  344 	inc	dptr
      000144 E0               [ 8]  345 	movx	a,@dptr
      000145 F5 F0            [ 8]  346 	mov	b,a
      000147 D0 93            [ 8]  347 	pop	dpx
      000149 D0 83            [ 8]  348 	pop	dph
      00014B D0 82            [ 8]  349 	pop	dpl
      00014D 12s00r00r00      [16]  350 	lcall	__gptrgetWord
      000151 FA               [ 4]  351 	mov	r2,a
      000152 AB 9C            [ 8]  352 	mov	r3,acc1
      000154 8E 82            [ 8]  353 	mov	dpl,r6
      000156 8F 83            [ 8]  354 	mov	dph,r7
      000158 88 93            [ 8]  355 	mov	dpx,r0
      00015A 89 F0            [ 8]  356 	mov	b,r1
      00015C 8A 9C            [ 8]  357 	mov	acc1, r2
      00015E EB               [ 4]  358 	mov	a,r3
      00015F 12s00r00r00      [16]  359 	lcall	__gptrputWord
                                    360 ;	_rlulonglong.c:78: b[1] = b[0];
      000163 90s00r00r15      [12]  361 	mov	dptr,#__rlulonglong_b_65536_9
      000167 E0               [ 8]  362 	movx	a,@dptr
      000168 C0 E0            [ 8]  363 	push	acc
      00016A A3               [12]  364 	inc	dptr
      00016B E0               [ 8]  365 	movx	a,@dptr
      00016C C0 E0            [ 8]  366 	push	acc
      00016E A3               [12]  367 	inc	dptr
      00016F E0               [ 8]  368 	movx	a,@dptr
      000170 C0 E0            [ 8]  369 	push	acc
      000172 A3               [12]  370 	inc	dptr
      000173 E0               [ 8]  371 	movx	a,@dptr
      000174 F5 F0            [ 8]  372 	mov	b,a
      000176 D0 93            [ 8]  373 	pop	dpx
      000178 D0 83            [ 8]  374 	pop	dph
      00017A D0 82            [ 8]  375 	pop	dpl
      00017C 12s00r00r00      [16]  376 	lcall	__gptrgetWord
      000180 FA               [ 4]  377 	mov	r2,a
      000181 AB 9C            [ 8]  378 	mov	r3,acc1
      000183 90s00r00r19      [12]  379 	mov	dptr,#__rlulonglong_sloc0_1_0
      000187 E0               [ 8]  380 	movx	a,@dptr
      000188 C0 E0            [ 8]  381 	push	acc
      00018A A3               [12]  382 	inc	dptr
      00018B E0               [ 8]  383 	movx	a,@dptr
      00018C C0 E0            [ 8]  384 	push	acc
      00018E A3               [12]  385 	inc	dptr
      00018F E0               [ 8]  386 	movx	a,@dptr
      000190 C0 E0            [ 8]  387 	push	acc
      000192 A3               [12]  388 	inc	dptr
      000193 E0               [ 8]  389 	movx	a,@dptr
      000194 F5 F0            [ 8]  390 	mov	b,a
      000196 D0 93            [ 8]  391 	pop	dpx
      000198 D0 83            [ 8]  392 	pop	dph
      00019A D0 82            [ 8]  393 	pop	dpl
      00019C 8A 9C            [ 8]  394 	mov	acc1, r2
      00019E EB               [ 4]  395 	mov	a,r3
      00019F 12s00r00r00      [16]  396 	lcall	__gptrputWord
                                    397 ;	_rlulonglong.c:79: b[0] = 0;
      0001A3 90s00r00r15      [12]  398 	mov	dptr,#__rlulonglong_b_65536_9
      0001A7 E0               [ 8]  399 	movx	a,@dptr
      0001A8 C0 E0            [ 8]  400 	push	acc
      0001AA A3               [12]  401 	inc	dptr
      0001AB E0               [ 8]  402 	movx	a,@dptr
      0001AC C0 E0            [ 8]  403 	push	acc
      0001AE A3               [12]  404 	inc	dptr
      0001AF E0               [ 8]  405 	movx	a,@dptr
      0001B0 C0 E0            [ 8]  406 	push	acc
      0001B2 A3               [12]  407 	inc	dptr
      0001B3 E0               [ 8]  408 	movx	a,@dptr
      0001B4 F5 F0            [ 8]  409 	mov	b,a
      0001B6 D0 93            [ 8]  410 	pop	dpx
      0001B8 D0 83            [ 8]  411 	pop	dph
      0001BA D0 82            [ 8]  412 	pop	dpl
      0001BC E4               [ 4]  413 	clr  a
      0001BD F5 9C            [ 8]  414 	mov  acc1,a
      0001BF 12s00r00r00      [16]  415 	lcall	__gptrputWord
                                    416 ;	_rlulonglong.c:74: for(;s >= 16; s-= 16)
      0001C3 90s00r00r00      [12]  417 	mov	dptr,#__rlulonglong_PARM_2
      0001C7 E0               [ 8]  418 	movx	a,@dptr
      0001C8 FA               [ 4]  419 	mov  r2,a
      0001C9 24 F0            [ 8]  420 	add	a,#0xf0
                                    421 ;	genAssign: resultIsFar = TRUE
      0001CB 90s00r00r00      [12]  422 	mov	dptr,#__rlulonglong_PARM_2
      0001CF F0               [ 8]  423 	movx	@dptr,a
      0001D0 02s00r00r7A      [16]  424 	ljmp	00103$
      0001D4                        425 00101$:
                                    426 ;	_rlulonglong.c:82: (*top) <<= s;
      0001D4 90s00r00r09      [12]  427 	mov	dptr,#__rlulonglong_top_65536_9
      0001D8 E0               [ 8]  428 	movx	a,@dptr
      0001D9 C0 E0            [ 8]  429 	push	acc
      0001DB A3               [12]  430 	inc	dptr
      0001DC E0               [ 8]  431 	movx	a,@dptr
      0001DD C0 E0            [ 8]  432 	push	acc
      0001DF A3               [12]  433 	inc	dptr
      0001E0 E0               [ 8]  434 	movx	a,@dptr
      0001E1 C0 E0            [ 8]  435 	push	acc
      0001E3 A3               [12]  436 	inc	dptr
      0001E4 E0               [ 8]  437 	movx	a,@dptr
      0001E5 F5 F0            [ 8]  438 	mov	b,a
      0001E7 D0 93            [ 8]  439 	pop	dpx
      0001E9 D0 83            [ 8]  440 	pop	dph
      0001EB D0 82            [ 8]  441 	pop	dpl
      0001ED 12s00r00r00      [16]  442 	lcall	__gptrgetWord
      0001F1 FE               [ 4]  443 	mov	r6,a
      0001F2 AF 9C            [ 8]  444 	mov	r7,acc1
      0001F4 A3               [12]  445 	inc	dptr
      0001F5 12s00r00r00      [16]  446 	lcall	__gptrgetWord
      0001F9 F8               [ 4]  447 	mov	r0,a
      0001FA A9 9C            [ 8]  448 	mov	r1,acc1
      0001FC 90s00r00r00      [12]  449 	mov	dptr,#__rlulonglong_PARM_2
                                    450 ;	genAssign: resultIsFar = FALSE
      000200 E0               [ 8]  451 	movx	a,@dptr
      000201 FA               [ 4]  452 	mov	r2,a
      000202 8A F0            [ 8]  453 	mov	b,r2
      000204 05 F0            [ 8]  454 	inc	b
      000206 90s00r00r19      [12]  455 	mov	dptr,#__rlulonglong_sloc0_1_0
      00020A EE               [ 4]  456 	mov  a,r6
      00020B F0               [ 8]  457 	movx	@dptr,a
      00020C A3               [12]  458 	inc	dptr
      00020D EF               [ 4]  459 	mov  a,r7
      00020E F0               [ 8]  460 	movx	@dptr,a
      00020F A3               [12]  461 	inc	dptr
      000210 E8               [ 4]  462 	mov  a,r0
      000211 F0               [ 8]  463 	movx	@dptr,a
      000212 A3               [12]  464 	inc	dptr
      000213 E9               [ 4]  465 	mov  a,r1
      000214 F0               [ 8]  466 	movx	@dptr,a
      000215 12s00r00r00      [16]  467 	lcall	__decdptr
      000219 12s00r00r00      [16]  468 	lcall	__decdptr
      00021D 12s00r00r00      [16]  469 	lcall	__decdptr
      000221 80 1C            [12]  470 	sjmp	00118$
      000223                        471 00117$:
      000223 E0               [ 8]  472 	movx	a,@dptr
      000224 25 E0            [ 8]  473 	add	a,acc
      000226 F0               [ 8]  474 	movx	@dptr,a
      000227 A3               [12]  475 	inc	dptr
      000228 E0               [ 8]  476 	movx	a,@dptr
      000229 33               [ 4]  477 	rlc	a
      00022A F0               [ 8]  478 	movx	@dptr,a
      00022B A3               [12]  479 	inc	dptr
      00022C E0               [ 8]  480 	movx	a,@dptr
      00022D 33               [ 4]  481 	rlc	a
      00022E F0               [ 8]  482 	movx	@dptr,a
      00022F A3               [12]  483 	inc	dptr
      000230 E0               [ 8]  484 	movx	a,@dptr
      000231 33               [ 4]  485 	rlc	a
      000232 F0               [ 8]  486 	movx	@dptr,a
      000233 12s00r00r00      [16]  487 	lcall	__decdptr
      000237 12s00r00r00      [16]  488 	lcall	__decdptr
      00023B 12s00r00r00      [16]  489 	lcall	__decdptr
      00023F                        490 00118$:
      00023F D5 F0 E1         [16]  491 	djnz	b,00117$
      000242 90s00r00r09      [12]  492 	mov	dptr,#__rlulonglong_top_65536_9
      000246 E0               [ 8]  493 	movx	a,@dptr
      000247 C0 E0            [ 8]  494 	push	acc
      000249 A3               [12]  495 	inc	dptr
      00024A E0               [ 8]  496 	movx	a,@dptr
      00024B C0 E0            [ 8]  497 	push	acc
      00024D A3               [12]  498 	inc	dptr
      00024E E0               [ 8]  499 	movx	a,@dptr
      00024F C0 E0            [ 8]  500 	push	acc
      000251 A3               [12]  501 	inc	dptr
      000252 E0               [ 8]  502 	movx	a,@dptr
      000253 F5 F0            [ 8]  503 	mov	b,a
      000255 D0 93            [ 8]  504 	pop	dpx
      000257 D0 83            [ 8]  505 	pop	dph
      000259 D0 82            [ 8]  506 	pop	dpl
      00025B 75 86 01         [12]  507 	mov     dps, #1
      00025E 90s00r00r19      [12]  508 	mov     dptr, #__rlulonglong_sloc0_1_0
      000262 E0               [ 8]  509 	movx	a,@dptr
      000263 F5 9C            [ 8]  510 	mov	acc1, a
      000265 A3               [12]  511 	inc	dptr
      000266 E0               [ 8]  512 	movx	a,@dptr
      000267 15 86            [ 8]  513 	dec	dps
      000269 12s00r00r00      [16]  514 	lcall	__gptrputWord
      00026D A3               [12]  515 	inc	dptr
      00026E 05 86            [ 8]  516 	inc	dps
      000270 A3               [12]  517 	inc	dptr
      000271 E0               [ 8]  518 	movx	a,@dptr
      000272 F5 9C            [ 8]  519 	mov	acc1, a
      000274 A3               [12]  520 	inc	dptr
      000275 E0               [ 8]  521 	movx	a,@dptr
      000276 15 86            [ 8]  522 	dec	dps
      000278 12s00r00r00      [16]  523 	lcall	__gptrputWord
                                    524 ;	_rlulonglong.c:83: (*top) |= (((uint32_t)((*middle) & 0xffffu) << s) >> 16);
      00027C 90s00r00r0D      [12]  525 	mov	dptr,#__rlulonglong_middle_65536_9
      000280 E0               [ 8]  526 	movx	a,@dptr
      000281 C0 E0            [ 8]  527 	push	acc
      000283 A3               [12]  528 	inc	dptr
      000284 E0               [ 8]  529 	movx	a,@dptr
      000285 C0 E0            [ 8]  530 	push	acc
      000287 A3               [12]  531 	inc	dptr
      000288 E0               [ 8]  532 	movx	a,@dptr
      000289 C0 E0            [ 8]  533 	push	acc
      00028B A3               [12]  534 	inc	dptr
      00028C E0               [ 8]  535 	movx	a,@dptr
      00028D F5 F0            [ 8]  536 	mov	b,a
      00028F D0 93            [ 8]  537 	pop	dpx
      000291 D0 83            [ 8]  538 	pop	dph
      000293 D0 82            [ 8]  539 	pop	dpl
      000295 12s00r00r00      [16]  540 	lcall	__gptrgetWord
      000299 FB               [ 4]  541 	mov	r3,a
      00029A AC 9C            [ 8]  542 	mov	r4,acc1
      00029C 7D 00            [ 8]  543 	mov	r5,#0x00
      00029E 7E 00            [ 8]  544 	mov	r6,#0x00
      0002A0 8A F0            [ 8]  545 	mov	b,r2
      0002A2 05 F0            [ 8]  546 	inc	b
      0002A4 80 0D            [12]  547 	sjmp	00120$
      0002A6                        548 00119$:
      0002A6 EB               [ 4]  549 	mov	a,r3
      0002A7 25 E0            [ 8]  550 	add	a,acc
      0002A9 FB               [ 4]  551 	mov	r3,a
      0002AA EC               [ 4]  552 	mov	a,r4
      0002AB 33               [ 4]  553 	rlc	a
      0002AC FC               [ 4]  554 	mov	r4,a
      0002AD ED               [ 4]  555 	mov	a,r5
      0002AE 33               [ 4]  556 	rlc	a
      0002AF FD               [ 4]  557 	mov	r5,a
      0002B0 EE               [ 4]  558 	mov	a,r6
      0002B1 33               [ 4]  559 	rlc	a
      0002B2 FE               [ 4]  560 	mov	r6,a
      0002B3                        561 00120$:
      0002B3 D5 F0 F0         [16]  562 	djnz	b,00119$
      0002B6 8D 03            [ 8]  563 	mov	ar3,r5
      0002B8 8E 04            [ 8]  564 	mov	ar4,r6
      0002BA 7D 00            [ 8]  565 	mov	r5,#0x00
      0002BC 7E 00            [ 8]  566 	mov	r6,#0x00
      0002BE 90s00r00r19      [12]  567 	mov	dptr,#__rlulonglong_sloc0_1_0
      0002C2 E0               [ 8]  568 	movx	a,@dptr
      0002C3 42 03            [ 8]  569 	orl	ar3,a
      0002C5 A3               [12]  570 	inc	dptr
      0002C6 E0               [ 8]  571 	movx	a,@dptr
      0002C7 42 04            [ 8]  572 	orl	ar4,a
      0002C9 A3               [12]  573 	inc	dptr
      0002CA E0               [ 8]  574 	movx	a,@dptr
      0002CB 42 05            [ 8]  575 	orl	ar5,a
      0002CD A3               [12]  576 	inc	dptr
      0002CE E0               [ 8]  577 	movx	a,@dptr
      0002CF 42 06            [ 8]  578 	orl	ar6,a
      0002D1 90s00r00r09      [12]  579 	mov	dptr,#__rlulonglong_top_65536_9
      0002D5 E0               [ 8]  580 	movx	a,@dptr
      0002D6 C0 E0            [ 8]  581 	push	acc
      0002D8 A3               [12]  582 	inc	dptr
      0002D9 E0               [ 8]  583 	movx	a,@dptr
      0002DA C0 E0            [ 8]  584 	push	acc
      0002DC A3               [12]  585 	inc	dptr
      0002DD E0               [ 8]  586 	movx	a,@dptr
      0002DE C0 E0            [ 8]  587 	push	acc
      0002E0 A3               [12]  588 	inc	dptr
      0002E1 E0               [ 8]  589 	movx	a,@dptr
      0002E2 F5 F0            [ 8]  590 	mov	b,a
      0002E4 D0 93            [ 8]  591 	pop	dpx
      0002E6 D0 83            [ 8]  592 	pop	dph
      0002E8 D0 82            [ 8]  593 	pop	dpl
      0002EA 8B 9C            [ 8]  594 	mov	acc1, r3
      0002EC EC               [ 4]  595 	mov	a,r4
      0002ED 12s00r00r00      [16]  596 	lcall	__gptrputWord
      0002F1 A3               [12]  597 	inc	dptr
      0002F2 8D 9C            [ 8]  598 	mov	acc1, r5
      0002F4 EE               [ 4]  599 	mov	a,r6
      0002F5 12s00r00r00      [16]  600 	lcall	__gptrputWord
                                    601 ;	_rlulonglong.c:84: (*bottom) <<= s;
      0002F9 90s00r00r11      [12]  602 	mov	dptr,#__rlulonglong_bottom_65536_9
      0002FD E0               [ 8]  603 	movx	a,@dptr
      0002FE C0 E0            [ 8]  604 	push	acc
      000300 A3               [12]  605 	inc	dptr
      000301 E0               [ 8]  606 	movx	a,@dptr
      000302 C0 E0            [ 8]  607 	push	acc
      000304 A3               [12]  608 	inc	dptr
      000305 E0               [ 8]  609 	movx	a,@dptr
      000306 C0 E0            [ 8]  610 	push	acc
      000308 A3               [12]  611 	inc	dptr
      000309 E0               [ 8]  612 	movx	a,@dptr
      00030A F5 F0            [ 8]  613 	mov	b,a
      00030C D0 93            [ 8]  614 	pop	dpx
      00030E D0 83            [ 8]  615 	pop	dph
      000310 D0 82            [ 8]  616 	pop	dpl
      000312 12s00r00r00      [16]  617 	lcall	__gptrgetWord
      000316 FB               [ 4]  618 	mov	r3,a
      000317 AC 9C            [ 8]  619 	mov	r4,acc1
      000319 A3               [12]  620 	inc	dptr
      00031A 12s00r00r00      [16]  621 	lcall	__gptrgetWord
      00031E FD               [ 4]  622 	mov	r5,a
      00031F AE 9C            [ 8]  623 	mov	r6,acc1
      000321 8A F0            [ 8]  624 	mov	b,r2
      000323 05 F0            [ 8]  625 	inc	b
      000325 80 0D            [12]  626 	sjmp	00122$
      000327                        627 00121$:
      000327 EB               [ 4]  628 	mov	a,r3
      000328 25 E0            [ 8]  629 	add	a,acc
      00032A FB               [ 4]  630 	mov	r3,a
      00032B EC               [ 4]  631 	mov	a,r4
      00032C 33               [ 4]  632 	rlc	a
      00032D FC               [ 4]  633 	mov	r4,a
      00032E ED               [ 4]  634 	mov	a,r5
      00032F 33               [ 4]  635 	rlc	a
      000330 FD               [ 4]  636 	mov	r5,a
      000331 EE               [ 4]  637 	mov	a,r6
      000332 33               [ 4]  638 	rlc	a
      000333 FE               [ 4]  639 	mov	r6,a
      000334                        640 00122$:
      000334 D5 F0 F0         [16]  641 	djnz	b,00121$
      000337 90s00r00r11      [12]  642 	mov	dptr,#__rlulonglong_bottom_65536_9
      00033B E0               [ 8]  643 	movx	a,@dptr
      00033C C0 E0            [ 8]  644 	push	acc
      00033E A3               [12]  645 	inc	dptr
      00033F E0               [ 8]  646 	movx	a,@dptr
      000340 C0 E0            [ 8]  647 	push	acc
      000342 A3               [12]  648 	inc	dptr
      000343 E0               [ 8]  649 	movx	a,@dptr
      000344 C0 E0            [ 8]  650 	push	acc
      000346 A3               [12]  651 	inc	dptr
      000347 E0               [ 8]  652 	movx	a,@dptr
      000348 F5 F0            [ 8]  653 	mov	b,a
      00034A D0 93            [ 8]  654 	pop	dpx
      00034C D0 83            [ 8]  655 	pop	dph
      00034E D0 82            [ 8]  656 	pop	dpl
      000350 8B 9C            [ 8]  657 	mov	acc1, r3
      000352 EC               [ 4]  658 	mov	a,r4
      000353 12s00r00r00      [16]  659 	lcall	__gptrputWord
      000357 A3               [12]  660 	inc	dptr
      000358 8D 9C            [ 8]  661 	mov	acc1, r5
      00035A EE               [ 4]  662 	mov	a,r6
      00035B 12s00r00r00      [16]  663 	lcall	__gptrputWord
                                    664 ;	_rlulonglong.c:86: return(l);
      00035F 75 86 01         [12]  665 	mov     dps, #1
      000362 90s00r00r01      [12]  666 	mov     dptr, #__rlulonglong_l_65536_8
      000366 E0               [ 8]  667 	movx	a,@dptr
      000367 F5 82            [ 8]  668 	mov	dpl,a
      000369 A3               [12]  669 	inc	dptr
      00036A E0               [ 8]  670 	movx	a,@dptr
      00036B F5 83            [ 8]  671 	mov	dph,a
      00036D A3               [12]  672 	inc	dptr
      00036E E0               [ 8]  673 	movx	a,@dptr
      00036F F5 93            [ 8]  674 	mov	dpx,a
      000371 A3               [12]  675 	inc	dptr
      000372 E0               [ 8]  676 	movx	a,@dptr
      000373 F5 F0            [ 8]  677 	mov	b,a
      000375 A3               [12]  678 	inc	dptr
      000376 E0               [ 8]  679 	movx	a,@dptr
      000377 C0 E0            [ 8]  680 	push	acc
      000379 A3               [12]  681 	inc	dptr
      00037A E0               [ 8]  682 	movx	a,@dptr
      00037B FC               [ 4]  683 	mov	r4,a
      00037C A3               [12]  684 	inc	dptr
      00037D E0               [ 8]  685 	movx	a,@dptr
      00037E FD               [ 4]  686 	mov	r5,a
      00037F A3               [12]  687 	inc	dptr
      000380 E0               [ 8]  688 	movx	a,@dptr
      000381 FE               [ 4]  689 	mov	r6,a
      000382 75 86 00         [12]  690 	mov	dps,#0
      000385 D0 E0            [ 8]  691 	pop	acc
      000387                        692 00105$:
                                    693 ;	_rlulonglong.c:87: }
      000387 22               [16]  694 	ret
                                    695 	.area CSEG    (CODE)
                                    696 	.area CONST   (CODE)
                                    697 	.area XINIT   (CODE)
                                    698 	.area CABS    (ABS,CODE)
