                                      1 ;--------------------------------------------------------
                                      2 ; File Created by SDCC : free open source ISO C Compiler 
                                      3 ; Version 4.2.14 #0 (Linux)
                                      4 ;--------------------------------------------------------
                                      5 	.module _strncmp
                                      6 	.optsdcc -mds390 --model-flat24
                                      7 	
                                      8 ;--------------------------------------------------------
                                      9 ; CPU specific extensions
                                     10 ;--------------------------------------------------------
                                     11 	.DS80C390
                                     12 	.amode	2	; 24 bit flat addressing
                           000082    13 dpl	=	0x82
                           000083    14 dph	=	0x83
                           000084    15 dpl1	=	0x84
                           000085    16 dph1	=	0x85
                           000086    17 dps	=	0x86
                           000093    18 dpx	=	0x93
                           000095    19 dpx1	=	0x95
                           00009B    20 esp	=	0x9B
                           00009C    21 ap	=	0x9C
                           00009C    22 acc1	=	0x9C
                           0000D1    23 mcnt0	=	0xD1
                           0000D2    24 mcnt1	=	0xD2
                           0000D3    25 ma	=	0xD3
                           0000D4    26 mb	=	0xD4
                           0000D5    27 mc	=	0xD5
                           00009D    28 acon	=	0x9D
                           0000C6    29 mcon	=	0xC6
                           0000D1    30 F1	=	0xD1	; user flag
                                     31 ;--------------------------------------------------------
                                     32 ; Public variables in this module
                                     33 ;--------------------------------------------------------
                                     34 	.globl _strncmp_PARM_3
                                     35 	.globl _strncmp_PARM_2
                                     36 	.globl _strncmp
                                     37 ;--------------------------------------------------------
                                     38 ; special function registers
                                     39 ;--------------------------------------------------------
                                     40 ;--------------------------------------------------------
                                     41 ; special function bits
                                     42 ;--------------------------------------------------------
                                     43 ;--------------------------------------------------------
                                     44 ; overlayable register banks
                                     45 ;--------------------------------------------------------
                                     46 	.area REG_BANK_0	(REL,OVR,DATA)
      000000                         47 	.ds 8
                                     48 ;--------------------------------------------------------
                                     49 ; internal ram data
                                     50 ;--------------------------------------------------------
                                     51 	.area DSEG    (DATA)
                                     52 ;--------------------------------------------------------
                                     53 ; overlayable items in internal ram
                                     54 ;--------------------------------------------------------
                                     55 ;--------------------------------------------------------
                                     56 ; indirectly addressable internal ram data
                                     57 ;--------------------------------------------------------
                                     58 	.area ISEG    (DATA)
                                     59 ;--------------------------------------------------------
                                     60 ; absolute internal ram data
                                     61 ;--------------------------------------------------------
                                     62 	.area IABS    (ABS,DATA)
                                     63 	.area IABS    (ABS,DATA)
                                     64 ;--------------------------------------------------------
                                     65 ; bit data
                                     66 ;--------------------------------------------------------
                                     67 	.area BSEG    (BIT)
                                     68 ;--------------------------------------------------------
                                     69 ; paged external ram data
                                     70 ;--------------------------------------------------------
                                     71 	.area PSEG    (PAG,XDATA)
                                     72 ;--------------------------------------------------------
                                     73 ; uninitialized external ram data
                                     74 ;--------------------------------------------------------
                                     75 	.area XSEG    (XDATA)
      000000                         76 _strncmp_PARM_2:
      000000                         77 	.ds 4
      000004                         78 _strncmp_PARM_3:
      000004                         79 	.ds 2
      000006                         80 _strncmp_sloc0_1_0:
      000006                         81 	.ds 2
      000008                         82 _strncmp_sloc1_1_0:
      000008                         83 	.ds 1
                                     84 ;--------------------------------------------------------
                                     85 ; absolute external ram data
                                     86 ;--------------------------------------------------------
                                     87 	.area XABS    (ABS,XDATA)
                                     88 ;--------------------------------------------------------
                                     89 ; initialized external ram data
                                     90 ;--------------------------------------------------------
                                     91 	.area XISEG   (XDATA)
                                     92 ;--------------------------------------------------------
                                     93 ; global & static initialisations
                                     94 ;--------------------------------------------------------
                                     95 	.area HOME    (CODE)
                                     96 	.area GSINIT  (CODE)
                                     97 	.area GSFINAL (CODE)
                                     98 	.area GSINIT  (CODE)
                                     99 ;--------------------------------------------------------
                                    100 ; Home
                                    101 ;--------------------------------------------------------
                                    102 	.area HOME    (CODE)
                                    103 	.area HOME    (CODE)
                                    104 ;--------------------------------------------------------
                                    105 ; code
                                    106 ;--------------------------------------------------------
                                    107 	.area CSEG    (CODE)
                                    108 ;------------------------------------------------------------
                                    109 ;Allocation info for local variables in function 'strncmp'
                                    110 ;------------------------------------------------------------
                                    111 ;last                      Allocated with name '_strncmp_PARM_2'
                                    112 ;count                     Allocated with name '_strncmp_PARM_3'
                                    113 ;first                     Allocated to registers r2 r3 r4 r5 
                                    114 ;sloc0                     Allocated with name '_strncmp_sloc0_1_0'
                                    115 ;sloc1                     Allocated with name '_strncmp_sloc1_1_0'
                                    116 ;------------------------------------------------------------
                                    117 ;	_strncmp.c:31: int strncmp ( const char * first, const char * last, size_t count )
                                    118 ;	-----------------------------------------
                                    119 ;	 function strncmp
                                    120 ;	-----------------------------------------
      000000                        121 _strncmp:
                           000002   122 	ar2 = 0x02
                           000003   123 	ar3 = 0x03
                           000004   124 	ar4 = 0x04
                           000005   125 	ar5 = 0x05
                           000006   126 	ar6 = 0x06
                           000007   127 	ar7 = 0x07
                           000000   128 	ar0 = 0x00
                           000001   129 	ar1 = 0x01
      000000 AA 82            [ 8]  130 	mov	r2,dpl
      000002 AB 83            [ 8]  131 	mov	r3,dph
      000004 AC 93            [ 8]  132 	mov	r4,dpx
      000006 AD F0            [ 8]  133 	mov	r5,b
                                    134 ;	_strncmp.c:33: if (!count)
      000008 90s00r00r04      [12]  135 	mov	dptr,#_strncmp_PARM_3
      00000C E0               [ 8]  136 	movx	a,@dptr
      00000D F5 F0            [ 8]  137 	mov	b,a
      00000F A3               [12]  138 	inc	dptr
      000010 E0               [ 8]  139 	movx	a,@dptr
      000011 45 F0            [ 8]  140 	orl	a,b
      000013 70 08            [12]  141 	jnz  00114$
      000015                        142 00131$:
                                    143 ;	_strncmp.c:34: return(0);
      000015 90 00 00 00      [12]  144 	mov  dptr,#0x0000
      000019 02s00r00rEB      [16]  145 	ljmp	00108$
                                    146 ;	_strncmp.c:36: while (--count && *first && *first == *last) {
      00001D                        147 00114$:
                                    148 ;	genAssign: resultIsFar = FALSE
      00001D 90s00r00r00      [12]  149 	mov	dptr,#_strncmp_PARM_2
                                    150 ;	genAssign: resultIsFar = FALSE
      000021 E0               [ 8]  151 	movx	a,@dptr
      000022 FE               [ 4]  152 	mov	r6,a
      000023 A3               [12]  153 	inc	dptr
      000024 E0               [ 8]  154 	movx	a,@dptr
      000025 FF               [ 4]  155 	mov	r7,a
      000026 A3               [12]  156 	inc	dptr
      000027 E0               [ 8]  157 	movx	a,@dptr
      000028 F8               [ 4]  158 	mov	r0,a
      000029 A3               [12]  159 	inc	dptr
      00002A E0               [ 8]  160 	movx	a,@dptr
      00002B F9               [ 4]  161 	mov	r1,a
      00002C 90s00r00r04      [12]  162 	mov	dptr,#_strncmp_PARM_3
                                    163 ;	genAssign: resultIsFar = TRUE
      000030 75 86 21         [12]  164 	mov	dps,#0x21
      000033 90s00r00r06      [12]  165 	mov	dptr,#_strncmp_sloc0_1_0
      000037 E0               [ 8]  166 	movx	a,@dptr
      000038 F0               [ 8]  167 	movx	@dptr,a
      000039 A3               [12]  168 	inc	dptr
      00003A A3               [12]  169 	inc	dptr
      00003B E0               [ 8]  170 	movx	a,@dptr
      00003C F0               [ 8]  171 	movx	@dptr,a
      00003D 75 86 00         [12]  172 	mov	dps,#0
      000040                        173 00105$:
      000040 90s00r00r06      [12]  174 	mov	dptr,#_strncmp_sloc0_1_0
      000044 E0               [ 8]  175 	movx	a,@dptr
      000045 24 FF            [ 8]  176 	add	a,#0xff
      000047 F0               [ 8]  177 	movx	@dptr,a
      000048 A3               [12]  178 	inc	dptr
      000049 E0               [ 8]  179 	movx	a,@dptr
      00004A 34 FF            [ 8]  180 	addc	a,#0xff
      00004C F0               [ 8]  181 	movx	@dptr,a
      00004D 90s00r00r06      [12]  182 	mov	dptr,#_strncmp_sloc0_1_0
      000051 E0               [ 8]  183 	movx	a,@dptr
      000052 F5 F0            [ 8]  184 	mov	b,a
      000054 A3               [12]  185 	inc	dptr
      000055 E0               [ 8]  186 	movx	a,@dptr
      000056 45 F0            [ 8]  187 	orl	a,b
      000058 60 6A            [12]  188 	jz  00107$
      00005A                        189 00132$:
      00005A 8A 82            [ 8]  190 	mov	dpl,r2
      00005C 8B 83            [ 8]  191 	mov	dph,r3
      00005E 8C 93            [ 8]  192 	mov	dpx,r4
      000060 8D F0            [ 8]  193 	mov	b,r5
      000062 75 86 01         [12]  194 	mov	dps, #1
      000065 90s00r00r08      [12]  195 	mov	dptr, #_strncmp_sloc1_1_0
      000069 15 86            [ 8]  196 	dec	dps
      00006B 12s00r00r00      [16]  197 	lcall	__gptrget
      00006F 75 86 01         [12]  198 	mov	dps,#1
      000072 F0               [ 8]  199 	movx	@dptr,a
      000073 75 86 00         [12]  200 	mov	dps,#0
      000076 90s00r00r08      [12]  201 	mov	dptr,#_strncmp_sloc1_1_0
      00007A E0               [ 8]  202 	movx	a,@dptr
      00007B 60 47            [12]  203 	jz  00107$
      00007D                        204 00133$:
      00007D C0 02            [ 8]  205 	push	ar2
      00007F C0 03            [ 8]  206 	push	ar3
      000081 C0 04            [ 8]  207 	push	ar4
      000083 C0 05            [ 8]  208 	push	ar5
      000085 8E 82            [ 8]  209 	mov	dpl,r6
      000087 8F 83            [ 8]  210 	mov	dph,r7
      000089 88 93            [ 8]  211 	mov	dpx,r0
      00008B 89 F0            [ 8]  212 	mov	b,r1
      00008D 12s00r00r00      [16]  213 	lcall	__gptrget
      000091 FA               [ 4]  214 	mov	r2,a
      000092 90s00r00r08      [12]  215 	mov	dptr,#_strncmp_sloc1_1_0
      000096 E0               [ 8]  216 	movx	a,@dptr
      000097 B5 02 02         [16]  217 	cjne	a,ar2,00134$
      00009A 80 0A            [12]  218 	sjmp	00135$
      00009C                        219 00134$:
      00009C D0 05            [ 8]  220 	pop	ar5
      00009E D0 04            [ 8]  221 	pop	ar4
      0000A0 D0 03            [ 8]  222 	pop	ar3
      0000A2 D0 02            [ 8]  223 	pop	ar2
      0000A4 80 1E            [12]  224 	sjmp 00107$
      0000A6                        225 00135$:
      0000A6 D0 05            [ 8]  226 	pop	ar5
      0000A8 D0 04            [ 8]  227 	pop	ar4
      0000AA D0 03            [ 8]  228 	pop	ar3
      0000AC D0 02            [ 8]  229 	pop	ar2
                                    230 ;	_strncmp.c:37: first++;
      0000AE 0A               [ 4]  231 	inc	r2
      0000AF BA 00 05         [16]  232 	cjne	r2,#0x00,00136$
      0000B2 0B               [ 4]  233 	inc	r3
      0000B3 BB 00 01         [16]  234 	cjne	r3,#0x00,00136$
      0000B6 0C               [ 4]  235 	inc	r4
      0000B7                        236 00136$:
                                    237 ;	_strncmp.c:38: last++;
      0000B7 0E               [ 4]  238 	inc	r6
      0000B8 BE 00 05         [16]  239 	cjne	r6,#0x00,00137$
      0000BB 0F               [ 4]  240 	inc	r7
      0000BC BF 00 01         [16]  241 	cjne	r7,#0x00,00137$
      0000BF 08               [ 4]  242 	inc	r0
      0000C0                        243 00137$:
      0000C0 02s00r00r40      [16]  244 	ljmp	00105$
      0000C4                        245 00107$:
                                    246 ;	_strncmp.c:41: return( *first - *last );
      0000C4 8A 82            [ 8]  247 	mov	dpl,r2
      0000C6 8B 83            [ 8]  248 	mov	dph,r3
      0000C8 8C 93            [ 8]  249 	mov	dpx,r4
      0000CA 8D F0            [ 8]  250 	mov	b,r5
      0000CC 12s00r00r00      [16]  251 	lcall	__gptrget
      0000D0 FA               [ 4]  252 	mov	r2,a
      0000D1 7B 00            [ 8]  253 	mov	r3,#0x00
      0000D3 8E 82            [ 8]  254 	mov	dpl,r6
      0000D5 8F 83            [ 8]  255 	mov	dph,r7
      0000D7 88 93            [ 8]  256 	mov	dpx,r0
      0000D9 89 F0            [ 8]  257 	mov	b,r1
      0000DB 12s00r00r00      [16]  258 	lcall	__gptrget
      0000DF FE               [ 4]  259 	mov	r6,a
      0000E0 7C 00            [ 8]  260 	mov	r4,#0x00
      0000E2 C3               [ 4]  261 	clr	c
      0000E3 EA               [ 4]  262 	mov	a,r2
      0000E4 9E               [ 4]  263 	subb	a,r6
      0000E5 F5 82            [ 8]  264 	mov	dpl,a
      0000E7 EB               [ 4]  265 	mov	a,r3
      0000E8 9C               [ 4]  266 	subb	a,r4
      0000E9 F5 83            [ 8]  267 	mov	dph,a
      0000EB                        268 00108$:
                                    269 ;	_strncmp.c:42: }
      0000EB 22               [16]  270 	ret
                                    271 	.area CSEG    (CODE)
                                    272 	.area CONST   (CODE)
                                    273 	.area XINIT   (CODE)
                                    274 	.area CABS    (ABS,CODE)
