                                      1 ;--------------------------------------------------------
                                      2 ; File Created by SDCC : free open source ISO C Compiler 
                                      3 ; Version 4.2.14 #0 (Linux)
                                      4 ;--------------------------------------------------------
                                      5 	.module ckd_add
                                      6 	.optsdcc -mds390 --model-flat24
                                      7 	
                                      8 ;--------------------------------------------------------
                                      9 ; CPU specific extensions
                                     10 ;--------------------------------------------------------
                                     11 	.DS80C390
                                     12 	.amode	2	; 24 bit flat addressing
                           000082    13 dpl	=	0x82
                           000083    14 dph	=	0x83
                           000084    15 dpl1	=	0x84
                           000085    16 dph1	=	0x85
                           000086    17 dps	=	0x86
                           000093    18 dpx	=	0x93
                           000095    19 dpx1	=	0x95
                           00009B    20 esp	=	0x9B
                           00009C    21 ap	=	0x9C
                           00009C    22 acc1	=	0x9C
                           0000D1    23 mcnt0	=	0xD1
                           0000D2    24 mcnt1	=	0xD2
                           0000D3    25 ma	=	0xD3
                           0000D4    26 mb	=	0xD4
                           0000D5    27 mc	=	0xD5
                           00009D    28 acon	=	0x9D
                           0000C6    29 mcon	=	0xC6
                           0000D1    30 F1	=	0xD1	; user flag
                                     31 ;--------------------------------------------------------
                                     32 ; Public variables in this module
                                     33 ;--------------------------------------------------------
                                     34 	.globl ___ckd_add_ulong_PARM_3
                                     35 	.globl ___ckd_add_ulong_PARM_2
                                     36 	.globl ___ckd_add_long_PARM_3
                                     37 	.globl ___ckd_add_long_PARM_2
                                     38 	.globl ___ckd_add_uint_PARM_3
                                     39 	.globl ___ckd_add_uint_PARM_2
                                     40 	.globl ___ckd_add_int_PARM_3
                                     41 	.globl ___ckd_add_int_PARM_2
                                     42 	.globl ___ckd_add_ushort_PARM_3
                                     43 	.globl ___ckd_add_ushort_PARM_2
                                     44 	.globl ___ckd_add_short_PARM_3
                                     45 	.globl ___ckd_add_short_PARM_2
                                     46 	.globl ___ckd_add_uchar_PARM_3
                                     47 	.globl ___ckd_add_uchar_PARM_2
                                     48 	.globl ___ckd_add_schar_PARM_3
                                     49 	.globl ___ckd_add_schar_PARM_2
                                     50 	.globl ___ckd_add_schar
                                     51 	.globl ___ckd_add_uchar
                                     52 	.globl ___ckd_add_short
                                     53 	.globl ___ckd_add_ushort
                                     54 	.globl ___ckd_add_int
                                     55 	.globl ___ckd_add_uint
                                     56 	.globl ___ckd_add_long
                                     57 	.globl ___ckd_add_ulong
                                     58 ;--------------------------------------------------------
                                     59 ; special function registers
                                     60 ;--------------------------------------------------------
                                     61 ;--------------------------------------------------------
                                     62 ; special function bits
                                     63 ;--------------------------------------------------------
                                     64 ;--------------------------------------------------------
                                     65 ; overlayable register banks
                                     66 ;--------------------------------------------------------
                                     67 	.area REG_BANK_0	(REL,OVR,DATA)
      000000                         68 	.ds 8
                                     69 ;--------------------------------------------------------
                                     70 ; internal ram data
                                     71 ;--------------------------------------------------------
                                     72 	.area DSEG    (DATA)
                                     73 ;--------------------------------------------------------
                                     74 ; overlayable items in internal ram
                                     75 ;--------------------------------------------------------
                                     76 ;--------------------------------------------------------
                                     77 ; indirectly addressable internal ram data
                                     78 ;--------------------------------------------------------
                                     79 	.area ISEG    (DATA)
                                     80 ;--------------------------------------------------------
                                     81 ; absolute internal ram data
                                     82 ;--------------------------------------------------------
                                     83 	.area IABS    (ABS,DATA)
                                     84 	.area IABS    (ABS,DATA)
                                     85 ;--------------------------------------------------------
                                     86 ; bit data
                                     87 ;--------------------------------------------------------
                                     88 	.area BSEG    (BIT)
      000000                         89 ___ckd_add_schar_sloc0_1_0:
      000000                         90 	.ds 1
      000001                         91 ___ckd_add_uchar_sloc0_1_0:
      000001                         92 	.ds 1
      000002                         93 ___ckd_add_short_sloc0_1_0:
      000002                         94 	.ds 1
      000003                         95 ___ckd_add_ushort_sloc0_1_0:
      000003                         96 	.ds 1
      000004                         97 ___ckd_add_int_sloc0_1_0:
      000004                         98 	.ds 1
      000005                         99 ___ckd_add_uint_sloc0_1_0:
      000005                        100 	.ds 1
      000006                        101 ___ckd_add_long_sloc0_1_0:
      000006                        102 	.ds 1
      000007                        103 ___ckd_add_ulong_sloc0_1_0:
      000007                        104 	.ds 1
                                    105 ;--------------------------------------------------------
                                    106 ; paged external ram data
                                    107 ;--------------------------------------------------------
                                    108 	.area PSEG    (PAG,XDATA)
                                    109 ;--------------------------------------------------------
                                    110 ; uninitialized external ram data
                                    111 ;--------------------------------------------------------
                                    112 	.area XSEG    (XDATA)
      000000                        113 ___ckd_add_schar_PARM_2:
      000000                        114 	.ds 8
      000008                        115 ___ckd_add_schar_PARM_3:
      000008                        116 	.ds 8
      000010                        117 ___ckd_add_schar_r_65536_9:
      000010                        118 	.ds 4
      000014                        119 ___ckd_add_schar_result_65536_10:
      000014                        120 	.ds 8
      00001C                        121 ___ckd_add_uchar_PARM_2:
      00001C                        122 	.ds 8
      000024                        123 ___ckd_add_uchar_PARM_3:
      000024                        124 	.ds 8
      00002C                        125 ___ckd_add_uchar_r_65536_11:
      00002C                        126 	.ds 4
      000030                        127 ___ckd_add_uchar_result_65536_12:
      000030                        128 	.ds 8
      000038                        129 ___ckd_add_short_PARM_2:
      000038                        130 	.ds 8
      000040                        131 ___ckd_add_short_PARM_3:
      000040                        132 	.ds 8
      000048                        133 ___ckd_add_short_r_65536_13:
      000048                        134 	.ds 4
      00004C                        135 ___ckd_add_short_result_65536_14:
      00004C                        136 	.ds 8
      000054                        137 ___ckd_add_ushort_PARM_2:
      000054                        138 	.ds 8
      00005C                        139 ___ckd_add_ushort_PARM_3:
      00005C                        140 	.ds 8
      000064                        141 ___ckd_add_ushort_r_65536_15:
      000064                        142 	.ds 4
      000068                        143 ___ckd_add_ushort_result_65536_16:
      000068                        144 	.ds 8
      000070                        145 ___ckd_add_int_PARM_2:
      000070                        146 	.ds 8
      000078                        147 ___ckd_add_int_PARM_3:
      000078                        148 	.ds 8
      000080                        149 ___ckd_add_int_r_65536_17:
      000080                        150 	.ds 4
      000084                        151 ___ckd_add_int_result_65536_18:
      000084                        152 	.ds 8
      00008C                        153 ___ckd_add_uint_PARM_2:
      00008C                        154 	.ds 8
      000094                        155 ___ckd_add_uint_PARM_3:
      000094                        156 	.ds 8
      00009C                        157 ___ckd_add_uint_r_65536_19:
      00009C                        158 	.ds 4
      0000A0                        159 ___ckd_add_uint_result_65536_20:
      0000A0                        160 	.ds 8
      0000A8                        161 ___ckd_add_long_PARM_2:
      0000A8                        162 	.ds 8
      0000B0                        163 ___ckd_add_long_PARM_3:
      0000B0                        164 	.ds 8
      0000B8                        165 ___ckd_add_long_r_65536_21:
      0000B8                        166 	.ds 4
      0000BC                        167 ___ckd_add_long_result_65536_22:
      0000BC                        168 	.ds 8
      0000C4                        169 ___ckd_add_ulong_PARM_2:
      0000C4                        170 	.ds 8
      0000CC                        171 ___ckd_add_ulong_PARM_3:
      0000CC                        172 	.ds 8
      0000D4                        173 ___ckd_add_ulong_r_65536_23:
      0000D4                        174 	.ds 4
      0000D8                        175 ___ckd_add_ulong_result_65536_24:
      0000D8                        176 	.ds 8
                                    177 ;--------------------------------------------------------
                                    178 ; absolute external ram data
                                    179 ;--------------------------------------------------------
                                    180 	.area XABS    (ABS,XDATA)
                                    181 ;--------------------------------------------------------
                                    182 ; initialized external ram data
                                    183 ;--------------------------------------------------------
                                    184 	.area XISEG   (XDATA)
                                    185 ;--------------------------------------------------------
                                    186 ; global & static initialisations
                                    187 ;--------------------------------------------------------
                                    188 	.area HOME    (CODE)
                                    189 	.area GSINIT  (CODE)
                                    190 	.area GSFINAL (CODE)
                                    191 	.area GSINIT  (CODE)
                                    192 ;--------------------------------------------------------
                                    193 ; Home
                                    194 ;--------------------------------------------------------
                                    195 	.area HOME    (CODE)
                                    196 	.area HOME    (CODE)
                                    197 ;--------------------------------------------------------
                                    198 ; code
                                    199 ;--------------------------------------------------------
                                    200 	.area CSEG    (CODE)
                                    201 ;------------------------------------------------------------
                                    202 ;Allocation info for local variables in function '__ckd_add_schar'
                                    203 ;------------------------------------------------------------
                                    204 ;a                         Allocated with name '___ckd_add_schar_PARM_2'
                                    205 ;b                         Allocated with name '___ckd_add_schar_PARM_3'
                                    206 ;r                         Allocated with name '___ckd_add_schar_r_65536_9'
                                    207 ;result                    Allocated with name '___ckd_add_schar_result_65536_10'
                                    208 ;------------------------------------------------------------
                                    209 ;	../../device/include/stdckdint.h:51: inline _Bool __ckd_add_schar __CKD_DEFAULT_IMPL(signed char, +)
                                    210 ;	-----------------------------------------
                                    211 ;	 function __ckd_add_schar
                                    212 ;	-----------------------------------------
      000000                        213 ___ckd_add_schar:
                           000002   214 	ar2 = 0x02
                           000003   215 	ar3 = 0x03
                           000004   216 	ar4 = 0x04
                           000005   217 	ar5 = 0x05
                           000006   218 	ar6 = 0x06
                           000007   219 	ar7 = 0x07
                           000000   220 	ar0 = 0x00
                           000001   221 	ar1 = 0x01
      000000 75 86 01         [12]  222 	mov     dps, #1
      000003 90s00r00r10      [12]  223 	mov     dptr, #___ckd_add_schar_r_65536_9
      000007 E5 82            [ 8]  224 	mov	a,dpl
      000009 F0               [ 8]  225 	movx	@dptr,a
      00000A A3               [12]  226 	inc	dptr
      00000B E5 83            [ 8]  227 	mov	a,dph
      00000D F0               [ 8]  228 	movx	@dptr,a
      00000E A3               [12]  229 	inc	dptr
      00000F E5 93            [ 8]  230 	mov	a,dpx
      000011 F0               [ 8]  231 	movx	@dptr,a
      000012 A3               [12]  232 	inc	dptr
      000013 E5 F0            [ 8]  233 	mov	a,b
      000015 F0               [ 8]  234 	movx	@dptr,a
      000016 75 86 01         [12]  235 	mov	dps, #1
      000019 90s00r00r00      [12]  236 	mov	dptr, #___ckd_add_schar_PARM_2
      00001D 15 86            [ 8]  237 	dec	dps
      00001F 90s00r00r08      [12]  238 	mov	dptr, #___ckd_add_schar_PARM_3
      000023 E0               [ 8]  239 	movx	a,@dptr
      000024 C5 9C            [ 8]  240 	xch	a, acc1
      000026 05 86            [ 8]  241 	inc	dps
      000028 E0               [ 8]  242 	movx	a,@dptr
      000029 C5 9C            [ 8]  243 	xch	a, acc1
      00002B 25 9C            [ 8]  244 	add	a,acc1
      00002D FE               [ 4]  245 	mov	r6,a
      00002E 15 86            [ 8]  246 	dec	dps
      000030 A3               [12]  247 	inc	dptr
      000031 E0               [ 8]  248 	movx	a,@dptr
      000032 C5 9C            [ 8]  249 	xch	a, acc1
      000034 05 86            [ 8]  250 	inc	dps
      000036 A3               [12]  251 	inc	dptr
      000037 E0               [ 8]  252 	movx	a,@dptr
      000038 C5 9C            [ 8]  253 	xch	a, acc1
      00003A 35 9C            [ 8]  254 	addc	a,acc1
      00003C FF               [ 4]  255 	mov	r7,a
      00003D 15 86            [ 8]  256 	dec	dps
      00003F A3               [12]  257 	inc	dptr
      000040 E0               [ 8]  258 	movx	a,@dptr
      000041 C5 9C            [ 8]  259 	xch	a, acc1
      000043 05 86            [ 8]  260 	inc	dps
      000045 A3               [12]  261 	inc	dptr
      000046 E0               [ 8]  262 	movx	a,@dptr
      000047 C5 9C            [ 8]  263 	xch	a, acc1
      000049 35 9C            [ 8]  264 	addc	a,acc1
      00004B F8               [ 4]  265 	mov	r0,a
      00004C 15 86            [ 8]  266 	dec	dps
      00004E A3               [12]  267 	inc	dptr
      00004F E0               [ 8]  268 	movx	a,@dptr
      000050 C5 9C            [ 8]  269 	xch	a, acc1
      000052 05 86            [ 8]  270 	inc	dps
      000054 A3               [12]  271 	inc	dptr
      000055 E0               [ 8]  272 	movx	a,@dptr
      000056 C5 9C            [ 8]  273 	xch	a, acc1
      000058 35 9C            [ 8]  274 	addc	a,acc1
      00005A F9               [ 4]  275 	mov	r1,a
      00005B 15 86            [ 8]  276 	dec	dps
      00005D A3               [12]  277 	inc	dptr
      00005E E0               [ 8]  278 	movx	a,@dptr
      00005F C5 9C            [ 8]  279 	xch	a, acc1
      000061 05 86            [ 8]  280 	inc	dps
      000063 A3               [12]  281 	inc	dptr
      000064 E0               [ 8]  282 	movx	a,@dptr
      000065 C5 9C            [ 8]  283 	xch	a, acc1
      000067 35 9C            [ 8]  284 	addc	a,acc1
      000069 FA               [ 4]  285 	mov	r2,a
      00006A 15 86            [ 8]  286 	dec	dps
      00006C A3               [12]  287 	inc	dptr
      00006D E0               [ 8]  288 	movx	a,@dptr
      00006E C5 9C            [ 8]  289 	xch	a, acc1
      000070 05 86            [ 8]  290 	inc	dps
      000072 A3               [12]  291 	inc	dptr
      000073 E0               [ 8]  292 	movx	a,@dptr
      000074 C5 9C            [ 8]  293 	xch	a, acc1
      000076 35 9C            [ 8]  294 	addc	a,acc1
      000078 FB               [ 4]  295 	mov	r3,a
      000079 15 86            [ 8]  296 	dec	dps
      00007B A3               [12]  297 	inc	dptr
      00007C E0               [ 8]  298 	movx	a,@dptr
      00007D C5 9C            [ 8]  299 	xch	a, acc1
      00007F 05 86            [ 8]  300 	inc	dps
      000081 A3               [12]  301 	inc	dptr
      000082 E0               [ 8]  302 	movx	a,@dptr
      000083 C5 9C            [ 8]  303 	xch	a, acc1
      000085 35 9C            [ 8]  304 	addc	a,acc1
      000087 FC               [ 4]  305 	mov	r4,a
      000088 15 86            [ 8]  306 	dec	dps
      00008A A3               [12]  307 	inc	dptr
      00008B E0               [ 8]  308 	movx	a,@dptr
      00008C C5 9C            [ 8]  309 	xch	a, acc1
      00008E 05 86            [ 8]  310 	inc	dps
      000090 A3               [12]  311 	inc	dptr
      000091 E0               [ 8]  312 	movx	a,@dptr
      000092 C5 9C            [ 8]  313 	xch	a, acc1
      000094 35 9C            [ 8]  314 	addc	a,acc1
      000096 FD               [ 4]  315 	mov	r5,a
      000097 75 86 00         [12]  316 	mov	dps,#0
                                    317 ;	genAssign: resultIsFar = TRUE
      00009A 90s00r00r14      [12]  318 	mov	dptr,#___ckd_add_schar_result_65536_10
      00009E EE               [ 4]  319 	mov	a,r6
      00009F F0               [ 8]  320 	movx	@dptr,a
      0000A0 A3               [12]  321 	inc	dptr
      0000A1 EF               [ 4]  322 	mov	a,r7
      0000A2 F0               [ 8]  323 	movx	@dptr,a
      0000A3 A3               [12]  324 	inc	dptr
      0000A4 E8               [ 4]  325 	mov	a,r0
      0000A5 F0               [ 8]  326 	movx	@dptr,a
      0000A6 A3               [12]  327 	inc	dptr
      0000A7 E9               [ 4]  328 	mov	a,r1
      0000A8 F0               [ 8]  329 	movx	@dptr,a
      0000A9 A3               [12]  330 	inc	dptr
      0000AA EA               [ 4]  331 	mov	a,r2
      0000AB F0               [ 8]  332 	movx	@dptr,a
      0000AC A3               [12]  333 	inc	dptr
      0000AD EB               [ 4]  334 	mov	a,r3
      0000AE F0               [ 8]  335 	movx	@dptr,a
      0000AF A3               [12]  336 	inc	dptr
      0000B0 EC               [ 4]  337 	mov	a,r4
      0000B1 F0               [ 8]  338 	movx	@dptr,a
      0000B2 A3               [12]  339 	inc	dptr
      0000B3 ED               [ 4]  340 	mov	a,r5
      0000B4 F0               [ 8]  341 	movx	@dptr,a
      0000B5 90s00r00r14      [12]  342 	mov	dptr,#___ckd_add_schar_result_65536_10
      0000B9 E0               [ 8]  343 	movx	a,@dptr
      0000BA FA               [ 4]  344 	mov	r2,a
      0000BB 90s00r00r10      [12]  345 	mov	dptr,#___ckd_add_schar_r_65536_9
      0000BF E0               [ 8]  346 	movx	a,@dptr
      0000C0 C0 E0            [ 8]  347 	push	acc
      0000C2 A3               [12]  348 	inc	dptr
      0000C3 E0               [ 8]  349 	movx	a,@dptr
      0000C4 C0 E0            [ 8]  350 	push	acc
      0000C6 A3               [12]  351 	inc	dptr
      0000C7 E0               [ 8]  352 	movx	a,@dptr
      0000C8 C0 E0            [ 8]  353 	push	acc
      0000CA A3               [12]  354 	inc	dptr
      0000CB E0               [ 8]  355 	movx	a,@dptr
      0000CC F5 F0            [ 8]  356 	mov	b,a
      0000CE D0 93            [ 8]  357 	pop	dpx
      0000D0 D0 83            [ 8]  358 	pop	dph
      0000D2 D0 82            [ 8]  359 	pop	dpl
      0000D4 EA               [ 4]  360 	mov  a,r2
      0000D5 12s00r00r00      [16]  361 	lcall __gptrput
      0000D9 33               [ 4]  362 	rlc	a
      0000DA 95 E0            [ 8]  363 	subb	a,acc
      0000DC FB               [ 4]  364 	mov	r3,a
      0000DD FC               [ 4]  365 	mov	r4,a
      0000DE FD               [ 4]  366 	mov	r5,a
      0000DF FE               [ 4]  367 	mov	r6,a
      0000E0 FF               [ 4]  368 	mov	r7,a
      0000E1 F8               [ 4]  369 	mov	r0,a
      0000E2 F9               [ 4]  370 	mov	r1,a
      0000E3 90s00r00r14      [12]  371 	mov	dptr,#___ckd_add_schar_result_65536_10
      0000E7 8A F0            [ 8]  372 	mov	b,r2
      0000E9 E0               [ 8]  373 	movx	a,@dptr
      0000EA B5 F0 35         [16]  374 	cjne	a,b,00103$
      0000ED 8B F0            [ 8]  375 	mov	b,r3
      0000EF A3               [12]  376 	inc	dptr
      0000F0 E0               [ 8]  377 	movx	a,@dptr
      0000F1 B5 F0 2E         [16]  378 	cjne	a,b,00103$
      0000F4 8C F0            [ 8]  379 	mov	b,r4
      0000F6 A3               [12]  380 	inc	dptr
      0000F7 E0               [ 8]  381 	movx	a,@dptr
      0000F8 B5 F0 27         [16]  382 	cjne	a,b,00103$
      0000FB 8D F0            [ 8]  383 	mov	b,r5
      0000FD A3               [12]  384 	inc	dptr
      0000FE E0               [ 8]  385 	movx	a,@dptr
      0000FF B5 F0 20         [16]  386 	cjne	a,b,00103$
      000102 8E F0            [ 8]  387 	mov	b,r6
      000104 A3               [12]  388 	inc	dptr
      000105 E0               [ 8]  389 	movx	a,@dptr
      000106 B5 F0 19         [16]  390 	cjne	a,b,00103$
      000109 8F F0            [ 8]  391 	mov	b,r7
      00010B A3               [12]  392 	inc	dptr
      00010C E0               [ 8]  393 	movx	a,@dptr
      00010D B5 F0 12         [16]  394 	cjne	a,b,00103$
      000110 88 F0            [ 8]  395 	mov	b,r0
      000112 A3               [12]  396 	inc	dptr
      000113 E0               [ 8]  397 	movx	a,@dptr
      000114 B5 F0 0B         [16]  398 	cjne	a,b,00103$
      000117 89 F0            [ 8]  399 	mov	b,r1
      000119 A3               [12]  400 	inc	dptr
      00011A E0               [ 8]  401 	movx	a,@dptr
      00011B B5 F0 04         [16]  402 	cjne	a,b,00103$
      00011E 74 01            [ 8]  403 	mov	a,#0x01
      000120 80 01            [12]  404 	sjmp	00104$
      000122                        405 00103$:
      000122 E4               [ 4]  406 	clr	a
      000123                        407 00104$:
      000123 24 FF            [ 8]  408 	add	a,#0xff
      000125 92*00            [ 8]  409 	mov	___ckd_add_schar_sloc0_1_0,c
      000127 B2*00            [ 8]  410 	cpl	___ckd_add_schar_sloc0_1_0
      000129 A2*00            [ 8]  411 	mov	c,___ckd_add_schar_sloc0_1_0
      00012B E4               [ 4]  412 	clr	a
      00012C 33               [ 4]  413 	rlc	a
      00012D F5 82            [ 8]  414 	mov	dpl,a
      00012F                        415 00101$:
      00012F 22               [16]  416 	ret
                                    417 ;------------------------------------------------------------
                                    418 ;Allocation info for local variables in function '__ckd_add_uchar'
                                    419 ;------------------------------------------------------------
                                    420 ;a                         Allocated with name '___ckd_add_uchar_PARM_2'
                                    421 ;b                         Allocated with name '___ckd_add_uchar_PARM_3'
                                    422 ;r                         Allocated with name '___ckd_add_uchar_r_65536_11'
                                    423 ;result                    Allocated with name '___ckd_add_uchar_result_65536_12'
                                    424 ;------------------------------------------------------------
                                    425 ;	../../device/include/stdckdint.h:52: inline _Bool __ckd_add_uchar __CKD_DEFAULT_IMPL(unsigned char, +)
                                    426 ;	-----------------------------------------
                                    427 ;	 function __ckd_add_uchar
                                    428 ;	-----------------------------------------
      000130                        429 ___ckd_add_uchar:
      000130 75 86 01         [12]  430 	mov     dps, #1
      000133 90s00r00r2C      [12]  431 	mov     dptr, #___ckd_add_uchar_r_65536_11
      000137 E5 82            [ 8]  432 	mov	a,dpl
      000139 F0               [ 8]  433 	movx	@dptr,a
      00013A A3               [12]  434 	inc	dptr
      00013B E5 83            [ 8]  435 	mov	a,dph
      00013D F0               [ 8]  436 	movx	@dptr,a
      00013E A3               [12]  437 	inc	dptr
      00013F E5 93            [ 8]  438 	mov	a,dpx
      000141 F0               [ 8]  439 	movx	@dptr,a
      000142 A3               [12]  440 	inc	dptr
      000143 E5 F0            [ 8]  441 	mov	a,b
      000145 F0               [ 8]  442 	movx	@dptr,a
      000146 75 86 01         [12]  443 	mov	dps, #1
      000149 90s00r00r1C      [12]  444 	mov	dptr, #___ckd_add_uchar_PARM_2
      00014D 15 86            [ 8]  445 	dec	dps
      00014F 90s00r00r24      [12]  446 	mov	dptr, #___ckd_add_uchar_PARM_3
      000153 E0               [ 8]  447 	movx	a,@dptr
      000154 C5 9C            [ 8]  448 	xch	a, acc1
      000156 05 86            [ 8]  449 	inc	dps
      000158 E0               [ 8]  450 	movx	a,@dptr
      000159 C5 9C            [ 8]  451 	xch	a, acc1
      00015B 25 9C            [ 8]  452 	add	a,acc1
      00015D FE               [ 4]  453 	mov	r6,a
      00015E 15 86            [ 8]  454 	dec	dps
      000160 A3               [12]  455 	inc	dptr
      000161 E0               [ 8]  456 	movx	a,@dptr
      000162 C5 9C            [ 8]  457 	xch	a, acc1
      000164 05 86            [ 8]  458 	inc	dps
      000166 A3               [12]  459 	inc	dptr
      000167 E0               [ 8]  460 	movx	a,@dptr
      000168 C5 9C            [ 8]  461 	xch	a, acc1
      00016A 35 9C            [ 8]  462 	addc	a,acc1
      00016C FF               [ 4]  463 	mov	r7,a
      00016D 15 86            [ 8]  464 	dec	dps
      00016F A3               [12]  465 	inc	dptr
      000170 E0               [ 8]  466 	movx	a,@dptr
      000171 C5 9C            [ 8]  467 	xch	a, acc1
      000173 05 86            [ 8]  468 	inc	dps
      000175 A3               [12]  469 	inc	dptr
      000176 E0               [ 8]  470 	movx	a,@dptr
      000177 C5 9C            [ 8]  471 	xch	a, acc1
      000179 35 9C            [ 8]  472 	addc	a,acc1
      00017B F8               [ 4]  473 	mov	r0,a
      00017C 15 86            [ 8]  474 	dec	dps
      00017E A3               [12]  475 	inc	dptr
      00017F E0               [ 8]  476 	movx	a,@dptr
      000180 C5 9C            [ 8]  477 	xch	a, acc1
      000182 05 86            [ 8]  478 	inc	dps
      000184 A3               [12]  479 	inc	dptr
      000185 E0               [ 8]  480 	movx	a,@dptr
      000186 C5 9C            [ 8]  481 	xch	a, acc1
      000188 35 9C            [ 8]  482 	addc	a,acc1
      00018A F9               [ 4]  483 	mov	r1,a
      00018B 15 86            [ 8]  484 	dec	dps
      00018D A3               [12]  485 	inc	dptr
      00018E E0               [ 8]  486 	movx	a,@dptr
      00018F C5 9C            [ 8]  487 	xch	a, acc1
      000191 05 86            [ 8]  488 	inc	dps
      000193 A3               [12]  489 	inc	dptr
      000194 E0               [ 8]  490 	movx	a,@dptr
      000195 C5 9C            [ 8]  491 	xch	a, acc1
      000197 35 9C            [ 8]  492 	addc	a,acc1
      000199 FA               [ 4]  493 	mov	r2,a
      00019A 15 86            [ 8]  494 	dec	dps
      00019C A3               [12]  495 	inc	dptr
      00019D E0               [ 8]  496 	movx	a,@dptr
      00019E C5 9C            [ 8]  497 	xch	a, acc1
      0001A0 05 86            [ 8]  498 	inc	dps
      0001A2 A3               [12]  499 	inc	dptr
      0001A3 E0               [ 8]  500 	movx	a,@dptr
      0001A4 C5 9C            [ 8]  501 	xch	a, acc1
      0001A6 35 9C            [ 8]  502 	addc	a,acc1
      0001A8 FB               [ 4]  503 	mov	r3,a
      0001A9 15 86            [ 8]  504 	dec	dps
      0001AB A3               [12]  505 	inc	dptr
      0001AC E0               [ 8]  506 	movx	a,@dptr
      0001AD C5 9C            [ 8]  507 	xch	a, acc1
      0001AF 05 86            [ 8]  508 	inc	dps
      0001B1 A3               [12]  509 	inc	dptr
      0001B2 E0               [ 8]  510 	movx	a,@dptr
      0001B3 C5 9C            [ 8]  511 	xch	a, acc1
      0001B5 35 9C            [ 8]  512 	addc	a,acc1
      0001B7 FC               [ 4]  513 	mov	r4,a
      0001B8 15 86            [ 8]  514 	dec	dps
      0001BA A3               [12]  515 	inc	dptr
      0001BB E0               [ 8]  516 	movx	a,@dptr
      0001BC C5 9C            [ 8]  517 	xch	a, acc1
      0001BE 05 86            [ 8]  518 	inc	dps
      0001C0 A3               [12]  519 	inc	dptr
      0001C1 E0               [ 8]  520 	movx	a,@dptr
      0001C2 C5 9C            [ 8]  521 	xch	a, acc1
      0001C4 35 9C            [ 8]  522 	addc	a,acc1
      0001C6 FD               [ 4]  523 	mov	r5,a
      0001C7 75 86 00         [12]  524 	mov	dps,#0
                                    525 ;	genAssign: resultIsFar = TRUE
      0001CA 90s00r00r30      [12]  526 	mov	dptr,#___ckd_add_uchar_result_65536_12
      0001CE EE               [ 4]  527 	mov	a,r6
      0001CF F0               [ 8]  528 	movx	@dptr,a
      0001D0 A3               [12]  529 	inc	dptr
      0001D1 EF               [ 4]  530 	mov	a,r7
      0001D2 F0               [ 8]  531 	movx	@dptr,a
      0001D3 A3               [12]  532 	inc	dptr
      0001D4 E8               [ 4]  533 	mov	a,r0
      0001D5 F0               [ 8]  534 	movx	@dptr,a
      0001D6 A3               [12]  535 	inc	dptr
      0001D7 E9               [ 4]  536 	mov	a,r1
      0001D8 F0               [ 8]  537 	movx	@dptr,a
      0001D9 A3               [12]  538 	inc	dptr
      0001DA EA               [ 4]  539 	mov	a,r2
      0001DB F0               [ 8]  540 	movx	@dptr,a
      0001DC A3               [12]  541 	inc	dptr
      0001DD EB               [ 4]  542 	mov	a,r3
      0001DE F0               [ 8]  543 	movx	@dptr,a
      0001DF A3               [12]  544 	inc	dptr
      0001E0 EC               [ 4]  545 	mov	a,r4
      0001E1 F0               [ 8]  546 	movx	@dptr,a
      0001E2 A3               [12]  547 	inc	dptr
      0001E3 ED               [ 4]  548 	mov	a,r5
      0001E4 F0               [ 8]  549 	movx	@dptr,a
      0001E5 90s00r00r30      [12]  550 	mov	dptr,#___ckd_add_uchar_result_65536_12
      0001E9 E0               [ 8]  551 	movx	a,@dptr
      0001EA FA               [ 4]  552 	mov	r2,a
      0001EB 90s00r00r2C      [12]  553 	mov	dptr,#___ckd_add_uchar_r_65536_11
      0001EF E0               [ 8]  554 	movx	a,@dptr
      0001F0 C0 E0            [ 8]  555 	push	acc
      0001F2 A3               [12]  556 	inc	dptr
      0001F3 E0               [ 8]  557 	movx	a,@dptr
      0001F4 C0 E0            [ 8]  558 	push	acc
      0001F6 A3               [12]  559 	inc	dptr
      0001F7 E0               [ 8]  560 	movx	a,@dptr
      0001F8 C0 E0            [ 8]  561 	push	acc
      0001FA A3               [12]  562 	inc	dptr
      0001FB E0               [ 8]  563 	movx	a,@dptr
      0001FC F5 F0            [ 8]  564 	mov	b,a
      0001FE D0 93            [ 8]  565 	pop	dpx
      000200 D0 83            [ 8]  566 	pop	dph
      000202 D0 82            [ 8]  567 	pop	dpl
      000204 EA               [ 4]  568 	mov	a,r2
      000205 12s00r00r00      [16]  569 	lcall	__gptrput
      000209 7B 00            [ 8]  570 	mov	r3,#0x00
      00020B 7C 00            [ 8]  571 	mov	r4,#0x00
      00020D 7D 00            [ 8]  572 	mov	r5,#0x00
      00020F 7E 00            [ 8]  573 	mov	r6,#0x00
      000211 7F 00            [ 8]  574 	mov	r7,#0x00
      000213 78 00            [ 8]  575 	mov	r0,#0x00
      000215 79 00            [ 8]  576 	mov	r1,#0x00
      000217 90s00r00r30      [12]  577 	mov	dptr,#___ckd_add_uchar_result_65536_12
      00021B 8A F0            [ 8]  578 	mov	b,r2
      00021D E0               [ 8]  579 	movx	a,@dptr
      00021E B5 F0 35         [16]  580 	cjne	a,b,00103$
      000221 8B F0            [ 8]  581 	mov	b,r3
      000223 A3               [12]  582 	inc	dptr
      000224 E0               [ 8]  583 	movx	a,@dptr
      000225 B5 F0 2E         [16]  584 	cjne	a,b,00103$
      000228 8C F0            [ 8]  585 	mov	b,r4
      00022A A3               [12]  586 	inc	dptr
      00022B E0               [ 8]  587 	movx	a,@dptr
      00022C B5 F0 27         [16]  588 	cjne	a,b,00103$
      00022F 8D F0            [ 8]  589 	mov	b,r5
      000231 A3               [12]  590 	inc	dptr
      000232 E0               [ 8]  591 	movx	a,@dptr
      000233 B5 F0 20         [16]  592 	cjne	a,b,00103$
      000236 8E F0            [ 8]  593 	mov	b,r6
      000238 A3               [12]  594 	inc	dptr
      000239 E0               [ 8]  595 	movx	a,@dptr
      00023A B5 F0 19         [16]  596 	cjne	a,b,00103$
      00023D 8F F0            [ 8]  597 	mov	b,r7
      00023F A3               [12]  598 	inc	dptr
      000240 E0               [ 8]  599 	movx	a,@dptr
      000241 B5 F0 12         [16]  600 	cjne	a,b,00103$
      000244 88 F0            [ 8]  601 	mov	b,r0
      000246 A3               [12]  602 	inc	dptr
      000247 E0               [ 8]  603 	movx	a,@dptr
      000248 B5 F0 0B         [16]  604 	cjne	a,b,00103$
      00024B 89 F0            [ 8]  605 	mov	b,r1
      00024D A3               [12]  606 	inc	dptr
      00024E E0               [ 8]  607 	movx	a,@dptr
      00024F B5 F0 04         [16]  608 	cjne	a,b,00103$
      000252 74 01            [ 8]  609 	mov	a,#0x01
      000254 80 01            [12]  610 	sjmp	00104$
      000256                        611 00103$:
      000256 E4               [ 4]  612 	clr	a
      000257                        613 00104$:
      000257 24 FF            [ 8]  614 	add	a,#0xff
      000259 92*01            [ 8]  615 	mov	___ckd_add_uchar_sloc0_1_0,c
      00025B B2*01            [ 8]  616 	cpl	___ckd_add_uchar_sloc0_1_0
      00025D A2*01            [ 8]  617 	mov	c,___ckd_add_uchar_sloc0_1_0
      00025F E4               [ 4]  618 	clr	a
      000260 33               [ 4]  619 	rlc	a
      000261 F5 82            [ 8]  620 	mov	dpl,a
      000263                        621 00101$:
      000263 22               [16]  622 	ret
                                    623 ;------------------------------------------------------------
                                    624 ;Allocation info for local variables in function '__ckd_add_short'
                                    625 ;------------------------------------------------------------
                                    626 ;a                         Allocated with name '___ckd_add_short_PARM_2'
                                    627 ;b                         Allocated with name '___ckd_add_short_PARM_3'
                                    628 ;r                         Allocated with name '___ckd_add_short_r_65536_13'
                                    629 ;result                    Allocated with name '___ckd_add_short_result_65536_14'
                                    630 ;------------------------------------------------------------
                                    631 ;	../../device/include/stdckdint.h:53: inline _Bool __ckd_add_short __CKD_DEFAULT_IMPL(short, +)
                                    632 ;	-----------------------------------------
                                    633 ;	 function __ckd_add_short
                                    634 ;	-----------------------------------------
      000264                        635 ___ckd_add_short:
      000264 75 86 01         [12]  636 	mov     dps, #1
      000267 90s00r00r48      [12]  637 	mov     dptr, #___ckd_add_short_r_65536_13
      00026B E5 82            [ 8]  638 	mov	a,dpl
      00026D F0               [ 8]  639 	movx	@dptr,a
      00026E A3               [12]  640 	inc	dptr
      00026F E5 83            [ 8]  641 	mov	a,dph
      000271 F0               [ 8]  642 	movx	@dptr,a
      000272 A3               [12]  643 	inc	dptr
      000273 E5 93            [ 8]  644 	mov	a,dpx
      000275 F0               [ 8]  645 	movx	@dptr,a
      000276 A3               [12]  646 	inc	dptr
      000277 E5 F0            [ 8]  647 	mov	a,b
      000279 F0               [ 8]  648 	movx	@dptr,a
      00027A 75 86 01         [12]  649 	mov	dps, #1
      00027D 90s00r00r38      [12]  650 	mov	dptr, #___ckd_add_short_PARM_2
      000281 15 86            [ 8]  651 	dec	dps
      000283 90s00r00r40      [12]  652 	mov	dptr, #___ckd_add_short_PARM_3
      000287 E0               [ 8]  653 	movx	a,@dptr
      000288 C5 9C            [ 8]  654 	xch	a, acc1
      00028A 05 86            [ 8]  655 	inc	dps
      00028C E0               [ 8]  656 	movx	a,@dptr
      00028D C5 9C            [ 8]  657 	xch	a, acc1
      00028F 25 9C            [ 8]  658 	add	a,acc1
      000291 FE               [ 4]  659 	mov	r6,a
      000292 15 86            [ 8]  660 	dec	dps
      000294 A3               [12]  661 	inc	dptr
      000295 E0               [ 8]  662 	movx	a,@dptr
      000296 C5 9C            [ 8]  663 	xch	a, acc1
      000298 05 86            [ 8]  664 	inc	dps
      00029A A3               [12]  665 	inc	dptr
      00029B E0               [ 8]  666 	movx	a,@dptr
      00029C C5 9C            [ 8]  667 	xch	a, acc1
      00029E 35 9C            [ 8]  668 	addc	a,acc1
      0002A0 FF               [ 4]  669 	mov	r7,a
      0002A1 15 86            [ 8]  670 	dec	dps
      0002A3 A3               [12]  671 	inc	dptr
      0002A4 E0               [ 8]  672 	movx	a,@dptr
      0002A5 C5 9C            [ 8]  673 	xch	a, acc1
      0002A7 05 86            [ 8]  674 	inc	dps
      0002A9 A3               [12]  675 	inc	dptr
      0002AA E0               [ 8]  676 	movx	a,@dptr
      0002AB C5 9C            [ 8]  677 	xch	a, acc1
      0002AD 35 9C            [ 8]  678 	addc	a,acc1
      0002AF F8               [ 4]  679 	mov	r0,a
      0002B0 15 86            [ 8]  680 	dec	dps
      0002B2 A3               [12]  681 	inc	dptr
      0002B3 E0               [ 8]  682 	movx	a,@dptr
      0002B4 C5 9C            [ 8]  683 	xch	a, acc1
      0002B6 05 86            [ 8]  684 	inc	dps
      0002B8 A3               [12]  685 	inc	dptr
      0002B9 E0               [ 8]  686 	movx	a,@dptr
      0002BA C5 9C            [ 8]  687 	xch	a, acc1
      0002BC 35 9C            [ 8]  688 	addc	a,acc1
      0002BE F9               [ 4]  689 	mov	r1,a
      0002BF 15 86            [ 8]  690 	dec	dps
      0002C1 A3               [12]  691 	inc	dptr
      0002C2 E0               [ 8]  692 	movx	a,@dptr
      0002C3 C5 9C            [ 8]  693 	xch	a, acc1
      0002C5 05 86            [ 8]  694 	inc	dps
      0002C7 A3               [12]  695 	inc	dptr
      0002C8 E0               [ 8]  696 	movx	a,@dptr
      0002C9 C5 9C            [ 8]  697 	xch	a, acc1
      0002CB 35 9C            [ 8]  698 	addc	a,acc1
      0002CD FA               [ 4]  699 	mov	r2,a
      0002CE 15 86            [ 8]  700 	dec	dps
      0002D0 A3               [12]  701 	inc	dptr
      0002D1 E0               [ 8]  702 	movx	a,@dptr
      0002D2 C5 9C            [ 8]  703 	xch	a, acc1
      0002D4 05 86            [ 8]  704 	inc	dps
      0002D6 A3               [12]  705 	inc	dptr
      0002D7 E0               [ 8]  706 	movx	a,@dptr
      0002D8 C5 9C            [ 8]  707 	xch	a, acc1
      0002DA 35 9C            [ 8]  708 	addc	a,acc1
      0002DC FB               [ 4]  709 	mov	r3,a
      0002DD 15 86            [ 8]  710 	dec	dps
      0002DF A3               [12]  711 	inc	dptr
      0002E0 E0               [ 8]  712 	movx	a,@dptr
      0002E1 C5 9C            [ 8]  713 	xch	a, acc1
      0002E3 05 86            [ 8]  714 	inc	dps
      0002E5 A3               [12]  715 	inc	dptr
      0002E6 E0               [ 8]  716 	movx	a,@dptr
      0002E7 C5 9C            [ 8]  717 	xch	a, acc1
      0002E9 35 9C            [ 8]  718 	addc	a,acc1
      0002EB FC               [ 4]  719 	mov	r4,a
      0002EC 15 86            [ 8]  720 	dec	dps
      0002EE A3               [12]  721 	inc	dptr
      0002EF E0               [ 8]  722 	movx	a,@dptr
      0002F0 C5 9C            [ 8]  723 	xch	a, acc1
      0002F2 05 86            [ 8]  724 	inc	dps
      0002F4 A3               [12]  725 	inc	dptr
      0002F5 E0               [ 8]  726 	movx	a,@dptr
      0002F6 C5 9C            [ 8]  727 	xch	a, acc1
      0002F8 35 9C            [ 8]  728 	addc	a,acc1
      0002FA FD               [ 4]  729 	mov	r5,a
      0002FB 75 86 00         [12]  730 	mov	dps,#0
                                    731 ;	genAssign: resultIsFar = TRUE
      0002FE 90s00r00r4C      [12]  732 	mov	dptr,#___ckd_add_short_result_65536_14
      000302 EE               [ 4]  733 	mov	a,r6
      000303 F0               [ 8]  734 	movx	@dptr,a
      000304 A3               [12]  735 	inc	dptr
      000305 EF               [ 4]  736 	mov	a,r7
      000306 F0               [ 8]  737 	movx	@dptr,a
      000307 A3               [12]  738 	inc	dptr
      000308 E8               [ 4]  739 	mov	a,r0
      000309 F0               [ 8]  740 	movx	@dptr,a
      00030A A3               [12]  741 	inc	dptr
      00030B E9               [ 4]  742 	mov	a,r1
      00030C F0               [ 8]  743 	movx	@dptr,a
      00030D A3               [12]  744 	inc	dptr
      00030E EA               [ 4]  745 	mov	a,r2
      00030F F0               [ 8]  746 	movx	@dptr,a
      000310 A3               [12]  747 	inc	dptr
      000311 EB               [ 4]  748 	mov	a,r3
      000312 F0               [ 8]  749 	movx	@dptr,a
      000313 A3               [12]  750 	inc	dptr
      000314 EC               [ 4]  751 	mov	a,r4
      000315 F0               [ 8]  752 	movx	@dptr,a
      000316 A3               [12]  753 	inc	dptr
      000317 ED               [ 4]  754 	mov	a,r5
      000318 F0               [ 8]  755 	movx	@dptr,a
      000319 90s00r00r4C      [12]  756 	mov	dptr,#___ckd_add_short_result_65536_14
      00031D E0               [ 8]  757 	movx	a,@dptr
      00031E FA               [ 4]  758 	mov	r2,a
      00031F A3               [12]  759 	inc	dptr
      000320 E0               [ 8]  760 	movx	a,@dptr
      000321 FB               [ 4]  761 	mov	r3,a
      000322 90s00r00r48      [12]  762 	mov	dptr,#___ckd_add_short_r_65536_13
      000326 E0               [ 8]  763 	movx	a,@dptr
      000327 C0 E0            [ 8]  764 	push	acc
      000329 A3               [12]  765 	inc	dptr
      00032A E0               [ 8]  766 	movx	a,@dptr
      00032B C0 E0            [ 8]  767 	push	acc
      00032D A3               [12]  768 	inc	dptr
      00032E E0               [ 8]  769 	movx	a,@dptr
      00032F C0 E0            [ 8]  770 	push	acc
      000331 A3               [12]  771 	inc	dptr
      000332 E0               [ 8]  772 	movx	a,@dptr
      000333 F5 F0            [ 8]  773 	mov	b,a
      000335 D0 93            [ 8]  774 	pop	dpx
      000337 D0 83            [ 8]  775 	pop	dph
      000339 D0 82            [ 8]  776 	pop	dpl
      00033B 8A 9C            [ 8]  777 	mov	acc1, r2
      00033D EB               [ 4]  778 	mov	a,r3
      00033E 12s00r00r00      [16]  779 	lcall	__gptrputWord
      000342 EB               [ 4]  780 	mov	a,r3
      000343 33               [ 4]  781 	rlc	a
      000344 95 E0            [ 8]  782 	subb	a,acc
      000346 FC               [ 4]  783 	mov	r4,a
      000347 FD               [ 4]  784 	mov	r5,a
      000348 FE               [ 4]  785 	mov	r6,a
      000349 FF               [ 4]  786 	mov	r7,a
      00034A F8               [ 4]  787 	mov	r0,a
      00034B F9               [ 4]  788 	mov	r1,a
      00034C 90s00r00r4C      [12]  789 	mov	dptr,#___ckd_add_short_result_65536_14
      000350 8A F0            [ 8]  790 	mov	b,r2
      000352 E0               [ 8]  791 	movx	a,@dptr
      000353 B5 F0 35         [16]  792 	cjne	a,b,00103$
      000356 8B F0            [ 8]  793 	mov	b,r3
      000358 A3               [12]  794 	inc	dptr
      000359 E0               [ 8]  795 	movx	a,@dptr
      00035A B5 F0 2E         [16]  796 	cjne	a,b,00103$
      00035D 8C F0            [ 8]  797 	mov	b,r4
      00035F A3               [12]  798 	inc	dptr
      000360 E0               [ 8]  799 	movx	a,@dptr
      000361 B5 F0 27         [16]  800 	cjne	a,b,00103$
      000364 8D F0            [ 8]  801 	mov	b,r5
      000366 A3               [12]  802 	inc	dptr
      000367 E0               [ 8]  803 	movx	a,@dptr
      000368 B5 F0 20         [16]  804 	cjne	a,b,00103$
      00036B 8E F0            [ 8]  805 	mov	b,r6
      00036D A3               [12]  806 	inc	dptr
      00036E E0               [ 8]  807 	movx	a,@dptr
      00036F B5 F0 19         [16]  808 	cjne	a,b,00103$
      000372 8F F0            [ 8]  809 	mov	b,r7
      000374 A3               [12]  810 	inc	dptr
      000375 E0               [ 8]  811 	movx	a,@dptr
      000376 B5 F0 12         [16]  812 	cjne	a,b,00103$
      000379 88 F0            [ 8]  813 	mov	b,r0
      00037B A3               [12]  814 	inc	dptr
      00037C E0               [ 8]  815 	movx	a,@dptr
      00037D B5 F0 0B         [16]  816 	cjne	a,b,00103$
      000380 89 F0            [ 8]  817 	mov	b,r1
      000382 A3               [12]  818 	inc	dptr
      000383 E0               [ 8]  819 	movx	a,@dptr
      000384 B5 F0 04         [16]  820 	cjne	a,b,00103$
      000387 74 01            [ 8]  821 	mov	a,#0x01
      000389 80 01            [12]  822 	sjmp	00104$
      00038B                        823 00103$:
      00038B E4               [ 4]  824 	clr	a
      00038C                        825 00104$:
      00038C 24 FF            [ 8]  826 	add	a,#0xff
      00038E 92*02            [ 8]  827 	mov	___ckd_add_short_sloc0_1_0,c
      000390 B2*02            [ 8]  828 	cpl	___ckd_add_short_sloc0_1_0
      000392 A2*02            [ 8]  829 	mov	c,___ckd_add_short_sloc0_1_0
      000394 E4               [ 4]  830 	clr	a
      000395 33               [ 4]  831 	rlc	a
      000396 F5 82            [ 8]  832 	mov	dpl,a
      000398                        833 00101$:
      000398 22               [16]  834 	ret
                                    835 ;------------------------------------------------------------
                                    836 ;Allocation info for local variables in function '__ckd_add_ushort'
                                    837 ;------------------------------------------------------------
                                    838 ;a                         Allocated with name '___ckd_add_ushort_PARM_2'
                                    839 ;b                         Allocated with name '___ckd_add_ushort_PARM_3'
                                    840 ;r                         Allocated with name '___ckd_add_ushort_r_65536_15'
                                    841 ;result                    Allocated with name '___ckd_add_ushort_result_65536_16'
                                    842 ;------------------------------------------------------------
                                    843 ;	../../device/include/stdckdint.h:54: inline _Bool __ckd_add_ushort __CKD_DEFAULT_IMPL(unsigned short, +)
                                    844 ;	-----------------------------------------
                                    845 ;	 function __ckd_add_ushort
                                    846 ;	-----------------------------------------
      000399                        847 ___ckd_add_ushort:
      000399 75 86 01         [12]  848 	mov     dps, #1
      00039C 90s00r00r64      [12]  849 	mov     dptr, #___ckd_add_ushort_r_65536_15
      0003A0 E5 82            [ 8]  850 	mov	a,dpl
      0003A2 F0               [ 8]  851 	movx	@dptr,a
      0003A3 A3               [12]  852 	inc	dptr
      0003A4 E5 83            [ 8]  853 	mov	a,dph
      0003A6 F0               [ 8]  854 	movx	@dptr,a
      0003A7 A3               [12]  855 	inc	dptr
      0003A8 E5 93            [ 8]  856 	mov	a,dpx
      0003AA F0               [ 8]  857 	movx	@dptr,a
      0003AB A3               [12]  858 	inc	dptr
      0003AC E5 F0            [ 8]  859 	mov	a,b
      0003AE F0               [ 8]  860 	movx	@dptr,a
      0003AF 75 86 01         [12]  861 	mov	dps, #1
      0003B2 90s00r00r54      [12]  862 	mov	dptr, #___ckd_add_ushort_PARM_2
      0003B6 15 86            [ 8]  863 	dec	dps
      0003B8 90s00r00r5C      [12]  864 	mov	dptr, #___ckd_add_ushort_PARM_3
      0003BC E0               [ 8]  865 	movx	a,@dptr
      0003BD C5 9C            [ 8]  866 	xch	a, acc1
      0003BF 05 86            [ 8]  867 	inc	dps
      0003C1 E0               [ 8]  868 	movx	a,@dptr
      0003C2 C5 9C            [ 8]  869 	xch	a, acc1
      0003C4 25 9C            [ 8]  870 	add	a,acc1
      0003C6 FE               [ 4]  871 	mov	r6,a
      0003C7 15 86            [ 8]  872 	dec	dps
      0003C9 A3               [12]  873 	inc	dptr
      0003CA E0               [ 8]  874 	movx	a,@dptr
      0003CB C5 9C            [ 8]  875 	xch	a, acc1
      0003CD 05 86            [ 8]  876 	inc	dps
      0003CF A3               [12]  877 	inc	dptr
      0003D0 E0               [ 8]  878 	movx	a,@dptr
      0003D1 C5 9C            [ 8]  879 	xch	a, acc1
      0003D3 35 9C            [ 8]  880 	addc	a,acc1
      0003D5 FF               [ 4]  881 	mov	r7,a
      0003D6 15 86            [ 8]  882 	dec	dps
      0003D8 A3               [12]  883 	inc	dptr
      0003D9 E0               [ 8]  884 	movx	a,@dptr
      0003DA C5 9C            [ 8]  885 	xch	a, acc1
      0003DC 05 86            [ 8]  886 	inc	dps
      0003DE A3               [12]  887 	inc	dptr
      0003DF E0               [ 8]  888 	movx	a,@dptr
      0003E0 C5 9C            [ 8]  889 	xch	a, acc1
      0003E2 35 9C            [ 8]  890 	addc	a,acc1
      0003E4 F8               [ 4]  891 	mov	r0,a
      0003E5 15 86            [ 8]  892 	dec	dps
      0003E7 A3               [12]  893 	inc	dptr
      0003E8 E0               [ 8]  894 	movx	a,@dptr
      0003E9 C5 9C            [ 8]  895 	xch	a, acc1
      0003EB 05 86            [ 8]  896 	inc	dps
      0003ED A3               [12]  897 	inc	dptr
      0003EE E0               [ 8]  898 	movx	a,@dptr
      0003EF C5 9C            [ 8]  899 	xch	a, acc1
      0003F1 35 9C            [ 8]  900 	addc	a,acc1
      0003F3 F9               [ 4]  901 	mov	r1,a
      0003F4 15 86            [ 8]  902 	dec	dps
      0003F6 A3               [12]  903 	inc	dptr
      0003F7 E0               [ 8]  904 	movx	a,@dptr
      0003F8 C5 9C            [ 8]  905 	xch	a, acc1
      0003FA 05 86            [ 8]  906 	inc	dps
      0003FC A3               [12]  907 	inc	dptr
      0003FD E0               [ 8]  908 	movx	a,@dptr
      0003FE C5 9C            [ 8]  909 	xch	a, acc1
      000400 35 9C            [ 8]  910 	addc	a,acc1
      000402 FA               [ 4]  911 	mov	r2,a
      000403 15 86            [ 8]  912 	dec	dps
      000405 A3               [12]  913 	inc	dptr
      000406 E0               [ 8]  914 	movx	a,@dptr
      000407 C5 9C            [ 8]  915 	xch	a, acc1
      000409 05 86            [ 8]  916 	inc	dps
      00040B A3               [12]  917 	inc	dptr
      00040C E0               [ 8]  918 	movx	a,@dptr
      00040D C5 9C            [ 8]  919 	xch	a, acc1
      00040F 35 9C            [ 8]  920 	addc	a,acc1
      000411 FB               [ 4]  921 	mov	r3,a
      000412 15 86            [ 8]  922 	dec	dps
      000414 A3               [12]  923 	inc	dptr
      000415 E0               [ 8]  924 	movx	a,@dptr
      000416 C5 9C            [ 8]  925 	xch	a, acc1
      000418 05 86            [ 8]  926 	inc	dps
      00041A A3               [12]  927 	inc	dptr
      00041B E0               [ 8]  928 	movx	a,@dptr
      00041C C5 9C            [ 8]  929 	xch	a, acc1
      00041E 35 9C            [ 8]  930 	addc	a,acc1
      000420 FC               [ 4]  931 	mov	r4,a
      000421 15 86            [ 8]  932 	dec	dps
      000423 A3               [12]  933 	inc	dptr
      000424 E0               [ 8]  934 	movx	a,@dptr
      000425 C5 9C            [ 8]  935 	xch	a, acc1
      000427 05 86            [ 8]  936 	inc	dps
      000429 A3               [12]  937 	inc	dptr
      00042A E0               [ 8]  938 	movx	a,@dptr
      00042B C5 9C            [ 8]  939 	xch	a, acc1
      00042D 35 9C            [ 8]  940 	addc	a,acc1
      00042F FD               [ 4]  941 	mov	r5,a
      000430 75 86 00         [12]  942 	mov	dps,#0
                                    943 ;	genAssign: resultIsFar = TRUE
      000433 90s00r00r68      [12]  944 	mov	dptr,#___ckd_add_ushort_result_65536_16
      000437 EE               [ 4]  945 	mov	a,r6
      000438 F0               [ 8]  946 	movx	@dptr,a
      000439 A3               [12]  947 	inc	dptr
      00043A EF               [ 4]  948 	mov	a,r7
      00043B F0               [ 8]  949 	movx	@dptr,a
      00043C A3               [12]  950 	inc	dptr
      00043D E8               [ 4]  951 	mov	a,r0
      00043E F0               [ 8]  952 	movx	@dptr,a
      00043F A3               [12]  953 	inc	dptr
      000440 E9               [ 4]  954 	mov	a,r1
      000441 F0               [ 8]  955 	movx	@dptr,a
      000442 A3               [12]  956 	inc	dptr
      000443 EA               [ 4]  957 	mov	a,r2
      000444 F0               [ 8]  958 	movx	@dptr,a
      000445 A3               [12]  959 	inc	dptr
      000446 EB               [ 4]  960 	mov	a,r3
      000447 F0               [ 8]  961 	movx	@dptr,a
      000448 A3               [12]  962 	inc	dptr
      000449 EC               [ 4]  963 	mov	a,r4
      00044A F0               [ 8]  964 	movx	@dptr,a
      00044B A3               [12]  965 	inc	dptr
      00044C ED               [ 4]  966 	mov	a,r5
      00044D F0               [ 8]  967 	movx	@dptr,a
      00044E 90s00r00r68      [12]  968 	mov	dptr,#___ckd_add_ushort_result_65536_16
      000452 E0               [ 8]  969 	movx	a,@dptr
      000453 FA               [ 4]  970 	mov	r2,a
      000454 A3               [12]  971 	inc	dptr
      000455 E0               [ 8]  972 	movx	a,@dptr
      000456 FB               [ 4]  973 	mov	r3,a
      000457 90s00r00r64      [12]  974 	mov	dptr,#___ckd_add_ushort_r_65536_15
      00045B E0               [ 8]  975 	movx	a,@dptr
      00045C C0 E0            [ 8]  976 	push	acc
      00045E A3               [12]  977 	inc	dptr
      00045F E0               [ 8]  978 	movx	a,@dptr
      000460 C0 E0            [ 8]  979 	push	acc
      000462 A3               [12]  980 	inc	dptr
      000463 E0               [ 8]  981 	movx	a,@dptr
      000464 C0 E0            [ 8]  982 	push	acc
      000466 A3               [12]  983 	inc	dptr
      000467 E0               [ 8]  984 	movx	a,@dptr
      000468 F5 F0            [ 8]  985 	mov	b,a
      00046A D0 93            [ 8]  986 	pop	dpx
      00046C D0 83            [ 8]  987 	pop	dph
      00046E D0 82            [ 8]  988 	pop	dpl
      000470 8A 9C            [ 8]  989 	mov	acc1, r2
      000472 EB               [ 4]  990 	mov	a,r3
      000473 12s00r00r00      [16]  991 	lcall	__gptrputWord
      000477 7C 00            [ 8]  992 	mov	r4,#0x00
      000479 7D 00            [ 8]  993 	mov	r5,#0x00
      00047B 7E 00            [ 8]  994 	mov	r6,#0x00
      00047D 7F 00            [ 8]  995 	mov	r7,#0x00
      00047F 78 00            [ 8]  996 	mov	r0,#0x00
      000481 79 00            [ 8]  997 	mov	r1,#0x00
      000483 90s00r00r68      [12]  998 	mov	dptr,#___ckd_add_ushort_result_65536_16
      000487 8A F0            [ 8]  999 	mov	b,r2
      000489 E0               [ 8] 1000 	movx	a,@dptr
      00048A B5 F0 35         [16] 1001 	cjne	a,b,00103$
      00048D 8B F0            [ 8] 1002 	mov	b,r3
      00048F A3               [12] 1003 	inc	dptr
      000490 E0               [ 8] 1004 	movx	a,@dptr
      000491 B5 F0 2E         [16] 1005 	cjne	a,b,00103$
      000494 8C F0            [ 8] 1006 	mov	b,r4
      000496 A3               [12] 1007 	inc	dptr
      000497 E0               [ 8] 1008 	movx	a,@dptr
      000498 B5 F0 27         [16] 1009 	cjne	a,b,00103$
      00049B 8D F0            [ 8] 1010 	mov	b,r5
      00049D A3               [12] 1011 	inc	dptr
      00049E E0               [ 8] 1012 	movx	a,@dptr
      00049F B5 F0 20         [16] 1013 	cjne	a,b,00103$
      0004A2 8E F0            [ 8] 1014 	mov	b,r6
      0004A4 A3               [12] 1015 	inc	dptr
      0004A5 E0               [ 8] 1016 	movx	a,@dptr
      0004A6 B5 F0 19         [16] 1017 	cjne	a,b,00103$
      0004A9 8F F0            [ 8] 1018 	mov	b,r7
      0004AB A3               [12] 1019 	inc	dptr
      0004AC E0               [ 8] 1020 	movx	a,@dptr
      0004AD B5 F0 12         [16] 1021 	cjne	a,b,00103$
      0004B0 88 F0            [ 8] 1022 	mov	b,r0
      0004B2 A3               [12] 1023 	inc	dptr
      0004B3 E0               [ 8] 1024 	movx	a,@dptr
      0004B4 B5 F0 0B         [16] 1025 	cjne	a,b,00103$
      0004B7 89 F0            [ 8] 1026 	mov	b,r1
      0004B9 A3               [12] 1027 	inc	dptr
      0004BA E0               [ 8] 1028 	movx	a,@dptr
      0004BB B5 F0 04         [16] 1029 	cjne	a,b,00103$
      0004BE 74 01            [ 8] 1030 	mov	a,#0x01
      0004C0 80 01            [12] 1031 	sjmp	00104$
      0004C2                       1032 00103$:
      0004C2 E4               [ 4] 1033 	clr	a
      0004C3                       1034 00104$:
      0004C3 24 FF            [ 8] 1035 	add	a,#0xff
      0004C5 92*03            [ 8] 1036 	mov	___ckd_add_ushort_sloc0_1_0,c
      0004C7 B2*03            [ 8] 1037 	cpl	___ckd_add_ushort_sloc0_1_0
      0004C9 A2*03            [ 8] 1038 	mov	c,___ckd_add_ushort_sloc0_1_0
      0004CB E4               [ 4] 1039 	clr	a
      0004CC 33               [ 4] 1040 	rlc	a
      0004CD F5 82            [ 8] 1041 	mov	dpl,a
      0004CF                       1042 00101$:
      0004CF 22               [16] 1043 	ret
                                   1044 ;------------------------------------------------------------
                                   1045 ;Allocation info for local variables in function '__ckd_add_int'
                                   1046 ;------------------------------------------------------------
                                   1047 ;a                         Allocated with name '___ckd_add_int_PARM_2'
                                   1048 ;b                         Allocated with name '___ckd_add_int_PARM_3'
                                   1049 ;r                         Allocated with name '___ckd_add_int_r_65536_17'
                                   1050 ;result                    Allocated with name '___ckd_add_int_result_65536_18'
                                   1051 ;------------------------------------------------------------
                                   1052 ;	../../device/include/stdckdint.h:55: inline _Bool __ckd_add_int __CKD_DEFAULT_IMPL(int, +)
                                   1053 ;	-----------------------------------------
                                   1054 ;	 function __ckd_add_int
                                   1055 ;	-----------------------------------------
      0004D0                       1056 ___ckd_add_int:
      0004D0 75 86 01         [12] 1057 	mov     dps, #1
      0004D3 90s00r00r80      [12] 1058 	mov     dptr, #___ckd_add_int_r_65536_17
      0004D7 E5 82            [ 8] 1059 	mov	a,dpl
      0004D9 F0               [ 8] 1060 	movx	@dptr,a
      0004DA A3               [12] 1061 	inc	dptr
      0004DB E5 83            [ 8] 1062 	mov	a,dph
      0004DD F0               [ 8] 1063 	movx	@dptr,a
      0004DE A3               [12] 1064 	inc	dptr
      0004DF E5 93            [ 8] 1065 	mov	a,dpx
      0004E1 F0               [ 8] 1066 	movx	@dptr,a
      0004E2 A3               [12] 1067 	inc	dptr
      0004E3 E5 F0            [ 8] 1068 	mov	a,b
      0004E5 F0               [ 8] 1069 	movx	@dptr,a
      0004E6 75 86 01         [12] 1070 	mov	dps, #1
      0004E9 90s00r00r70      [12] 1071 	mov	dptr, #___ckd_add_int_PARM_2
      0004ED 15 86            [ 8] 1072 	dec	dps
      0004EF 90s00r00r78      [12] 1073 	mov	dptr, #___ckd_add_int_PARM_3
      0004F3 E0               [ 8] 1074 	movx	a,@dptr
      0004F4 C5 9C            [ 8] 1075 	xch	a, acc1
      0004F6 05 86            [ 8] 1076 	inc	dps
      0004F8 E0               [ 8] 1077 	movx	a,@dptr
      0004F9 C5 9C            [ 8] 1078 	xch	a, acc1
      0004FB 25 9C            [ 8] 1079 	add	a,acc1
      0004FD FE               [ 4] 1080 	mov	r6,a
      0004FE 15 86            [ 8] 1081 	dec	dps
      000500 A3               [12] 1082 	inc	dptr
      000501 E0               [ 8] 1083 	movx	a,@dptr
      000502 C5 9C            [ 8] 1084 	xch	a, acc1
      000504 05 86            [ 8] 1085 	inc	dps
      000506 A3               [12] 1086 	inc	dptr
      000507 E0               [ 8] 1087 	movx	a,@dptr
      000508 C5 9C            [ 8] 1088 	xch	a, acc1
      00050A 35 9C            [ 8] 1089 	addc	a,acc1
      00050C FF               [ 4] 1090 	mov	r7,a
      00050D 15 86            [ 8] 1091 	dec	dps
      00050F A3               [12] 1092 	inc	dptr
      000510 E0               [ 8] 1093 	movx	a,@dptr
      000511 C5 9C            [ 8] 1094 	xch	a, acc1
      000513 05 86            [ 8] 1095 	inc	dps
      000515 A3               [12] 1096 	inc	dptr
      000516 E0               [ 8] 1097 	movx	a,@dptr
      000517 C5 9C            [ 8] 1098 	xch	a, acc1
      000519 35 9C            [ 8] 1099 	addc	a,acc1
      00051B F8               [ 4] 1100 	mov	r0,a
      00051C 15 86            [ 8] 1101 	dec	dps
      00051E A3               [12] 1102 	inc	dptr
      00051F E0               [ 8] 1103 	movx	a,@dptr
      000520 C5 9C            [ 8] 1104 	xch	a, acc1
      000522 05 86            [ 8] 1105 	inc	dps
      000524 A3               [12] 1106 	inc	dptr
      000525 E0               [ 8] 1107 	movx	a,@dptr
      000526 C5 9C            [ 8] 1108 	xch	a, acc1
      000528 35 9C            [ 8] 1109 	addc	a,acc1
      00052A F9               [ 4] 1110 	mov	r1,a
      00052B 15 86            [ 8] 1111 	dec	dps
      00052D A3               [12] 1112 	inc	dptr
      00052E E0               [ 8] 1113 	movx	a,@dptr
      00052F C5 9C            [ 8] 1114 	xch	a, acc1
      000531 05 86            [ 8] 1115 	inc	dps
      000533 A3               [12] 1116 	inc	dptr
      000534 E0               [ 8] 1117 	movx	a,@dptr
      000535 C5 9C            [ 8] 1118 	xch	a, acc1
      000537 35 9C            [ 8] 1119 	addc	a,acc1
      000539 FA               [ 4] 1120 	mov	r2,a
      00053A 15 86            [ 8] 1121 	dec	dps
      00053C A3               [12] 1122 	inc	dptr
      00053D E0               [ 8] 1123 	movx	a,@dptr
      00053E C5 9C            [ 8] 1124 	xch	a, acc1
      000540 05 86            [ 8] 1125 	inc	dps
      000542 A3               [12] 1126 	inc	dptr
      000543 E0               [ 8] 1127 	movx	a,@dptr
      000544 C5 9C            [ 8] 1128 	xch	a, acc1
      000546 35 9C            [ 8] 1129 	addc	a,acc1
      000548 FB               [ 4] 1130 	mov	r3,a
      000549 15 86            [ 8] 1131 	dec	dps
      00054B A3               [12] 1132 	inc	dptr
      00054C E0               [ 8] 1133 	movx	a,@dptr
      00054D C5 9C            [ 8] 1134 	xch	a, acc1
      00054F 05 86            [ 8] 1135 	inc	dps
      000551 A3               [12] 1136 	inc	dptr
      000552 E0               [ 8] 1137 	movx	a,@dptr
      000553 C5 9C            [ 8] 1138 	xch	a, acc1
      000555 35 9C            [ 8] 1139 	addc	a,acc1
      000557 FC               [ 4] 1140 	mov	r4,a
      000558 15 86            [ 8] 1141 	dec	dps
      00055A A3               [12] 1142 	inc	dptr
      00055B E0               [ 8] 1143 	movx	a,@dptr
      00055C C5 9C            [ 8] 1144 	xch	a, acc1
      00055E 05 86            [ 8] 1145 	inc	dps
      000560 A3               [12] 1146 	inc	dptr
      000561 E0               [ 8] 1147 	movx	a,@dptr
      000562 C5 9C            [ 8] 1148 	xch	a, acc1
      000564 35 9C            [ 8] 1149 	addc	a,acc1
      000566 FD               [ 4] 1150 	mov	r5,a
      000567 75 86 00         [12] 1151 	mov	dps,#0
                                   1152 ;	genAssign: resultIsFar = TRUE
      00056A 90s00r00r84      [12] 1153 	mov	dptr,#___ckd_add_int_result_65536_18
      00056E EE               [ 4] 1154 	mov	a,r6
      00056F F0               [ 8] 1155 	movx	@dptr,a
      000570 A3               [12] 1156 	inc	dptr
      000571 EF               [ 4] 1157 	mov	a,r7
      000572 F0               [ 8] 1158 	movx	@dptr,a
      000573 A3               [12] 1159 	inc	dptr
      000574 E8               [ 4] 1160 	mov	a,r0
      000575 F0               [ 8] 1161 	movx	@dptr,a
      000576 A3               [12] 1162 	inc	dptr
      000577 E9               [ 4] 1163 	mov	a,r1
      000578 F0               [ 8] 1164 	movx	@dptr,a
      000579 A3               [12] 1165 	inc	dptr
      00057A EA               [ 4] 1166 	mov	a,r2
      00057B F0               [ 8] 1167 	movx	@dptr,a
      00057C A3               [12] 1168 	inc	dptr
      00057D EB               [ 4] 1169 	mov	a,r3
      00057E F0               [ 8] 1170 	movx	@dptr,a
      00057F A3               [12] 1171 	inc	dptr
      000580 EC               [ 4] 1172 	mov	a,r4
      000581 F0               [ 8] 1173 	movx	@dptr,a
      000582 A3               [12] 1174 	inc	dptr
      000583 ED               [ 4] 1175 	mov	a,r5
      000584 F0               [ 8] 1176 	movx	@dptr,a
      000585 90s00r00r84      [12] 1177 	mov	dptr,#___ckd_add_int_result_65536_18
      000589 E0               [ 8] 1178 	movx	a,@dptr
      00058A FA               [ 4] 1179 	mov	r2,a
      00058B A3               [12] 1180 	inc	dptr
      00058C E0               [ 8] 1181 	movx	a,@dptr
      00058D FB               [ 4] 1182 	mov	r3,a
      00058E 90s00r00r80      [12] 1183 	mov	dptr,#___ckd_add_int_r_65536_17
      000592 E0               [ 8] 1184 	movx	a,@dptr
      000593 C0 E0            [ 8] 1185 	push	acc
      000595 A3               [12] 1186 	inc	dptr
      000596 E0               [ 8] 1187 	movx	a,@dptr
      000597 C0 E0            [ 8] 1188 	push	acc
      000599 A3               [12] 1189 	inc	dptr
      00059A E0               [ 8] 1190 	movx	a,@dptr
      00059B C0 E0            [ 8] 1191 	push	acc
      00059D A3               [12] 1192 	inc	dptr
      00059E E0               [ 8] 1193 	movx	a,@dptr
      00059F F5 F0            [ 8] 1194 	mov	b,a
      0005A1 D0 93            [ 8] 1195 	pop	dpx
      0005A3 D0 83            [ 8] 1196 	pop	dph
      0005A5 D0 82            [ 8] 1197 	pop	dpl
      0005A7 8A 9C            [ 8] 1198 	mov	acc1, r2
      0005A9 EB               [ 4] 1199 	mov	a,r3
      0005AA 12s00r00r00      [16] 1200 	lcall	__gptrputWord
      0005AE EB               [ 4] 1201 	mov	a,r3
      0005AF 33               [ 4] 1202 	rlc	a
      0005B0 95 E0            [ 8] 1203 	subb	a,acc
      0005B2 FC               [ 4] 1204 	mov	r4,a
      0005B3 FD               [ 4] 1205 	mov	r5,a
      0005B4 FE               [ 4] 1206 	mov	r6,a
      0005B5 FF               [ 4] 1207 	mov	r7,a
      0005B6 F8               [ 4] 1208 	mov	r0,a
      0005B7 F9               [ 4] 1209 	mov	r1,a
      0005B8 90s00r00r84      [12] 1210 	mov	dptr,#___ckd_add_int_result_65536_18
      0005BC 8A F0            [ 8] 1211 	mov	b,r2
      0005BE E0               [ 8] 1212 	movx	a,@dptr
      0005BF B5 F0 35         [16] 1213 	cjne	a,b,00103$
      0005C2 8B F0            [ 8] 1214 	mov	b,r3
      0005C4 A3               [12] 1215 	inc	dptr
      0005C5 E0               [ 8] 1216 	movx	a,@dptr
      0005C6 B5 F0 2E         [16] 1217 	cjne	a,b,00103$
      0005C9 8C F0            [ 8] 1218 	mov	b,r4
      0005CB A3               [12] 1219 	inc	dptr
      0005CC E0               [ 8] 1220 	movx	a,@dptr
      0005CD B5 F0 27         [16] 1221 	cjne	a,b,00103$
      0005D0 8D F0            [ 8] 1222 	mov	b,r5
      0005D2 A3               [12] 1223 	inc	dptr
      0005D3 E0               [ 8] 1224 	movx	a,@dptr
      0005D4 B5 F0 20         [16] 1225 	cjne	a,b,00103$
      0005D7 8E F0            [ 8] 1226 	mov	b,r6
      0005D9 A3               [12] 1227 	inc	dptr
      0005DA E0               [ 8] 1228 	movx	a,@dptr
      0005DB B5 F0 19         [16] 1229 	cjne	a,b,00103$
      0005DE 8F F0            [ 8] 1230 	mov	b,r7
      0005E0 A3               [12] 1231 	inc	dptr
      0005E1 E0               [ 8] 1232 	movx	a,@dptr
      0005E2 B5 F0 12         [16] 1233 	cjne	a,b,00103$
      0005E5 88 F0            [ 8] 1234 	mov	b,r0
      0005E7 A3               [12] 1235 	inc	dptr
      0005E8 E0               [ 8] 1236 	movx	a,@dptr
      0005E9 B5 F0 0B         [16] 1237 	cjne	a,b,00103$
      0005EC 89 F0            [ 8] 1238 	mov	b,r1
      0005EE A3               [12] 1239 	inc	dptr
      0005EF E0               [ 8] 1240 	movx	a,@dptr
      0005F0 B5 F0 04         [16] 1241 	cjne	a,b,00103$
      0005F3 74 01            [ 8] 1242 	mov	a,#0x01
      0005F5 80 01            [12] 1243 	sjmp	00104$
      0005F7                       1244 00103$:
      0005F7 E4               [ 4] 1245 	clr	a
      0005F8                       1246 00104$:
      0005F8 24 FF            [ 8] 1247 	add	a,#0xff
      0005FA 92*04            [ 8] 1248 	mov	___ckd_add_int_sloc0_1_0,c
      0005FC B2*04            [ 8] 1249 	cpl	___ckd_add_int_sloc0_1_0
      0005FE A2*04            [ 8] 1250 	mov	c,___ckd_add_int_sloc0_1_0
      000600 E4               [ 4] 1251 	clr	a
      000601 33               [ 4] 1252 	rlc	a
      000602 F5 82            [ 8] 1253 	mov	dpl,a
      000604                       1254 00101$:
      000604 22               [16] 1255 	ret
                                   1256 ;------------------------------------------------------------
                                   1257 ;Allocation info for local variables in function '__ckd_add_uint'
                                   1258 ;------------------------------------------------------------
                                   1259 ;a                         Allocated with name '___ckd_add_uint_PARM_2'
                                   1260 ;b                         Allocated with name '___ckd_add_uint_PARM_3'
                                   1261 ;r                         Allocated with name '___ckd_add_uint_r_65536_19'
                                   1262 ;result                    Allocated with name '___ckd_add_uint_result_65536_20'
                                   1263 ;------------------------------------------------------------
                                   1264 ;	../../device/include/stdckdint.h:56: inline _Bool __ckd_add_uint __CKD_DEFAULT_IMPL(unsigned int, +)
                                   1265 ;	-----------------------------------------
                                   1266 ;	 function __ckd_add_uint
                                   1267 ;	-----------------------------------------
      000605                       1268 ___ckd_add_uint:
      000605 75 86 01         [12] 1269 	mov     dps, #1
      000608 90s00r00r9C      [12] 1270 	mov     dptr, #___ckd_add_uint_r_65536_19
      00060C E5 82            [ 8] 1271 	mov	a,dpl
      00060E F0               [ 8] 1272 	movx	@dptr,a
      00060F A3               [12] 1273 	inc	dptr
      000610 E5 83            [ 8] 1274 	mov	a,dph
      000612 F0               [ 8] 1275 	movx	@dptr,a
      000613 A3               [12] 1276 	inc	dptr
      000614 E5 93            [ 8] 1277 	mov	a,dpx
      000616 F0               [ 8] 1278 	movx	@dptr,a
      000617 A3               [12] 1279 	inc	dptr
      000618 E5 F0            [ 8] 1280 	mov	a,b
      00061A F0               [ 8] 1281 	movx	@dptr,a
      00061B 75 86 01         [12] 1282 	mov	dps, #1
      00061E 90s00r00r8C      [12] 1283 	mov	dptr, #___ckd_add_uint_PARM_2
      000622 15 86            [ 8] 1284 	dec	dps
      000624 90s00r00r94      [12] 1285 	mov	dptr, #___ckd_add_uint_PARM_3
      000628 E0               [ 8] 1286 	movx	a,@dptr
      000629 C5 9C            [ 8] 1287 	xch	a, acc1
      00062B 05 86            [ 8] 1288 	inc	dps
      00062D E0               [ 8] 1289 	movx	a,@dptr
      00062E C5 9C            [ 8] 1290 	xch	a, acc1
      000630 25 9C            [ 8] 1291 	add	a,acc1
      000632 FE               [ 4] 1292 	mov	r6,a
      000633 15 86            [ 8] 1293 	dec	dps
      000635 A3               [12] 1294 	inc	dptr
      000636 E0               [ 8] 1295 	movx	a,@dptr
      000637 C5 9C            [ 8] 1296 	xch	a, acc1
      000639 05 86            [ 8] 1297 	inc	dps
      00063B A3               [12] 1298 	inc	dptr
      00063C E0               [ 8] 1299 	movx	a,@dptr
      00063D C5 9C            [ 8] 1300 	xch	a, acc1
      00063F 35 9C            [ 8] 1301 	addc	a,acc1
      000641 FF               [ 4] 1302 	mov	r7,a
      000642 15 86            [ 8] 1303 	dec	dps
      000644 A3               [12] 1304 	inc	dptr
      000645 E0               [ 8] 1305 	movx	a,@dptr
      000646 C5 9C            [ 8] 1306 	xch	a, acc1
      000648 05 86            [ 8] 1307 	inc	dps
      00064A A3               [12] 1308 	inc	dptr
      00064B E0               [ 8] 1309 	movx	a,@dptr
      00064C C5 9C            [ 8] 1310 	xch	a, acc1
      00064E 35 9C            [ 8] 1311 	addc	a,acc1
      000650 F8               [ 4] 1312 	mov	r0,a
      000651 15 86            [ 8] 1313 	dec	dps
      000653 A3               [12] 1314 	inc	dptr
      000654 E0               [ 8] 1315 	movx	a,@dptr
      000655 C5 9C            [ 8] 1316 	xch	a, acc1
      000657 05 86            [ 8] 1317 	inc	dps
      000659 A3               [12] 1318 	inc	dptr
      00065A E0               [ 8] 1319 	movx	a,@dptr
      00065B C5 9C            [ 8] 1320 	xch	a, acc1
      00065D 35 9C            [ 8] 1321 	addc	a,acc1
      00065F F9               [ 4] 1322 	mov	r1,a
      000660 15 86            [ 8] 1323 	dec	dps
      000662 A3               [12] 1324 	inc	dptr
      000663 E0               [ 8] 1325 	movx	a,@dptr
      000664 C5 9C            [ 8] 1326 	xch	a, acc1
      000666 05 86            [ 8] 1327 	inc	dps
      000668 A3               [12] 1328 	inc	dptr
      000669 E0               [ 8] 1329 	movx	a,@dptr
      00066A C5 9C            [ 8] 1330 	xch	a, acc1
      00066C 35 9C            [ 8] 1331 	addc	a,acc1
      00066E FA               [ 4] 1332 	mov	r2,a
      00066F 15 86            [ 8] 1333 	dec	dps
      000671 A3               [12] 1334 	inc	dptr
      000672 E0               [ 8] 1335 	movx	a,@dptr
      000673 C5 9C            [ 8] 1336 	xch	a, acc1
      000675 05 86            [ 8] 1337 	inc	dps
      000677 A3               [12] 1338 	inc	dptr
      000678 E0               [ 8] 1339 	movx	a,@dptr
      000679 C5 9C            [ 8] 1340 	xch	a, acc1
      00067B 35 9C            [ 8] 1341 	addc	a,acc1
      00067D FB               [ 4] 1342 	mov	r3,a
      00067E 15 86            [ 8] 1343 	dec	dps
      000680 A3               [12] 1344 	inc	dptr
      000681 E0               [ 8] 1345 	movx	a,@dptr
      000682 C5 9C            [ 8] 1346 	xch	a, acc1
      000684 05 86            [ 8] 1347 	inc	dps
      000686 A3               [12] 1348 	inc	dptr
      000687 E0               [ 8] 1349 	movx	a,@dptr
      000688 C5 9C            [ 8] 1350 	xch	a, acc1
      00068A 35 9C            [ 8] 1351 	addc	a,acc1
      00068C FC               [ 4] 1352 	mov	r4,a
      00068D 15 86            [ 8] 1353 	dec	dps
      00068F A3               [12] 1354 	inc	dptr
      000690 E0               [ 8] 1355 	movx	a,@dptr
      000691 C5 9C            [ 8] 1356 	xch	a, acc1
      000693 05 86            [ 8] 1357 	inc	dps
      000695 A3               [12] 1358 	inc	dptr
      000696 E0               [ 8] 1359 	movx	a,@dptr
      000697 C5 9C            [ 8] 1360 	xch	a, acc1
      000699 35 9C            [ 8] 1361 	addc	a,acc1
      00069B FD               [ 4] 1362 	mov	r5,a
      00069C 75 86 00         [12] 1363 	mov	dps,#0
                                   1364 ;	genAssign: resultIsFar = TRUE
      00069F 90s00r00rA0      [12] 1365 	mov	dptr,#___ckd_add_uint_result_65536_20
      0006A3 EE               [ 4] 1366 	mov	a,r6
      0006A4 F0               [ 8] 1367 	movx	@dptr,a
      0006A5 A3               [12] 1368 	inc	dptr
      0006A6 EF               [ 4] 1369 	mov	a,r7
      0006A7 F0               [ 8] 1370 	movx	@dptr,a
      0006A8 A3               [12] 1371 	inc	dptr
      0006A9 E8               [ 4] 1372 	mov	a,r0
      0006AA F0               [ 8] 1373 	movx	@dptr,a
      0006AB A3               [12] 1374 	inc	dptr
      0006AC E9               [ 4] 1375 	mov	a,r1
      0006AD F0               [ 8] 1376 	movx	@dptr,a
      0006AE A3               [12] 1377 	inc	dptr
      0006AF EA               [ 4] 1378 	mov	a,r2
      0006B0 F0               [ 8] 1379 	movx	@dptr,a
      0006B1 A3               [12] 1380 	inc	dptr
      0006B2 EB               [ 4] 1381 	mov	a,r3
      0006B3 F0               [ 8] 1382 	movx	@dptr,a
      0006B4 A3               [12] 1383 	inc	dptr
      0006B5 EC               [ 4] 1384 	mov	a,r4
      0006B6 F0               [ 8] 1385 	movx	@dptr,a
      0006B7 A3               [12] 1386 	inc	dptr
      0006B8 ED               [ 4] 1387 	mov	a,r5
      0006B9 F0               [ 8] 1388 	movx	@dptr,a
      0006BA 90s00r00rA0      [12] 1389 	mov	dptr,#___ckd_add_uint_result_65536_20
      0006BE E0               [ 8] 1390 	movx	a,@dptr
      0006BF FA               [ 4] 1391 	mov	r2,a
      0006C0 A3               [12] 1392 	inc	dptr
      0006C1 E0               [ 8] 1393 	movx	a,@dptr
      0006C2 FB               [ 4] 1394 	mov	r3,a
      0006C3 90s00r00r9C      [12] 1395 	mov	dptr,#___ckd_add_uint_r_65536_19
      0006C7 E0               [ 8] 1396 	movx	a,@dptr
      0006C8 C0 E0            [ 8] 1397 	push	acc
      0006CA A3               [12] 1398 	inc	dptr
      0006CB E0               [ 8] 1399 	movx	a,@dptr
      0006CC C0 E0            [ 8] 1400 	push	acc
      0006CE A3               [12] 1401 	inc	dptr
      0006CF E0               [ 8] 1402 	movx	a,@dptr
      0006D0 C0 E0            [ 8] 1403 	push	acc
      0006D2 A3               [12] 1404 	inc	dptr
      0006D3 E0               [ 8] 1405 	movx	a,@dptr
      0006D4 F5 F0            [ 8] 1406 	mov	b,a
      0006D6 D0 93            [ 8] 1407 	pop	dpx
      0006D8 D0 83            [ 8] 1408 	pop	dph
      0006DA D0 82            [ 8] 1409 	pop	dpl
      0006DC 8A 9C            [ 8] 1410 	mov	acc1, r2
      0006DE EB               [ 4] 1411 	mov	a,r3
      0006DF 12s00r00r00      [16] 1412 	lcall	__gptrputWord
      0006E3 7C 00            [ 8] 1413 	mov	r4,#0x00
      0006E5 7D 00            [ 8] 1414 	mov	r5,#0x00
      0006E7 7E 00            [ 8] 1415 	mov	r6,#0x00
      0006E9 7F 00            [ 8] 1416 	mov	r7,#0x00
      0006EB 78 00            [ 8] 1417 	mov	r0,#0x00
      0006ED 79 00            [ 8] 1418 	mov	r1,#0x00
      0006EF 90s00r00rA0      [12] 1419 	mov	dptr,#___ckd_add_uint_result_65536_20
      0006F3 8A F0            [ 8] 1420 	mov	b,r2
      0006F5 E0               [ 8] 1421 	movx	a,@dptr
      0006F6 B5 F0 35         [16] 1422 	cjne	a,b,00103$
      0006F9 8B F0            [ 8] 1423 	mov	b,r3
      0006FB A3               [12] 1424 	inc	dptr
      0006FC E0               [ 8] 1425 	movx	a,@dptr
      0006FD B5 F0 2E         [16] 1426 	cjne	a,b,00103$
      000700 8C F0            [ 8] 1427 	mov	b,r4
      000702 A3               [12] 1428 	inc	dptr
      000703 E0               [ 8] 1429 	movx	a,@dptr
      000704 B5 F0 27         [16] 1430 	cjne	a,b,00103$
      000707 8D F0            [ 8] 1431 	mov	b,r5
      000709 A3               [12] 1432 	inc	dptr
      00070A E0               [ 8] 1433 	movx	a,@dptr
      00070B B5 F0 20         [16] 1434 	cjne	a,b,00103$
      00070E 8E F0            [ 8] 1435 	mov	b,r6
      000710 A3               [12] 1436 	inc	dptr
      000711 E0               [ 8] 1437 	movx	a,@dptr
      000712 B5 F0 19         [16] 1438 	cjne	a,b,00103$
      000715 8F F0            [ 8] 1439 	mov	b,r7
      000717 A3               [12] 1440 	inc	dptr
      000718 E0               [ 8] 1441 	movx	a,@dptr
      000719 B5 F0 12         [16] 1442 	cjne	a,b,00103$
      00071C 88 F0            [ 8] 1443 	mov	b,r0
      00071E A3               [12] 1444 	inc	dptr
      00071F E0               [ 8] 1445 	movx	a,@dptr
      000720 B5 F0 0B         [16] 1446 	cjne	a,b,00103$
      000723 89 F0            [ 8] 1447 	mov	b,r1
      000725 A3               [12] 1448 	inc	dptr
      000726 E0               [ 8] 1449 	movx	a,@dptr
      000727 B5 F0 04         [16] 1450 	cjne	a,b,00103$
      00072A 74 01            [ 8] 1451 	mov	a,#0x01
      00072C 80 01            [12] 1452 	sjmp	00104$
      00072E                       1453 00103$:
      00072E E4               [ 4] 1454 	clr	a
      00072F                       1455 00104$:
      00072F 24 FF            [ 8] 1456 	add	a,#0xff
      000731 92*05            [ 8] 1457 	mov	___ckd_add_uint_sloc0_1_0,c
      000733 B2*05            [ 8] 1458 	cpl	___ckd_add_uint_sloc0_1_0
      000735 A2*05            [ 8] 1459 	mov	c,___ckd_add_uint_sloc0_1_0
      000737 E4               [ 4] 1460 	clr	a
      000738 33               [ 4] 1461 	rlc	a
      000739 F5 82            [ 8] 1462 	mov	dpl,a
      00073B                       1463 00101$:
      00073B 22               [16] 1464 	ret
                                   1465 ;------------------------------------------------------------
                                   1466 ;Allocation info for local variables in function '__ckd_add_long'
                                   1467 ;------------------------------------------------------------
                                   1468 ;a                         Allocated with name '___ckd_add_long_PARM_2'
                                   1469 ;b                         Allocated with name '___ckd_add_long_PARM_3'
                                   1470 ;r                         Allocated with name '___ckd_add_long_r_65536_21'
                                   1471 ;result                    Allocated with name '___ckd_add_long_result_65536_22'
                                   1472 ;------------------------------------------------------------
                                   1473 ;	../../device/include/stdckdint.h:57: inline _Bool __ckd_add_long __CKD_DEFAULT_IMPL(long, +)
                                   1474 ;	-----------------------------------------
                                   1475 ;	 function __ckd_add_long
                                   1476 ;	-----------------------------------------
      00073C                       1477 ___ckd_add_long:
      00073C 75 86 01         [12] 1478 	mov     dps, #1
      00073F 90s00r00rB8      [12] 1479 	mov     dptr, #___ckd_add_long_r_65536_21
      000743 E5 82            [ 8] 1480 	mov	a,dpl
      000745 F0               [ 8] 1481 	movx	@dptr,a
      000746 A3               [12] 1482 	inc	dptr
      000747 E5 83            [ 8] 1483 	mov	a,dph
      000749 F0               [ 8] 1484 	movx	@dptr,a
      00074A A3               [12] 1485 	inc	dptr
      00074B E5 93            [ 8] 1486 	mov	a,dpx
      00074D F0               [ 8] 1487 	movx	@dptr,a
      00074E A3               [12] 1488 	inc	dptr
      00074F E5 F0            [ 8] 1489 	mov	a,b
      000751 F0               [ 8] 1490 	movx	@dptr,a
      000752 75 86 01         [12] 1491 	mov	dps, #1
      000755 90s00r00rA8      [12] 1492 	mov	dptr, #___ckd_add_long_PARM_2
      000759 15 86            [ 8] 1493 	dec	dps
      00075B 90s00r00rB0      [12] 1494 	mov	dptr, #___ckd_add_long_PARM_3
      00075F E0               [ 8] 1495 	movx	a,@dptr
      000760 C5 9C            [ 8] 1496 	xch	a, acc1
      000762 05 86            [ 8] 1497 	inc	dps
      000764 E0               [ 8] 1498 	movx	a,@dptr
      000765 C5 9C            [ 8] 1499 	xch	a, acc1
      000767 25 9C            [ 8] 1500 	add	a,acc1
      000769 FE               [ 4] 1501 	mov	r6,a
      00076A 15 86            [ 8] 1502 	dec	dps
      00076C A3               [12] 1503 	inc	dptr
      00076D E0               [ 8] 1504 	movx	a,@dptr
      00076E C5 9C            [ 8] 1505 	xch	a, acc1
      000770 05 86            [ 8] 1506 	inc	dps
      000772 A3               [12] 1507 	inc	dptr
      000773 E0               [ 8] 1508 	movx	a,@dptr
      000774 C5 9C            [ 8] 1509 	xch	a, acc1
      000776 35 9C            [ 8] 1510 	addc	a,acc1
      000778 FF               [ 4] 1511 	mov	r7,a
      000779 15 86            [ 8] 1512 	dec	dps
      00077B A3               [12] 1513 	inc	dptr
      00077C E0               [ 8] 1514 	movx	a,@dptr
      00077D C5 9C            [ 8] 1515 	xch	a, acc1
      00077F 05 86            [ 8] 1516 	inc	dps
      000781 A3               [12] 1517 	inc	dptr
      000782 E0               [ 8] 1518 	movx	a,@dptr
      000783 C5 9C            [ 8] 1519 	xch	a, acc1
      000785 35 9C            [ 8] 1520 	addc	a,acc1
      000787 F8               [ 4] 1521 	mov	r0,a
      000788 15 86            [ 8] 1522 	dec	dps
      00078A A3               [12] 1523 	inc	dptr
      00078B E0               [ 8] 1524 	movx	a,@dptr
      00078C C5 9C            [ 8] 1525 	xch	a, acc1
      00078E 05 86            [ 8] 1526 	inc	dps
      000790 A3               [12] 1527 	inc	dptr
      000791 E0               [ 8] 1528 	movx	a,@dptr
      000792 C5 9C            [ 8] 1529 	xch	a, acc1
      000794 35 9C            [ 8] 1530 	addc	a,acc1
      000796 F9               [ 4] 1531 	mov	r1,a
      000797 15 86            [ 8] 1532 	dec	dps
      000799 A3               [12] 1533 	inc	dptr
      00079A E0               [ 8] 1534 	movx	a,@dptr
      00079B C5 9C            [ 8] 1535 	xch	a, acc1
      00079D 05 86            [ 8] 1536 	inc	dps
      00079F A3               [12] 1537 	inc	dptr
      0007A0 E0               [ 8] 1538 	movx	a,@dptr
      0007A1 C5 9C            [ 8] 1539 	xch	a, acc1
      0007A3 35 9C            [ 8] 1540 	addc	a,acc1
      0007A5 FA               [ 4] 1541 	mov	r2,a
      0007A6 15 86            [ 8] 1542 	dec	dps
      0007A8 A3               [12] 1543 	inc	dptr
      0007A9 E0               [ 8] 1544 	movx	a,@dptr
      0007AA C5 9C            [ 8] 1545 	xch	a, acc1
      0007AC 05 86            [ 8] 1546 	inc	dps
      0007AE A3               [12] 1547 	inc	dptr
      0007AF E0               [ 8] 1548 	movx	a,@dptr
      0007B0 C5 9C            [ 8] 1549 	xch	a, acc1
      0007B2 35 9C            [ 8] 1550 	addc	a,acc1
      0007B4 FB               [ 4] 1551 	mov	r3,a
      0007B5 15 86            [ 8] 1552 	dec	dps
      0007B7 A3               [12] 1553 	inc	dptr
      0007B8 E0               [ 8] 1554 	movx	a,@dptr
      0007B9 C5 9C            [ 8] 1555 	xch	a, acc1
      0007BB 05 86            [ 8] 1556 	inc	dps
      0007BD A3               [12] 1557 	inc	dptr
      0007BE E0               [ 8] 1558 	movx	a,@dptr
      0007BF C5 9C            [ 8] 1559 	xch	a, acc1
      0007C1 35 9C            [ 8] 1560 	addc	a,acc1
      0007C3 FC               [ 4] 1561 	mov	r4,a
      0007C4 15 86            [ 8] 1562 	dec	dps
      0007C6 A3               [12] 1563 	inc	dptr
      0007C7 E0               [ 8] 1564 	movx	a,@dptr
      0007C8 C5 9C            [ 8] 1565 	xch	a, acc1
      0007CA 05 86            [ 8] 1566 	inc	dps
      0007CC A3               [12] 1567 	inc	dptr
      0007CD E0               [ 8] 1568 	movx	a,@dptr
      0007CE C5 9C            [ 8] 1569 	xch	a, acc1
      0007D0 35 9C            [ 8] 1570 	addc	a,acc1
      0007D2 FD               [ 4] 1571 	mov	r5,a
      0007D3 75 86 00         [12] 1572 	mov	dps,#0
                                   1573 ;	genAssign: resultIsFar = TRUE
      0007D6 90s00r00rBC      [12] 1574 	mov	dptr,#___ckd_add_long_result_65536_22
      0007DA EE               [ 4] 1575 	mov	a,r6
      0007DB F0               [ 8] 1576 	movx	@dptr,a
      0007DC A3               [12] 1577 	inc	dptr
      0007DD EF               [ 4] 1578 	mov	a,r7
      0007DE F0               [ 8] 1579 	movx	@dptr,a
      0007DF A3               [12] 1580 	inc	dptr
      0007E0 E8               [ 4] 1581 	mov	a,r0
      0007E1 F0               [ 8] 1582 	movx	@dptr,a
      0007E2 A3               [12] 1583 	inc	dptr
      0007E3 E9               [ 4] 1584 	mov	a,r1
      0007E4 F0               [ 8] 1585 	movx	@dptr,a
      0007E5 A3               [12] 1586 	inc	dptr
      0007E6 EA               [ 4] 1587 	mov	a,r2
      0007E7 F0               [ 8] 1588 	movx	@dptr,a
      0007E8 A3               [12] 1589 	inc	dptr
      0007E9 EB               [ 4] 1590 	mov	a,r3
      0007EA F0               [ 8] 1591 	movx	@dptr,a
      0007EB A3               [12] 1592 	inc	dptr
      0007EC EC               [ 4] 1593 	mov	a,r4
      0007ED F0               [ 8] 1594 	movx	@dptr,a
      0007EE A3               [12] 1595 	inc	dptr
      0007EF ED               [ 4] 1596 	mov	a,r5
      0007F0 F0               [ 8] 1597 	movx	@dptr,a
      0007F1 90s00r00rBC      [12] 1598 	mov	dptr,#___ckd_add_long_result_65536_22
      0007F5 E0               [ 8] 1599 	movx	a,@dptr
      0007F6 FA               [ 4] 1600 	mov	r2,a
      0007F7 A3               [12] 1601 	inc	dptr
      0007F8 E0               [ 8] 1602 	movx	a,@dptr
      0007F9 FB               [ 4] 1603 	mov	r3,a
      0007FA A3               [12] 1604 	inc	dptr
      0007FB E0               [ 8] 1605 	movx	a,@dptr
      0007FC FC               [ 4] 1606 	mov	r4,a
      0007FD A3               [12] 1607 	inc	dptr
      0007FE E0               [ 8] 1608 	movx	a,@dptr
      0007FF FD               [ 4] 1609 	mov	r5,a
      000800 90s00r00rB8      [12] 1610 	mov	dptr,#___ckd_add_long_r_65536_21
      000804 E0               [ 8] 1611 	movx	a,@dptr
      000805 C0 E0            [ 8] 1612 	push	acc
      000807 A3               [12] 1613 	inc	dptr
      000808 E0               [ 8] 1614 	movx	a,@dptr
      000809 C0 E0            [ 8] 1615 	push	acc
      00080B A3               [12] 1616 	inc	dptr
      00080C E0               [ 8] 1617 	movx	a,@dptr
      00080D C0 E0            [ 8] 1618 	push	acc
      00080F A3               [12] 1619 	inc	dptr
      000810 E0               [ 8] 1620 	movx	a,@dptr
      000811 F5 F0            [ 8] 1621 	mov	b,a
      000813 D0 93            [ 8] 1622 	pop	dpx
      000815 D0 83            [ 8] 1623 	pop	dph
      000817 D0 82            [ 8] 1624 	pop	dpl
      000819 8A 9C            [ 8] 1625 	mov	acc1, r2
      00081B EB               [ 4] 1626 	mov	a,r3
      00081C 12s00r00r00      [16] 1627 	lcall	__gptrputWord
      000820 A3               [12] 1628 	inc	dptr
      000821 8C 9C            [ 8] 1629 	mov	acc1, r4
      000823 ED               [ 4] 1630 	mov	a,r5
      000824 12s00r00r00      [16] 1631 	lcall	__gptrputWord
      000828 ED               [ 4] 1632 	mov	a,r5
      000829 33               [ 4] 1633 	rlc	a
      00082A 95 E0            [ 8] 1634 	subb	a,acc
      00082C FE               [ 4] 1635 	mov	r6,a
      00082D FF               [ 4] 1636 	mov	r7,a
      00082E F8               [ 4] 1637 	mov	r0,a
      00082F F9               [ 4] 1638 	mov	r1,a
      000830 90s00r00rBC      [12] 1639 	mov	dptr,#___ckd_add_long_result_65536_22
      000834 8A F0            [ 8] 1640 	mov	b,r2
      000836 E0               [ 8] 1641 	movx	a,@dptr
      000837 B5 F0 35         [16] 1642 	cjne	a,b,00103$
      00083A 8B F0            [ 8] 1643 	mov	b,r3
      00083C A3               [12] 1644 	inc	dptr
      00083D E0               [ 8] 1645 	movx	a,@dptr
      00083E B5 F0 2E         [16] 1646 	cjne	a,b,00103$
      000841 8C F0            [ 8] 1647 	mov	b,r4
      000843 A3               [12] 1648 	inc	dptr
      000844 E0               [ 8] 1649 	movx	a,@dptr
      000845 B5 F0 27         [16] 1650 	cjne	a,b,00103$
      000848 8D F0            [ 8] 1651 	mov	b,r5
      00084A A3               [12] 1652 	inc	dptr
      00084B E0               [ 8] 1653 	movx	a,@dptr
      00084C B5 F0 20         [16] 1654 	cjne	a,b,00103$
      00084F 8E F0            [ 8] 1655 	mov	b,r6
      000851 A3               [12] 1656 	inc	dptr
      000852 E0               [ 8] 1657 	movx	a,@dptr
      000853 B5 F0 19         [16] 1658 	cjne	a,b,00103$
      000856 8F F0            [ 8] 1659 	mov	b,r7
      000858 A3               [12] 1660 	inc	dptr
      000859 E0               [ 8] 1661 	movx	a,@dptr
      00085A B5 F0 12         [16] 1662 	cjne	a,b,00103$
      00085D 88 F0            [ 8] 1663 	mov	b,r0
      00085F A3               [12] 1664 	inc	dptr
      000860 E0               [ 8] 1665 	movx	a,@dptr
      000861 B5 F0 0B         [16] 1666 	cjne	a,b,00103$
      000864 89 F0            [ 8] 1667 	mov	b,r1
      000866 A3               [12] 1668 	inc	dptr
      000867 E0               [ 8] 1669 	movx	a,@dptr
      000868 B5 F0 04         [16] 1670 	cjne	a,b,00103$
      00086B 74 01            [ 8] 1671 	mov	a,#0x01
      00086D 80 01            [12] 1672 	sjmp	00104$
      00086F                       1673 00103$:
      00086F E4               [ 4] 1674 	clr	a
      000870                       1675 00104$:
      000870 24 FF            [ 8] 1676 	add	a,#0xff
      000872 92*06            [ 8] 1677 	mov	___ckd_add_long_sloc0_1_0,c
      000874 B2*06            [ 8] 1678 	cpl	___ckd_add_long_sloc0_1_0
      000876 A2*06            [ 8] 1679 	mov	c,___ckd_add_long_sloc0_1_0
      000878 E4               [ 4] 1680 	clr	a
      000879 33               [ 4] 1681 	rlc	a
      00087A F5 82            [ 8] 1682 	mov	dpl,a
      00087C                       1683 00101$:
      00087C 22               [16] 1684 	ret
                                   1685 ;------------------------------------------------------------
                                   1686 ;Allocation info for local variables in function '__ckd_add_ulong'
                                   1687 ;------------------------------------------------------------
                                   1688 ;a                         Allocated with name '___ckd_add_ulong_PARM_2'
                                   1689 ;b                         Allocated with name '___ckd_add_ulong_PARM_3'
                                   1690 ;r                         Allocated with name '___ckd_add_ulong_r_65536_23'
                                   1691 ;result                    Allocated with name '___ckd_add_ulong_result_65536_24'
                                   1692 ;------------------------------------------------------------
                                   1693 ;	../../device/include/stdckdint.h:58: inline _Bool __ckd_add_ulong __CKD_DEFAULT_IMPL(unsigned long, +)
                                   1694 ;	-----------------------------------------
                                   1695 ;	 function __ckd_add_ulong
                                   1696 ;	-----------------------------------------
      00087D                       1697 ___ckd_add_ulong:
      00087D 75 86 01         [12] 1698 	mov     dps, #1
      000880 90s00r00rD4      [12] 1699 	mov     dptr, #___ckd_add_ulong_r_65536_23
      000884 E5 82            [ 8] 1700 	mov	a,dpl
      000886 F0               [ 8] 1701 	movx	@dptr,a
      000887 A3               [12] 1702 	inc	dptr
      000888 E5 83            [ 8] 1703 	mov	a,dph
      00088A F0               [ 8] 1704 	movx	@dptr,a
      00088B A3               [12] 1705 	inc	dptr
      00088C E5 93            [ 8] 1706 	mov	a,dpx
      00088E F0               [ 8] 1707 	movx	@dptr,a
      00088F A3               [12] 1708 	inc	dptr
      000890 E5 F0            [ 8] 1709 	mov	a,b
      000892 F0               [ 8] 1710 	movx	@dptr,a
      000893 75 86 01         [12] 1711 	mov	dps, #1
      000896 90s00r00rC4      [12] 1712 	mov	dptr, #___ckd_add_ulong_PARM_2
      00089A 15 86            [ 8] 1713 	dec	dps
      00089C 90s00r00rCC      [12] 1714 	mov	dptr, #___ckd_add_ulong_PARM_3
      0008A0 E0               [ 8] 1715 	movx	a,@dptr
      0008A1 C5 9C            [ 8] 1716 	xch	a, acc1
      0008A3 05 86            [ 8] 1717 	inc	dps
      0008A5 E0               [ 8] 1718 	movx	a,@dptr
      0008A6 C5 9C            [ 8] 1719 	xch	a, acc1
      0008A8 25 9C            [ 8] 1720 	add	a,acc1
      0008AA FE               [ 4] 1721 	mov	r6,a
      0008AB 15 86            [ 8] 1722 	dec	dps
      0008AD A3               [12] 1723 	inc	dptr
      0008AE E0               [ 8] 1724 	movx	a,@dptr
      0008AF C5 9C            [ 8] 1725 	xch	a, acc1
      0008B1 05 86            [ 8] 1726 	inc	dps
      0008B3 A3               [12] 1727 	inc	dptr
      0008B4 E0               [ 8] 1728 	movx	a,@dptr
      0008B5 C5 9C            [ 8] 1729 	xch	a, acc1
      0008B7 35 9C            [ 8] 1730 	addc	a,acc1
      0008B9 FF               [ 4] 1731 	mov	r7,a
      0008BA 15 86            [ 8] 1732 	dec	dps
      0008BC A3               [12] 1733 	inc	dptr
      0008BD E0               [ 8] 1734 	movx	a,@dptr
      0008BE C5 9C            [ 8] 1735 	xch	a, acc1
      0008C0 05 86            [ 8] 1736 	inc	dps
      0008C2 A3               [12] 1737 	inc	dptr
      0008C3 E0               [ 8] 1738 	movx	a,@dptr
      0008C4 C5 9C            [ 8] 1739 	xch	a, acc1
      0008C6 35 9C            [ 8] 1740 	addc	a,acc1
      0008C8 F8               [ 4] 1741 	mov	r0,a
      0008C9 15 86            [ 8] 1742 	dec	dps
      0008CB A3               [12] 1743 	inc	dptr
      0008CC E0               [ 8] 1744 	movx	a,@dptr
      0008CD C5 9C            [ 8] 1745 	xch	a, acc1
      0008CF 05 86            [ 8] 1746 	inc	dps
      0008D1 A3               [12] 1747 	inc	dptr
      0008D2 E0               [ 8] 1748 	movx	a,@dptr
      0008D3 C5 9C            [ 8] 1749 	xch	a, acc1
      0008D5 35 9C            [ 8] 1750 	addc	a,acc1
      0008D7 F9               [ 4] 1751 	mov	r1,a
      0008D8 15 86            [ 8] 1752 	dec	dps
      0008DA A3               [12] 1753 	inc	dptr
      0008DB E0               [ 8] 1754 	movx	a,@dptr
      0008DC C5 9C            [ 8] 1755 	xch	a, acc1
      0008DE 05 86            [ 8] 1756 	inc	dps
      0008E0 A3               [12] 1757 	inc	dptr
      0008E1 E0               [ 8] 1758 	movx	a,@dptr
      0008E2 C5 9C            [ 8] 1759 	xch	a, acc1
      0008E4 35 9C            [ 8] 1760 	addc	a,acc1
      0008E6 FA               [ 4] 1761 	mov	r2,a
      0008E7 15 86            [ 8] 1762 	dec	dps
      0008E9 A3               [12] 1763 	inc	dptr
      0008EA E0               [ 8] 1764 	movx	a,@dptr
      0008EB C5 9C            [ 8] 1765 	xch	a, acc1
      0008ED 05 86            [ 8] 1766 	inc	dps
      0008EF A3               [12] 1767 	inc	dptr
      0008F0 E0               [ 8] 1768 	movx	a,@dptr
      0008F1 C5 9C            [ 8] 1769 	xch	a, acc1
      0008F3 35 9C            [ 8] 1770 	addc	a,acc1
      0008F5 FB               [ 4] 1771 	mov	r3,a
      0008F6 15 86            [ 8] 1772 	dec	dps
      0008F8 A3               [12] 1773 	inc	dptr
      0008F9 E0               [ 8] 1774 	movx	a,@dptr
      0008FA C5 9C            [ 8] 1775 	xch	a, acc1
      0008FC 05 86            [ 8] 1776 	inc	dps
      0008FE A3               [12] 1777 	inc	dptr
      0008FF E0               [ 8] 1778 	movx	a,@dptr
      000900 C5 9C            [ 8] 1779 	xch	a, acc1
      000902 35 9C            [ 8] 1780 	addc	a,acc1
      000904 FC               [ 4] 1781 	mov	r4,a
      000905 15 86            [ 8] 1782 	dec	dps
      000907 A3               [12] 1783 	inc	dptr
      000908 E0               [ 8] 1784 	movx	a,@dptr
      000909 C5 9C            [ 8] 1785 	xch	a, acc1
      00090B 05 86            [ 8] 1786 	inc	dps
      00090D A3               [12] 1787 	inc	dptr
      00090E E0               [ 8] 1788 	movx	a,@dptr
      00090F C5 9C            [ 8] 1789 	xch	a, acc1
      000911 35 9C            [ 8] 1790 	addc	a,acc1
      000913 FD               [ 4] 1791 	mov	r5,a
      000914 75 86 00         [12] 1792 	mov	dps,#0
                                   1793 ;	genAssign: resultIsFar = TRUE
      000917 90s00r00rD8      [12] 1794 	mov	dptr,#___ckd_add_ulong_result_65536_24
      00091B EE               [ 4] 1795 	mov	a,r6
      00091C F0               [ 8] 1796 	movx	@dptr,a
      00091D A3               [12] 1797 	inc	dptr
      00091E EF               [ 4] 1798 	mov	a,r7
      00091F F0               [ 8] 1799 	movx	@dptr,a
      000920 A3               [12] 1800 	inc	dptr
      000921 E8               [ 4] 1801 	mov	a,r0
      000922 F0               [ 8] 1802 	movx	@dptr,a
      000923 A3               [12] 1803 	inc	dptr
      000924 E9               [ 4] 1804 	mov	a,r1
      000925 F0               [ 8] 1805 	movx	@dptr,a
      000926 A3               [12] 1806 	inc	dptr
      000927 EA               [ 4] 1807 	mov	a,r2
      000928 F0               [ 8] 1808 	movx	@dptr,a
      000929 A3               [12] 1809 	inc	dptr
      00092A EB               [ 4] 1810 	mov	a,r3
      00092B F0               [ 8] 1811 	movx	@dptr,a
      00092C A3               [12] 1812 	inc	dptr
      00092D EC               [ 4] 1813 	mov	a,r4
      00092E F0               [ 8] 1814 	movx	@dptr,a
      00092F A3               [12] 1815 	inc	dptr
      000930 ED               [ 4] 1816 	mov	a,r5
      000931 F0               [ 8] 1817 	movx	@dptr,a
      000932 90s00r00rD8      [12] 1818 	mov	dptr,#___ckd_add_ulong_result_65536_24
      000936 E0               [ 8] 1819 	movx	a,@dptr
      000937 FA               [ 4] 1820 	mov	r2,a
      000938 A3               [12] 1821 	inc	dptr
      000939 E0               [ 8] 1822 	movx	a,@dptr
      00093A FB               [ 4] 1823 	mov	r3,a
      00093B A3               [12] 1824 	inc	dptr
      00093C E0               [ 8] 1825 	movx	a,@dptr
      00093D FC               [ 4] 1826 	mov	r4,a
      00093E A3               [12] 1827 	inc	dptr
      00093F E0               [ 8] 1828 	movx	a,@dptr
      000940 FD               [ 4] 1829 	mov	r5,a
      000941 90s00r00rD4      [12] 1830 	mov	dptr,#___ckd_add_ulong_r_65536_23
      000945 E0               [ 8] 1831 	movx	a,@dptr
      000946 C0 E0            [ 8] 1832 	push	acc
      000948 A3               [12] 1833 	inc	dptr
      000949 E0               [ 8] 1834 	movx	a,@dptr
      00094A C0 E0            [ 8] 1835 	push	acc
      00094C A3               [12] 1836 	inc	dptr
      00094D E0               [ 8] 1837 	movx	a,@dptr
      00094E C0 E0            [ 8] 1838 	push	acc
      000950 A3               [12] 1839 	inc	dptr
      000951 E0               [ 8] 1840 	movx	a,@dptr
      000952 F5 F0            [ 8] 1841 	mov	b,a
      000954 D0 93            [ 8] 1842 	pop	dpx
      000956 D0 83            [ 8] 1843 	pop	dph
      000958 D0 82            [ 8] 1844 	pop	dpl
      00095A 8A 9C            [ 8] 1845 	mov	acc1, r2
      00095C EB               [ 4] 1846 	mov	a,r3
      00095D 12s00r00r00      [16] 1847 	lcall	__gptrputWord
      000961 A3               [12] 1848 	inc	dptr
      000962 8C 9C            [ 8] 1849 	mov	acc1, r4
      000964 ED               [ 4] 1850 	mov	a,r5
      000965 12s00r00r00      [16] 1851 	lcall	__gptrputWord
      000969 7E 00            [ 8] 1852 	mov	r6,#0x00
      00096B 7F 00            [ 8] 1853 	mov	r7,#0x00
      00096D 78 00            [ 8] 1854 	mov	r0,#0x00
      00096F 79 00            [ 8] 1855 	mov	r1,#0x00
      000971 90s00r00rD8      [12] 1856 	mov	dptr,#___ckd_add_ulong_result_65536_24
      000975 8A F0            [ 8] 1857 	mov	b,r2
      000977 E0               [ 8] 1858 	movx	a,@dptr
      000978 B5 F0 35         [16] 1859 	cjne	a,b,00103$
      00097B 8B F0            [ 8] 1860 	mov	b,r3
      00097D A3               [12] 1861 	inc	dptr
      00097E E0               [ 8] 1862 	movx	a,@dptr
      00097F B5 F0 2E         [16] 1863 	cjne	a,b,00103$
      000982 8C F0            [ 8] 1864 	mov	b,r4
      000984 A3               [12] 1865 	inc	dptr
      000985 E0               [ 8] 1866 	movx	a,@dptr
      000986 B5 F0 27         [16] 1867 	cjne	a,b,00103$
      000989 8D F0            [ 8] 1868 	mov	b,r5
      00098B A3               [12] 1869 	inc	dptr
      00098C E0               [ 8] 1870 	movx	a,@dptr
      00098D B5 F0 20         [16] 1871 	cjne	a,b,00103$
      000990 8E F0            [ 8] 1872 	mov	b,r6
      000992 A3               [12] 1873 	inc	dptr
      000993 E0               [ 8] 1874 	movx	a,@dptr
      000994 B5 F0 19         [16] 1875 	cjne	a,b,00103$
      000997 8F F0            [ 8] 1876 	mov	b,r7
      000999 A3               [12] 1877 	inc	dptr
      00099A E0               [ 8] 1878 	movx	a,@dptr
      00099B B5 F0 12         [16] 1879 	cjne	a,b,00103$
      00099E 88 F0            [ 8] 1880 	mov	b,r0
      0009A0 A3               [12] 1881 	inc	dptr
      0009A1 E0               [ 8] 1882 	movx	a,@dptr
      0009A2 B5 F0 0B         [16] 1883 	cjne	a,b,00103$
      0009A5 89 F0            [ 8] 1884 	mov	b,r1
      0009A7 A3               [12] 1885 	inc	dptr
      0009A8 E0               [ 8] 1886 	movx	a,@dptr
      0009A9 B5 F0 04         [16] 1887 	cjne	a,b,00103$
      0009AC 74 01            [ 8] 1888 	mov	a,#0x01
      0009AE 80 01            [12] 1889 	sjmp	00104$
      0009B0                       1890 00103$:
      0009B0 E4               [ 4] 1891 	clr	a
      0009B1                       1892 00104$:
      0009B1 24 FF            [ 8] 1893 	add	a,#0xff
      0009B3 92*07            [ 8] 1894 	mov	___ckd_add_ulong_sloc0_1_0,c
      0009B5 B2*07            [ 8] 1895 	cpl	___ckd_add_ulong_sloc0_1_0
      0009B7 A2*07            [ 8] 1896 	mov	c,___ckd_add_ulong_sloc0_1_0
      0009B9 E4               [ 4] 1897 	clr	a
      0009BA 33               [ 4] 1898 	rlc	a
      0009BB F5 82            [ 8] 1899 	mov	dpl,a
      0009BD                       1900 00101$:
      0009BD 22               [16] 1901 	ret
                                   1902 	.area CSEG    (CODE)
                                   1903 	.area CONST   (CODE)
                                   1904 	.area XINIT   (CODE)
                                   1905 	.area CABS    (ABS,CODE)
