                                      1 ;--------------------------------------------------------
                                      2 ; File Created by SDCC : free open source ISO C Compiler 
                                      3 ; Version 4.2.14 #0 (Linux)
                                      4 ;--------------------------------------------------------
                                      5 	.module ckd_mul
                                      6 	.optsdcc -mds390 --model-flat24
                                      7 	
                                      8 ;--------------------------------------------------------
                                      9 ; CPU specific extensions
                                     10 ;--------------------------------------------------------
                                     11 	.DS80C390
                                     12 	.amode	2	; 24 bit flat addressing
                           000082    13 dpl	=	0x82
                           000083    14 dph	=	0x83
                           000084    15 dpl1	=	0x84
                           000085    16 dph1	=	0x85
                           000086    17 dps	=	0x86
                           000093    18 dpx	=	0x93
                           000095    19 dpx1	=	0x95
                           00009B    20 esp	=	0x9B
                           00009C    21 ap	=	0x9C
                           00009C    22 acc1	=	0x9C
                           0000D1    23 mcnt0	=	0xD1
                           0000D2    24 mcnt1	=	0xD2
                           0000D3    25 ma	=	0xD3
                           0000D4    26 mb	=	0xD4
                           0000D5    27 mc	=	0xD5
                           00009D    28 acon	=	0x9D
                           0000C6    29 mcon	=	0xC6
                           0000D1    30 F1	=	0xD1	; user flag
                                     31 ;--------------------------------------------------------
                                     32 ; Public variables in this module
                                     33 ;--------------------------------------------------------
                                     34 	.globl ___ckd_mul_ulong_PARM_3
                                     35 	.globl ___ckd_mul_ulong_PARM_2
                                     36 	.globl ___ckd_mul_long_PARM_3
                                     37 	.globl ___ckd_mul_long_PARM_2
                                     38 	.globl ___ckd_mul_uint_PARM_3
                                     39 	.globl ___ckd_mul_uint_PARM_2
                                     40 	.globl ___ckd_mul_int_PARM_3
                                     41 	.globl ___ckd_mul_int_PARM_2
                                     42 	.globl ___ckd_mul_ushort_PARM_3
                                     43 	.globl ___ckd_mul_ushort_PARM_2
                                     44 	.globl ___ckd_mul_short_PARM_3
                                     45 	.globl ___ckd_mul_short_PARM_2
                                     46 	.globl ___ckd_mul_uchar_PARM_3
                                     47 	.globl ___ckd_mul_uchar_PARM_2
                                     48 	.globl ___ckd_mul_schar_PARM_3
                                     49 	.globl ___ckd_mul_schar_PARM_2
                                     50 	.globl ___ckd_mul_schar
                                     51 	.globl ___ckd_mul_uchar
                                     52 	.globl ___ckd_mul_short
                                     53 	.globl ___ckd_mul_ushort
                                     54 	.globl ___ckd_mul_int
                                     55 	.globl ___ckd_mul_uint
                                     56 	.globl ___ckd_mul_long
                                     57 	.globl ___ckd_mul_ulong
                                     58 ;--------------------------------------------------------
                                     59 ; special function registers
                                     60 ;--------------------------------------------------------
                                     61 ;--------------------------------------------------------
                                     62 ; special function bits
                                     63 ;--------------------------------------------------------
                                     64 ;--------------------------------------------------------
                                     65 ; overlayable register banks
                                     66 ;--------------------------------------------------------
                                     67 	.area REG_BANK_0	(REL,OVR,DATA)
      000000                         68 	.ds 8
                                     69 ;--------------------------------------------------------
                                     70 ; internal ram data
                                     71 ;--------------------------------------------------------
                                     72 	.area DSEG    (DATA)
                                     73 ;--------------------------------------------------------
                                     74 ; overlayable items in internal ram
                                     75 ;--------------------------------------------------------
                                     76 ;--------------------------------------------------------
                                     77 ; indirectly addressable internal ram data
                                     78 ;--------------------------------------------------------
                                     79 	.area ISEG    (DATA)
                                     80 ;--------------------------------------------------------
                                     81 ; absolute internal ram data
                                     82 ;--------------------------------------------------------
                                     83 	.area IABS    (ABS,DATA)
                                     84 	.area IABS    (ABS,DATA)
                                     85 ;--------------------------------------------------------
                                     86 ; bit data
                                     87 ;--------------------------------------------------------
                                     88 	.area BSEG    (BIT)
      000000                         89 ___ckd_mul_schar_sloc0_1_0:
      000000                         90 	.ds 1
      000001                         91 ___ckd_mul_uchar_sloc0_1_0:
      000001                         92 	.ds 1
      000002                         93 ___ckd_mul_short_sloc0_1_0:
      000002                         94 	.ds 1
      000003                         95 ___ckd_mul_ushort_sloc0_1_0:
      000003                         96 	.ds 1
      000004                         97 ___ckd_mul_int_sloc0_1_0:
      000004                         98 	.ds 1
      000005                         99 ___ckd_mul_uint_sloc0_1_0:
      000005                        100 	.ds 1
      000006                        101 ___ckd_mul_long_sloc0_1_0:
      000006                        102 	.ds 1
      000007                        103 ___ckd_mul_ulong_sloc0_1_0:
      000007                        104 	.ds 1
                                    105 ;--------------------------------------------------------
                                    106 ; paged external ram data
                                    107 ;--------------------------------------------------------
                                    108 	.area PSEG    (PAG,XDATA)
                                    109 ;--------------------------------------------------------
                                    110 ; uninitialized external ram data
                                    111 ;--------------------------------------------------------
                                    112 	.area XSEG    (XDATA)
      000000                        113 ___ckd_mul_schar_PARM_2:
      000000                        114 	.ds 8
      000008                        115 ___ckd_mul_schar_PARM_3:
      000008                        116 	.ds 8
      000010                        117 ___ckd_mul_schar_r_65536_41:
      000010                        118 	.ds 4
      000014                        119 ___ckd_mul_schar_result_65536_42:
      000014                        120 	.ds 8
      00001C                        121 ___ckd_mul_uchar_PARM_2:
      00001C                        122 	.ds 8
      000024                        123 ___ckd_mul_uchar_PARM_3:
      000024                        124 	.ds 8
      00002C                        125 ___ckd_mul_uchar_r_65536_43:
      00002C                        126 	.ds 4
      000030                        127 ___ckd_mul_uchar_result_65536_44:
      000030                        128 	.ds 8
      000038                        129 ___ckd_mul_short_PARM_2:
      000038                        130 	.ds 8
      000040                        131 ___ckd_mul_short_PARM_3:
      000040                        132 	.ds 8
      000048                        133 ___ckd_mul_short_r_65536_45:
      000048                        134 	.ds 4
      00004C                        135 ___ckd_mul_short_result_65536_46:
      00004C                        136 	.ds 8
      000054                        137 ___ckd_mul_ushort_PARM_2:
      000054                        138 	.ds 8
      00005C                        139 ___ckd_mul_ushort_PARM_3:
      00005C                        140 	.ds 8
      000064                        141 ___ckd_mul_ushort_r_65536_47:
      000064                        142 	.ds 4
      000068                        143 ___ckd_mul_ushort_result_65536_48:
      000068                        144 	.ds 8
      000070                        145 ___ckd_mul_int_PARM_2:
      000070                        146 	.ds 8
      000078                        147 ___ckd_mul_int_PARM_3:
      000078                        148 	.ds 8
      000080                        149 ___ckd_mul_int_r_65536_49:
      000080                        150 	.ds 4
      000084                        151 ___ckd_mul_int_result_65536_50:
      000084                        152 	.ds 8
      00008C                        153 ___ckd_mul_uint_PARM_2:
      00008C                        154 	.ds 8
      000094                        155 ___ckd_mul_uint_PARM_3:
      000094                        156 	.ds 8
      00009C                        157 ___ckd_mul_uint_r_65536_51:
      00009C                        158 	.ds 4
      0000A0                        159 ___ckd_mul_uint_result_65536_52:
      0000A0                        160 	.ds 8
      0000A8                        161 ___ckd_mul_long_PARM_2:
      0000A8                        162 	.ds 8
      0000B0                        163 ___ckd_mul_long_PARM_3:
      0000B0                        164 	.ds 8
      0000B8                        165 ___ckd_mul_long_r_65536_53:
      0000B8                        166 	.ds 4
      0000BC                        167 ___ckd_mul_long_result_65536_54:
      0000BC                        168 	.ds 8
      0000C4                        169 ___ckd_mul_ulong_PARM_2:
      0000C4                        170 	.ds 8
      0000CC                        171 ___ckd_mul_ulong_PARM_3:
      0000CC                        172 	.ds 8
      0000D4                        173 ___ckd_mul_ulong_r_65536_55:
      0000D4                        174 	.ds 4
      0000D8                        175 ___ckd_mul_ulong_result_65536_56:
      0000D8                        176 	.ds 8
                                    177 ;--------------------------------------------------------
                                    178 ; absolute external ram data
                                    179 ;--------------------------------------------------------
                                    180 	.area XABS    (ABS,XDATA)
                                    181 ;--------------------------------------------------------
                                    182 ; initialized external ram data
                                    183 ;--------------------------------------------------------
                                    184 	.area XISEG   (XDATA)
                                    185 ;--------------------------------------------------------
                                    186 ; global & static initialisations
                                    187 ;--------------------------------------------------------
                                    188 	.area HOME    (CODE)
                                    189 	.area GSINIT  (CODE)
                                    190 	.area GSFINAL (CODE)
                                    191 	.area GSINIT  (CODE)
                                    192 ;--------------------------------------------------------
                                    193 ; Home
                                    194 ;--------------------------------------------------------
                                    195 	.area HOME    (CODE)
                                    196 	.area HOME    (CODE)
                                    197 ;--------------------------------------------------------
                                    198 ; code
                                    199 ;--------------------------------------------------------
                                    200 	.area CSEG    (CODE)
                                    201 ;------------------------------------------------------------
                                    202 ;Allocation info for local variables in function '__ckd_mul_schar'
                                    203 ;------------------------------------------------------------
                                    204 ;a                         Allocated with name '___ckd_mul_schar_PARM_2'
                                    205 ;b                         Allocated with name '___ckd_mul_schar_PARM_3'
                                    206 ;r                         Allocated with name '___ckd_mul_schar_r_65536_41'
                                    207 ;result                    Allocated with name '___ckd_mul_schar_result_65536_42'
                                    208 ;------------------------------------------------------------
                                    209 ;	../../device/include/stdckdint.h:69: inline _Bool __ckd_mul_schar __CKD_DEFAULT_IMPL(signed char, *)
                                    210 ;	-----------------------------------------
                                    211 ;	 function __ckd_mul_schar
                                    212 ;	-----------------------------------------
      000000                        213 ___ckd_mul_schar:
                           000002   214 	ar2 = 0x02
                           000003   215 	ar3 = 0x03
                           000004   216 	ar4 = 0x04
                           000005   217 	ar5 = 0x05
                           000006   218 	ar6 = 0x06
                           000007   219 	ar7 = 0x07
                           000000   220 	ar0 = 0x00
                           000001   221 	ar1 = 0x01
      000000 75 86 01         [12]  222 	mov     dps, #1
      000003 90s00r00r10      [12]  223 	mov     dptr, #___ckd_mul_schar_r_65536_41
      000007 E5 82            [ 8]  224 	mov	a,dpl
      000009 F0               [ 8]  225 	movx	@dptr,a
      00000A A3               [12]  226 	inc	dptr
      00000B E5 83            [ 8]  227 	mov	a,dph
      00000D F0               [ 8]  228 	movx	@dptr,a
      00000E A3               [12]  229 	inc	dptr
      00000F E5 93            [ 8]  230 	mov	a,dpx
      000011 F0               [ 8]  231 	movx	@dptr,a
      000012 A3               [12]  232 	inc	dptr
      000013 E5 F0            [ 8]  233 	mov	a,b
      000015 F0               [ 8]  234 	movx	@dptr,a
      000016 75 86 00         [12]  235 	mov	dps,#0
      000019 90s00r00r08      [12]  236 	mov	dptr,#___ckd_mul_schar_PARM_3
                                    237 ;	genAssign: resultIsFar = TRUE
      00001D 75 86 21         [12]  238 	mov	dps,#0x21
      000020 90s00r00r00      [12]  239 	mov	dptr,#__mullonglong_PARM_2
      000024 E0               [ 8]  240 	movx	a,@dptr
      000025 F0               [ 8]  241 	movx	@dptr,a
      000026 A3               [12]  242 	inc	dptr
      000027 A3               [12]  243 	inc	dptr
      000028 E0               [ 8]  244 	movx	a,@dptr
      000029 F0               [ 8]  245 	movx	@dptr,a
      00002A A3               [12]  246 	inc	dptr
      00002B A3               [12]  247 	inc	dptr
      00002C E0               [ 8]  248 	movx	a,@dptr
      00002D F0               [ 8]  249 	movx	@dptr,a
      00002E A3               [12]  250 	inc	dptr
      00002F A3               [12]  251 	inc	dptr
      000030 E0               [ 8]  252 	movx	a,@dptr
      000031 F0               [ 8]  253 	movx	@dptr,a
      000032 A3               [12]  254 	inc	dptr
      000033 A3               [12]  255 	inc	dptr
      000034 E0               [ 8]  256 	movx	a,@dptr
      000035 F0               [ 8]  257 	movx	@dptr,a
      000036 A3               [12]  258 	inc	dptr
      000037 A3               [12]  259 	inc	dptr
      000038 E0               [ 8]  260 	movx	a,@dptr
      000039 F0               [ 8]  261 	movx	@dptr,a
      00003A A3               [12]  262 	inc	dptr
      00003B A3               [12]  263 	inc	dptr
      00003C E0               [ 8]  264 	movx	a,@dptr
      00003D F0               [ 8]  265 	movx	@dptr,a
      00003E A3               [12]  266 	inc	dptr
      00003F A3               [12]  267 	inc	dptr
      000040 E0               [ 8]  268 	movx	a,@dptr
      000041 F0               [ 8]  269 	movx	@dptr,a
      000042 75 86 01         [12]  270 	mov	dps, #1
      000045 90s00r00r00      [12]  271 	mov	dptr,#___ckd_mul_schar_PARM_2
      000049 E0               [ 8]  272 	movx	a,@dptr
      00004A F5 82            [ 8]  273 	mov	dpl,a
      00004C A3               [12]  274 	inc	dptr
      00004D E0               [ 8]  275 	movx	a,@dptr
      00004E F5 83            [ 8]  276 	mov	dph,a
      000050 A3               [12]  277 	inc	dptr
      000051 E0               [ 8]  278 	movx	a,@dptr
      000052 F5 93            [ 8]  279 	mov	dpx,a
      000054 A3               [12]  280 	inc	dptr
      000055 E0               [ 8]  281 	movx	a,@dptr
      000056 F5 F0            [ 8]  282 	mov	b,a
      000058 A3               [12]  283 	inc	dptr
      000059 E0               [ 8]  284 	movx	a,@dptr
      00005A C0 E0            [ 8]  285 	push	acc
      00005C A3               [12]  286 	inc	dptr
      00005D E0               [ 8]  287 	movx	a,@dptr
      00005E FC               [ 4]  288 	mov	r4,a
      00005F A3               [12]  289 	inc	dptr
      000060 E0               [ 8]  290 	movx	a,@dptr
      000061 FD               [ 4]  291 	mov	r5,a
      000062 A3               [12]  292 	inc	dptr
      000063 E0               [ 8]  293 	movx	a,@dptr
      000064 FE               [ 4]  294 	mov	r6,a
      000065 D0 E0            [ 8]  295 	pop	acc
      000067 75 86 00         [12]  296 	mov	dps,#0
      00006A 12s00r00r00      [16]  297 	lcall	__mullonglong
      00006E AB 82            [ 8]  298 	mov	r3,dpl
      000070 AF 83            [ 8]  299 	mov	r7,dph
      000072 A8 93            [ 8]  300 	mov	r0,dpx
      000074 A9 F0            [ 8]  301 	mov	r1,b
      000076 FA               [ 4]  302 	mov	r2,a
                                    303 ;	genAssign: resultIsFar = TRUE
      000077 90s00r00r14      [12]  304 	mov	dptr,#___ckd_mul_schar_result_65536_42
      00007B EB               [ 4]  305 	mov	a,r3
      00007C F0               [ 8]  306 	movx	@dptr,a
      00007D A3               [12]  307 	inc	dptr
      00007E EF               [ 4]  308 	mov	a,r7
      00007F F0               [ 8]  309 	movx	@dptr,a
      000080 A3               [12]  310 	inc	dptr
      000081 E8               [ 4]  311 	mov	a,r0
      000082 F0               [ 8]  312 	movx	@dptr,a
      000083 A3               [12]  313 	inc	dptr
      000084 E9               [ 4]  314 	mov	a,r1
      000085 F0               [ 8]  315 	movx	@dptr,a
      000086 A3               [12]  316 	inc	dptr
      000087 EA               [ 4]  317 	mov	a,r2
      000088 F0               [ 8]  318 	movx	@dptr,a
      000089 A3               [12]  319 	inc	dptr
      00008A EC               [ 4]  320 	mov	a,r4
      00008B F0               [ 8]  321 	movx	@dptr,a
      00008C A3               [12]  322 	inc	dptr
      00008D ED               [ 4]  323 	mov	a,r5
      00008E F0               [ 8]  324 	movx	@dptr,a
      00008F A3               [12]  325 	inc	dptr
      000090 EE               [ 4]  326 	mov	a,r6
      000091 F0               [ 8]  327 	movx	@dptr,a
      000092 90s00r00r14      [12]  328 	mov	dptr,#___ckd_mul_schar_result_65536_42
      000096 E0               [ 8]  329 	movx	a,@dptr
      000097 FA               [ 4]  330 	mov	r2,a
      000098 90s00r00r10      [12]  331 	mov	dptr,#___ckd_mul_schar_r_65536_41
      00009C E0               [ 8]  332 	movx	a,@dptr
      00009D C0 E0            [ 8]  333 	push	acc
      00009F A3               [12]  334 	inc	dptr
      0000A0 E0               [ 8]  335 	movx	a,@dptr
      0000A1 C0 E0            [ 8]  336 	push	acc
      0000A3 A3               [12]  337 	inc	dptr
      0000A4 E0               [ 8]  338 	movx	a,@dptr
      0000A5 C0 E0            [ 8]  339 	push	acc
      0000A7 A3               [12]  340 	inc	dptr
      0000A8 E0               [ 8]  341 	movx	a,@dptr
      0000A9 F5 F0            [ 8]  342 	mov	b,a
      0000AB D0 93            [ 8]  343 	pop	dpx
      0000AD D0 83            [ 8]  344 	pop	dph
      0000AF D0 82            [ 8]  345 	pop	dpl
      0000B1 EA               [ 4]  346 	mov  a,r2
      0000B2 12s00r00r00      [16]  347 	lcall __gptrput
      0000B6 33               [ 4]  348 	rlc	a
      0000B7 95 E0            [ 8]  349 	subb	a,acc
      0000B9 FB               [ 4]  350 	mov	r3,a
      0000BA FC               [ 4]  351 	mov	r4,a
      0000BB FD               [ 4]  352 	mov	r5,a
      0000BC FE               [ 4]  353 	mov	r6,a
      0000BD FF               [ 4]  354 	mov	r7,a
      0000BE F8               [ 4]  355 	mov	r0,a
      0000BF F9               [ 4]  356 	mov	r1,a
      0000C0 90s00r00r14      [12]  357 	mov	dptr,#___ckd_mul_schar_result_65536_42
      0000C4 8A F0            [ 8]  358 	mov	b,r2
      0000C6 E0               [ 8]  359 	movx	a,@dptr
      0000C7 B5 F0 35         [16]  360 	cjne	a,b,00103$
      0000CA 8B F0            [ 8]  361 	mov	b,r3
      0000CC A3               [12]  362 	inc	dptr
      0000CD E0               [ 8]  363 	movx	a,@dptr
      0000CE B5 F0 2E         [16]  364 	cjne	a,b,00103$
      0000D1 8C F0            [ 8]  365 	mov	b,r4
      0000D3 A3               [12]  366 	inc	dptr
      0000D4 E0               [ 8]  367 	movx	a,@dptr
      0000D5 B5 F0 27         [16]  368 	cjne	a,b,00103$
      0000D8 8D F0            [ 8]  369 	mov	b,r5
      0000DA A3               [12]  370 	inc	dptr
      0000DB E0               [ 8]  371 	movx	a,@dptr
      0000DC B5 F0 20         [16]  372 	cjne	a,b,00103$
      0000DF 8E F0            [ 8]  373 	mov	b,r6
      0000E1 A3               [12]  374 	inc	dptr
      0000E2 E0               [ 8]  375 	movx	a,@dptr
      0000E3 B5 F0 19         [16]  376 	cjne	a,b,00103$
      0000E6 8F F0            [ 8]  377 	mov	b,r7
      0000E8 A3               [12]  378 	inc	dptr
      0000E9 E0               [ 8]  379 	movx	a,@dptr
      0000EA B5 F0 12         [16]  380 	cjne	a,b,00103$
      0000ED 88 F0            [ 8]  381 	mov	b,r0
      0000EF A3               [12]  382 	inc	dptr
      0000F0 E0               [ 8]  383 	movx	a,@dptr
      0000F1 B5 F0 0B         [16]  384 	cjne	a,b,00103$
      0000F4 89 F0            [ 8]  385 	mov	b,r1
      0000F6 A3               [12]  386 	inc	dptr
      0000F7 E0               [ 8]  387 	movx	a,@dptr
      0000F8 B5 F0 04         [16]  388 	cjne	a,b,00103$
      0000FB 74 01            [ 8]  389 	mov	a,#0x01
      0000FD 80 01            [12]  390 	sjmp	00104$
      0000FF                        391 00103$:
      0000FF E4               [ 4]  392 	clr	a
      000100                        393 00104$:
      000100 24 FF            [ 8]  394 	add	a,#0xff
      000102 92*00            [ 8]  395 	mov	___ckd_mul_schar_sloc0_1_0,c
      000104 B2*00            [ 8]  396 	cpl	___ckd_mul_schar_sloc0_1_0
      000106 A2*00            [ 8]  397 	mov	c,___ckd_mul_schar_sloc0_1_0
      000108 E4               [ 4]  398 	clr	a
      000109 33               [ 4]  399 	rlc	a
      00010A F5 82            [ 8]  400 	mov	dpl,a
      00010C                        401 00101$:
      00010C 22               [16]  402 	ret
                                    403 ;------------------------------------------------------------
                                    404 ;Allocation info for local variables in function '__ckd_mul_uchar'
                                    405 ;------------------------------------------------------------
                                    406 ;a                         Allocated with name '___ckd_mul_uchar_PARM_2'
                                    407 ;b                         Allocated with name '___ckd_mul_uchar_PARM_3'
                                    408 ;r                         Allocated with name '___ckd_mul_uchar_r_65536_43'
                                    409 ;result                    Allocated with name '___ckd_mul_uchar_result_65536_44'
                                    410 ;------------------------------------------------------------
                                    411 ;	../../device/include/stdckdint.h:70: inline _Bool __ckd_mul_uchar __CKD_DEFAULT_IMPL(unsigned char, *)
                                    412 ;	-----------------------------------------
                                    413 ;	 function __ckd_mul_uchar
                                    414 ;	-----------------------------------------
      00010D                        415 ___ckd_mul_uchar:
      00010D 75 86 01         [12]  416 	mov     dps, #1
      000110 90s00r00r2C      [12]  417 	mov     dptr, #___ckd_mul_uchar_r_65536_43
      000114 E5 82            [ 8]  418 	mov	a,dpl
      000116 F0               [ 8]  419 	movx	@dptr,a
      000117 A3               [12]  420 	inc	dptr
      000118 E5 83            [ 8]  421 	mov	a,dph
      00011A F0               [ 8]  422 	movx	@dptr,a
      00011B A3               [12]  423 	inc	dptr
      00011C E5 93            [ 8]  424 	mov	a,dpx
      00011E F0               [ 8]  425 	movx	@dptr,a
      00011F A3               [12]  426 	inc	dptr
      000120 E5 F0            [ 8]  427 	mov	a,b
      000122 F0               [ 8]  428 	movx	@dptr,a
      000123 75 86 00         [12]  429 	mov	dps,#0
      000126 90s00r00r24      [12]  430 	mov	dptr,#___ckd_mul_uchar_PARM_3
                                    431 ;	genAssign: resultIsFar = TRUE
      00012A 75 86 21         [12]  432 	mov	dps,#0x21
      00012D 90s00r00r00      [12]  433 	mov	dptr,#__mullonglong_PARM_2
      000131 E0               [ 8]  434 	movx	a,@dptr
      000132 F0               [ 8]  435 	movx	@dptr,a
      000133 A3               [12]  436 	inc	dptr
      000134 A3               [12]  437 	inc	dptr
      000135 E0               [ 8]  438 	movx	a,@dptr
      000136 F0               [ 8]  439 	movx	@dptr,a
      000137 A3               [12]  440 	inc	dptr
      000138 A3               [12]  441 	inc	dptr
      000139 E0               [ 8]  442 	movx	a,@dptr
      00013A F0               [ 8]  443 	movx	@dptr,a
      00013B A3               [12]  444 	inc	dptr
      00013C A3               [12]  445 	inc	dptr
      00013D E0               [ 8]  446 	movx	a,@dptr
      00013E F0               [ 8]  447 	movx	@dptr,a
      00013F A3               [12]  448 	inc	dptr
      000140 A3               [12]  449 	inc	dptr
      000141 E0               [ 8]  450 	movx	a,@dptr
      000142 F0               [ 8]  451 	movx	@dptr,a
      000143 A3               [12]  452 	inc	dptr
      000144 A3               [12]  453 	inc	dptr
      000145 E0               [ 8]  454 	movx	a,@dptr
      000146 F0               [ 8]  455 	movx	@dptr,a
      000147 A3               [12]  456 	inc	dptr
      000148 A3               [12]  457 	inc	dptr
      000149 E0               [ 8]  458 	movx	a,@dptr
      00014A F0               [ 8]  459 	movx	@dptr,a
      00014B A3               [12]  460 	inc	dptr
      00014C A3               [12]  461 	inc	dptr
      00014D E0               [ 8]  462 	movx	a,@dptr
      00014E F0               [ 8]  463 	movx	@dptr,a
      00014F 75 86 01         [12]  464 	mov	dps, #1
      000152 90s00r00r1C      [12]  465 	mov	dptr,#___ckd_mul_uchar_PARM_2
      000156 E0               [ 8]  466 	movx	a,@dptr
      000157 F5 82            [ 8]  467 	mov	dpl,a
      000159 A3               [12]  468 	inc	dptr
      00015A E0               [ 8]  469 	movx	a,@dptr
      00015B F5 83            [ 8]  470 	mov	dph,a
      00015D A3               [12]  471 	inc	dptr
      00015E E0               [ 8]  472 	movx	a,@dptr
      00015F F5 93            [ 8]  473 	mov	dpx,a
      000161 A3               [12]  474 	inc	dptr
      000162 E0               [ 8]  475 	movx	a,@dptr
      000163 F5 F0            [ 8]  476 	mov	b,a
      000165 A3               [12]  477 	inc	dptr
      000166 E0               [ 8]  478 	movx	a,@dptr
      000167 C0 E0            [ 8]  479 	push	acc
      000169 A3               [12]  480 	inc	dptr
      00016A E0               [ 8]  481 	movx	a,@dptr
      00016B FC               [ 4]  482 	mov	r4,a
      00016C A3               [12]  483 	inc	dptr
      00016D E0               [ 8]  484 	movx	a,@dptr
      00016E FD               [ 4]  485 	mov	r5,a
      00016F A3               [12]  486 	inc	dptr
      000170 E0               [ 8]  487 	movx	a,@dptr
      000171 FE               [ 4]  488 	mov	r6,a
      000172 D0 E0            [ 8]  489 	pop	acc
      000174 75 86 00         [12]  490 	mov	dps,#0
      000177 12s00r00r00      [16]  491 	lcall	__mullonglong
      00017B AB 82            [ 8]  492 	mov	r3,dpl
      00017D AF 83            [ 8]  493 	mov	r7,dph
      00017F A8 93            [ 8]  494 	mov	r0,dpx
      000181 A9 F0            [ 8]  495 	mov	r1,b
      000183 FA               [ 4]  496 	mov	r2,a
                                    497 ;	genAssign: resultIsFar = TRUE
      000184 90s00r00r30      [12]  498 	mov	dptr,#___ckd_mul_uchar_result_65536_44
      000188 EB               [ 4]  499 	mov	a,r3
      000189 F0               [ 8]  500 	movx	@dptr,a
      00018A A3               [12]  501 	inc	dptr
      00018B EF               [ 4]  502 	mov	a,r7
      00018C F0               [ 8]  503 	movx	@dptr,a
      00018D A3               [12]  504 	inc	dptr
      00018E E8               [ 4]  505 	mov	a,r0
      00018F F0               [ 8]  506 	movx	@dptr,a
      000190 A3               [12]  507 	inc	dptr
      000191 E9               [ 4]  508 	mov	a,r1
      000192 F0               [ 8]  509 	movx	@dptr,a
      000193 A3               [12]  510 	inc	dptr
      000194 EA               [ 4]  511 	mov	a,r2
      000195 F0               [ 8]  512 	movx	@dptr,a
      000196 A3               [12]  513 	inc	dptr
      000197 EC               [ 4]  514 	mov	a,r4
      000198 F0               [ 8]  515 	movx	@dptr,a
      000199 A3               [12]  516 	inc	dptr
      00019A ED               [ 4]  517 	mov	a,r5
      00019B F0               [ 8]  518 	movx	@dptr,a
      00019C A3               [12]  519 	inc	dptr
      00019D EE               [ 4]  520 	mov	a,r6
      00019E F0               [ 8]  521 	movx	@dptr,a
      00019F 90s00r00r30      [12]  522 	mov	dptr,#___ckd_mul_uchar_result_65536_44
      0001A3 E0               [ 8]  523 	movx	a,@dptr
      0001A4 FA               [ 4]  524 	mov	r2,a
      0001A5 90s00r00r2C      [12]  525 	mov	dptr,#___ckd_mul_uchar_r_65536_43
      0001A9 E0               [ 8]  526 	movx	a,@dptr
      0001AA C0 E0            [ 8]  527 	push	acc
      0001AC A3               [12]  528 	inc	dptr
      0001AD E0               [ 8]  529 	movx	a,@dptr
      0001AE C0 E0            [ 8]  530 	push	acc
      0001B0 A3               [12]  531 	inc	dptr
      0001B1 E0               [ 8]  532 	movx	a,@dptr
      0001B2 C0 E0            [ 8]  533 	push	acc
      0001B4 A3               [12]  534 	inc	dptr
      0001B5 E0               [ 8]  535 	movx	a,@dptr
      0001B6 F5 F0            [ 8]  536 	mov	b,a
      0001B8 D0 93            [ 8]  537 	pop	dpx
      0001BA D0 83            [ 8]  538 	pop	dph
      0001BC D0 82            [ 8]  539 	pop	dpl
      0001BE EA               [ 4]  540 	mov	a,r2
      0001BF 12s00r00r00      [16]  541 	lcall	__gptrput
      0001C3 7B 00            [ 8]  542 	mov	r3,#0x00
      0001C5 7C 00            [ 8]  543 	mov	r4,#0x00
      0001C7 7D 00            [ 8]  544 	mov	r5,#0x00
      0001C9 7E 00            [ 8]  545 	mov	r6,#0x00
      0001CB 7F 00            [ 8]  546 	mov	r7,#0x00
      0001CD 78 00            [ 8]  547 	mov	r0,#0x00
      0001CF 79 00            [ 8]  548 	mov	r1,#0x00
      0001D1 90s00r00r30      [12]  549 	mov	dptr,#___ckd_mul_uchar_result_65536_44
      0001D5 8A F0            [ 8]  550 	mov	b,r2
      0001D7 E0               [ 8]  551 	movx	a,@dptr
      0001D8 B5 F0 35         [16]  552 	cjne	a,b,00103$
      0001DB 8B F0            [ 8]  553 	mov	b,r3
      0001DD A3               [12]  554 	inc	dptr
      0001DE E0               [ 8]  555 	movx	a,@dptr
      0001DF B5 F0 2E         [16]  556 	cjne	a,b,00103$
      0001E2 8C F0            [ 8]  557 	mov	b,r4
      0001E4 A3               [12]  558 	inc	dptr
      0001E5 E0               [ 8]  559 	movx	a,@dptr
      0001E6 B5 F0 27         [16]  560 	cjne	a,b,00103$
      0001E9 8D F0            [ 8]  561 	mov	b,r5
      0001EB A3               [12]  562 	inc	dptr
      0001EC E0               [ 8]  563 	movx	a,@dptr
      0001ED B5 F0 20         [16]  564 	cjne	a,b,00103$
      0001F0 8E F0            [ 8]  565 	mov	b,r6
      0001F2 A3               [12]  566 	inc	dptr
      0001F3 E0               [ 8]  567 	movx	a,@dptr
      0001F4 B5 F0 19         [16]  568 	cjne	a,b,00103$
      0001F7 8F F0            [ 8]  569 	mov	b,r7
      0001F9 A3               [12]  570 	inc	dptr
      0001FA E0               [ 8]  571 	movx	a,@dptr
      0001FB B5 F0 12         [16]  572 	cjne	a,b,00103$
      0001FE 88 F0            [ 8]  573 	mov	b,r0
      000200 A3               [12]  574 	inc	dptr
      000201 E0               [ 8]  575 	movx	a,@dptr
      000202 B5 F0 0B         [16]  576 	cjne	a,b,00103$
      000205 89 F0            [ 8]  577 	mov	b,r1
      000207 A3               [12]  578 	inc	dptr
      000208 E0               [ 8]  579 	movx	a,@dptr
      000209 B5 F0 04         [16]  580 	cjne	a,b,00103$
      00020C 74 01            [ 8]  581 	mov	a,#0x01
      00020E 80 01            [12]  582 	sjmp	00104$
      000210                        583 00103$:
      000210 E4               [ 4]  584 	clr	a
      000211                        585 00104$:
      000211 24 FF            [ 8]  586 	add	a,#0xff
      000213 92*01            [ 8]  587 	mov	___ckd_mul_uchar_sloc0_1_0,c
      000215 B2*01            [ 8]  588 	cpl	___ckd_mul_uchar_sloc0_1_0
      000217 A2*01            [ 8]  589 	mov	c,___ckd_mul_uchar_sloc0_1_0
      000219 E4               [ 4]  590 	clr	a
      00021A 33               [ 4]  591 	rlc	a
      00021B F5 82            [ 8]  592 	mov	dpl,a
      00021D                        593 00101$:
      00021D 22               [16]  594 	ret
                                    595 ;------------------------------------------------------------
                                    596 ;Allocation info for local variables in function '__ckd_mul_short'
                                    597 ;------------------------------------------------------------
                                    598 ;a                         Allocated with name '___ckd_mul_short_PARM_2'
                                    599 ;b                         Allocated with name '___ckd_mul_short_PARM_3'
                                    600 ;r                         Allocated with name '___ckd_mul_short_r_65536_45'
                                    601 ;result                    Allocated with name '___ckd_mul_short_result_65536_46'
                                    602 ;------------------------------------------------------------
                                    603 ;	../../device/include/stdckdint.h:71: inline _Bool __ckd_mul_short __CKD_DEFAULT_IMPL(short, *)
                                    604 ;	-----------------------------------------
                                    605 ;	 function __ckd_mul_short
                                    606 ;	-----------------------------------------
      00021E                        607 ___ckd_mul_short:
      00021E 75 86 01         [12]  608 	mov     dps, #1
      000221 90s00r00r48      [12]  609 	mov     dptr, #___ckd_mul_short_r_65536_45
      000225 E5 82            [ 8]  610 	mov	a,dpl
      000227 F0               [ 8]  611 	movx	@dptr,a
      000228 A3               [12]  612 	inc	dptr
      000229 E5 83            [ 8]  613 	mov	a,dph
      00022B F0               [ 8]  614 	movx	@dptr,a
      00022C A3               [12]  615 	inc	dptr
      00022D E5 93            [ 8]  616 	mov	a,dpx
      00022F F0               [ 8]  617 	movx	@dptr,a
      000230 A3               [12]  618 	inc	dptr
      000231 E5 F0            [ 8]  619 	mov	a,b
      000233 F0               [ 8]  620 	movx	@dptr,a
      000234 75 86 00         [12]  621 	mov	dps,#0
      000237 90s00r00r40      [12]  622 	mov	dptr,#___ckd_mul_short_PARM_3
                                    623 ;	genAssign: resultIsFar = TRUE
      00023B 75 86 21         [12]  624 	mov	dps,#0x21
      00023E 90s00r00r00      [12]  625 	mov	dptr,#__mullonglong_PARM_2
      000242 E0               [ 8]  626 	movx	a,@dptr
      000243 F0               [ 8]  627 	movx	@dptr,a
      000244 A3               [12]  628 	inc	dptr
      000245 A3               [12]  629 	inc	dptr
      000246 E0               [ 8]  630 	movx	a,@dptr
      000247 F0               [ 8]  631 	movx	@dptr,a
      000248 A3               [12]  632 	inc	dptr
      000249 A3               [12]  633 	inc	dptr
      00024A E0               [ 8]  634 	movx	a,@dptr
      00024B F0               [ 8]  635 	movx	@dptr,a
      00024C A3               [12]  636 	inc	dptr
      00024D A3               [12]  637 	inc	dptr
      00024E E0               [ 8]  638 	movx	a,@dptr
      00024F F0               [ 8]  639 	movx	@dptr,a
      000250 A3               [12]  640 	inc	dptr
      000251 A3               [12]  641 	inc	dptr
      000252 E0               [ 8]  642 	movx	a,@dptr
      000253 F0               [ 8]  643 	movx	@dptr,a
      000254 A3               [12]  644 	inc	dptr
      000255 A3               [12]  645 	inc	dptr
      000256 E0               [ 8]  646 	movx	a,@dptr
      000257 F0               [ 8]  647 	movx	@dptr,a
      000258 A3               [12]  648 	inc	dptr
      000259 A3               [12]  649 	inc	dptr
      00025A E0               [ 8]  650 	movx	a,@dptr
      00025B F0               [ 8]  651 	movx	@dptr,a
      00025C A3               [12]  652 	inc	dptr
      00025D A3               [12]  653 	inc	dptr
      00025E E0               [ 8]  654 	movx	a,@dptr
      00025F F0               [ 8]  655 	movx	@dptr,a
      000260 75 86 01         [12]  656 	mov	dps, #1
      000263 90s00r00r38      [12]  657 	mov	dptr,#___ckd_mul_short_PARM_2
      000267 E0               [ 8]  658 	movx	a,@dptr
      000268 F5 82            [ 8]  659 	mov	dpl,a
      00026A A3               [12]  660 	inc	dptr
      00026B E0               [ 8]  661 	movx	a,@dptr
      00026C F5 83            [ 8]  662 	mov	dph,a
      00026E A3               [12]  663 	inc	dptr
      00026F E0               [ 8]  664 	movx	a,@dptr
      000270 F5 93            [ 8]  665 	mov	dpx,a
      000272 A3               [12]  666 	inc	dptr
      000273 E0               [ 8]  667 	movx	a,@dptr
      000274 F5 F0            [ 8]  668 	mov	b,a
      000276 A3               [12]  669 	inc	dptr
      000277 E0               [ 8]  670 	movx	a,@dptr
      000278 C0 E0            [ 8]  671 	push	acc
      00027A A3               [12]  672 	inc	dptr
      00027B E0               [ 8]  673 	movx	a,@dptr
      00027C FC               [ 4]  674 	mov	r4,a
      00027D A3               [12]  675 	inc	dptr
      00027E E0               [ 8]  676 	movx	a,@dptr
      00027F FD               [ 4]  677 	mov	r5,a
      000280 A3               [12]  678 	inc	dptr
      000281 E0               [ 8]  679 	movx	a,@dptr
      000282 FE               [ 4]  680 	mov	r6,a
      000283 D0 E0            [ 8]  681 	pop	acc
      000285 75 86 00         [12]  682 	mov	dps,#0
      000288 12s00r00r00      [16]  683 	lcall	__mullonglong
      00028C AB 82            [ 8]  684 	mov	r3,dpl
      00028E AF 83            [ 8]  685 	mov	r7,dph
      000290 A8 93            [ 8]  686 	mov	r0,dpx
      000292 A9 F0            [ 8]  687 	mov	r1,b
      000294 FA               [ 4]  688 	mov	r2,a
                                    689 ;	genAssign: resultIsFar = TRUE
      000295 90s00r00r4C      [12]  690 	mov	dptr,#___ckd_mul_short_result_65536_46
      000299 EB               [ 4]  691 	mov	a,r3
      00029A F0               [ 8]  692 	movx	@dptr,a
      00029B A3               [12]  693 	inc	dptr
      00029C EF               [ 4]  694 	mov	a,r7
      00029D F0               [ 8]  695 	movx	@dptr,a
      00029E A3               [12]  696 	inc	dptr
      00029F E8               [ 4]  697 	mov	a,r0
      0002A0 F0               [ 8]  698 	movx	@dptr,a
      0002A1 A3               [12]  699 	inc	dptr
      0002A2 E9               [ 4]  700 	mov	a,r1
      0002A3 F0               [ 8]  701 	movx	@dptr,a
      0002A4 A3               [12]  702 	inc	dptr
      0002A5 EA               [ 4]  703 	mov	a,r2
      0002A6 F0               [ 8]  704 	movx	@dptr,a
      0002A7 A3               [12]  705 	inc	dptr
      0002A8 EC               [ 4]  706 	mov	a,r4
      0002A9 F0               [ 8]  707 	movx	@dptr,a
      0002AA A3               [12]  708 	inc	dptr
      0002AB ED               [ 4]  709 	mov	a,r5
      0002AC F0               [ 8]  710 	movx	@dptr,a
      0002AD A3               [12]  711 	inc	dptr
      0002AE EE               [ 4]  712 	mov	a,r6
      0002AF F0               [ 8]  713 	movx	@dptr,a
      0002B0 90s00r00r4C      [12]  714 	mov	dptr,#___ckd_mul_short_result_65536_46
      0002B4 E0               [ 8]  715 	movx	a,@dptr
      0002B5 FA               [ 4]  716 	mov	r2,a
      0002B6 A3               [12]  717 	inc	dptr
      0002B7 E0               [ 8]  718 	movx	a,@dptr
      0002B8 FB               [ 4]  719 	mov	r3,a
      0002B9 90s00r00r48      [12]  720 	mov	dptr,#___ckd_mul_short_r_65536_45
      0002BD E0               [ 8]  721 	movx	a,@dptr
      0002BE C0 E0            [ 8]  722 	push	acc
      0002C0 A3               [12]  723 	inc	dptr
      0002C1 E0               [ 8]  724 	movx	a,@dptr
      0002C2 C0 E0            [ 8]  725 	push	acc
      0002C4 A3               [12]  726 	inc	dptr
      0002C5 E0               [ 8]  727 	movx	a,@dptr
      0002C6 C0 E0            [ 8]  728 	push	acc
      0002C8 A3               [12]  729 	inc	dptr
      0002C9 E0               [ 8]  730 	movx	a,@dptr
      0002CA F5 F0            [ 8]  731 	mov	b,a
      0002CC D0 93            [ 8]  732 	pop	dpx
      0002CE D0 83            [ 8]  733 	pop	dph
      0002D0 D0 82            [ 8]  734 	pop	dpl
      0002D2 8A 9C            [ 8]  735 	mov	acc1, r2
      0002D4 EB               [ 4]  736 	mov	a,r3
      0002D5 12s00r00r00      [16]  737 	lcall	__gptrputWord
      0002D9 EB               [ 4]  738 	mov	a,r3
      0002DA 33               [ 4]  739 	rlc	a
      0002DB 95 E0            [ 8]  740 	subb	a,acc
      0002DD FC               [ 4]  741 	mov	r4,a
      0002DE FD               [ 4]  742 	mov	r5,a
      0002DF FE               [ 4]  743 	mov	r6,a
      0002E0 FF               [ 4]  744 	mov	r7,a
      0002E1 F8               [ 4]  745 	mov	r0,a
      0002E2 F9               [ 4]  746 	mov	r1,a
      0002E3 90s00r00r4C      [12]  747 	mov	dptr,#___ckd_mul_short_result_65536_46
      0002E7 8A F0            [ 8]  748 	mov	b,r2
      0002E9 E0               [ 8]  749 	movx	a,@dptr
      0002EA B5 F0 35         [16]  750 	cjne	a,b,00103$
      0002ED 8B F0            [ 8]  751 	mov	b,r3
      0002EF A3               [12]  752 	inc	dptr
      0002F0 E0               [ 8]  753 	movx	a,@dptr
      0002F1 B5 F0 2E         [16]  754 	cjne	a,b,00103$
      0002F4 8C F0            [ 8]  755 	mov	b,r4
      0002F6 A3               [12]  756 	inc	dptr
      0002F7 E0               [ 8]  757 	movx	a,@dptr
      0002F8 B5 F0 27         [16]  758 	cjne	a,b,00103$
      0002FB 8D F0            [ 8]  759 	mov	b,r5
      0002FD A3               [12]  760 	inc	dptr
      0002FE E0               [ 8]  761 	movx	a,@dptr
      0002FF B5 F0 20         [16]  762 	cjne	a,b,00103$
      000302 8E F0            [ 8]  763 	mov	b,r6
      000304 A3               [12]  764 	inc	dptr
      000305 E0               [ 8]  765 	movx	a,@dptr
      000306 B5 F0 19         [16]  766 	cjne	a,b,00103$
      000309 8F F0            [ 8]  767 	mov	b,r7
      00030B A3               [12]  768 	inc	dptr
      00030C E0               [ 8]  769 	movx	a,@dptr
      00030D B5 F0 12         [16]  770 	cjne	a,b,00103$
      000310 88 F0            [ 8]  771 	mov	b,r0
      000312 A3               [12]  772 	inc	dptr
      000313 E0               [ 8]  773 	movx	a,@dptr
      000314 B5 F0 0B         [16]  774 	cjne	a,b,00103$
      000317 89 F0            [ 8]  775 	mov	b,r1
      000319 A3               [12]  776 	inc	dptr
      00031A E0               [ 8]  777 	movx	a,@dptr
      00031B B5 F0 04         [16]  778 	cjne	a,b,00103$
      00031E 74 01            [ 8]  779 	mov	a,#0x01
      000320 80 01            [12]  780 	sjmp	00104$
      000322                        781 00103$:
      000322 E4               [ 4]  782 	clr	a
      000323                        783 00104$:
      000323 24 FF            [ 8]  784 	add	a,#0xff
      000325 92*02            [ 8]  785 	mov	___ckd_mul_short_sloc0_1_0,c
      000327 B2*02            [ 8]  786 	cpl	___ckd_mul_short_sloc0_1_0
      000329 A2*02            [ 8]  787 	mov	c,___ckd_mul_short_sloc0_1_0
      00032B E4               [ 4]  788 	clr	a
      00032C 33               [ 4]  789 	rlc	a
      00032D F5 82            [ 8]  790 	mov	dpl,a
      00032F                        791 00101$:
      00032F 22               [16]  792 	ret
                                    793 ;------------------------------------------------------------
                                    794 ;Allocation info for local variables in function '__ckd_mul_ushort'
                                    795 ;------------------------------------------------------------
                                    796 ;a                         Allocated with name '___ckd_mul_ushort_PARM_2'
                                    797 ;b                         Allocated with name '___ckd_mul_ushort_PARM_3'
                                    798 ;r                         Allocated with name '___ckd_mul_ushort_r_65536_47'
                                    799 ;result                    Allocated with name '___ckd_mul_ushort_result_65536_48'
                                    800 ;------------------------------------------------------------
                                    801 ;	../../device/include/stdckdint.h:72: inline _Bool __ckd_mul_ushort __CKD_DEFAULT_IMPL(unsigned short, *)
                                    802 ;	-----------------------------------------
                                    803 ;	 function __ckd_mul_ushort
                                    804 ;	-----------------------------------------
      000330                        805 ___ckd_mul_ushort:
      000330 75 86 01         [12]  806 	mov     dps, #1
      000333 90s00r00r64      [12]  807 	mov     dptr, #___ckd_mul_ushort_r_65536_47
      000337 E5 82            [ 8]  808 	mov	a,dpl
      000339 F0               [ 8]  809 	movx	@dptr,a
      00033A A3               [12]  810 	inc	dptr
      00033B E5 83            [ 8]  811 	mov	a,dph
      00033D F0               [ 8]  812 	movx	@dptr,a
      00033E A3               [12]  813 	inc	dptr
      00033F E5 93            [ 8]  814 	mov	a,dpx
      000341 F0               [ 8]  815 	movx	@dptr,a
      000342 A3               [12]  816 	inc	dptr
      000343 E5 F0            [ 8]  817 	mov	a,b
      000345 F0               [ 8]  818 	movx	@dptr,a
      000346 75 86 00         [12]  819 	mov	dps,#0
      000349 90s00r00r5C      [12]  820 	mov	dptr,#___ckd_mul_ushort_PARM_3
                                    821 ;	genAssign: resultIsFar = TRUE
      00034D 75 86 21         [12]  822 	mov	dps,#0x21
      000350 90s00r00r00      [12]  823 	mov	dptr,#__mullonglong_PARM_2
      000354 E0               [ 8]  824 	movx	a,@dptr
      000355 F0               [ 8]  825 	movx	@dptr,a
      000356 A3               [12]  826 	inc	dptr
      000357 A3               [12]  827 	inc	dptr
      000358 E0               [ 8]  828 	movx	a,@dptr
      000359 F0               [ 8]  829 	movx	@dptr,a
      00035A A3               [12]  830 	inc	dptr
      00035B A3               [12]  831 	inc	dptr
      00035C E0               [ 8]  832 	movx	a,@dptr
      00035D F0               [ 8]  833 	movx	@dptr,a
      00035E A3               [12]  834 	inc	dptr
      00035F A3               [12]  835 	inc	dptr
      000360 E0               [ 8]  836 	movx	a,@dptr
      000361 F0               [ 8]  837 	movx	@dptr,a
      000362 A3               [12]  838 	inc	dptr
      000363 A3               [12]  839 	inc	dptr
      000364 E0               [ 8]  840 	movx	a,@dptr
      000365 F0               [ 8]  841 	movx	@dptr,a
      000366 A3               [12]  842 	inc	dptr
      000367 A3               [12]  843 	inc	dptr
      000368 E0               [ 8]  844 	movx	a,@dptr
      000369 F0               [ 8]  845 	movx	@dptr,a
      00036A A3               [12]  846 	inc	dptr
      00036B A3               [12]  847 	inc	dptr
      00036C E0               [ 8]  848 	movx	a,@dptr
      00036D F0               [ 8]  849 	movx	@dptr,a
      00036E A3               [12]  850 	inc	dptr
      00036F A3               [12]  851 	inc	dptr
      000370 E0               [ 8]  852 	movx	a,@dptr
      000371 F0               [ 8]  853 	movx	@dptr,a
      000372 75 86 01         [12]  854 	mov	dps, #1
      000375 90s00r00r54      [12]  855 	mov	dptr,#___ckd_mul_ushort_PARM_2
      000379 E0               [ 8]  856 	movx	a,@dptr
      00037A F5 82            [ 8]  857 	mov	dpl,a
      00037C A3               [12]  858 	inc	dptr
      00037D E0               [ 8]  859 	movx	a,@dptr
      00037E F5 83            [ 8]  860 	mov	dph,a
      000380 A3               [12]  861 	inc	dptr
      000381 E0               [ 8]  862 	movx	a,@dptr
      000382 F5 93            [ 8]  863 	mov	dpx,a
      000384 A3               [12]  864 	inc	dptr
      000385 E0               [ 8]  865 	movx	a,@dptr
      000386 F5 F0            [ 8]  866 	mov	b,a
      000388 A3               [12]  867 	inc	dptr
      000389 E0               [ 8]  868 	movx	a,@dptr
      00038A C0 E0            [ 8]  869 	push	acc
      00038C A3               [12]  870 	inc	dptr
      00038D E0               [ 8]  871 	movx	a,@dptr
      00038E FC               [ 4]  872 	mov	r4,a
      00038F A3               [12]  873 	inc	dptr
      000390 E0               [ 8]  874 	movx	a,@dptr
      000391 FD               [ 4]  875 	mov	r5,a
      000392 A3               [12]  876 	inc	dptr
      000393 E0               [ 8]  877 	movx	a,@dptr
      000394 FE               [ 4]  878 	mov	r6,a
      000395 D0 E0            [ 8]  879 	pop	acc
      000397 75 86 00         [12]  880 	mov	dps,#0
      00039A 12s00r00r00      [16]  881 	lcall	__mullonglong
      00039E AB 82            [ 8]  882 	mov	r3,dpl
      0003A0 AF 83            [ 8]  883 	mov	r7,dph
      0003A2 A8 93            [ 8]  884 	mov	r0,dpx
      0003A4 A9 F0            [ 8]  885 	mov	r1,b
      0003A6 FA               [ 4]  886 	mov	r2,a
                                    887 ;	genAssign: resultIsFar = TRUE
      0003A7 90s00r00r68      [12]  888 	mov	dptr,#___ckd_mul_ushort_result_65536_48
      0003AB EB               [ 4]  889 	mov	a,r3
      0003AC F0               [ 8]  890 	movx	@dptr,a
      0003AD A3               [12]  891 	inc	dptr
      0003AE EF               [ 4]  892 	mov	a,r7
      0003AF F0               [ 8]  893 	movx	@dptr,a
      0003B0 A3               [12]  894 	inc	dptr
      0003B1 E8               [ 4]  895 	mov	a,r0
      0003B2 F0               [ 8]  896 	movx	@dptr,a
      0003B3 A3               [12]  897 	inc	dptr
      0003B4 E9               [ 4]  898 	mov	a,r1
      0003B5 F0               [ 8]  899 	movx	@dptr,a
      0003B6 A3               [12]  900 	inc	dptr
      0003B7 EA               [ 4]  901 	mov	a,r2
      0003B8 F0               [ 8]  902 	movx	@dptr,a
      0003B9 A3               [12]  903 	inc	dptr
      0003BA EC               [ 4]  904 	mov	a,r4
      0003BB F0               [ 8]  905 	movx	@dptr,a
      0003BC A3               [12]  906 	inc	dptr
      0003BD ED               [ 4]  907 	mov	a,r5
      0003BE F0               [ 8]  908 	movx	@dptr,a
      0003BF A3               [12]  909 	inc	dptr
      0003C0 EE               [ 4]  910 	mov	a,r6
      0003C1 F0               [ 8]  911 	movx	@dptr,a
      0003C2 90s00r00r68      [12]  912 	mov	dptr,#___ckd_mul_ushort_result_65536_48
      0003C6 E0               [ 8]  913 	movx	a,@dptr
      0003C7 FA               [ 4]  914 	mov	r2,a
      0003C8 A3               [12]  915 	inc	dptr
      0003C9 E0               [ 8]  916 	movx	a,@dptr
      0003CA FB               [ 4]  917 	mov	r3,a
      0003CB 90s00r00r64      [12]  918 	mov	dptr,#___ckd_mul_ushort_r_65536_47
      0003CF E0               [ 8]  919 	movx	a,@dptr
      0003D0 C0 E0            [ 8]  920 	push	acc
      0003D2 A3               [12]  921 	inc	dptr
      0003D3 E0               [ 8]  922 	movx	a,@dptr
      0003D4 C0 E0            [ 8]  923 	push	acc
      0003D6 A3               [12]  924 	inc	dptr
      0003D7 E0               [ 8]  925 	movx	a,@dptr
      0003D8 C0 E0            [ 8]  926 	push	acc
      0003DA A3               [12]  927 	inc	dptr
      0003DB E0               [ 8]  928 	movx	a,@dptr
      0003DC F5 F0            [ 8]  929 	mov	b,a
      0003DE D0 93            [ 8]  930 	pop	dpx
      0003E0 D0 83            [ 8]  931 	pop	dph
      0003E2 D0 82            [ 8]  932 	pop	dpl
      0003E4 8A 9C            [ 8]  933 	mov	acc1, r2
      0003E6 EB               [ 4]  934 	mov	a,r3
      0003E7 12s00r00r00      [16]  935 	lcall	__gptrputWord
      0003EB 7C 00            [ 8]  936 	mov	r4,#0x00
      0003ED 7D 00            [ 8]  937 	mov	r5,#0x00
      0003EF 7E 00            [ 8]  938 	mov	r6,#0x00
      0003F1 7F 00            [ 8]  939 	mov	r7,#0x00
      0003F3 78 00            [ 8]  940 	mov	r0,#0x00
      0003F5 79 00            [ 8]  941 	mov	r1,#0x00
      0003F7 90s00r00r68      [12]  942 	mov	dptr,#___ckd_mul_ushort_result_65536_48
      0003FB 8A F0            [ 8]  943 	mov	b,r2
      0003FD E0               [ 8]  944 	movx	a,@dptr
      0003FE B5 F0 35         [16]  945 	cjne	a,b,00103$
      000401 8B F0            [ 8]  946 	mov	b,r3
      000403 A3               [12]  947 	inc	dptr
      000404 E0               [ 8]  948 	movx	a,@dptr
      000405 B5 F0 2E         [16]  949 	cjne	a,b,00103$
      000408 8C F0            [ 8]  950 	mov	b,r4
      00040A A3               [12]  951 	inc	dptr
      00040B E0               [ 8]  952 	movx	a,@dptr
      00040C B5 F0 27         [16]  953 	cjne	a,b,00103$
      00040F 8D F0            [ 8]  954 	mov	b,r5
      000411 A3               [12]  955 	inc	dptr
      000412 E0               [ 8]  956 	movx	a,@dptr
      000413 B5 F0 20         [16]  957 	cjne	a,b,00103$
      000416 8E F0            [ 8]  958 	mov	b,r6
      000418 A3               [12]  959 	inc	dptr
      000419 E0               [ 8]  960 	movx	a,@dptr
      00041A B5 F0 19         [16]  961 	cjne	a,b,00103$
      00041D 8F F0            [ 8]  962 	mov	b,r7
      00041F A3               [12]  963 	inc	dptr
      000420 E0               [ 8]  964 	movx	a,@dptr
      000421 B5 F0 12         [16]  965 	cjne	a,b,00103$
      000424 88 F0            [ 8]  966 	mov	b,r0
      000426 A3               [12]  967 	inc	dptr
      000427 E0               [ 8]  968 	movx	a,@dptr
      000428 B5 F0 0B         [16]  969 	cjne	a,b,00103$
      00042B 89 F0            [ 8]  970 	mov	b,r1
      00042D A3               [12]  971 	inc	dptr
      00042E E0               [ 8]  972 	movx	a,@dptr
      00042F B5 F0 04         [16]  973 	cjne	a,b,00103$
      000432 74 01            [ 8]  974 	mov	a,#0x01
      000434 80 01            [12]  975 	sjmp	00104$
      000436                        976 00103$:
      000436 E4               [ 4]  977 	clr	a
      000437                        978 00104$:
      000437 24 FF            [ 8]  979 	add	a,#0xff
      000439 92*03            [ 8]  980 	mov	___ckd_mul_ushort_sloc0_1_0,c
      00043B B2*03            [ 8]  981 	cpl	___ckd_mul_ushort_sloc0_1_0
      00043D A2*03            [ 8]  982 	mov	c,___ckd_mul_ushort_sloc0_1_0
      00043F E4               [ 4]  983 	clr	a
      000440 33               [ 4]  984 	rlc	a
      000441 F5 82            [ 8]  985 	mov	dpl,a
      000443                        986 00101$:
      000443 22               [16]  987 	ret
                                    988 ;------------------------------------------------------------
                                    989 ;Allocation info for local variables in function '__ckd_mul_int'
                                    990 ;------------------------------------------------------------
                                    991 ;a                         Allocated with name '___ckd_mul_int_PARM_2'
                                    992 ;b                         Allocated with name '___ckd_mul_int_PARM_3'
                                    993 ;r                         Allocated with name '___ckd_mul_int_r_65536_49'
                                    994 ;result                    Allocated with name '___ckd_mul_int_result_65536_50'
                                    995 ;------------------------------------------------------------
                                    996 ;	../../device/include/stdckdint.h:73: inline _Bool __ckd_mul_int __CKD_DEFAULT_IMPL(int, *)
                                    997 ;	-----------------------------------------
                                    998 ;	 function __ckd_mul_int
                                    999 ;	-----------------------------------------
      000444                       1000 ___ckd_mul_int:
      000444 75 86 01         [12] 1001 	mov     dps, #1
      000447 90s00r00r80      [12] 1002 	mov     dptr, #___ckd_mul_int_r_65536_49
      00044B E5 82            [ 8] 1003 	mov	a,dpl
      00044D F0               [ 8] 1004 	movx	@dptr,a
      00044E A3               [12] 1005 	inc	dptr
      00044F E5 83            [ 8] 1006 	mov	a,dph
      000451 F0               [ 8] 1007 	movx	@dptr,a
      000452 A3               [12] 1008 	inc	dptr
      000453 E5 93            [ 8] 1009 	mov	a,dpx
      000455 F0               [ 8] 1010 	movx	@dptr,a
      000456 A3               [12] 1011 	inc	dptr
      000457 E5 F0            [ 8] 1012 	mov	a,b
      000459 F0               [ 8] 1013 	movx	@dptr,a
      00045A 75 86 00         [12] 1014 	mov	dps,#0
      00045D 90s00r00r78      [12] 1015 	mov	dptr,#___ckd_mul_int_PARM_3
                                   1016 ;	genAssign: resultIsFar = TRUE
      000461 75 86 21         [12] 1017 	mov	dps,#0x21
      000464 90s00r00r00      [12] 1018 	mov	dptr,#__mullonglong_PARM_2
      000468 E0               [ 8] 1019 	movx	a,@dptr
      000469 F0               [ 8] 1020 	movx	@dptr,a
      00046A A3               [12] 1021 	inc	dptr
      00046B A3               [12] 1022 	inc	dptr
      00046C E0               [ 8] 1023 	movx	a,@dptr
      00046D F0               [ 8] 1024 	movx	@dptr,a
      00046E A3               [12] 1025 	inc	dptr
      00046F A3               [12] 1026 	inc	dptr
      000470 E0               [ 8] 1027 	movx	a,@dptr
      000471 F0               [ 8] 1028 	movx	@dptr,a
      000472 A3               [12] 1029 	inc	dptr
      000473 A3               [12] 1030 	inc	dptr
      000474 E0               [ 8] 1031 	movx	a,@dptr
      000475 F0               [ 8] 1032 	movx	@dptr,a
      000476 A3               [12] 1033 	inc	dptr
      000477 A3               [12] 1034 	inc	dptr
      000478 E0               [ 8] 1035 	movx	a,@dptr
      000479 F0               [ 8] 1036 	movx	@dptr,a
      00047A A3               [12] 1037 	inc	dptr
      00047B A3               [12] 1038 	inc	dptr
      00047C E0               [ 8] 1039 	movx	a,@dptr
      00047D F0               [ 8] 1040 	movx	@dptr,a
      00047E A3               [12] 1041 	inc	dptr
      00047F A3               [12] 1042 	inc	dptr
      000480 E0               [ 8] 1043 	movx	a,@dptr
      000481 F0               [ 8] 1044 	movx	@dptr,a
      000482 A3               [12] 1045 	inc	dptr
      000483 A3               [12] 1046 	inc	dptr
      000484 E0               [ 8] 1047 	movx	a,@dptr
      000485 F0               [ 8] 1048 	movx	@dptr,a
      000486 75 86 01         [12] 1049 	mov	dps, #1
      000489 90s00r00r70      [12] 1050 	mov	dptr,#___ckd_mul_int_PARM_2
      00048D E0               [ 8] 1051 	movx	a,@dptr
      00048E F5 82            [ 8] 1052 	mov	dpl,a
      000490 A3               [12] 1053 	inc	dptr
      000491 E0               [ 8] 1054 	movx	a,@dptr
      000492 F5 83            [ 8] 1055 	mov	dph,a
      000494 A3               [12] 1056 	inc	dptr
      000495 E0               [ 8] 1057 	movx	a,@dptr
      000496 F5 93            [ 8] 1058 	mov	dpx,a
      000498 A3               [12] 1059 	inc	dptr
      000499 E0               [ 8] 1060 	movx	a,@dptr
      00049A F5 F0            [ 8] 1061 	mov	b,a
      00049C A3               [12] 1062 	inc	dptr
      00049D E0               [ 8] 1063 	movx	a,@dptr
      00049E C0 E0            [ 8] 1064 	push	acc
      0004A0 A3               [12] 1065 	inc	dptr
      0004A1 E0               [ 8] 1066 	movx	a,@dptr
      0004A2 FC               [ 4] 1067 	mov	r4,a
      0004A3 A3               [12] 1068 	inc	dptr
      0004A4 E0               [ 8] 1069 	movx	a,@dptr
      0004A5 FD               [ 4] 1070 	mov	r5,a
      0004A6 A3               [12] 1071 	inc	dptr
      0004A7 E0               [ 8] 1072 	movx	a,@dptr
      0004A8 FE               [ 4] 1073 	mov	r6,a
      0004A9 D0 E0            [ 8] 1074 	pop	acc
      0004AB 75 86 00         [12] 1075 	mov	dps,#0
      0004AE 12s00r00r00      [16] 1076 	lcall	__mullonglong
      0004B2 AB 82            [ 8] 1077 	mov	r3,dpl
      0004B4 AF 83            [ 8] 1078 	mov	r7,dph
      0004B6 A8 93            [ 8] 1079 	mov	r0,dpx
      0004B8 A9 F0            [ 8] 1080 	mov	r1,b
      0004BA FA               [ 4] 1081 	mov	r2,a
                                   1082 ;	genAssign: resultIsFar = TRUE
      0004BB 90s00r00r84      [12] 1083 	mov	dptr,#___ckd_mul_int_result_65536_50
      0004BF EB               [ 4] 1084 	mov	a,r3
      0004C0 F0               [ 8] 1085 	movx	@dptr,a
      0004C1 A3               [12] 1086 	inc	dptr
      0004C2 EF               [ 4] 1087 	mov	a,r7
      0004C3 F0               [ 8] 1088 	movx	@dptr,a
      0004C4 A3               [12] 1089 	inc	dptr
      0004C5 E8               [ 4] 1090 	mov	a,r0
      0004C6 F0               [ 8] 1091 	movx	@dptr,a
      0004C7 A3               [12] 1092 	inc	dptr
      0004C8 E9               [ 4] 1093 	mov	a,r1
      0004C9 F0               [ 8] 1094 	movx	@dptr,a
      0004CA A3               [12] 1095 	inc	dptr
      0004CB EA               [ 4] 1096 	mov	a,r2
      0004CC F0               [ 8] 1097 	movx	@dptr,a
      0004CD A3               [12] 1098 	inc	dptr
      0004CE EC               [ 4] 1099 	mov	a,r4
      0004CF F0               [ 8] 1100 	movx	@dptr,a
      0004D0 A3               [12] 1101 	inc	dptr
      0004D1 ED               [ 4] 1102 	mov	a,r5
      0004D2 F0               [ 8] 1103 	movx	@dptr,a
      0004D3 A3               [12] 1104 	inc	dptr
      0004D4 EE               [ 4] 1105 	mov	a,r6
      0004D5 F0               [ 8] 1106 	movx	@dptr,a
      0004D6 90s00r00r84      [12] 1107 	mov	dptr,#___ckd_mul_int_result_65536_50
      0004DA E0               [ 8] 1108 	movx	a,@dptr
      0004DB FA               [ 4] 1109 	mov	r2,a
      0004DC A3               [12] 1110 	inc	dptr
      0004DD E0               [ 8] 1111 	movx	a,@dptr
      0004DE FB               [ 4] 1112 	mov	r3,a
      0004DF 90s00r00r80      [12] 1113 	mov	dptr,#___ckd_mul_int_r_65536_49
      0004E3 E0               [ 8] 1114 	movx	a,@dptr
      0004E4 C0 E0            [ 8] 1115 	push	acc
      0004E6 A3               [12] 1116 	inc	dptr
      0004E7 E0               [ 8] 1117 	movx	a,@dptr
      0004E8 C0 E0            [ 8] 1118 	push	acc
      0004EA A3               [12] 1119 	inc	dptr
      0004EB E0               [ 8] 1120 	movx	a,@dptr
      0004EC C0 E0            [ 8] 1121 	push	acc
      0004EE A3               [12] 1122 	inc	dptr
      0004EF E0               [ 8] 1123 	movx	a,@dptr
      0004F0 F5 F0            [ 8] 1124 	mov	b,a
      0004F2 D0 93            [ 8] 1125 	pop	dpx
      0004F4 D0 83            [ 8] 1126 	pop	dph
      0004F6 D0 82            [ 8] 1127 	pop	dpl
      0004F8 8A 9C            [ 8] 1128 	mov	acc1, r2
      0004FA EB               [ 4] 1129 	mov	a,r3
      0004FB 12s00r00r00      [16] 1130 	lcall	__gptrputWord
      0004FF EB               [ 4] 1131 	mov	a,r3
      000500 33               [ 4] 1132 	rlc	a
      000501 95 E0            [ 8] 1133 	subb	a,acc
      000503 FC               [ 4] 1134 	mov	r4,a
      000504 FD               [ 4] 1135 	mov	r5,a
      000505 FE               [ 4] 1136 	mov	r6,a
      000506 FF               [ 4] 1137 	mov	r7,a
      000507 F8               [ 4] 1138 	mov	r0,a
      000508 F9               [ 4] 1139 	mov	r1,a
      000509 90s00r00r84      [12] 1140 	mov	dptr,#___ckd_mul_int_result_65536_50
      00050D 8A F0            [ 8] 1141 	mov	b,r2
      00050F E0               [ 8] 1142 	movx	a,@dptr
      000510 B5 F0 35         [16] 1143 	cjne	a,b,00103$
      000513 8B F0            [ 8] 1144 	mov	b,r3
      000515 A3               [12] 1145 	inc	dptr
      000516 E0               [ 8] 1146 	movx	a,@dptr
      000517 B5 F0 2E         [16] 1147 	cjne	a,b,00103$
      00051A 8C F0            [ 8] 1148 	mov	b,r4
      00051C A3               [12] 1149 	inc	dptr
      00051D E0               [ 8] 1150 	movx	a,@dptr
      00051E B5 F0 27         [16] 1151 	cjne	a,b,00103$
      000521 8D F0            [ 8] 1152 	mov	b,r5
      000523 A3               [12] 1153 	inc	dptr
      000524 E0               [ 8] 1154 	movx	a,@dptr
      000525 B5 F0 20         [16] 1155 	cjne	a,b,00103$
      000528 8E F0            [ 8] 1156 	mov	b,r6
      00052A A3               [12] 1157 	inc	dptr
      00052B E0               [ 8] 1158 	movx	a,@dptr
      00052C B5 F0 19         [16] 1159 	cjne	a,b,00103$
      00052F 8F F0            [ 8] 1160 	mov	b,r7
      000531 A3               [12] 1161 	inc	dptr
      000532 E0               [ 8] 1162 	movx	a,@dptr
      000533 B5 F0 12         [16] 1163 	cjne	a,b,00103$
      000536 88 F0            [ 8] 1164 	mov	b,r0
      000538 A3               [12] 1165 	inc	dptr
      000539 E0               [ 8] 1166 	movx	a,@dptr
      00053A B5 F0 0B         [16] 1167 	cjne	a,b,00103$
      00053D 89 F0            [ 8] 1168 	mov	b,r1
      00053F A3               [12] 1169 	inc	dptr
      000540 E0               [ 8] 1170 	movx	a,@dptr
      000541 B5 F0 04         [16] 1171 	cjne	a,b,00103$
      000544 74 01            [ 8] 1172 	mov	a,#0x01
      000546 80 01            [12] 1173 	sjmp	00104$
      000548                       1174 00103$:
      000548 E4               [ 4] 1175 	clr	a
      000549                       1176 00104$:
      000549 24 FF            [ 8] 1177 	add	a,#0xff
      00054B 92*04            [ 8] 1178 	mov	___ckd_mul_int_sloc0_1_0,c
      00054D B2*04            [ 8] 1179 	cpl	___ckd_mul_int_sloc0_1_0
      00054F A2*04            [ 8] 1180 	mov	c,___ckd_mul_int_sloc0_1_0
      000551 E4               [ 4] 1181 	clr	a
      000552 33               [ 4] 1182 	rlc	a
      000553 F5 82            [ 8] 1183 	mov	dpl,a
      000555                       1184 00101$:
      000555 22               [16] 1185 	ret
                                   1186 ;------------------------------------------------------------
                                   1187 ;Allocation info for local variables in function '__ckd_mul_uint'
                                   1188 ;------------------------------------------------------------
                                   1189 ;a                         Allocated with name '___ckd_mul_uint_PARM_2'
                                   1190 ;b                         Allocated with name '___ckd_mul_uint_PARM_3'
                                   1191 ;r                         Allocated with name '___ckd_mul_uint_r_65536_51'
                                   1192 ;result                    Allocated with name '___ckd_mul_uint_result_65536_52'
                                   1193 ;------------------------------------------------------------
                                   1194 ;	../../device/include/stdckdint.h:74: inline _Bool __ckd_mul_uint __CKD_DEFAULT_IMPL(unsigned int, *)
                                   1195 ;	-----------------------------------------
                                   1196 ;	 function __ckd_mul_uint
                                   1197 ;	-----------------------------------------
      000556                       1198 ___ckd_mul_uint:
      000556 75 86 01         [12] 1199 	mov     dps, #1
      000559 90s00r00r9C      [12] 1200 	mov     dptr, #___ckd_mul_uint_r_65536_51
      00055D E5 82            [ 8] 1201 	mov	a,dpl
      00055F F0               [ 8] 1202 	movx	@dptr,a
      000560 A3               [12] 1203 	inc	dptr
      000561 E5 83            [ 8] 1204 	mov	a,dph
      000563 F0               [ 8] 1205 	movx	@dptr,a
      000564 A3               [12] 1206 	inc	dptr
      000565 E5 93            [ 8] 1207 	mov	a,dpx
      000567 F0               [ 8] 1208 	movx	@dptr,a
      000568 A3               [12] 1209 	inc	dptr
      000569 E5 F0            [ 8] 1210 	mov	a,b
      00056B F0               [ 8] 1211 	movx	@dptr,a
      00056C 75 86 00         [12] 1212 	mov	dps,#0
      00056F 90s00r00r94      [12] 1213 	mov	dptr,#___ckd_mul_uint_PARM_3
                                   1214 ;	genAssign: resultIsFar = TRUE
      000573 75 86 21         [12] 1215 	mov	dps,#0x21
      000576 90s00r00r00      [12] 1216 	mov	dptr,#__mullonglong_PARM_2
      00057A E0               [ 8] 1217 	movx	a,@dptr
      00057B F0               [ 8] 1218 	movx	@dptr,a
      00057C A3               [12] 1219 	inc	dptr
      00057D A3               [12] 1220 	inc	dptr
      00057E E0               [ 8] 1221 	movx	a,@dptr
      00057F F0               [ 8] 1222 	movx	@dptr,a
      000580 A3               [12] 1223 	inc	dptr
      000581 A3               [12] 1224 	inc	dptr
      000582 E0               [ 8] 1225 	movx	a,@dptr
      000583 F0               [ 8] 1226 	movx	@dptr,a
      000584 A3               [12] 1227 	inc	dptr
      000585 A3               [12] 1228 	inc	dptr
      000586 E0               [ 8] 1229 	movx	a,@dptr
      000587 F0               [ 8] 1230 	movx	@dptr,a
      000588 A3               [12] 1231 	inc	dptr
      000589 A3               [12] 1232 	inc	dptr
      00058A E0               [ 8] 1233 	movx	a,@dptr
      00058B F0               [ 8] 1234 	movx	@dptr,a
      00058C A3               [12] 1235 	inc	dptr
      00058D A3               [12] 1236 	inc	dptr
      00058E E0               [ 8] 1237 	movx	a,@dptr
      00058F F0               [ 8] 1238 	movx	@dptr,a
      000590 A3               [12] 1239 	inc	dptr
      000591 A3               [12] 1240 	inc	dptr
      000592 E0               [ 8] 1241 	movx	a,@dptr
      000593 F0               [ 8] 1242 	movx	@dptr,a
      000594 A3               [12] 1243 	inc	dptr
      000595 A3               [12] 1244 	inc	dptr
      000596 E0               [ 8] 1245 	movx	a,@dptr
      000597 F0               [ 8] 1246 	movx	@dptr,a
      000598 75 86 01         [12] 1247 	mov	dps, #1
      00059B 90s00r00r8C      [12] 1248 	mov	dptr,#___ckd_mul_uint_PARM_2
      00059F E0               [ 8] 1249 	movx	a,@dptr
      0005A0 F5 82            [ 8] 1250 	mov	dpl,a
      0005A2 A3               [12] 1251 	inc	dptr
      0005A3 E0               [ 8] 1252 	movx	a,@dptr
      0005A4 F5 83            [ 8] 1253 	mov	dph,a
      0005A6 A3               [12] 1254 	inc	dptr
      0005A7 E0               [ 8] 1255 	movx	a,@dptr
      0005A8 F5 93            [ 8] 1256 	mov	dpx,a
      0005AA A3               [12] 1257 	inc	dptr
      0005AB E0               [ 8] 1258 	movx	a,@dptr
      0005AC F5 F0            [ 8] 1259 	mov	b,a
      0005AE A3               [12] 1260 	inc	dptr
      0005AF E0               [ 8] 1261 	movx	a,@dptr
      0005B0 C0 E0            [ 8] 1262 	push	acc
      0005B2 A3               [12] 1263 	inc	dptr
      0005B3 E0               [ 8] 1264 	movx	a,@dptr
      0005B4 FC               [ 4] 1265 	mov	r4,a
      0005B5 A3               [12] 1266 	inc	dptr
      0005B6 E0               [ 8] 1267 	movx	a,@dptr
      0005B7 FD               [ 4] 1268 	mov	r5,a
      0005B8 A3               [12] 1269 	inc	dptr
      0005B9 E0               [ 8] 1270 	movx	a,@dptr
      0005BA FE               [ 4] 1271 	mov	r6,a
      0005BB D0 E0            [ 8] 1272 	pop	acc
      0005BD 75 86 00         [12] 1273 	mov	dps,#0
      0005C0 12s00r00r00      [16] 1274 	lcall	__mullonglong
      0005C4 AB 82            [ 8] 1275 	mov	r3,dpl
      0005C6 AF 83            [ 8] 1276 	mov	r7,dph
      0005C8 A8 93            [ 8] 1277 	mov	r0,dpx
      0005CA A9 F0            [ 8] 1278 	mov	r1,b
      0005CC FA               [ 4] 1279 	mov	r2,a
                                   1280 ;	genAssign: resultIsFar = TRUE
      0005CD 90s00r00rA0      [12] 1281 	mov	dptr,#___ckd_mul_uint_result_65536_52
      0005D1 EB               [ 4] 1282 	mov	a,r3
      0005D2 F0               [ 8] 1283 	movx	@dptr,a
      0005D3 A3               [12] 1284 	inc	dptr
      0005D4 EF               [ 4] 1285 	mov	a,r7
      0005D5 F0               [ 8] 1286 	movx	@dptr,a
      0005D6 A3               [12] 1287 	inc	dptr
      0005D7 E8               [ 4] 1288 	mov	a,r0
      0005D8 F0               [ 8] 1289 	movx	@dptr,a
      0005D9 A3               [12] 1290 	inc	dptr
      0005DA E9               [ 4] 1291 	mov	a,r1
      0005DB F0               [ 8] 1292 	movx	@dptr,a
      0005DC A3               [12] 1293 	inc	dptr
      0005DD EA               [ 4] 1294 	mov	a,r2
      0005DE F0               [ 8] 1295 	movx	@dptr,a
      0005DF A3               [12] 1296 	inc	dptr
      0005E0 EC               [ 4] 1297 	mov	a,r4
      0005E1 F0               [ 8] 1298 	movx	@dptr,a
      0005E2 A3               [12] 1299 	inc	dptr
      0005E3 ED               [ 4] 1300 	mov	a,r5
      0005E4 F0               [ 8] 1301 	movx	@dptr,a
      0005E5 A3               [12] 1302 	inc	dptr
      0005E6 EE               [ 4] 1303 	mov	a,r6
      0005E7 F0               [ 8] 1304 	movx	@dptr,a
      0005E8 90s00r00rA0      [12] 1305 	mov	dptr,#___ckd_mul_uint_result_65536_52
      0005EC E0               [ 8] 1306 	movx	a,@dptr
      0005ED FA               [ 4] 1307 	mov	r2,a
      0005EE A3               [12] 1308 	inc	dptr
      0005EF E0               [ 8] 1309 	movx	a,@dptr
      0005F0 FB               [ 4] 1310 	mov	r3,a
      0005F1 90s00r00r9C      [12] 1311 	mov	dptr,#___ckd_mul_uint_r_65536_51
      0005F5 E0               [ 8] 1312 	movx	a,@dptr
      0005F6 C0 E0            [ 8] 1313 	push	acc
      0005F8 A3               [12] 1314 	inc	dptr
      0005F9 E0               [ 8] 1315 	movx	a,@dptr
      0005FA C0 E0            [ 8] 1316 	push	acc
      0005FC A3               [12] 1317 	inc	dptr
      0005FD E0               [ 8] 1318 	movx	a,@dptr
      0005FE C0 E0            [ 8] 1319 	push	acc
      000600 A3               [12] 1320 	inc	dptr
      000601 E0               [ 8] 1321 	movx	a,@dptr
      000602 F5 F0            [ 8] 1322 	mov	b,a
      000604 D0 93            [ 8] 1323 	pop	dpx
      000606 D0 83            [ 8] 1324 	pop	dph
      000608 D0 82            [ 8] 1325 	pop	dpl
      00060A 8A 9C            [ 8] 1326 	mov	acc1, r2
      00060C EB               [ 4] 1327 	mov	a,r3
      00060D 12s00r00r00      [16] 1328 	lcall	__gptrputWord
      000611 7C 00            [ 8] 1329 	mov	r4,#0x00
      000613 7D 00            [ 8] 1330 	mov	r5,#0x00
      000615 7E 00            [ 8] 1331 	mov	r6,#0x00
      000617 7F 00            [ 8] 1332 	mov	r7,#0x00
      000619 78 00            [ 8] 1333 	mov	r0,#0x00
      00061B 79 00            [ 8] 1334 	mov	r1,#0x00
      00061D 90s00r00rA0      [12] 1335 	mov	dptr,#___ckd_mul_uint_result_65536_52
      000621 8A F0            [ 8] 1336 	mov	b,r2
      000623 E0               [ 8] 1337 	movx	a,@dptr
      000624 B5 F0 35         [16] 1338 	cjne	a,b,00103$
      000627 8B F0            [ 8] 1339 	mov	b,r3
      000629 A3               [12] 1340 	inc	dptr
      00062A E0               [ 8] 1341 	movx	a,@dptr
      00062B B5 F0 2E         [16] 1342 	cjne	a,b,00103$
      00062E 8C F0            [ 8] 1343 	mov	b,r4
      000630 A3               [12] 1344 	inc	dptr
      000631 E0               [ 8] 1345 	movx	a,@dptr
      000632 B5 F0 27         [16] 1346 	cjne	a,b,00103$
      000635 8D F0            [ 8] 1347 	mov	b,r5
      000637 A3               [12] 1348 	inc	dptr
      000638 E0               [ 8] 1349 	movx	a,@dptr
      000639 B5 F0 20         [16] 1350 	cjne	a,b,00103$
      00063C 8E F0            [ 8] 1351 	mov	b,r6
      00063E A3               [12] 1352 	inc	dptr
      00063F E0               [ 8] 1353 	movx	a,@dptr
      000640 B5 F0 19         [16] 1354 	cjne	a,b,00103$
      000643 8F F0            [ 8] 1355 	mov	b,r7
      000645 A3               [12] 1356 	inc	dptr
      000646 E0               [ 8] 1357 	movx	a,@dptr
      000647 B5 F0 12         [16] 1358 	cjne	a,b,00103$
      00064A 88 F0            [ 8] 1359 	mov	b,r0
      00064C A3               [12] 1360 	inc	dptr
      00064D E0               [ 8] 1361 	movx	a,@dptr
      00064E B5 F0 0B         [16] 1362 	cjne	a,b,00103$
      000651 89 F0            [ 8] 1363 	mov	b,r1
      000653 A3               [12] 1364 	inc	dptr
      000654 E0               [ 8] 1365 	movx	a,@dptr
      000655 B5 F0 04         [16] 1366 	cjne	a,b,00103$
      000658 74 01            [ 8] 1367 	mov	a,#0x01
      00065A 80 01            [12] 1368 	sjmp	00104$
      00065C                       1369 00103$:
      00065C E4               [ 4] 1370 	clr	a
      00065D                       1371 00104$:
      00065D 24 FF            [ 8] 1372 	add	a,#0xff
      00065F 92*05            [ 8] 1373 	mov	___ckd_mul_uint_sloc0_1_0,c
      000661 B2*05            [ 8] 1374 	cpl	___ckd_mul_uint_sloc0_1_0
      000663 A2*05            [ 8] 1375 	mov	c,___ckd_mul_uint_sloc0_1_0
      000665 E4               [ 4] 1376 	clr	a
      000666 33               [ 4] 1377 	rlc	a
      000667 F5 82            [ 8] 1378 	mov	dpl,a
      000669                       1379 00101$:
      000669 22               [16] 1380 	ret
                                   1381 ;------------------------------------------------------------
                                   1382 ;Allocation info for local variables in function '__ckd_mul_long'
                                   1383 ;------------------------------------------------------------
                                   1384 ;a                         Allocated with name '___ckd_mul_long_PARM_2'
                                   1385 ;b                         Allocated with name '___ckd_mul_long_PARM_3'
                                   1386 ;r                         Allocated with name '___ckd_mul_long_r_65536_53'
                                   1387 ;result                    Allocated with name '___ckd_mul_long_result_65536_54'
                                   1388 ;------------------------------------------------------------
                                   1389 ;	../../device/include/stdckdint.h:75: inline _Bool __ckd_mul_long __CKD_DEFAULT_IMPL(long, *)
                                   1390 ;	-----------------------------------------
                                   1391 ;	 function __ckd_mul_long
                                   1392 ;	-----------------------------------------
      00066A                       1393 ___ckd_mul_long:
      00066A 75 86 01         [12] 1394 	mov     dps, #1
      00066D 90s00r00rB8      [12] 1395 	mov     dptr, #___ckd_mul_long_r_65536_53
      000671 E5 82            [ 8] 1396 	mov	a,dpl
      000673 F0               [ 8] 1397 	movx	@dptr,a
      000674 A3               [12] 1398 	inc	dptr
      000675 E5 83            [ 8] 1399 	mov	a,dph
      000677 F0               [ 8] 1400 	movx	@dptr,a
      000678 A3               [12] 1401 	inc	dptr
      000679 E5 93            [ 8] 1402 	mov	a,dpx
      00067B F0               [ 8] 1403 	movx	@dptr,a
      00067C A3               [12] 1404 	inc	dptr
      00067D E5 F0            [ 8] 1405 	mov	a,b
      00067F F0               [ 8] 1406 	movx	@dptr,a
      000680 75 86 00         [12] 1407 	mov	dps,#0
      000683 90s00r00rB0      [12] 1408 	mov	dptr,#___ckd_mul_long_PARM_3
                                   1409 ;	genAssign: resultIsFar = TRUE
      000687 75 86 21         [12] 1410 	mov	dps,#0x21
      00068A 90s00r00r00      [12] 1411 	mov	dptr,#__mullonglong_PARM_2
      00068E E0               [ 8] 1412 	movx	a,@dptr
      00068F F0               [ 8] 1413 	movx	@dptr,a
      000690 A3               [12] 1414 	inc	dptr
      000691 A3               [12] 1415 	inc	dptr
      000692 E0               [ 8] 1416 	movx	a,@dptr
      000693 F0               [ 8] 1417 	movx	@dptr,a
      000694 A3               [12] 1418 	inc	dptr
      000695 A3               [12] 1419 	inc	dptr
      000696 E0               [ 8] 1420 	movx	a,@dptr
      000697 F0               [ 8] 1421 	movx	@dptr,a
      000698 A3               [12] 1422 	inc	dptr
      000699 A3               [12] 1423 	inc	dptr
      00069A E0               [ 8] 1424 	movx	a,@dptr
      00069B F0               [ 8] 1425 	movx	@dptr,a
      00069C A3               [12] 1426 	inc	dptr
      00069D A3               [12] 1427 	inc	dptr
      00069E E0               [ 8] 1428 	movx	a,@dptr
      00069F F0               [ 8] 1429 	movx	@dptr,a
      0006A0 A3               [12] 1430 	inc	dptr
      0006A1 A3               [12] 1431 	inc	dptr
      0006A2 E0               [ 8] 1432 	movx	a,@dptr
      0006A3 F0               [ 8] 1433 	movx	@dptr,a
      0006A4 A3               [12] 1434 	inc	dptr
      0006A5 A3               [12] 1435 	inc	dptr
      0006A6 E0               [ 8] 1436 	movx	a,@dptr
      0006A7 F0               [ 8] 1437 	movx	@dptr,a
      0006A8 A3               [12] 1438 	inc	dptr
      0006A9 A3               [12] 1439 	inc	dptr
      0006AA E0               [ 8] 1440 	movx	a,@dptr
      0006AB F0               [ 8] 1441 	movx	@dptr,a
      0006AC 75 86 01         [12] 1442 	mov	dps, #1
      0006AF 90s00r00rA8      [12] 1443 	mov	dptr,#___ckd_mul_long_PARM_2
      0006B3 E0               [ 8] 1444 	movx	a,@dptr
      0006B4 F5 82            [ 8] 1445 	mov	dpl,a
      0006B6 A3               [12] 1446 	inc	dptr
      0006B7 E0               [ 8] 1447 	movx	a,@dptr
      0006B8 F5 83            [ 8] 1448 	mov	dph,a
      0006BA A3               [12] 1449 	inc	dptr
      0006BB E0               [ 8] 1450 	movx	a,@dptr
      0006BC F5 93            [ 8] 1451 	mov	dpx,a
      0006BE A3               [12] 1452 	inc	dptr
      0006BF E0               [ 8] 1453 	movx	a,@dptr
      0006C0 F5 F0            [ 8] 1454 	mov	b,a
      0006C2 A3               [12] 1455 	inc	dptr
      0006C3 E0               [ 8] 1456 	movx	a,@dptr
      0006C4 C0 E0            [ 8] 1457 	push	acc
      0006C6 A3               [12] 1458 	inc	dptr
      0006C7 E0               [ 8] 1459 	movx	a,@dptr
      0006C8 FC               [ 4] 1460 	mov	r4,a
      0006C9 A3               [12] 1461 	inc	dptr
      0006CA E0               [ 8] 1462 	movx	a,@dptr
      0006CB FD               [ 4] 1463 	mov	r5,a
      0006CC A3               [12] 1464 	inc	dptr
      0006CD E0               [ 8] 1465 	movx	a,@dptr
      0006CE FE               [ 4] 1466 	mov	r6,a
      0006CF D0 E0            [ 8] 1467 	pop	acc
      0006D1 75 86 00         [12] 1468 	mov	dps,#0
      0006D4 12s00r00r00      [16] 1469 	lcall	__mullonglong
      0006D8 AB 82            [ 8] 1470 	mov	r3,dpl
      0006DA AF 83            [ 8] 1471 	mov	r7,dph
      0006DC A8 93            [ 8] 1472 	mov	r0,dpx
      0006DE A9 F0            [ 8] 1473 	mov	r1,b
      0006E0 FA               [ 4] 1474 	mov	r2,a
                                   1475 ;	genAssign: resultIsFar = TRUE
      0006E1 90s00r00rBC      [12] 1476 	mov	dptr,#___ckd_mul_long_result_65536_54
      0006E5 EB               [ 4] 1477 	mov	a,r3
      0006E6 F0               [ 8] 1478 	movx	@dptr,a
      0006E7 A3               [12] 1479 	inc	dptr
      0006E8 EF               [ 4] 1480 	mov	a,r7
      0006E9 F0               [ 8] 1481 	movx	@dptr,a
      0006EA A3               [12] 1482 	inc	dptr
      0006EB E8               [ 4] 1483 	mov	a,r0
      0006EC F0               [ 8] 1484 	movx	@dptr,a
      0006ED A3               [12] 1485 	inc	dptr
      0006EE E9               [ 4] 1486 	mov	a,r1
      0006EF F0               [ 8] 1487 	movx	@dptr,a
      0006F0 A3               [12] 1488 	inc	dptr
      0006F1 EA               [ 4] 1489 	mov	a,r2
      0006F2 F0               [ 8] 1490 	movx	@dptr,a
      0006F3 A3               [12] 1491 	inc	dptr
      0006F4 EC               [ 4] 1492 	mov	a,r4
      0006F5 F0               [ 8] 1493 	movx	@dptr,a
      0006F6 A3               [12] 1494 	inc	dptr
      0006F7 ED               [ 4] 1495 	mov	a,r5
      0006F8 F0               [ 8] 1496 	movx	@dptr,a
      0006F9 A3               [12] 1497 	inc	dptr
      0006FA EE               [ 4] 1498 	mov	a,r6
      0006FB F0               [ 8] 1499 	movx	@dptr,a
      0006FC 90s00r00rBC      [12] 1500 	mov	dptr,#___ckd_mul_long_result_65536_54
      000700 E0               [ 8] 1501 	movx	a,@dptr
      000701 FA               [ 4] 1502 	mov	r2,a
      000702 A3               [12] 1503 	inc	dptr
      000703 E0               [ 8] 1504 	movx	a,@dptr
      000704 FB               [ 4] 1505 	mov	r3,a
      000705 A3               [12] 1506 	inc	dptr
      000706 E0               [ 8] 1507 	movx	a,@dptr
      000707 FC               [ 4] 1508 	mov	r4,a
      000708 A3               [12] 1509 	inc	dptr
      000709 E0               [ 8] 1510 	movx	a,@dptr
      00070A FD               [ 4] 1511 	mov	r5,a
      00070B 90s00r00rB8      [12] 1512 	mov	dptr,#___ckd_mul_long_r_65536_53
      00070F E0               [ 8] 1513 	movx	a,@dptr
      000710 C0 E0            [ 8] 1514 	push	acc
      000712 A3               [12] 1515 	inc	dptr
      000713 E0               [ 8] 1516 	movx	a,@dptr
      000714 C0 E0            [ 8] 1517 	push	acc
      000716 A3               [12] 1518 	inc	dptr
      000717 E0               [ 8] 1519 	movx	a,@dptr
      000718 C0 E0            [ 8] 1520 	push	acc
      00071A A3               [12] 1521 	inc	dptr
      00071B E0               [ 8] 1522 	movx	a,@dptr
      00071C F5 F0            [ 8] 1523 	mov	b,a
      00071E D0 93            [ 8] 1524 	pop	dpx
      000720 D0 83            [ 8] 1525 	pop	dph
      000722 D0 82            [ 8] 1526 	pop	dpl
      000724 8A 9C            [ 8] 1527 	mov	acc1, r2
      000726 EB               [ 4] 1528 	mov	a,r3
      000727 12s00r00r00      [16] 1529 	lcall	__gptrputWord
      00072B A3               [12] 1530 	inc	dptr
      00072C 8C 9C            [ 8] 1531 	mov	acc1, r4
      00072E ED               [ 4] 1532 	mov	a,r5
      00072F 12s00r00r00      [16] 1533 	lcall	__gptrputWord
      000733 ED               [ 4] 1534 	mov	a,r5
      000734 33               [ 4] 1535 	rlc	a
      000735 95 E0            [ 8] 1536 	subb	a,acc
      000737 FE               [ 4] 1537 	mov	r6,a
      000738 FF               [ 4] 1538 	mov	r7,a
      000739 F8               [ 4] 1539 	mov	r0,a
      00073A F9               [ 4] 1540 	mov	r1,a
      00073B 90s00r00rBC      [12] 1541 	mov	dptr,#___ckd_mul_long_result_65536_54
      00073F 8A F0            [ 8] 1542 	mov	b,r2
      000741 E0               [ 8] 1543 	movx	a,@dptr
      000742 B5 F0 35         [16] 1544 	cjne	a,b,00103$
      000745 8B F0            [ 8] 1545 	mov	b,r3
      000747 A3               [12] 1546 	inc	dptr
      000748 E0               [ 8] 1547 	movx	a,@dptr
      000749 B5 F0 2E         [16] 1548 	cjne	a,b,00103$
      00074C 8C F0            [ 8] 1549 	mov	b,r4
      00074E A3               [12] 1550 	inc	dptr
      00074F E0               [ 8] 1551 	movx	a,@dptr
      000750 B5 F0 27         [16] 1552 	cjne	a,b,00103$
      000753 8D F0            [ 8] 1553 	mov	b,r5
      000755 A3               [12] 1554 	inc	dptr
      000756 E0               [ 8] 1555 	movx	a,@dptr
      000757 B5 F0 20         [16] 1556 	cjne	a,b,00103$
      00075A 8E F0            [ 8] 1557 	mov	b,r6
      00075C A3               [12] 1558 	inc	dptr
      00075D E0               [ 8] 1559 	movx	a,@dptr
      00075E B5 F0 19         [16] 1560 	cjne	a,b,00103$
      000761 8F F0            [ 8] 1561 	mov	b,r7
      000763 A3               [12] 1562 	inc	dptr
      000764 E0               [ 8] 1563 	movx	a,@dptr
      000765 B5 F0 12         [16] 1564 	cjne	a,b,00103$
      000768 88 F0            [ 8] 1565 	mov	b,r0
      00076A A3               [12] 1566 	inc	dptr
      00076B E0               [ 8] 1567 	movx	a,@dptr
      00076C B5 F0 0B         [16] 1568 	cjne	a,b,00103$
      00076F 89 F0            [ 8] 1569 	mov	b,r1
      000771 A3               [12] 1570 	inc	dptr
      000772 E0               [ 8] 1571 	movx	a,@dptr
      000773 B5 F0 04         [16] 1572 	cjne	a,b,00103$
      000776 74 01            [ 8] 1573 	mov	a,#0x01
      000778 80 01            [12] 1574 	sjmp	00104$
      00077A                       1575 00103$:
      00077A E4               [ 4] 1576 	clr	a
      00077B                       1577 00104$:
      00077B 24 FF            [ 8] 1578 	add	a,#0xff
      00077D 92*06            [ 8] 1579 	mov	___ckd_mul_long_sloc0_1_0,c
      00077F B2*06            [ 8] 1580 	cpl	___ckd_mul_long_sloc0_1_0
      000781 A2*06            [ 8] 1581 	mov	c,___ckd_mul_long_sloc0_1_0
      000783 E4               [ 4] 1582 	clr	a
      000784 33               [ 4] 1583 	rlc	a
      000785 F5 82            [ 8] 1584 	mov	dpl,a
      000787                       1585 00101$:
      000787 22               [16] 1586 	ret
                                   1587 ;------------------------------------------------------------
                                   1588 ;Allocation info for local variables in function '__ckd_mul_ulong'
                                   1589 ;------------------------------------------------------------
                                   1590 ;a                         Allocated with name '___ckd_mul_ulong_PARM_2'
                                   1591 ;b                         Allocated with name '___ckd_mul_ulong_PARM_3'
                                   1592 ;r                         Allocated with name '___ckd_mul_ulong_r_65536_55'
                                   1593 ;result                    Allocated with name '___ckd_mul_ulong_result_65536_56'
                                   1594 ;------------------------------------------------------------
                                   1595 ;	../../device/include/stdckdint.h:76: inline _Bool __ckd_mul_ulong __CKD_DEFAULT_IMPL(unsigned long, *)
                                   1596 ;	-----------------------------------------
                                   1597 ;	 function __ckd_mul_ulong
                                   1598 ;	-----------------------------------------
      000788                       1599 ___ckd_mul_ulong:
      000788 75 86 01         [12] 1600 	mov     dps, #1
      00078B 90s00r00rD4      [12] 1601 	mov     dptr, #___ckd_mul_ulong_r_65536_55
      00078F E5 82            [ 8] 1602 	mov	a,dpl
      000791 F0               [ 8] 1603 	movx	@dptr,a
      000792 A3               [12] 1604 	inc	dptr
      000793 E5 83            [ 8] 1605 	mov	a,dph
      000795 F0               [ 8] 1606 	movx	@dptr,a
      000796 A3               [12] 1607 	inc	dptr
      000797 E5 93            [ 8] 1608 	mov	a,dpx
      000799 F0               [ 8] 1609 	movx	@dptr,a
      00079A A3               [12] 1610 	inc	dptr
      00079B E5 F0            [ 8] 1611 	mov	a,b
      00079D F0               [ 8] 1612 	movx	@dptr,a
      00079E 75 86 00         [12] 1613 	mov	dps,#0
      0007A1 90s00r00rCC      [12] 1614 	mov	dptr,#___ckd_mul_ulong_PARM_3
                                   1615 ;	genAssign: resultIsFar = TRUE
      0007A5 75 86 21         [12] 1616 	mov	dps,#0x21
      0007A8 90s00r00r00      [12] 1617 	mov	dptr,#__mullonglong_PARM_2
      0007AC E0               [ 8] 1618 	movx	a,@dptr
      0007AD F0               [ 8] 1619 	movx	@dptr,a
      0007AE A3               [12] 1620 	inc	dptr
      0007AF A3               [12] 1621 	inc	dptr
      0007B0 E0               [ 8] 1622 	movx	a,@dptr
      0007B1 F0               [ 8] 1623 	movx	@dptr,a
      0007B2 A3               [12] 1624 	inc	dptr
      0007B3 A3               [12] 1625 	inc	dptr
      0007B4 E0               [ 8] 1626 	movx	a,@dptr
      0007B5 F0               [ 8] 1627 	movx	@dptr,a
      0007B6 A3               [12] 1628 	inc	dptr
      0007B7 A3               [12] 1629 	inc	dptr
      0007B8 E0               [ 8] 1630 	movx	a,@dptr
      0007B9 F0               [ 8] 1631 	movx	@dptr,a
      0007BA A3               [12] 1632 	inc	dptr
      0007BB A3               [12] 1633 	inc	dptr
      0007BC E0               [ 8] 1634 	movx	a,@dptr
      0007BD F0               [ 8] 1635 	movx	@dptr,a
      0007BE A3               [12] 1636 	inc	dptr
      0007BF A3               [12] 1637 	inc	dptr
      0007C0 E0               [ 8] 1638 	movx	a,@dptr
      0007C1 F0               [ 8] 1639 	movx	@dptr,a
      0007C2 A3               [12] 1640 	inc	dptr
      0007C3 A3               [12] 1641 	inc	dptr
      0007C4 E0               [ 8] 1642 	movx	a,@dptr
      0007C5 F0               [ 8] 1643 	movx	@dptr,a
      0007C6 A3               [12] 1644 	inc	dptr
      0007C7 A3               [12] 1645 	inc	dptr
      0007C8 E0               [ 8] 1646 	movx	a,@dptr
      0007C9 F0               [ 8] 1647 	movx	@dptr,a
      0007CA 75 86 01         [12] 1648 	mov	dps, #1
      0007CD 90s00r00rC4      [12] 1649 	mov	dptr,#___ckd_mul_ulong_PARM_2
      0007D1 E0               [ 8] 1650 	movx	a,@dptr
      0007D2 F5 82            [ 8] 1651 	mov	dpl,a
      0007D4 A3               [12] 1652 	inc	dptr
      0007D5 E0               [ 8] 1653 	movx	a,@dptr
      0007D6 F5 83            [ 8] 1654 	mov	dph,a
      0007D8 A3               [12] 1655 	inc	dptr
      0007D9 E0               [ 8] 1656 	movx	a,@dptr
      0007DA F5 93            [ 8] 1657 	mov	dpx,a
      0007DC A3               [12] 1658 	inc	dptr
      0007DD E0               [ 8] 1659 	movx	a,@dptr
      0007DE F5 F0            [ 8] 1660 	mov	b,a
      0007E0 A3               [12] 1661 	inc	dptr
      0007E1 E0               [ 8] 1662 	movx	a,@dptr
      0007E2 C0 E0            [ 8] 1663 	push	acc
      0007E4 A3               [12] 1664 	inc	dptr
      0007E5 E0               [ 8] 1665 	movx	a,@dptr
      0007E6 FC               [ 4] 1666 	mov	r4,a
      0007E7 A3               [12] 1667 	inc	dptr
      0007E8 E0               [ 8] 1668 	movx	a,@dptr
      0007E9 FD               [ 4] 1669 	mov	r5,a
      0007EA A3               [12] 1670 	inc	dptr
      0007EB E0               [ 8] 1671 	movx	a,@dptr
      0007EC FE               [ 4] 1672 	mov	r6,a
      0007ED D0 E0            [ 8] 1673 	pop	acc
      0007EF 75 86 00         [12] 1674 	mov	dps,#0
      0007F2 12s00r00r00      [16] 1675 	lcall	__mullonglong
      0007F6 AB 82            [ 8] 1676 	mov	r3,dpl
      0007F8 AF 83            [ 8] 1677 	mov	r7,dph
      0007FA A8 93            [ 8] 1678 	mov	r0,dpx
      0007FC A9 F0            [ 8] 1679 	mov	r1,b
      0007FE FA               [ 4] 1680 	mov	r2,a
                                   1681 ;	genAssign: resultIsFar = TRUE
      0007FF 90s00r00rD8      [12] 1682 	mov	dptr,#___ckd_mul_ulong_result_65536_56
      000803 EB               [ 4] 1683 	mov	a,r3
      000804 F0               [ 8] 1684 	movx	@dptr,a
      000805 A3               [12] 1685 	inc	dptr
      000806 EF               [ 4] 1686 	mov	a,r7
      000807 F0               [ 8] 1687 	movx	@dptr,a
      000808 A3               [12] 1688 	inc	dptr
      000809 E8               [ 4] 1689 	mov	a,r0
      00080A F0               [ 8] 1690 	movx	@dptr,a
      00080B A3               [12] 1691 	inc	dptr
      00080C E9               [ 4] 1692 	mov	a,r1
      00080D F0               [ 8] 1693 	movx	@dptr,a
      00080E A3               [12] 1694 	inc	dptr
      00080F EA               [ 4] 1695 	mov	a,r2
      000810 F0               [ 8] 1696 	movx	@dptr,a
      000811 A3               [12] 1697 	inc	dptr
      000812 EC               [ 4] 1698 	mov	a,r4
      000813 F0               [ 8] 1699 	movx	@dptr,a
      000814 A3               [12] 1700 	inc	dptr
      000815 ED               [ 4] 1701 	mov	a,r5
      000816 F0               [ 8] 1702 	movx	@dptr,a
      000817 A3               [12] 1703 	inc	dptr
      000818 EE               [ 4] 1704 	mov	a,r6
      000819 F0               [ 8] 1705 	movx	@dptr,a
      00081A 90s00r00rD8      [12] 1706 	mov	dptr,#___ckd_mul_ulong_result_65536_56
      00081E E0               [ 8] 1707 	movx	a,@dptr
      00081F FA               [ 4] 1708 	mov	r2,a
      000820 A3               [12] 1709 	inc	dptr
      000821 E0               [ 8] 1710 	movx	a,@dptr
      000822 FB               [ 4] 1711 	mov	r3,a
      000823 A3               [12] 1712 	inc	dptr
      000824 E0               [ 8] 1713 	movx	a,@dptr
      000825 FC               [ 4] 1714 	mov	r4,a
      000826 A3               [12] 1715 	inc	dptr
      000827 E0               [ 8] 1716 	movx	a,@dptr
      000828 FD               [ 4] 1717 	mov	r5,a
      000829 90s00r00rD4      [12] 1718 	mov	dptr,#___ckd_mul_ulong_r_65536_55
      00082D E0               [ 8] 1719 	movx	a,@dptr
      00082E C0 E0            [ 8] 1720 	push	acc
      000830 A3               [12] 1721 	inc	dptr
      000831 E0               [ 8] 1722 	movx	a,@dptr
      000832 C0 E0            [ 8] 1723 	push	acc
      000834 A3               [12] 1724 	inc	dptr
      000835 E0               [ 8] 1725 	movx	a,@dptr
      000836 C0 E0            [ 8] 1726 	push	acc
      000838 A3               [12] 1727 	inc	dptr
      000839 E0               [ 8] 1728 	movx	a,@dptr
      00083A F5 F0            [ 8] 1729 	mov	b,a
      00083C D0 93            [ 8] 1730 	pop	dpx
      00083E D0 83            [ 8] 1731 	pop	dph
      000840 D0 82            [ 8] 1732 	pop	dpl
      000842 8A 9C            [ 8] 1733 	mov	acc1, r2
      000844 EB               [ 4] 1734 	mov	a,r3
      000845 12s00r00r00      [16] 1735 	lcall	__gptrputWord
      000849 A3               [12] 1736 	inc	dptr
      00084A 8C 9C            [ 8] 1737 	mov	acc1, r4
      00084C ED               [ 4] 1738 	mov	a,r5
      00084D 12s00r00r00      [16] 1739 	lcall	__gptrputWord
      000851 7E 00            [ 8] 1740 	mov	r6,#0x00
      000853 7F 00            [ 8] 1741 	mov	r7,#0x00
      000855 78 00            [ 8] 1742 	mov	r0,#0x00
      000857 79 00            [ 8] 1743 	mov	r1,#0x00
      000859 90s00r00rD8      [12] 1744 	mov	dptr,#___ckd_mul_ulong_result_65536_56
      00085D 8A F0            [ 8] 1745 	mov	b,r2
      00085F E0               [ 8] 1746 	movx	a,@dptr
      000860 B5 F0 35         [16] 1747 	cjne	a,b,00103$
      000863 8B F0            [ 8] 1748 	mov	b,r3
      000865 A3               [12] 1749 	inc	dptr
      000866 E0               [ 8] 1750 	movx	a,@dptr
      000867 B5 F0 2E         [16] 1751 	cjne	a,b,00103$
      00086A 8C F0            [ 8] 1752 	mov	b,r4
      00086C A3               [12] 1753 	inc	dptr
      00086D E0               [ 8] 1754 	movx	a,@dptr
      00086E B5 F0 27         [16] 1755 	cjne	a,b,00103$
      000871 8D F0            [ 8] 1756 	mov	b,r5
      000873 A3               [12] 1757 	inc	dptr
      000874 E0               [ 8] 1758 	movx	a,@dptr
      000875 B5 F0 20         [16] 1759 	cjne	a,b,00103$
      000878 8E F0            [ 8] 1760 	mov	b,r6
      00087A A3               [12] 1761 	inc	dptr
      00087B E0               [ 8] 1762 	movx	a,@dptr
      00087C B5 F0 19         [16] 1763 	cjne	a,b,00103$
      00087F 8F F0            [ 8] 1764 	mov	b,r7
      000881 A3               [12] 1765 	inc	dptr
      000882 E0               [ 8] 1766 	movx	a,@dptr
      000883 B5 F0 12         [16] 1767 	cjne	a,b,00103$
      000886 88 F0            [ 8] 1768 	mov	b,r0
      000888 A3               [12] 1769 	inc	dptr
      000889 E0               [ 8] 1770 	movx	a,@dptr
      00088A B5 F0 0B         [16] 1771 	cjne	a,b,00103$
      00088D 89 F0            [ 8] 1772 	mov	b,r1
      00088F A3               [12] 1773 	inc	dptr
      000890 E0               [ 8] 1774 	movx	a,@dptr
      000891 B5 F0 04         [16] 1775 	cjne	a,b,00103$
      000894 74 01            [ 8] 1776 	mov	a,#0x01
      000896 80 01            [12] 1777 	sjmp	00104$
      000898                       1778 00103$:
      000898 E4               [ 4] 1779 	clr	a
      000899                       1780 00104$:
      000899 24 FF            [ 8] 1781 	add	a,#0xff
      00089B 92*07            [ 8] 1782 	mov	___ckd_mul_ulong_sloc0_1_0,c
      00089D B2*07            [ 8] 1783 	cpl	___ckd_mul_ulong_sloc0_1_0
      00089F A2*07            [ 8] 1784 	mov	c,___ckd_mul_ulong_sloc0_1_0
      0008A1 E4               [ 4] 1785 	clr	a
      0008A2 33               [ 4] 1786 	rlc	a
      0008A3 F5 82            [ 8] 1787 	mov	dpl,a
      0008A5                       1788 00101$:
      0008A5 22               [16] 1789 	ret
                                   1790 	.area CSEG    (CODE)
                                   1791 	.area CONST   (CODE)
                                   1792 	.area XINIT   (CODE)
                                   1793 	.area CABS    (ABS,CODE)
