                                      1 ;--------------------------------------------------------
                                      2 ; File Created by SDCC : free open source ISO C Compiler 
                                      3 ; Version 4.2.14 #0 (Linux)
                                      4 ;--------------------------------------------------------
                                      5 	.module mblen
                                      6 	.optsdcc -mds390 --model-flat24
                                      7 	
                                      8 ;--------------------------------------------------------
                                      9 ; CPU specific extensions
                                     10 ;--------------------------------------------------------
                                     11 	.DS80C390
                                     12 	.amode	2	; 24 bit flat addressing
                           000082    13 dpl	=	0x82
                           000083    14 dph	=	0x83
                           000084    15 dpl1	=	0x84
                           000085    16 dph1	=	0x85
                           000086    17 dps	=	0x86
                           000093    18 dpx	=	0x93
                           000095    19 dpx1	=	0x95
                           00009B    20 esp	=	0x9B
                           00009C    21 ap	=	0x9C
                           00009C    22 acc1	=	0x9C
                           0000D1    23 mcnt0	=	0xD1
                           0000D2    24 mcnt1	=	0xD2
                           0000D3    25 ma	=	0xD3
                           0000D4    26 mb	=	0xD4
                           0000D5    27 mc	=	0xD5
                           00009D    28 acon	=	0x9D
                           0000C6    29 mcon	=	0xC6
                           0000D1    30 F1	=	0xD1	; user flag
                                     31 ;--------------------------------------------------------
                                     32 ; Public variables in this module
                                     33 ;--------------------------------------------------------
                                     34 	.globl _mblen_PARM_2
                                     35 	.globl _mblen
                                     36 ;--------------------------------------------------------
                                     37 ; special function registers
                                     38 ;--------------------------------------------------------
                                     39 ;--------------------------------------------------------
                                     40 ; special function bits
                                     41 ;--------------------------------------------------------
                                     42 ;--------------------------------------------------------
                                     43 ; overlayable register banks
                                     44 ;--------------------------------------------------------
                                     45 	.area REG_BANK_0	(REL,OVR,DATA)
      000000                         46 	.ds 8
                                     47 ;--------------------------------------------------------
                                     48 ; internal ram data
                                     49 ;--------------------------------------------------------
                                     50 	.area DSEG    (DATA)
                                     51 ;--------------------------------------------------------
                                     52 ; overlayable items in internal ram
                                     53 ;--------------------------------------------------------
                                     54 ;--------------------------------------------------------
                                     55 ; indirectly addressable internal ram data
                                     56 ;--------------------------------------------------------
                                     57 	.area ISEG    (DATA)
                                     58 ;--------------------------------------------------------
                                     59 ; absolute internal ram data
                                     60 ;--------------------------------------------------------
                                     61 	.area IABS    (ABS,DATA)
                                     62 	.area IABS    (ABS,DATA)
                                     63 ;--------------------------------------------------------
                                     64 ; bit data
                                     65 ;--------------------------------------------------------
                                     66 	.area BSEG    (BIT)
                                     67 ;--------------------------------------------------------
                                     68 ; paged external ram data
                                     69 ;--------------------------------------------------------
                                     70 	.area PSEG    (PAG,XDATA)
                                     71 ;--------------------------------------------------------
                                     72 ; uninitialized external ram data
                                     73 ;--------------------------------------------------------
                                     74 	.area XSEG    (XDATA)
      000000                         75 _mblen_PARM_2:
      000000                         76 	.ds 2
                                     77 ;--------------------------------------------------------
                                     78 ; absolute external ram data
                                     79 ;--------------------------------------------------------
                                     80 	.area XABS    (ABS,XDATA)
                                     81 ;--------------------------------------------------------
                                     82 ; initialized external ram data
                                     83 ;--------------------------------------------------------
                                     84 	.area XISEG   (XDATA)
                                     85 ;--------------------------------------------------------
                                     86 ; global & static initialisations
                                     87 ;--------------------------------------------------------
                                     88 	.area HOME    (CODE)
                                     89 	.area GSINIT  (CODE)
                                     90 	.area GSFINAL (CODE)
                                     91 	.area GSINIT  (CODE)
                                     92 ;--------------------------------------------------------
                                     93 ; Home
                                     94 ;--------------------------------------------------------
                                     95 	.area HOME    (CODE)
                                     96 	.area HOME    (CODE)
                                     97 ;--------------------------------------------------------
                                     98 ; code
                                     99 ;--------------------------------------------------------
                                    100 	.area CSEG    (CODE)
                                    101 ;------------------------------------------------------------
                                    102 ;Allocation info for local variables in function 'mblen'
                                    103 ;------------------------------------------------------------
                                    104 ;n                         Allocated with name '_mblen_PARM_2'
                                    105 ;s                         Allocated to registers r2 r3 r4 r5 
                                    106 ;m                         Allocated to registers 
                                    107 ;c                         Allocated to registers r6 
                                    108 ;------------------------------------------------------------
                                    109 ;	mblen.c:31: int mblen(const char *s, size_t n)
                                    110 ;	-----------------------------------------
                                    111 ;	 function mblen
                                    112 ;	-----------------------------------------
      000000                        113 _mblen:
                           000002   114 	ar2 = 0x02
                           000003   115 	ar3 = 0x03
                           000004   116 	ar4 = 0x04
                           000005   117 	ar5 = 0x05
                           000006   118 	ar6 = 0x06
                           000007   119 	ar7 = 0x07
                           000000   120 	ar0 = 0x00
                           000001   121 	ar1 = 0x01
      000000 AA 82            [ 8]  122 	mov	r2,dpl
      000002 AB 83            [ 8]  123 	mov	r3,dph
      000004 AC 93            [ 8]  124 	mov	r4,dpx
      000006 AD F0            [ 8]  125 	mov	r5,b
                                    126 ;	mblen.c:36: if(!s)
      000008 EA               [ 4]  127 	mov	a,r2
      000009 4B               [ 4]  128 	orl	a,r3
      00000A 4C               [ 4]  129 	orl	a,r4
      00000B 70 08            [12]  130 	jnz  00102$
      00000D                        131 00162$:
                                    132 ;	mblen.c:37: return(0);
      00000D 90 00 00 00      [12]  133 	mov  dptr,#0x0000
      000011 02s00r00rB3      [16]  134 	ljmp	00119$
      000015                        135 00102$:
                                    136 ;	mblen.c:39: if(!n)
      000015 90s00r00r00      [12]  137 	mov	dptr,#_mblen_PARM_2
      000019 E0               [ 8]  138 	movx	a,@dptr
      00001A F5 F0            [ 8]  139 	mov	b,a
      00001C A3               [12]  140 	inc	dptr
      00001D E0               [ 8]  141 	movx	a,@dptr
      00001E 45 F0            [ 8]  142 	orl	a,b
      000020 70 08            [12]  143 	jnz  00104$
      000022                        144 00163$:
                                    145 ;	mblen.c:40: return(-1);
      000022 90 00 FF FF      [12]  146 	mov  dptr,#0xffff
      000026 02s00r00rB3      [16]  147 	ljmp	00119$
      00002A                        148 00104$:
                                    149 ;	mblen.c:42: c = *s;
      00002A 8A 82            [ 8]  150 	mov	dpl,r2
      00002C 8B 83            [ 8]  151 	mov	dph,r3
      00002E 8C 93            [ 8]  152 	mov	dpx,r4
      000030 8D F0            [ 8]  153 	mov	b,r5
      000032 12s00r00r00      [16]  154 	lcall	__gptrget
                                    155 ;	genAssign: resultIsFar = TRUE
                                    156 ;	mblen.c:44: if(!c)
      000036 FE               [ 4]  157 	mov  r6,a
      000037 70 08            [12]  158 	jnz  00106$
      000039                        159 00164$:
                                    160 ;	mblen.c:45: return(0);
      000039 90 00 00 00      [12]  161 	mov  dptr,#0x0000
      00003D 02s00r00rB3      [16]  162 	ljmp	00119$
      000041                        163 00106$:
                                    164 ;	mblen.c:47: if(c <= 0x7f)
      000041 C3               [ 4]  165 	clr	c
      000042 74 7F            [ 8]  166 	mov	a,#0x7f
      000044 9E               [ 4]  167 	subb	a,r6
      000045 40 06            [12]  168 	jc   00126$
      000047                        169 00165$:
                                    170 ;	mblen.c:48: return(1);
      000047 90 00 00 01      [12]  171 	mov  dptr,#0x0001
                                    172 ;	mblen.c:50: while(c & 0x80)
      00004B 80 66            [12]  173 	sjmp 00119$
      00004D                        174 00126$:
                                    175 ;	genAssign: resultIsFar = FALSE
      00004D 7F 00            [ 8]  176 	mov	r7,#0x00
      00004F                        177 00109$:
      00004F EE               [ 4]  178 	mov	a,r6
      000050 30 E7 0B         [12]  179 	jnb  acc[7],00111$
      000053                        180 00166$:
                                    181 ;	mblen.c:52: c <<= 1;
      000053 8E 00            [ 8]  182 	mov	ar0,r6
      000055 E8               [ 4]  183 	mov	a,r0
      000056 25 E0            [ 8]  184 	add	a,acc
      000058 F8               [ 4]  185 	mov	r0,a
                                    186 ;	genAssign: resultIsFar = TRUE
      000059 88 06            [ 8]  187 	mov	ar6,r0
                                    188 ;	mblen.c:53: m++;
      00005B 0F               [ 4]  189 	inc	r7
      00005C 80 F1            [12]  190 	sjmp 00109$
      00005E                        191 00111$:
                                    192 ;	mblen.c:56: if(m > n)
      00005E 8F 06            [ 8]  193 	mov	ar6,r7
      000060 78 00            [ 8]  194 	mov	r0,#0x00
      000062 90s00r00r00      [12]  195 	mov	dptr,#_mblen_PARM_2
      000066 C3               [ 4]  196 	clr	c
      000067 E0               [ 8]  197 	movx	a,@dptr
      000068 9E               [ 4]  198 	subb	a,r6
      000069 A3               [12]  199 	inc	dptr
      00006A E0               [ 8]  200 	movx	a,@dptr
      00006B 98               [ 4]  201 	subb	a,r0
      00006C 50 06            [12]  202 	jnc  00129$
      00006E                        203 00167$:
                                    204 ;	mblen.c:57: return(-1);
      00006E 90 00 FF FF      [12]  205 	mov  dptr,#0xffff
                                    206 ;	mblen.c:60: while(--m)
      000072 80 3F            [12]  207 	sjmp 00119$
      000074                        208 00129$:
                                    209 ;	genAssign: resultIsFar = FALSE
                                    210 ;	genAssign: resultIsFar = FALSE
      000074                        211 00116$:
      000074 1F               [ 4]  212 	dec	r7
      000075 EF               [ 4]  213 	mov	a,r7
      000076 60 37            [12]  214 	jz  00118$
      000078                        215 00168$:
                                    216 ;	mblen.c:61: if((*++s & 0xc0) != 0x80)
      000078 C0 06            [ 8]  217 	push	ar6
      00007A C0 00            [ 8]  218 	push	ar0
      00007C 0A               [ 4]  219 	inc	r2
      00007D BA 00 05         [16]  220 	cjne	r2,#0x00,00169$
      000080 0B               [ 4]  221 	inc	r3
      000081 BB 00 01         [16]  222 	cjne	r3,#0x00,00169$
      000084 0C               [ 4]  223 	inc	r4
      000085                        224 00169$:
      000085 8A 82            [ 8]  225 	mov	dpl,r2
      000087 8B 83            [ 8]  226 	mov	dph,r3
      000089 8C 93            [ 8]  227 	mov	dpx,r4
      00008B 8D F0            [ 8]  228 	mov	b,r5
      00008D 12s00r00r00      [16]  229 	lcall	__gptrget
      000091 F9               [ 4]  230 	mov	r1,a
      000092 7E 00            [ 8]  231 	mov	r6,#0x00
      000094 53 01 C0         [12]  232 	anl	ar1,#0xc0
      000097 7E 00            [ 8]  233 	mov	r6,#0x00
      000099 B9 80 09         [16]  234 	cjne	r1,#0x80,00170$
      00009C BE 00 06         [16]  235 	cjne	r6,#0x00,00170$
      00009F D0 00            [ 8]  236 	pop	ar0
      0000A1 D0 06            [ 8]  237 	pop	ar6
      0000A3 80 CF            [12]  238 	sjmp 00116$
      0000A5                        239 00170$:
      0000A5 D0 00            [ 8]  240 	pop	ar0
      0000A7 D0 06            [ 8]  241 	pop	ar6
                                    242 ;	mblen.c:62: return(-1);
      0000A9 90 00 FF FF      [12]  243 	mov  dptr,#0xffff
      0000AD 80 04            [12]  244 	sjmp 00119$
      0000AF                        245 00118$:
                                    246 ;	mblen.c:64: return(n);
      0000AF 8E 82            [ 8]  247 	mov	dpl,r6
      0000B1 88 83            [ 8]  248 	mov	dph,r0
      0000B3                        249 00119$:
                                    250 ;	mblen.c:65: }
      0000B3 22               [16]  251 	ret
                                    252 	.area CSEG    (CODE)
                                    253 	.area CONST   (CODE)
                                    254 	.area XINIT   (CODE)
                                    255 	.area CABS    (ABS,CODE)
