                                      1 ;--------------------------------------------------------
                                      2 ; File Created by SDCC : free open source ISO C Compiler 
                                      3 ; Version 4.2.14 #0 (Linux)
                                      4 ;--------------------------------------------------------
                                      5 	.module powf
                                      6 	.optsdcc -mds390 --model-flat24
                                      7 	
                                      8 ;--------------------------------------------------------
                                      9 ; CPU specific extensions
                                     10 ;--------------------------------------------------------
                                     11 	.DS80C390
                                     12 	.amode	2	; 24 bit flat addressing
                           000082    13 dpl	=	0x82
                           000083    14 dph	=	0x83
                           000084    15 dpl1	=	0x84
                           000085    16 dph1	=	0x85
                           000086    17 dps	=	0x86
                           000093    18 dpx	=	0x93
                           000095    19 dpx1	=	0x95
                           00009B    20 esp	=	0x9B
                           00009C    21 ap	=	0x9C
                           00009C    22 acc1	=	0x9C
                           0000D1    23 mcnt0	=	0xD1
                           0000D2    24 mcnt1	=	0xD2
                           0000D3    25 ma	=	0xD3
                           0000D4    26 mb	=	0xD4
                           0000D5    27 mc	=	0xD5
                           00009D    28 acon	=	0x9D
                           0000C6    29 mcon	=	0xC6
                           0000D1    30 F1	=	0xD1	; user flag
                                     31 ;--------------------------------------------------------
                                     32 ; Public variables in this module
                                     33 ;--------------------------------------------------------
                                     34 	.globl _logf
                                     35 	.globl _expf
                                     36 	.globl _powf_PARM_2
                                     37 	.globl _powf
                                     38 ;--------------------------------------------------------
                                     39 ; special function registers
                                     40 ;--------------------------------------------------------
                                     41 ;--------------------------------------------------------
                                     42 ; special function bits
                                     43 ;--------------------------------------------------------
                                     44 ;--------------------------------------------------------
                                     45 ; overlayable register banks
                                     46 ;--------------------------------------------------------
                                     47 	.area REG_BANK_0	(REL,OVR,DATA)
      000000                         48 	.ds 8
                                     49 ;--------------------------------------------------------
                                     50 ; internal ram data
                                     51 ;--------------------------------------------------------
                                     52 	.area DSEG    (DATA)
                                     53 ;--------------------------------------------------------
                                     54 ; overlayable items in internal ram
                                     55 ;--------------------------------------------------------
                                     56 ;--------------------------------------------------------
                                     57 ; indirectly addressable internal ram data
                                     58 ;--------------------------------------------------------
                                     59 	.area ISEG    (DATA)
                                     60 ;--------------------------------------------------------
                                     61 ; absolute internal ram data
                                     62 ;--------------------------------------------------------
                                     63 	.area IABS    (ABS,DATA)
                                     64 	.area IABS    (ABS,DATA)
                                     65 ;--------------------------------------------------------
                                     66 ; bit data
                                     67 ;--------------------------------------------------------
                                     68 	.area BSEG    (BIT)
                                     69 ;--------------------------------------------------------
                                     70 ; paged external ram data
                                     71 ;--------------------------------------------------------
                                     72 	.area PSEG    (PAG,XDATA)
                                     73 ;--------------------------------------------------------
                                     74 ; uninitialized external ram data
                                     75 ;--------------------------------------------------------
                                     76 	.area XSEG    (XDATA)
      000000                         77 _powf_PARM_2:
      000000                         78 	.ds 4
                                     79 ;--------------------------------------------------------
                                     80 ; absolute external ram data
                                     81 ;--------------------------------------------------------
                                     82 	.area XABS    (ABS,XDATA)
                                     83 ;--------------------------------------------------------
                                     84 ; initialized external ram data
                                     85 ;--------------------------------------------------------
                                     86 	.area XISEG   (XDATA)
                                     87 ;--------------------------------------------------------
                                     88 ; global & static initialisations
                                     89 ;--------------------------------------------------------
                                     90 	.area HOME    (CODE)
                                     91 	.area GSINIT  (CODE)
                                     92 	.area GSFINAL (CODE)
                                     93 	.area GSINIT  (CODE)
                                     94 ;--------------------------------------------------------
                                     95 ; Home
                                     96 ;--------------------------------------------------------
                                     97 	.area HOME    (CODE)
                                     98 	.area HOME    (CODE)
                                     99 ;--------------------------------------------------------
                                    100 ; code
                                    101 ;--------------------------------------------------------
                                    102 	.area CSEG    (CODE)
                                    103 ;------------------------------------------------------------
                                    104 ;Allocation info for local variables in function 'powf'
                                    105 ;------------------------------------------------------------
                                    106 ;y                         Allocated with name '_powf_PARM_2'
                                    107 ;x                         Allocated to registers r2 r3 r4 r5 
                                    108 ;------------------------------------------------------------
                                    109 ;	powf.c:35: float powf(float x, float y)
                                    110 ;	-----------------------------------------
                                    111 ;	 function powf
                                    112 ;	-----------------------------------------
      000000                        113 _powf:
                           000002   114 	ar2 = 0x02
                           000003   115 	ar3 = 0x03
                           000004   116 	ar4 = 0x04
                           000005   117 	ar5 = 0x05
                           000006   118 	ar6 = 0x06
                           000007   119 	ar7 = 0x07
                           000000   120 	ar0 = 0x00
                           000001   121 	ar1 = 0x01
      000000 AA 82            [ 8]  122 	mov	r2,dpl
      000002 AB 83            [ 8]  123 	mov	r3,dph
      000004 AC 93            [ 8]  124 	mov	r4,dpx
      000006 AD F0            [ 8]  125 	mov	r5,b
                                    126 ;	powf.c:37: if(y == 0.0) return 1.0;
      000008 90s00r00r00      [12]  127 	mov	dptr,#_powf_PARM_2
      00000C E0               [ 8]  128 	movx	a,@dptr
      00000D F5 F0            [ 8]  129 	mov	b,a
      00000F A3               [12]  130 	inc	dptr
      000010 E0               [ 8]  131 	movx	a,@dptr
      000011 42 F0            [ 8]  132 	orl	b,a
      000013 A3               [12]  133 	inc	dptr
      000014 E0               [ 8]  134 	movx	a,@dptr
      000015 42 F0            [ 8]  135 	orl	b,a
      000017 A3               [12]  136 	inc	dptr
      000018 E0               [ 8]  137 	movx	a,@dptr
      000019 54 7F            [ 8]  138 	anl	a,#0x7F
      00001B 45 F0            [ 8]  139 	orl	a,b
      00001D 70 0E            [12]  140 	jnz  00102$
      00001F                        141 00121$:
      00001F 90 00 00 00      [12]  142 	mov  dptr,#0x0000
      000023 75 93 80         [12]  143 	mov	dpx,#0x80
      000026 75 F0 3F         [12]  144 	mov	b,#0x3f
      000029 02s00r00rF1      [16]  145 	ljmp	00107$
      00002D                        146 00102$:
                                    147 ;	powf.c:38: if(y == 1.0) return x;
                                    148 ;	genAssign: resultIsFar = TRUE
      00002D 90s00r00r00      [12]  149 	mov	dptr,#___fseq_PARM_2
      000031 E4               [ 4]  150 	clr	a
      000032 F0               [ 8]  151 	movx	@dptr,a
      000033 A3               [12]  152 	inc	dptr
      000034 E4               [ 4]  153 	clr	a
      000035 F0               [ 8]  154 	movx	@dptr,a
      000036 A3               [12]  155 	inc	dptr
      000037 74 80            [ 8]  156 	mov	a,#0x80
      000039 F0               [ 8]  157 	movx	@dptr,a
      00003A A3               [12]  158 	inc	dptr
      00003B 74 3F            [ 8]  159 	mov	a,#0x3f
      00003D F0               [ 8]  160 	movx	@dptr,a
      00003E C0 02            [ 8]  161 	push	ar2
      000040 C0 03            [ 8]  162 	push	ar3
      000042 C0 04            [ 8]  163 	push	ar4
      000044 C0 05            [ 8]  164 	push	ar5
      000046 05 86            [ 8]  165 	inc	dps
      000048 90s00r00r00      [12]  166 	mov	dptr,#_powf_PARM_2
      00004C E0               [ 8]  167 	movx	a,@dptr
      00004D F5 82            [ 8]  168 	mov	dpl,a
      00004F A3               [12]  169 	inc	dptr
      000050 E0               [ 8]  170 	movx	a,@dptr
      000051 F5 83            [ 8]  171 	mov	dph,a
      000053 A3               [12]  172 	inc	dptr
      000054 E0               [ 8]  173 	movx	a,@dptr
      000055 F5 93            [ 8]  174 	mov	dpx,a
      000057 A3               [12]  175 	inc	dptr
      000058 E0               [ 8]  176 	movx	a,@dptr
      000059 F5 F0            [ 8]  177 	mov	b,a
      00005B 75 86 00         [12]  178 	mov	dps,#0
      00005E 12s00r00r00      [16]  179 	lcall	___fseq
      000062 D0 05            [ 8]  180 	pop	ar5
      000064 D0 04            [ 8]  181 	pop	ar4
      000066 D0 03            [ 8]  182 	pop	ar3
      000068 D0 02            [ 8]  183 	pop	ar2
      00006A E5 82            [ 8]  184 	mov	a,dpl
      00006C 60 0C            [12]  185 	jz  00104$
      00006E                        186 00122$:
      00006E 8A 82            [ 8]  187 	mov	dpl,r2
      000070 8B 83            [ 8]  188 	mov	dph,r3
      000072 8C 93            [ 8]  189 	mov	dpx,r4
      000074 8D F0            [ 8]  190 	mov	b,r5
      000076 02s00r00rF1      [16]  191 	ljmp	00107$
      00007A                        192 00104$:
                                    193 ;	powf.c:39: if(x <= 0.0) return 0.0;
                                    194 ;	genAssign: resultIsFar = TRUE
      00007A 90s00r00r00      [12]  195 	mov	dptr,#___fslt_PARM_2
      00007E EA               [ 4]  196 	mov	a,r2
      00007F F0               [ 8]  197 	movx	@dptr,a
      000080 A3               [12]  198 	inc	dptr
      000081 EB               [ 4]  199 	mov	a,r3
      000082 F0               [ 8]  200 	movx	@dptr,a
      000083 A3               [12]  201 	inc	dptr
      000084 EC               [ 4]  202 	mov	a,r4
      000085 F0               [ 8]  203 	movx	@dptr,a
      000086 A3               [12]  204 	inc	dptr
      000087 ED               [ 4]  205 	mov	a,r5
      000088 F0               [ 8]  206 	movx	@dptr,a
      000089 C0 02            [ 8]  207 	push	ar2
      00008B C0 03            [ 8]  208 	push	ar3
      00008D C0 04            [ 8]  209 	push	ar4
      00008F C0 05            [ 8]  210 	push	ar5
      000091 90 00 00 00      [12]  211 	mov  dptr,#0x0000
      000095 75 F0 00         [12]  212 	mov	b,#0x00
      000098 12s00r00r00      [16]  213 	lcall	___fslt
      00009C D0 05            [ 8]  214 	pop	ar5
      00009E D0 04            [ 8]  215 	pop	ar4
      0000A0 D0 03            [ 8]  216 	pop	ar3
      0000A2 D0 02            [ 8]  217 	pop	ar2
      0000A4 E5 82            [ 8]  218 	mov	a,dpl
      0000A6 70 09            [12]  219 	jnz  00106$
      0000A8                        220 00123$:
      0000A8 90 00 00 00      [12]  221 	mov  dptr,#0x0000
      0000AC 75 F0 00         [12]  222 	mov	b,#0x00
      0000AF 80 40            [12]  223 	sjmp 00107$
      0000B1                        224 00106$:
                                    225 ;	powf.c:40: return expf(logf(x) * y);
      0000B1 8A 82            [ 8]  226 	mov	dpl,r2
      0000B3 8B 83            [ 8]  227 	mov	dph,r3
      0000B5 8C 93            [ 8]  228 	mov	dpx,r4
      0000B7 8D F0            [ 8]  229 	mov	b,r5
      0000B9 12s00r00r00      [16]  230 	lcall	_logf
      0000BD AA 82            [ 8]  231 	mov	r2,dpl
      0000BF AB 83            [ 8]  232 	mov	r3,dph
      0000C1 AC 93            [ 8]  233 	mov	r4,dpx
      0000C3 AD F0            [ 8]  234 	mov	r5,b
      0000C5 90s00r00r00      [12]  235 	mov	dptr,#_powf_PARM_2
                                    236 ;	genAssign: resultIsFar = TRUE
      0000C9 75 86 21         [12]  237 	mov	dps,#0x21
      0000CC 90s00r00r00      [12]  238 	mov	dptr,#___fsmul_PARM_2
      0000D0 E0               [ 8]  239 	movx	a,@dptr
      0000D1 F0               [ 8]  240 	movx	@dptr,a
      0000D2 A3               [12]  241 	inc	dptr
      0000D3 A3               [12]  242 	inc	dptr
      0000D4 E0               [ 8]  243 	movx	a,@dptr
      0000D5 F0               [ 8]  244 	movx	@dptr,a
      0000D6 A3               [12]  245 	inc	dptr
      0000D7 A3               [12]  246 	inc	dptr
      0000D8 E0               [ 8]  247 	movx	a,@dptr
      0000D9 F0               [ 8]  248 	movx	@dptr,a
      0000DA A3               [12]  249 	inc	dptr
      0000DB A3               [12]  250 	inc	dptr
      0000DC E0               [ 8]  251 	movx	a,@dptr
      0000DD F0               [ 8]  252 	movx	@dptr,a
      0000DE 75 86 00         [12]  253 	mov	dps,#0
      0000E1 8A 82            [ 8]  254 	mov	dpl,r2
      0000E3 8B 83            [ 8]  255 	mov	dph,r3
      0000E5 8C 93            [ 8]  256 	mov	dpx,r4
      0000E7 8D F0            [ 8]  257 	mov	b,r5
      0000E9 12s00r00r00      [16]  258 	lcall	___fsmul
      0000ED 12s00r00r00      [16]  259 	lcall	_expf
      0000F1                        260 00107$:
                                    261 ;	powf.c:41: }
      0000F1 22               [16]  262 	ret
                                    263 	.area CSEG    (CODE)
                                    264 	.area CONST   (CODE)
                                    265 	.area XINIT   (CODE)
                                    266 	.area CABS    (ABS,CODE)
