                              1 ;--------------------------------------------------------
                              2 ; File Created by SDCC : free open source ISO C Compiler 
                              3 ; Version 4.2.14 #0 (Linux)
                              4 ;--------------------------------------------------------
                              5 	.cs08
                              6 	.module __stdc_first_leading_one
                              7 	.optsdcc -ms08
                              8 	
                              9 	.area HOME    (CODE)
                             10 	.area GSINIT0 (CODE)
                             11 	.area GSINIT  (CODE)
                             12 	.area GSFINAL (CODE)
                             13 	.area CSEG    (CODE)
                             14 	.area XINIT   (CODE)
                             15 	.area CONST   (CODE)
                             16 	.area DSEG    (PAG)
                             17 	.area OSEG    (PAG, OVR)
                             18 	.area XSEG
                             19 	.area XISEG
                             20 ;--------------------------------------------------------
                             21 ; Public variables in this module
                             22 ;--------------------------------------------------------
                             23 	.globl ___stdc_first_leading_one_PARM_2
                             24 	.globl ___stdc_first_leading_one_PARM_1
                             25 	.globl ___stdc_first_leading_one
                             26 ;--------------------------------------------------------
                             27 ; ram data
                             28 ;--------------------------------------------------------
                             29 	.area DSEG    (PAG)
   0000                      30 ___stdc_first_leading_one_sloc0_1_0:
   0000                      31 	.ds 1
   0001                      32 ___stdc_first_leading_one_sloc1_1_0:
   0001                      33 	.ds 8
                             34 ;--------------------------------------------------------
                             35 ; overlayable items in ram
                             36 ;--------------------------------------------------------
                             37 ;--------------------------------------------------------
                             38 ; absolute ram data
                             39 ;--------------------------------------------------------
                             40 	.area IABS    (ABS)
                             41 	.area IABS    (ABS)
                             42 ;--------------------------------------------------------
                             43 ; absolute external ram data
                             44 ;--------------------------------------------------------
                             45 	.area XABS    (ABS)
                             46 ;--------------------------------------------------------
                             47 ; initialized external ram data
                             48 ;--------------------------------------------------------
                             49 	.area XISEG
                             50 ;--------------------------------------------------------
                             51 ; extended address mode data
                             52 ;--------------------------------------------------------
                             53 	.area XSEG
   0000                      54 ___stdc_first_leading_one_PARM_1:
   0000                      55 	.ds 8
   0008                      56 ___stdc_first_leading_one_PARM_2:
   0008                      57 	.ds 1
   0009                      58 ___stdc_first_leading_one_i_131072_10:
   0009                      59 	.ds 1
                             60 ;--------------------------------------------------------
                             61 ; global & static initialisations
                             62 ;--------------------------------------------------------
                             63 	.area HOME    (CODE)
                             64 	.area GSINIT  (CODE)
                             65 	.area GSFINAL (CODE)
                             66 	.area GSINIT  (CODE)
                             67 ;--------------------------------------------------------
                             68 ; Home
                             69 ;--------------------------------------------------------
                             70 	.area HOME    (CODE)
                             71 	.area HOME    (CODE)
                             72 ;--------------------------------------------------------
                             73 ; code
                             74 ;--------------------------------------------------------
                             75 	.area CSEG    (CODE)
                             76 ;------------------------------------------------------------
                             77 ;Allocation info for local variables in function '__stdc_first_leading_one'
                             78 ;------------------------------------------------------------
                             79 ;sloc0                     Allocated with name '___stdc_first_leading_one_sloc0_1_0'
                             80 ;sloc1                     Allocated with name '___stdc_first_leading_one_sloc1_1_0'
                             81 ;value                     Allocated with name '___stdc_first_leading_one_PARM_1'
                             82 ;width                     Allocated with name '___stdc_first_leading_one_PARM_2'
                             83 ;i                         Allocated with name '___stdc_first_leading_one_i_131072_10'
                             84 ;------------------------------------------------------------
                             85 ;../__stdc_first_leading_one.c:36: int_fast8_t __stdc_first_leading_one(unsigned long long value, uint_fast8_t width)
                             86 ;	-----------------------------------------
                             87 ;	 function __stdc_first_leading_one
                             88 ;	-----------------------------------------
                             89 ;	Register assignment is optimal.
                             90 ;	Stack space usage: 0 bytes.
   0000                      91 ___stdc_first_leading_one:
                             92 ;../__stdc_first_leading_one.c:38: for(int_fast8_t i = width - 1; i >= 0; i--)
   0000 C6r00r08      [ 4]   93 	lda	___stdc_first_leading_one_PARM_2
   0003 B7*00         [ 3]   94 	sta	*___stdc_first_leading_one_sloc0_1_0
   0005 B6*00         [ 3]   95 	lda	*___stdc_first_leading_one_sloc0_1_0
   0007 A0 01         [ 2]   96 	sub	#0x01
   0009 C7r00r09      [ 4]   97 	sta	___stdc_first_leading_one_i_131072_10
   000C C6r00r09      [ 4]   98 	lda	___stdc_first_leading_one_i_131072_10
   000F                      99 00105$:
   000F A1 00         [ 2]  100 	cmp	#0x00
   0011 91 71         [ 3]  101 	blt	00103$
                            102 ;../__stdc_first_leading_one.c:39: if(value & (1ull << i))
   0013 C7r00r00      [ 4]  103 	sta	__rlulonglong_PARM_2
   0016 8C            [ 1]  104 	clrh
   0017 5F            [ 1]  105 	clrx
   0018 96r00r00      [ 5]  106 	sthx	__rlulonglong_PARM_1
   001B 96r00r02      [ 5]  107 	sthx	(__rlulonglong_PARM_1 + 2)
   001E 96r00r04      [ 5]  108 	sthx	(__rlulonglong_PARM_1 + 4)
   0021 5C            [ 1]  109 	incx
   0022 96r00r06      [ 5]  110 	sthx	(__rlulonglong_PARM_1 + 6)
   0025 87            [ 2]  111 	psha
   0026 CDr00r00      [ 6]  112 	jsr	__rlulonglong
   0029 B7*08         [ 3]  113 	sta	*(___stdc_first_leading_one_sloc1_1_0 + 7)
   002B BF*07         [ 3]  114 	stx	*(___stdc_first_leading_one_sloc1_1_0 + 6)
   002D 4E*00*06      [ 6]  115 	mov	*___SDCC_hc08_ret2,*(___stdc_first_leading_one_sloc1_1_0 + 5)
   0030 4E*00*05      [ 6]  116 	mov	*___SDCC_hc08_ret3,*(___stdc_first_leading_one_sloc1_1_0 + 4)
   0033 4E*00*04      [ 6]  117 	mov	*___SDCC_hc08_ret4,*(___stdc_first_leading_one_sloc1_1_0 + 3)
   0036 4E*00*03      [ 6]  118 	mov	*___SDCC_hc08_ret5,*(___stdc_first_leading_one_sloc1_1_0 + 2)
   0039 4E*00*02      [ 6]  119 	mov	*___SDCC_hc08_ret6,*(___stdc_first_leading_one_sloc1_1_0 + 1)
   003C 4E*00*01      [ 6]  120 	mov	*___SDCC_hc08_ret7,*___stdc_first_leading_one_sloc1_1_0
   003F C6r00r07      [ 4]  121 	lda	(___stdc_first_leading_one_PARM_1 + 7)
   0042 B5*08         [ 3]  122 	bit	*(___stdc_first_leading_one_sloc1_1_0 + 7)
   0044 26 2F         [ 3]  123 	bne	00125$
   0046 C6r00r06      [ 4]  124 	lda	(___stdc_first_leading_one_PARM_1 + 6)
   0049 B5*07         [ 3]  125 	bit	*(___stdc_first_leading_one_sloc1_1_0 + 6)
   004B 26 28         [ 3]  126 	bne	00125$
   004D C6r00r05      [ 4]  127 	lda	(___stdc_first_leading_one_PARM_1 + 5)
   0050 B5*06         [ 3]  128 	bit	*(___stdc_first_leading_one_sloc1_1_0 + 5)
   0052 26 21         [ 3]  129 	bne	00125$
   0054 C6r00r04      [ 4]  130 	lda	(___stdc_first_leading_one_PARM_1 + 4)
   0057 B5*05         [ 3]  131 	bit	*(___stdc_first_leading_one_sloc1_1_0 + 4)
   0059 26 1A         [ 3]  132 	bne	00125$
   005B C6r00r03      [ 4]  133 	lda	(___stdc_first_leading_one_PARM_1 + 3)
   005E B5*04         [ 3]  134 	bit	*(___stdc_first_leading_one_sloc1_1_0 + 3)
   0060 26 13         [ 3]  135 	bne	00125$
   0062 C6r00r02      [ 4]  136 	lda	(___stdc_first_leading_one_PARM_1 + 2)
   0065 B5*03         [ 3]  137 	bit	*(___stdc_first_leading_one_sloc1_1_0 + 2)
   0067 26 0C         [ 3]  138 	bne	00125$
   0069 C6r00r01      [ 4]  139 	lda	(___stdc_first_leading_one_PARM_1 + 1)
   006C B5*02         [ 3]  140 	bit	*(___stdc_first_leading_one_sloc1_1_0 + 1)
   006E 26 05         [ 3]  141 	bne	00125$
   0070 C6r00r00      [ 4]  142 	lda	___stdc_first_leading_one_PARM_1
   0073 B5*01         [ 3]  143 	bit	*___stdc_first_leading_one_sloc1_1_0
   0075                     144 00125$:
   0075 86            [ 3]  145 	pula
   0076 27 06         [ 3]  146 	beq	00106$
                            147 ;../__stdc_first_leading_one.c:40: return (width - i);
   0078 B6*00         [ 3]  148 	lda	*___stdc_first_leading_one_sloc0_1_0
   007A C0r00r09      [ 4]  149 	sub	___stdc_first_leading_one_i_131072_10
   007D 81            [ 6]  150 	rts
   007E                     151 00106$:
                            152 ;../__stdc_first_leading_one.c:38: for(int_fast8_t i = width - 1; i >= 0; i--)
   007E 4A            [ 1]  153 	deca
   007F C7r00r09      [ 4]  154 	sta	___stdc_first_leading_one_i_131072_10
   0082 20 8B         [ 3]  155 	bra	00105$
   0084                     156 00103$:
                            157 ;../__stdc_first_leading_one.c:41: return 0;
   0084 4F            [ 1]  158 	clra
                            159 ;../__stdc_first_leading_one.c:42: }
   0085 81            [ 6]  160 	rts
                            161 	.area CSEG    (CODE)
                            162 	.area CONST   (CODE)
                            163 	.area XINIT   (CODE)
                            164 	.area CABS    (ABS,CODE)
