                              1 ;--------------------------------------------------------
                              2 ; File Created by SDCC : free open source ISO C Compiler 
                              3 ; Version 4.2.14 #0 (Linux)
                              4 ;--------------------------------------------------------
                              5 	.cs08
                              6 	.module _ulonglong2fs
                              7 	.optsdcc -ms08
                              8 	
                              9 	.area HOME    (CODE)
                             10 	.area GSINIT0 (CODE)
                             11 	.area GSINIT  (CODE)
                             12 	.area GSFINAL (CODE)
                             13 	.area CSEG    (CODE)
                             14 	.area XINIT   (CODE)
                             15 	.area CONST   (CODE)
                             16 	.area DSEG    (PAG)
                             17 	.area OSEG    (PAG, OVR)
                             18 	.area XSEG
                             19 	.area XISEG
                             20 ;--------------------------------------------------------
                             21 ; Public variables in this module
                             22 ;--------------------------------------------------------
                             23 	.globl ___ulonglong2fs_PARM_1
                             24 	.globl ___ulonglong2fs
                             25 ;--------------------------------------------------------
                             26 ; ram data
                             27 ;--------------------------------------------------------
                             28 	.area DSEG    (PAG)
   0000                      29 ___ulonglong2fs_sloc0_1_0:
   0000                      30 	.ds 1
   0001                      31 ___ulonglong2fs_sloc1_1_0:
   0001                      32 	.ds 4
   0005                      33 ___ulonglong2fs_sloc2_1_0:
   0005                      34 	.ds 4
                             35 ;--------------------------------------------------------
                             36 ; overlayable items in ram
                             37 ;--------------------------------------------------------
                             38 ;--------------------------------------------------------
                             39 ; absolute ram data
                             40 ;--------------------------------------------------------
                             41 	.area IABS    (ABS)
                             42 	.area IABS    (ABS)
                             43 ;--------------------------------------------------------
                             44 ; absolute external ram data
                             45 ;--------------------------------------------------------
                             46 	.area XABS    (ABS)
                             47 ;--------------------------------------------------------
                             48 ; initialized external ram data
                             49 ;--------------------------------------------------------
                             50 	.area XISEG
                             51 ;--------------------------------------------------------
                             52 ; extended address mode data
                             53 ;--------------------------------------------------------
                             54 	.area XSEG
   0000                      55 ___ulonglong2fs_PARM_1:
   0000                      56 	.ds 8
   0008                      57 ___ulonglong2fs_fl_65536_21:
   0008                      58 	.ds 4
                             59 ;--------------------------------------------------------
                             60 ; global & static initialisations
                             61 ;--------------------------------------------------------
                             62 	.area HOME    (CODE)
                             63 	.area GSINIT  (CODE)
                             64 	.area GSFINAL (CODE)
                             65 	.area GSINIT  (CODE)
                             66 ;--------------------------------------------------------
                             67 ; Home
                             68 ;--------------------------------------------------------
                             69 	.area HOME    (CODE)
                             70 	.area HOME    (CODE)
                             71 ;--------------------------------------------------------
                             72 ; code
                             73 ;--------------------------------------------------------
                             74 	.area CSEG    (CODE)
                             75 ;------------------------------------------------------------
                             76 ;Allocation info for local variables in function '__ulonglong2fs'
                             77 ;------------------------------------------------------------
                             78 ;sloc0                     Allocated with name '___ulonglong2fs_sloc0_1_0'
                             79 ;sloc1                     Allocated with name '___ulonglong2fs_sloc1_1_0'
                             80 ;sloc2                     Allocated with name '___ulonglong2fs_sloc2_1_0'
                             81 ;a                         Allocated with name '___ulonglong2fs_PARM_1'
                             82 ;exp                       Allocated to registers 
                             83 ;fl                        Allocated with name '___ulonglong2fs_fl_65536_21'
                             84 ;------------------------------------------------------------
                             85 ;../_ulonglong2fs.c:61: float __ulonglong2fs (unsigned long long a ) __SDCC_FLOAT_NONBANKED
                             86 ;	-----------------------------------------
                             87 ;	 function __ulonglong2fs
                             88 ;	-----------------------------------------
                             89 ;	Register assignment is optimal.
                             90 ;	Stack space usage: 0 bytes.
   0000                      91 ___ulonglong2fs:
                             92 ;../_ulonglong2fs.c:66: if (!a)
   0000 C6r00r00      [ 4]   93 	lda	___ulonglong2fs_PARM_1
   0003 CAr00r01      [ 4]   94 	ora	(___ulonglong2fs_PARM_1 + 1)
   0006 CAr00r02      [ 4]   95 	ora	(___ulonglong2fs_PARM_1 + 2)
   0009 CAr00r03      [ 4]   96 	ora	(___ulonglong2fs_PARM_1 + 3)
   000C CAr00r04      [ 4]   97 	ora	(___ulonglong2fs_PARM_1 + 4)
   000F CAr00r05      [ 4]   98 	ora	(___ulonglong2fs_PARM_1 + 5)
   0012 CAr00r06      [ 4]   99 	ora	(___ulonglong2fs_PARM_1 + 6)
   0015 CAr00r07      [ 4]  100 	ora	(___ulonglong2fs_PARM_1 + 7)
   0018 26 07         [ 3]  101 	bne	00102$
                            102 ;../_ulonglong2fs.c:68: return 0.0;
   001A 4F            [ 1]  103 	clra
   001B 97            [ 1]  104 	tax
   001C B7*00         [ 3]  105 	sta	*___SDCC_hc08_ret2
   001E B7*00         [ 3]  106 	sta	*___SDCC_hc08_ret3
   0020 81            [ 6]  107 	rts
   0021                     108 00102$:
                            109 ;../_ulonglong2fs.c:71: if (a == 0xffffffffffffffffull)
   0021 C6r00r07      [ 4]  110 	lda	(___ulonglong2fs_PARM_1 + 7)
   0024 A1 FF         [ 2]  111 	cmp	#0xff
   0026 26 30         [ 3]  112 	bne	00153$
   0028 C6r00r06      [ 4]  113 	lda	(___ulonglong2fs_PARM_1 + 6)
   002B A1 FF         [ 2]  114 	cmp	#0xff
   002D 26 29         [ 3]  115 	bne	00153$
   002F C6r00r05      [ 4]  116 	lda	(___ulonglong2fs_PARM_1 + 5)
   0032 A1 FF         [ 2]  117 	cmp	#0xff
   0034 26 22         [ 3]  118 	bne	00153$
   0036 C6r00r04      [ 4]  119 	lda	(___ulonglong2fs_PARM_1 + 4)
   0039 A1 FF         [ 2]  120 	cmp	#0xff
   003B 26 1B         [ 3]  121 	bne	00153$
   003D C6r00r03      [ 4]  122 	lda	(___ulonglong2fs_PARM_1 + 3)
   0040 A1 FF         [ 2]  123 	cmp	#0xff
   0042 26 14         [ 3]  124 	bne	00153$
   0044 C6r00r02      [ 4]  125 	lda	(___ulonglong2fs_PARM_1 + 2)
   0047 A1 FF         [ 2]  126 	cmp	#0xff
   0049 26 0D         [ 3]  127 	bne	00153$
   004B C6r00r01      [ 4]  128 	lda	(___ulonglong2fs_PARM_1 + 1)
   004E A1 FF         [ 2]  129 	cmp	#0xff
   0050 26 06         [ 3]  130 	bne	00153$
   0052 C6r00r00      [ 4]  131 	lda	___ulonglong2fs_PARM_1
   0055 41 FF 02      [ 4]  132 	cbeqa	#0xff,00154$
   0058                     133 00153$:
   0058 20 09         [ 3]  134 	bra	00118$
   005A                     135 00154$:
                            136 ;../_ulonglong2fs.c:73: return 18446744073709551616.0f;
   005A 4F            [ 1]  137 	clra
   005B 97            [ 1]  138 	tax
   005C 6E 80*00      [ 4]  139 	mov	#0x80,*___SDCC_hc08_ret2
   005F 6E 5F*00      [ 4]  140 	mov	#0x5f,*___SDCC_hc08_ret3
   0062 81            [ 6]  141 	rts
                            142 ;../_ulonglong2fs.c:76: while (a < HIDDEN)
   0063                     143 00118$:
   0063 A6 96         [ 2]  144 	lda	#0x96
   0065                     145 00105$:
   0065 87            [ 2]  146 	psha
   0066 C6r00r05      [ 4]  147 	lda	(___ulonglong2fs_PARM_1 + 5)
   0069 A0 80         [ 2]  148 	sub	#0x80
   006B C6r00r04      [ 4]  149 	lda	(___ulonglong2fs_PARM_1 + 4)
   006E A2 00         [ 2]  150 	sbc	#0x00
   0070 C6r00r03      [ 4]  151 	lda	(___ulonglong2fs_PARM_1 + 3)
   0073 A2 00         [ 2]  152 	sbc	#0x00
   0075 C6r00r02      [ 4]  153 	lda	(___ulonglong2fs_PARM_1 + 2)
   0078 A2 00         [ 2]  154 	sbc	#0x00
   007A C6r00r01      [ 4]  155 	lda	(___ulonglong2fs_PARM_1 + 1)
   007D A2 00         [ 2]  156 	sbc	#0x00
   007F C6r00r00      [ 4]  157 	lda	___ulonglong2fs_PARM_1
   0082 A2 00         [ 2]  158 	sbc	#0x00
   0084 86            [ 3]  159 	pula
   0085 24 49         [ 3]  160 	bcc	00121$
                            161 ;../_ulonglong2fs.c:78: a <<= 1;
   0087 32r00r00      [ 5]  162 	ldhx	___ulonglong2fs_PARM_1
   008A 96r00r00      [ 5]  163 	sthx	__rlulonglong_PARM_1
   008D 32r00r02      [ 5]  164 	ldhx	(___ulonglong2fs_PARM_1 + 2)
   0090 96r00r02      [ 5]  165 	sthx	(__rlulonglong_PARM_1 + 2)
   0093 32r00r04      [ 5]  166 	ldhx	(___ulonglong2fs_PARM_1 + 4)
   0096 96r00r04      [ 5]  167 	sthx	(__rlulonglong_PARM_1 + 4)
   0099 32r00r06      [ 5]  168 	ldhx	(___ulonglong2fs_PARM_1 + 6)
   009C 96r00r06      [ 5]  169 	sthx	(__rlulonglong_PARM_1 + 6)
   009F AE 01         [ 2]  170 	ldx	#0x01
   00A1 CFr00r00      [ 4]  171 	stx	__rlulonglong_PARM_2
   00A4 87            [ 2]  172 	psha
   00A5 CDr00r00      [ 6]  173 	jsr	__rlulonglong
   00A8 C7r00r07      [ 4]  174 	sta	(___ulonglong2fs_PARM_1 + 7)
   00AB CFr00r06      [ 4]  175 	stx	(___ulonglong2fs_PARM_1 + 6)
   00AE B6*00         [ 3]  176 	lda	*___SDCC_hc08_ret2
   00B0 C7r00r05      [ 4]  177 	sta	(___ulonglong2fs_PARM_1 + 5)
   00B3 B6*00         [ 3]  178 	lda	*___SDCC_hc08_ret3
   00B5 C7r00r04      [ 4]  179 	sta	(___ulonglong2fs_PARM_1 + 4)
   00B8 B6*00         [ 3]  180 	lda	*___SDCC_hc08_ret4
   00BA C7r00r03      [ 4]  181 	sta	(___ulonglong2fs_PARM_1 + 3)
   00BD B6*00         [ 3]  182 	lda	*___SDCC_hc08_ret5
   00BF C7r00r02      [ 4]  183 	sta	(___ulonglong2fs_PARM_1 + 2)
   00C2 B6*00         [ 3]  184 	lda	*___SDCC_hc08_ret6
   00C4 C7r00r01      [ 4]  185 	sta	(___ulonglong2fs_PARM_1 + 1)
   00C7 B6*00         [ 3]  186 	lda	*___SDCC_hc08_ret7
   00C9 C7r00r00      [ 4]  187 	sta	___ulonglong2fs_PARM_1
   00CC 86            [ 3]  188 	pula
                            189 ;../_ulonglong2fs.c:79: exp--;
   00CD 4A            [ 1]  190 	deca
   00CE 20 95         [ 3]  191 	bra	00105$
                            192 ;../_ulonglong2fs.c:82: while (a & NORM)
   00D0                     193 00121$:
   00D0 B7*00         [ 3]  194 	sta	*___ulonglong2fs_sloc0_1_0
   00D2                     195 00110$:
   00D2 C6r00r04      [ 4]  196 	lda	(___ulonglong2fs_PARM_1 + 4)
   00D5 27 73         [ 3]  197 	beq	00112$
                            198 ;../_ulonglong2fs.c:85: if (a & 1)
   00D7 C6r00r07      [ 4]  199 	lda	(___ulonglong2fs_PARM_1 + 7)
   00DA A5 01         [ 2]  200 	bit	#0x01
   00DC 27 24         [ 3]  201 	beq	00109$
                            202 ;../_ulonglong2fs.c:86: a += 2;
   00DE 45r00r00      [ 3]  203 	ldhx	#___ulonglong2fs_PARM_1
   00E1 E6 07         [ 3]  204 	lda	7,x
   00E3 AB 02         [ 2]  205 	add	#0x02
   00E5 E7 07         [ 3]  206 	sta	7,x
   00E7 24 19         [ 3]  207 	bcc	00160$
   00E9 6C 06         [ 5]  208 	inc	6,x
   00EB 26 15         [ 3]  209 	bne	00160$
   00ED 6C 05         [ 5]  210 	inc	5,x
   00EF 26 11         [ 3]  211 	bne	00160$
   00F1 6C 04         [ 5]  212 	inc	4,x
   00F3 26 0D         [ 3]  213 	bne	00160$
   00F5 6C 03         [ 5]  214 	inc	3,x
   00F7 26 09         [ 3]  215 	bne	00160$
   00F9 6C 02         [ 5]  216 	inc	2,x
   00FB 26 05         [ 3]  217 	bne	00160$
   00FD 6C 01         [ 5]  218 	inc	1,x
   00FF 26 01         [ 3]  219 	bne	00160$
   0101 7C            [ 4]  220 	inc	,x
   0102                     221 00160$:
   0102                     222 00109$:
                            223 ;../_ulonglong2fs.c:87: a >>= 1;
   0102 32r00r00      [ 5]  224 	ldhx	___ulonglong2fs_PARM_1
   0105 96r00r00      [ 5]  225 	sthx	__rrulonglong_PARM_1
   0108 32r00r02      [ 5]  226 	ldhx	(___ulonglong2fs_PARM_1 + 2)
   010B 96r00r02      [ 5]  227 	sthx	(__rrulonglong_PARM_1 + 2)
   010E 32r00r04      [ 5]  228 	ldhx	(___ulonglong2fs_PARM_1 + 4)
   0111 96r00r04      [ 5]  229 	sthx	(__rrulonglong_PARM_1 + 4)
   0114 32r00r06      [ 5]  230 	ldhx	(___ulonglong2fs_PARM_1 + 6)
   0117 96r00r06      [ 5]  231 	sthx	(__rrulonglong_PARM_1 + 6)
   011A A6 01         [ 2]  232 	lda	#0x01
   011C C7r00r00      [ 4]  233 	sta	__rrulonglong_PARM_2
   011F CDr00r00      [ 6]  234 	jsr	__rrulonglong
   0122 C7r00r07      [ 4]  235 	sta	(___ulonglong2fs_PARM_1 + 7)
   0125 CFr00r06      [ 4]  236 	stx	(___ulonglong2fs_PARM_1 + 6)
   0128 B6*00         [ 3]  237 	lda	*___SDCC_hc08_ret2
   012A C7r00r05      [ 4]  238 	sta	(___ulonglong2fs_PARM_1 + 5)
   012D B6*00         [ 3]  239 	lda	*___SDCC_hc08_ret3
   012F C7r00r04      [ 4]  240 	sta	(___ulonglong2fs_PARM_1 + 4)
   0132 B6*00         [ 3]  241 	lda	*___SDCC_hc08_ret4
   0134 C7r00r03      [ 4]  242 	sta	(___ulonglong2fs_PARM_1 + 3)
   0137 B6*00         [ 3]  243 	lda	*___SDCC_hc08_ret5
   0139 C7r00r02      [ 4]  244 	sta	(___ulonglong2fs_PARM_1 + 2)
   013C B6*00         [ 3]  245 	lda	*___SDCC_hc08_ret6
   013E C7r00r01      [ 4]  246 	sta	(___ulonglong2fs_PARM_1 + 1)
   0141 B6*00         [ 3]  247 	lda	*___SDCC_hc08_ret7
   0143 C7r00r00      [ 4]  248 	sta	___ulonglong2fs_PARM_1
                            249 ;../_ulonglong2fs.c:88: exp++;
   0146 3C*00         [ 5]  250 	inc	*___ulonglong2fs_sloc0_1_0
   0148 20 88         [ 3]  251 	bra	00110$
   014A                     252 00112$:
                            253 ;../_ulonglong2fs.c:91: a &= ~HIDDEN ;
   014A C6r00r05      [ 4]  254 	lda	(___ulonglong2fs_PARM_1 + 5)
   014D A4 7F         [ 2]  255 	and	#0x7f
   014F C7r00r05      [ 4]  256 	sta	(___ulonglong2fs_PARM_1 + 5)
   0152 4F            [ 1]  257 	clra
   0153 C7r00r03      [ 4]  258 	sta	(___ulonglong2fs_PARM_1 + 3)
   0156 C7r00r02      [ 4]  259 	sta	(___ulonglong2fs_PARM_1 + 2)
   0159 C7r00r01      [ 4]  260 	sta	(___ulonglong2fs_PARM_1 + 1)
   015C C7r00r00      [ 4]  261 	sta	___ulonglong2fs_PARM_1
                            262 ;../_ulonglong2fs.c:93: fl.l = PACK(0,(unsigned long)exp, a);
   015F 4E*00*04      [ 6]  263 	mov	*___ulonglong2fs_sloc0_1_0,*(___ulonglong2fs_sloc1_1_0 + 3)
   0162 B7*03         [ 3]  264 	sta	*(___ulonglong2fs_sloc1_1_0 + 2)
   0164 B7*02         [ 3]  265 	sta	*(___ulonglong2fs_sloc1_1_0 + 1)
   0166 B7*01         [ 3]  266 	sta	*___ulonglong2fs_sloc1_1_0
   0168 B6*04         [ 3]  267 	lda	*(___ulonglong2fs_sloc1_1_0 + 3)
   016A BE*03         [ 3]  268 	ldx	*(___ulonglong2fs_sloc1_1_0 + 2)
   016C 54            [ 1]  269 	lsrx
   016D 46            [ 1]  270 	rora
   016E 97            [ 1]  271 	tax
   016F 4F            [ 1]  272 	clra
   0170 46            [ 1]  273 	rora
   0171 B7*02         [ 3]  274 	sta	*(___ulonglong2fs_sloc1_1_0 + 1)
   0173 BF*01         [ 3]  275 	stx	*___ulonglong2fs_sloc1_1_0
   0175 6E 00*04      [ 4]  276 	mov	#0x00,*(___ulonglong2fs_sloc1_1_0 + 3)
   0178 6E 00*03      [ 4]  277 	mov	#0x00,*(___ulonglong2fs_sloc1_1_0 + 2)
   017B 32r00r06      [ 5]  278 	ldhx	(___ulonglong2fs_PARM_1 + 6)
   017E 35*07         [ 4]  279 	sthx	*(___ulonglong2fs_sloc2_1_0 + 2)
   0180 32r00r04      [ 5]  280 	ldhx	(___ulonglong2fs_PARM_1 + 4)
   0183 35*05         [ 4]  281 	sthx	*___ulonglong2fs_sloc2_1_0
   0185 B6*04         [ 3]  282 	lda	*(___ulonglong2fs_sloc1_1_0 + 3)
   0187 BA*08         [ 3]  283 	ora	*(___ulonglong2fs_sloc2_1_0 + 3)
   0189 B7*08         [ 3]  284 	sta	*(___ulonglong2fs_sloc2_1_0 + 3)
   018B B6*03         [ 3]  285 	lda	*(___ulonglong2fs_sloc1_1_0 + 2)
   018D BA*07         [ 3]  286 	ora	*(___ulonglong2fs_sloc2_1_0 + 2)
   018F B7*07         [ 3]  287 	sta	*(___ulonglong2fs_sloc2_1_0 + 2)
   0191 B6*02         [ 3]  288 	lda	*(___ulonglong2fs_sloc1_1_0 + 1)
   0193 BA*06         [ 3]  289 	ora	*(___ulonglong2fs_sloc2_1_0 + 1)
   0195 B7*06         [ 3]  290 	sta	*(___ulonglong2fs_sloc2_1_0 + 1)
   0197 B6*01         [ 3]  291 	lda	*___ulonglong2fs_sloc1_1_0
   0199 BA*05         [ 3]  292 	ora	*___ulonglong2fs_sloc2_1_0
   019B B7*05         [ 3]  293 	sta	*___ulonglong2fs_sloc2_1_0
   019D B6*05         [ 3]  294 	lda	*___ulonglong2fs_sloc2_1_0
   019F C7r00r08      [ 4]  295 	sta	___ulonglong2fs_fl_65536_21
   01A2 B6*06         [ 3]  296 	lda	*(___ulonglong2fs_sloc2_1_0 + 1)
   01A4 C7r00r09      [ 4]  297 	sta	(___ulonglong2fs_fl_65536_21 + 1)
   01A7 B6*07         [ 3]  298 	lda	*(___ulonglong2fs_sloc2_1_0 + 2)
   01A9 C7r00r0A      [ 4]  299 	sta	(___ulonglong2fs_fl_65536_21 + 2)
   01AC B6*08         [ 3]  300 	lda	*(___ulonglong2fs_sloc2_1_0 + 3)
   01AE C7r00r0B      [ 4]  301 	sta	(___ulonglong2fs_fl_65536_21 + 3)
                            302 ;../_ulonglong2fs.c:95: return (fl.f);
   01B1 C6r00r08      [ 4]  303 	lda	___ulonglong2fs_fl_65536_21
   01B4 B7*05         [ 3]  304 	sta	*___ulonglong2fs_sloc2_1_0
   01B6 C6r00r09      [ 4]  305 	lda	(___ulonglong2fs_fl_65536_21 + 1)
   01B9 B7*06         [ 3]  306 	sta	*(___ulonglong2fs_sloc2_1_0 + 1)
   01BB C6r00r0A      [ 4]  307 	lda	(___ulonglong2fs_fl_65536_21 + 2)
   01BE B7*07         [ 3]  308 	sta	*(___ulonglong2fs_sloc2_1_0 + 2)
   01C0 C6r00r0B      [ 4]  309 	lda	(___ulonglong2fs_fl_65536_21 + 3)
   01C3 B7*08         [ 3]  310 	sta	*(___ulonglong2fs_sloc2_1_0 + 3)
   01C5 4E*05*00      [ 6]  311 	mov	*___ulonglong2fs_sloc2_1_0,*___SDCC_hc08_ret3
   01C8 4E*06*00      [ 6]  312 	mov	*(___ulonglong2fs_sloc2_1_0 + 1),*___SDCC_hc08_ret2
   01CB BE*07         [ 3]  313 	ldx	*(___ulonglong2fs_sloc2_1_0 + 2)
   01CD B6*08         [ 3]  314 	lda	*(___ulonglong2fs_sloc2_1_0 + 3)
                            315 ;../_ulonglong2fs.c:96: }
   01CF 81            [ 6]  316 	rts
                            317 	.area CSEG    (CODE)
                            318 	.area CONST   (CODE)
                            319 	.area XINIT   (CODE)
                            320 	.area CABS    (ABS,CODE)
