                              1 ;--------------------------------------------------------
                              2 ; File Created by SDCC : free open source ISO C Compiler 
                              3 ; Version 4.2.14 #0 (Linux)
                              4 ;--------------------------------------------------------
                              5 	.cs08
                              6 	.module atanf
                              7 	.optsdcc -ms08
                              8 	
                              9 	.area HOME    (CODE)
                             10 	.area GSINIT0 (CODE)
                             11 	.area GSINIT  (CODE)
                             12 	.area GSFINAL (CODE)
                             13 	.area CSEG    (CODE)
                             14 	.area XINIT   (CODE)
                             15 	.area CONST   (CODE)
                             16 	.area DSEG    (PAG)
                             17 	.area OSEG    (PAG, OVR)
                             18 	.area XSEG
                             19 	.area XISEG
                             20 ;--------------------------------------------------------
                             21 ; Public variables in this module
                             22 ;--------------------------------------------------------
                             23 	.globl _fabsf
                             24 	.globl _atanf
                             25 ;--------------------------------------------------------
                             26 ; ram data
                             27 ;--------------------------------------------------------
                             28 	.area DSEG    (PAG)
                             29 ;--------------------------------------------------------
                             30 ; overlayable items in ram
                             31 ;--------------------------------------------------------
                             32 ;--------------------------------------------------------
                             33 ; absolute ram data
                             34 ;--------------------------------------------------------
                             35 	.area IABS    (ABS)
                             36 	.area IABS    (ABS)
                             37 ;--------------------------------------------------------
                             38 ; absolute external ram data
                             39 ;--------------------------------------------------------
                             40 	.area XABS    (ABS)
                             41 ;--------------------------------------------------------
                             42 ; initialized external ram data
                             43 ;--------------------------------------------------------
                             44 	.area XISEG
                             45 ;--------------------------------------------------------
                             46 ; extended address mode data
                             47 ;--------------------------------------------------------
                             48 	.area XSEG
                             49 ;--------------------------------------------------------
                             50 ; global & static initialisations
                             51 ;--------------------------------------------------------
                             52 	.area HOME    (CODE)
                             53 	.area GSINIT  (CODE)
                             54 	.area GSFINAL (CODE)
                             55 	.area GSINIT  (CODE)
                             56 ;--------------------------------------------------------
                             57 ; Home
                             58 ;--------------------------------------------------------
                             59 	.area HOME    (CODE)
                             60 	.area HOME    (CODE)
                             61 ;--------------------------------------------------------
                             62 ; code
                             63 ;--------------------------------------------------------
                             64 	.area CSEG    (CODE)
                             65 ;------------------------------------------------------------
                             66 ;Allocation info for local variables in function 'atanf'
                             67 ;------------------------------------------------------------
                             68 ;x                         Allocated to stack - sp +21
                             69 ;f                         Allocated to stack - sp +5
                             70 ;r                         Allocated to stack - sp +1
                             71 ;g                         Allocated to stack - sp +7
                             72 ;n                         Allocated to stack - sp +17
                             73 ;sloc0                     Allocated to stack - sp +13
                             74 ;sloc1                     Allocated to stack - sp +9
                             75 ;------------------------------------------------------------
                             76 ;../atanf.c:55: float atanf(float x) _FLOAT_FUNC_REENTRANT
                             77 ;	-----------------------------------------
                             78 ;	 function atanf
                             79 ;	-----------------------------------------
                             80 ;	Register assignment is optimal.
                             81 ;	Stack space usage: 18 bytes.
   0000                      82 _atanf:
   0000 A7 EE         [ 2]   83 	ais	#-18
                             84 ;../atanf.c:58: int n=0;
   0002 95            [ 2]   85 	tsx
   0003 8C            [ 1]   86 	clrh
   0004 5F            [ 1]   87 	clrx
   0005 9E FF 11      [ 5]   88 	sthx	17,s
                             89 ;../atanf.c:61: f=fabsf(x);
   0008 95            [ 2]   90 	tsx
   0009 E6 17         [ 3]   91 	lda	23,x
   000B 87            [ 2]   92 	psha
   000C E6 16         [ 3]   93 	lda	22,x
   000E 87            [ 2]   94 	psha
   000F E6 15         [ 3]   95 	lda	21,x
   0011 87            [ 2]   96 	psha
   0012 E6 14         [ 3]   97 	lda	20,x
   0014 87            [ 2]   98 	psha
   0015 CDr00r00      [ 6]   99 	jsr	_fabsf
   0018 9E E7 14      [ 4]  100 	sta	20,s
   001B 9E EF 13      [ 4]  101 	stx	19,s
   001E B6*00         [ 3]  102 	lda	*___SDCC_hc08_ret2
   0020 9E E7 12      [ 4]  103 	sta	18,s
   0023 B6*00         [ 3]  104 	lda	*___SDCC_hc08_ret3
   0025 9E E7 11      [ 4]  105 	sta	17,s
   0028 A7 04         [ 2]  106 	ais	#4
   002A 95            [ 2]  107 	tsx
   002B E6 0C         [ 3]  108 	lda	12,x
   002D E7 04         [ 3]  109 	sta	4,x
   002F E6 0D         [ 3]  110 	lda	13,x
   0031 E7 05         [ 3]  111 	sta	5,x
   0033 E6 0E         [ 3]  112 	lda	14,x
   0035 E7 06         [ 3]  113 	sta	6,x
   0037 E6 0F         [ 3]  114 	lda	15,x
   0039 E7 07         [ 3]  115 	sta	7,x
                            116 ;../atanf.c:62: if(f>1.0)
   003B 45 3F 80      [ 3]  117 	ldhx	#0x3f80
   003E 96r00r00      [ 5]  118 	sthx	___fslt_PARM_1
   0041 8C            [ 1]  119 	clrh
   0042 5F            [ 1]  120 	clrx
   0043 96r00r02      [ 5]  121 	sthx	(___fslt_PARM_1 + 2)
   0046 95            [ 2]  122 	tsx
   0047 E6 0C         [ 3]  123 	lda	12,x
   0049 C7r00r00      [ 4]  124 	sta	___fslt_PARM_2
   004C E6 0D         [ 3]  125 	lda	13,x
   004E C7r00r01      [ 4]  126 	sta	(___fslt_PARM_2 + 1)
   0051 E6 0E         [ 3]  127 	lda	14,x
   0053 C7r00r02      [ 4]  128 	sta	(___fslt_PARM_2 + 2)
   0056 E6 0F         [ 3]  129 	lda	15,x
   0058 C7r00r03      [ 4]  130 	sta	(___fslt_PARM_2 + 3)
   005B CDr00r00      [ 6]  131 	jsr	___fslt
   005E 4D            [ 1]  132 	tsta
   005F 27 3A         [ 3]  133 	beq	00102$
                            134 ;../atanf.c:64: f=1.0/f;
   0061 45 3F 80      [ 3]  135 	ldhx	#0x3f80
   0064 96r00r00      [ 5]  136 	sthx	___fsdiv_PARM_1
   0067 8C            [ 1]  137 	clrh
   0068 5F            [ 1]  138 	clrx
   0069 96r00r02      [ 5]  139 	sthx	(___fsdiv_PARM_1 + 2)
   006C 95            [ 2]  140 	tsx
   006D E6 0C         [ 3]  141 	lda	12,x
   006F C7r00r00      [ 4]  142 	sta	___fsdiv_PARM_2
   0072 E6 0D         [ 3]  143 	lda	13,x
   0074 C7r00r01      [ 4]  144 	sta	(___fsdiv_PARM_2 + 1)
   0077 E6 0E         [ 3]  145 	lda	14,x
   0079 C7r00r02      [ 4]  146 	sta	(___fsdiv_PARM_2 + 2)
   007C E6 0F         [ 3]  147 	lda	15,x
   007E C7r00r03      [ 4]  148 	sta	(___fsdiv_PARM_2 + 3)
   0081 CDr00r00      [ 6]  149 	jsr	___fsdiv
   0084 9E E7 08      [ 4]  150 	sta	8,s
   0087 9E EF 07      [ 4]  151 	stx	7,s
   008A B6*00         [ 3]  152 	lda	*___SDCC_hc08_ret2
   008C 9E E7 06      [ 4]  153 	sta	6,s
   008F B6*00         [ 3]  154 	lda	*___SDCC_hc08_ret3
   0091 9E E7 05      [ 4]  155 	sta	5,s
                            156 ;../atanf.c:65: n=2;
   0094 95            [ 2]  157 	tsx
   0095 45 00 02      [ 3]  158 	ldhx	#0x0002
   0098 9E FF 11      [ 5]  159 	sthx	17,s
   009B                     160 00102$:
                            161 ;../atanf.c:67: if(f>K1)
   009B 45 3E 89      [ 3]  162 	ldhx	#0x3e89
   009E 96r00r00      [ 5]  163 	sthx	___fslt_PARM_1
   00A1 45 30 A3      [ 3]  164 	ldhx	#0x30a3
   00A4 96r00r02      [ 5]  165 	sthx	(___fslt_PARM_1 + 2)
   00A7 95            [ 2]  166 	tsx
   00A8 E6 04         [ 3]  167 	lda	4,x
   00AA C7r00r00      [ 4]  168 	sta	___fslt_PARM_2
   00AD E6 05         [ 3]  169 	lda	5,x
   00AF C7r00r01      [ 4]  170 	sta	(___fslt_PARM_2 + 1)
   00B2 E6 06         [ 3]  171 	lda	6,x
   00B4 C7r00r02      [ 4]  172 	sta	(___fslt_PARM_2 + 2)
   00B7 E6 07         [ 3]  173 	lda	7,x
   00B9 C7r00r03      [ 4]  174 	sta	(___fslt_PARM_2 + 3)
   00BC CDr00r00      [ 6]  175 	jsr	___fslt
   00BF 4D            [ 1]  176 	tsta
   00C0 26 03         [ 3]  177 	bne	00140$
   00C2 CCr01rA2      [ 4]  178 	jmp	00104$
   00C5                     179 00140$:
                            180 ;../atanf.c:69: f=((K2*f-1.0)+f)/(K3+f);
   00C5 45 3F 3B      [ 3]  181 	ldhx	#0x3f3b
   00C8 96r00r00      [ 5]  182 	sthx	___fsmul_PARM_1
   00CB 45 67 AF      [ 3]  183 	ldhx	#0x67af
   00CE 96r00r02      [ 5]  184 	sthx	(___fsmul_PARM_1 + 2)
   00D1 95            [ 2]  185 	tsx
   00D2 E6 04         [ 3]  186 	lda	4,x
   00D4 C7r00r00      [ 4]  187 	sta	___fsmul_PARM_2
   00D7 E6 05         [ 3]  188 	lda	5,x
   00D9 C7r00r01      [ 4]  189 	sta	(___fsmul_PARM_2 + 1)
   00DC E6 06         [ 3]  190 	lda	6,x
   00DE C7r00r02      [ 4]  191 	sta	(___fsmul_PARM_2 + 2)
   00E1 E6 07         [ 3]  192 	lda	7,x
   00E3 C7r00r03      [ 4]  193 	sta	(___fsmul_PARM_2 + 3)
   00E6 CDr00r00      [ 6]  194 	jsr	___fsmul
   00E9 C7r00r03      [ 4]  195 	sta	(___fssub_PARM_1 + 3)
   00EC CFr00r02      [ 4]  196 	stx	(___fssub_PARM_1 + 2)
   00EF B6*00         [ 3]  197 	lda	*___SDCC_hc08_ret2
   00F1 C7r00r01      [ 4]  198 	sta	(___fssub_PARM_1 + 1)
   00F4 B6*00         [ 3]  199 	lda	*___SDCC_hc08_ret3
   00F6 C7r00r00      [ 4]  200 	sta	___fssub_PARM_1
   00F9 45 3F 80      [ 3]  201 	ldhx	#0x3f80
   00FC 96r00r00      [ 5]  202 	sthx	___fssub_PARM_2
   00FF 8C            [ 1]  203 	clrh
   0100 5F            [ 1]  204 	clrx
   0101 96r00r02      [ 5]  205 	sthx	(___fssub_PARM_2 + 2)
   0104 CDr00r00      [ 6]  206 	jsr	___fssub
   0107 C7r00r03      [ 4]  207 	sta	(___fsadd_PARM_1 + 3)
   010A CFr00r02      [ 4]  208 	stx	(___fsadd_PARM_1 + 2)
   010D B6*00         [ 3]  209 	lda	*___SDCC_hc08_ret2
   010F C7r00r01      [ 4]  210 	sta	(___fsadd_PARM_1 + 1)
   0112 B6*00         [ 3]  211 	lda	*___SDCC_hc08_ret3
   0114 C7r00r00      [ 4]  212 	sta	___fsadd_PARM_1
   0117 95            [ 2]  213 	tsx
   0118 E6 04         [ 3]  214 	lda	4,x
   011A C7r00r00      [ 4]  215 	sta	___fsadd_PARM_2
   011D E6 05         [ 3]  216 	lda	5,x
   011F C7r00r01      [ 4]  217 	sta	(___fsadd_PARM_2 + 1)
   0122 E6 06         [ 3]  218 	lda	6,x
   0124 C7r00r02      [ 4]  219 	sta	(___fsadd_PARM_2 + 2)
   0127 E6 07         [ 3]  220 	lda	7,x
   0129 C7r00r03      [ 4]  221 	sta	(___fsadd_PARM_2 + 3)
   012C CDr00r00      [ 6]  222 	jsr	___fsadd
   012F 9E E7 10      [ 4]  223 	sta	16,s
   0132 9E EF 0F      [ 4]  224 	stx	15,s
   0135 B6*00         [ 3]  225 	lda	*___SDCC_hc08_ret2
   0137 9E E7 0E      [ 4]  226 	sta	14,s
   013A B6*00         [ 3]  227 	lda	*___SDCC_hc08_ret3
   013C 9E E7 0D      [ 4]  228 	sta	13,s
   013F 95            [ 2]  229 	tsx
   0140 E6 04         [ 3]  230 	lda	4,x
   0142 C7r00r00      [ 4]  231 	sta	___fsadd_PARM_1
   0145 E6 05         [ 3]  232 	lda	5,x
   0147 C7r00r01      [ 4]  233 	sta	(___fsadd_PARM_1 + 1)
   014A E6 06         [ 3]  234 	lda	6,x
   014C C7r00r02      [ 4]  235 	sta	(___fsadd_PARM_1 + 2)
   014F E6 07         [ 3]  236 	lda	7,x
   0151 C7r00r03      [ 4]  237 	sta	(___fsadd_PARM_1 + 3)
   0154 45 3F DD      [ 3]  238 	ldhx	#0x3fdd
   0157 96r00r00      [ 5]  239 	sthx	___fsadd_PARM_2
   015A 45 B3 D7      [ 3]  240 	ldhx	#0xb3d7
   015D 96r00r02      [ 5]  241 	sthx	(___fsadd_PARM_2 + 2)
   0160 CDr00r00      [ 6]  242 	jsr	___fsadd
   0163 C7r00r03      [ 4]  243 	sta	(___fsdiv_PARM_2 + 3)
   0166 CFr00r02      [ 4]  244 	stx	(___fsdiv_PARM_2 + 2)
   0169 B6*00         [ 3]  245 	lda	*___SDCC_hc08_ret2
   016B C7r00r01      [ 4]  246 	sta	(___fsdiv_PARM_2 + 1)
   016E B6*00         [ 3]  247 	lda	*___SDCC_hc08_ret3
   0170 C7r00r00      [ 4]  248 	sta	___fsdiv_PARM_2
   0173 95            [ 2]  249 	tsx
   0174 E6 0C         [ 3]  250 	lda	12,x
   0176 C7r00r00      [ 4]  251 	sta	___fsdiv_PARM_1
   0179 E6 0D         [ 3]  252 	lda	13,x
   017B C7r00r01      [ 4]  253 	sta	(___fsdiv_PARM_1 + 1)
   017E E6 0E         [ 3]  254 	lda	14,x
   0180 C7r00r02      [ 4]  255 	sta	(___fsdiv_PARM_1 + 2)
   0183 E6 0F         [ 3]  256 	lda	15,x
   0185 C7r00r03      [ 4]  257 	sta	(___fsdiv_PARM_1 + 3)
   0188 CDr00r00      [ 6]  258 	jsr	___fsdiv
   018B 9E E7 08      [ 4]  259 	sta	8,s
   018E 9E EF 07      [ 4]  260 	stx	7,s
   0191 B6*00         [ 3]  261 	lda	*___SDCC_hc08_ret2
   0193 9E E7 06      [ 4]  262 	sta	6,s
   0196 B6*00         [ 3]  263 	lda	*___SDCC_hc08_ret3
   0198 9E E7 05      [ 4]  264 	sta	5,s
                            265 ;../atanf.c:73: n++;
   019B 95            [ 2]  266 	tsx
   019C 6C 11         [ 5]  267 	inc	17,x
   019E 26 02         [ 3]  268 	bne	00141$
   01A0 6C 10         [ 5]  269 	inc	16,x
   01A2                     270 00141$:
   01A2                     271 00104$:
                            272 ;../atanf.c:75: if(fabsf(f)<EPS) r=f;
   01A2 95            [ 2]  273 	tsx
   01A3 E6 07         [ 3]  274 	lda	7,x
   01A5 87            [ 2]  275 	psha
   01A6 E6 06         [ 3]  276 	lda	6,x
   01A8 87            [ 2]  277 	psha
   01A9 E6 05         [ 3]  278 	lda	5,x
   01AB 87            [ 2]  279 	psha
   01AC E6 04         [ 3]  280 	lda	4,x
   01AE 87            [ 2]  281 	psha
   01AF CDr00r00      [ 6]  282 	jsr	_fabsf
   01B2 C7r00r03      [ 4]  283 	sta	(___fslt_PARM_1 + 3)
   01B5 CFr00r02      [ 4]  284 	stx	(___fslt_PARM_1 + 2)
   01B8 B6*00         [ 3]  285 	lda	*___SDCC_hc08_ret2
   01BA C7r00r01      [ 4]  286 	sta	(___fslt_PARM_1 + 1)
   01BD B6*00         [ 3]  287 	lda	*___SDCC_hc08_ret3
   01BF C7r00r00      [ 4]  288 	sta	___fslt_PARM_1
   01C2 A7 04         [ 2]  289 	ais	#4
   01C4 45 39 80      [ 3]  290 	ldhx	#0x3980
   01C7 96r00r00      [ 5]  291 	sthx	___fslt_PARM_2
   01CA 8C            [ 1]  292 	clrh
   01CB 5F            [ 1]  293 	clrx
   01CC 96r00r02      [ 5]  294 	sthx	(___fslt_PARM_2 + 2)
   01CF CDr00r00      [ 6]  295 	jsr	___fslt
   01D2 4D            [ 1]  296 	tsta
   01D3 27 13         [ 3]  297 	beq	00106$
   01D5 95            [ 2]  298 	tsx
   01D6 E6 04         [ 3]  299 	lda	4,x
   01D8 F7            [ 2]  300 	sta	,x
   01D9 E6 05         [ 3]  301 	lda	5,x
   01DB E7 01         [ 3]  302 	sta	1,x
   01DD E6 06         [ 3]  303 	lda	6,x
   01DF E7 02         [ 3]  304 	sta	2,x
   01E1 E6 07         [ 3]  305 	lda	7,x
   01E3 E7 03         [ 3]  306 	sta	3,x
   01E5 CCr03r4B      [ 4]  307 	jmp	00107$
   01E8                     308 00106$:
                            309 ;../atanf.c:78: g=f*f;
   01E8 95            [ 2]  310 	tsx
   01E9 E6 04         [ 3]  311 	lda	4,x
   01EB C7r00r00      [ 4]  312 	sta	___fsmul_PARM_1
   01EE E6 05         [ 3]  313 	lda	5,x
   01F0 C7r00r01      [ 4]  314 	sta	(___fsmul_PARM_1 + 1)
   01F3 E6 06         [ 3]  315 	lda	6,x
   01F5 C7r00r02      [ 4]  316 	sta	(___fsmul_PARM_1 + 2)
   01F8 E6 07         [ 3]  317 	lda	7,x
   01FA C7r00r03      [ 4]  318 	sta	(___fsmul_PARM_1 + 3)
   01FD E6 04         [ 3]  319 	lda	4,x
   01FF C7r00r00      [ 4]  320 	sta	___fsmul_PARM_2
   0202 E6 05         [ 3]  321 	lda	5,x
   0204 C7r00r01      [ 4]  322 	sta	(___fsmul_PARM_2 + 1)
   0207 E6 06         [ 3]  323 	lda	6,x
   0209 C7r00r02      [ 4]  324 	sta	(___fsmul_PARM_2 + 2)
   020C E6 07         [ 3]  325 	lda	7,x
   020E C7r00r03      [ 4]  326 	sta	(___fsmul_PARM_2 + 3)
                            327 ;../atanf.c:79: r=f+P(g,f)/Q(g);
   0211 CDr00r00      [ 6]  328 	jsr	___fsmul
   0214 9E E7 10      [ 4]  329 	sta	16,s
   0217 9E EF 0F      [ 4]  330 	stx	15,s
   021A B6*00         [ 3]  331 	lda	*___SDCC_hc08_ret2
   021C 9E E7 0E      [ 4]  332 	sta	14,s
   021F B6*00         [ 3]  333 	lda	*___SDCC_hc08_ret3
   0221 9E E7 0D      [ 4]  334 	sta	13,s
   0224 45 BD 50      [ 3]  335 	ldhx	#0xbd50
   0227 96r00r00      [ 5]  336 	sthx	___fsmul_PARM_1
   022A 45 86 91      [ 3]  337 	ldhx	#0x8691
   022D 96r00r02      [ 5]  338 	sthx	(___fsmul_PARM_1 + 2)
   0230 95            [ 2]  339 	tsx
   0231 E6 0C         [ 3]  340 	lda	12,x
   0233 C7r00r00      [ 4]  341 	sta	___fsmul_PARM_2
   0236 E6 0D         [ 3]  342 	lda	13,x
   0238 C7r00r01      [ 4]  343 	sta	(___fsmul_PARM_2 + 1)
   023B E6 0E         [ 3]  344 	lda	14,x
   023D C7r00r02      [ 4]  345 	sta	(___fsmul_PARM_2 + 2)
   0240 E6 0F         [ 3]  346 	lda	15,x
   0242 C7r00r03      [ 4]  347 	sta	(___fsmul_PARM_2 + 3)
   0245 CDr00r00      [ 6]  348 	jsr	___fsmul
   0248 C7r00r03      [ 4]  349 	sta	(___fsadd_PARM_1 + 3)
   024B CFr00r02      [ 4]  350 	stx	(___fsadd_PARM_1 + 2)
   024E B6*00         [ 3]  351 	lda	*___SDCC_hc08_ret2
   0250 C7r00r01      [ 4]  352 	sta	(___fsadd_PARM_1 + 1)
   0253 B6*00         [ 3]  353 	lda	*___SDCC_hc08_ret3
   0255 C7r00r00      [ 4]  354 	sta	___fsadd_PARM_1
   0258 45 BE F1      [ 3]  355 	ldhx	#0xbef1
   025B 96r00r00      [ 5]  356 	sthx	___fsadd_PARM_2
   025E 45 10 F6      [ 3]  357 	ldhx	#0x10f6
   0261 96r00r02      [ 5]  358 	sthx	(___fsadd_PARM_2 + 2)
   0264 CDr00r00      [ 6]  359 	jsr	___fsadd
   0267 C7r00r03      [ 4]  360 	sta	(___fsmul_PARM_1 + 3)
   026A CFr00r02      [ 4]  361 	stx	(___fsmul_PARM_1 + 2)
   026D B6*00         [ 3]  362 	lda	*___SDCC_hc08_ret2
   026F C7r00r01      [ 4]  363 	sta	(___fsmul_PARM_1 + 1)
   0272 B6*00         [ 3]  364 	lda	*___SDCC_hc08_ret3
   0274 C7r00r00      [ 4]  365 	sta	___fsmul_PARM_1
   0277 95            [ 2]  366 	tsx
   0278 E6 0C         [ 3]  367 	lda	12,x
   027A C7r00r00      [ 4]  368 	sta	___fsmul_PARM_2
   027D E6 0D         [ 3]  369 	lda	13,x
   027F C7r00r01      [ 4]  370 	sta	(___fsmul_PARM_2 + 1)
   0282 E6 0E         [ 3]  371 	lda	14,x
   0284 C7r00r02      [ 4]  372 	sta	(___fsmul_PARM_2 + 2)
   0287 E6 0F         [ 3]  373 	lda	15,x
   0289 C7r00r03      [ 4]  374 	sta	(___fsmul_PARM_2 + 3)
   028C CDr00r00      [ 6]  375 	jsr	___fsmul
   028F C7r00r03      [ 4]  376 	sta	(___fsmul_PARM_1 + 3)
   0292 CFr00r02      [ 4]  377 	stx	(___fsmul_PARM_1 + 2)
   0295 B6*00         [ 3]  378 	lda	*___SDCC_hc08_ret2
   0297 C7r00r01      [ 4]  379 	sta	(___fsmul_PARM_1 + 1)
   029A B6*00         [ 3]  380 	lda	*___SDCC_hc08_ret3
   029C C7r00r00      [ 4]  381 	sta	___fsmul_PARM_1
   029F 95            [ 2]  382 	tsx
   02A0 E6 04         [ 3]  383 	lda	4,x
   02A2 C7r00r00      [ 4]  384 	sta	___fsmul_PARM_2
   02A5 E6 05         [ 3]  385 	lda	5,x
   02A7 C7r00r01      [ 4]  386 	sta	(___fsmul_PARM_2 + 1)
   02AA E6 06         [ 3]  387 	lda	6,x
   02AC C7r00r02      [ 4]  388 	sta	(___fsmul_PARM_2 + 2)
   02AF E6 07         [ 3]  389 	lda	7,x
   02B1 C7r00r03      [ 4]  390 	sta	(___fsmul_PARM_2 + 3)
   02B4 CDr00r00      [ 6]  391 	jsr	___fsmul
   02B7 9E E7 0C      [ 4]  392 	sta	12,s
   02BA 9E EF 0B      [ 4]  393 	stx	11,s
   02BD B6*00         [ 3]  394 	lda	*___SDCC_hc08_ret2
   02BF 9E E7 0A      [ 4]  395 	sta	10,s
   02C2 B6*00         [ 3]  396 	lda	*___SDCC_hc08_ret3
   02C4 9E E7 09      [ 4]  397 	sta	9,s
   02C7 95            [ 2]  398 	tsx
   02C8 E6 0C         [ 3]  399 	lda	12,x
   02CA C7r00r00      [ 4]  400 	sta	___fsadd_PARM_1
   02CD E6 0D         [ 3]  401 	lda	13,x
   02CF C7r00r01      [ 4]  402 	sta	(___fsadd_PARM_1 + 1)
   02D2 E6 0E         [ 3]  403 	lda	14,x
   02D4 C7r00r02      [ 4]  404 	sta	(___fsadd_PARM_1 + 2)
   02D7 E6 0F         [ 3]  405 	lda	15,x
   02D9 C7r00r03      [ 4]  406 	sta	(___fsadd_PARM_1 + 3)
   02DC 45 3F B4      [ 3]  407 	ldhx	#0x3fb4
   02DF 96r00r00      [ 5]  408 	sthx	___fsadd_PARM_2
   02E2 45 CC D3      [ 3]  409 	ldhx	#0xccd3
   02E5 96r00r02      [ 5]  410 	sthx	(___fsadd_PARM_2 + 2)
   02E8 CDr00r00      [ 6]  411 	jsr	___fsadd
   02EB C7r00r03      [ 4]  412 	sta	(___fsdiv_PARM_2 + 3)
   02EE CFr00r02      [ 4]  413 	stx	(___fsdiv_PARM_2 + 2)
   02F1 B6*00         [ 3]  414 	lda	*___SDCC_hc08_ret2
   02F3 C7r00r01      [ 4]  415 	sta	(___fsdiv_PARM_2 + 1)
   02F6 B6*00         [ 3]  416 	lda	*___SDCC_hc08_ret3
   02F8 C7r00r00      [ 4]  417 	sta	___fsdiv_PARM_2
   02FB 95            [ 2]  418 	tsx
   02FC E6 08         [ 3]  419 	lda	8,x
   02FE C7r00r00      [ 4]  420 	sta	___fsdiv_PARM_1
   0301 E6 09         [ 3]  421 	lda	9,x
   0303 C7r00r01      [ 4]  422 	sta	(___fsdiv_PARM_1 + 1)
   0306 E6 0A         [ 3]  423 	lda	10,x
   0308 C7r00r02      [ 4]  424 	sta	(___fsdiv_PARM_1 + 2)
   030B E6 0B         [ 3]  425 	lda	11,x
   030D C7r00r03      [ 4]  426 	sta	(___fsdiv_PARM_1 + 3)
   0310 CDr00r00      [ 6]  427 	jsr	___fsdiv
   0313 C7r00r03      [ 4]  428 	sta	(___fsadd_PARM_2 + 3)
   0316 CFr00r02      [ 4]  429 	stx	(___fsadd_PARM_2 + 2)
   0319 B6*00         [ 3]  430 	lda	*___SDCC_hc08_ret2
   031B C7r00r01      [ 4]  431 	sta	(___fsadd_PARM_2 + 1)
   031E B6*00         [ 3]  432 	lda	*___SDCC_hc08_ret3
   0320 C7r00r00      [ 4]  433 	sta	___fsadd_PARM_2
   0323 95            [ 2]  434 	tsx
   0324 E6 04         [ 3]  435 	lda	4,x
   0326 C7r00r00      [ 4]  436 	sta	___fsadd_PARM_1
   0329 E6 05         [ 3]  437 	lda	5,x
   032B C7r00r01      [ 4]  438 	sta	(___fsadd_PARM_1 + 1)
   032E E6 06         [ 3]  439 	lda	6,x
   0330 C7r00r02      [ 4]  440 	sta	(___fsadd_PARM_1 + 2)
   0333 E6 07         [ 3]  441 	lda	7,x
   0335 C7r00r03      [ 4]  442 	sta	(___fsadd_PARM_1 + 3)
   0338 CDr00r00      [ 6]  443 	jsr	___fsadd
   033B 9E E7 04      [ 4]  444 	sta	4,s
   033E 9E EF 03      [ 4]  445 	stx	3,s
   0341 B6*00         [ 3]  446 	lda	*___SDCC_hc08_ret2
   0343 9E E7 02      [ 4]  447 	sta	2,s
   0346 B6*00         [ 3]  448 	lda	*___SDCC_hc08_ret3
   0348 9E E7 01      [ 4]  449 	sta	1,s
   034B                     450 00107$:
                            451 ;../atanf.c:81: if(n>1) r=-r;
   034B 95            [ 2]  452 	tsx
   034C A6 01         [ 2]  453 	lda	#0x01
   034E E0 11         [ 3]  454 	sub	17,x
   0350 4F            [ 1]  455 	clra
   0351 E2 10         [ 3]  456 	sbc	16,x
   0353 90 04         [ 3]  457 	bge	00109$
   0355 F6            [ 3]  458 	lda	,x
   0356 A8 80         [ 2]  459 	eor	#0x80
   0358 F7            [ 2]  460 	sta	,x
   0359                     461 00109$:
                            462 ;../atanf.c:82: r+=a[n];
   0359 9E E6 12      [ 4]  463 	lda	18,s
   035C 9E EE 11      [ 4]  464 	ldx	17,s
   035F 48            [ 1]  465 	lsla
   0360 59            [ 1]  466 	rolx
   0361 48            [ 1]  467 	lsla
   0362 59            [ 1]  468 	rolx
   0363 89            [ 2]  469 	pshx
   0364 8A            [ 3]  470 	pulh
   0365 97            [ 1]  471 	tax
   0366 D6r00r00      [ 4]  472 	lda	(_atanf_a_65536_26),x
   0369 C7r00r00      [ 4]  473 	sta	___fsadd_PARM_2
   036C D6r00r01      [ 4]  474 	lda	(_atanf_a_65536_26+1),x
   036F C7r00r01      [ 4]  475 	sta	(___fsadd_PARM_2 + 1)
   0372 D6r00r02      [ 4]  476 	lda	(_atanf_a_65536_26+2),x
   0375 C7r00r02      [ 4]  477 	sta	(___fsadd_PARM_2 + 2)
   0378 D6r00r03      [ 4]  478 	lda	(_atanf_a_65536_26+3),x
   037B C7r00r03      [ 4]  479 	sta	(___fsadd_PARM_2 + 3)
   037E 95            [ 2]  480 	tsx
   037F F6            [ 3]  481 	lda	,x
   0380 C7r00r00      [ 4]  482 	sta	___fsadd_PARM_1
   0383 E6 01         [ 3]  483 	lda	1,x
   0385 C7r00r01      [ 4]  484 	sta	(___fsadd_PARM_1 + 1)
   0388 E6 02         [ 3]  485 	lda	2,x
   038A C7r00r02      [ 4]  486 	sta	(___fsadd_PARM_1 + 2)
   038D E6 03         [ 3]  487 	lda	3,x
   038F C7r00r03      [ 4]  488 	sta	(___fsadd_PARM_1 + 3)
   0392 CDr00r00      [ 6]  489 	jsr	___fsadd
   0395 9E E7 04      [ 4]  490 	sta	4,s
   0398 9E EF 03      [ 4]  491 	stx	3,s
   039B B6*00         [ 3]  492 	lda	*___SDCC_hc08_ret2
   039D 9E E7 02      [ 4]  493 	sta	2,s
   03A0 B6*00         [ 3]  494 	lda	*___SDCC_hc08_ret3
   03A2 9E E7 01      [ 4]  495 	sta	1,s
                            496 ;../atanf.c:83: if(x<0.0) r=-r;
   03A5 95            [ 2]  497 	tsx
   03A6 E6 14         [ 3]  498 	lda	20,x
   03A8 C7r00r00      [ 4]  499 	sta	___fslt_PARM_1
   03AB E6 15         [ 3]  500 	lda	21,x
   03AD C7r00r01      [ 4]  501 	sta	(___fslt_PARM_1 + 1)
   03B0 E6 16         [ 3]  502 	lda	22,x
   03B2 C7r00r02      [ 4]  503 	sta	(___fslt_PARM_1 + 2)
   03B5 E6 17         [ 3]  504 	lda	23,x
   03B7 C7r00r03      [ 4]  505 	sta	(___fslt_PARM_1 + 3)
   03BA 8C            [ 1]  506 	clrh
   03BB 5F            [ 1]  507 	clrx
   03BC 96r00r00      [ 5]  508 	sthx	___fslt_PARM_2
   03BF 96r00r02      [ 5]  509 	sthx	(___fslt_PARM_2 + 2)
   03C2 CDr00r00      [ 6]  510 	jsr	___fslt
   03C5 4D            [ 1]  511 	tsta
   03C6 27 05         [ 3]  512 	beq	00111$
   03C8 95            [ 2]  513 	tsx
   03C9 F6            [ 3]  514 	lda	,x
   03CA A8 80         [ 2]  515 	eor	#0x80
   03CC F7            [ 2]  516 	sta	,x
   03CD                     517 00111$:
                            518 ;../atanf.c:84: return r;
   03CD 95            [ 2]  519 	tsx
   03CE F6            [ 3]  520 	lda	,x
   03CF B7*00         [ 3]  521 	sta	*___SDCC_hc08_ret3
   03D1 E6 01         [ 3]  522 	lda	1,x
   03D3 B7*00         [ 3]  523 	sta	*___SDCC_hc08_ret2
   03D5 EE 02         [ 3]  524 	ldx	2,x
   03D7 9E E6 04      [ 4]  525 	lda	4,s
                            526 ;../atanf.c:85: }
   03DA A7 12         [ 2]  527 	ais	#18
   03DC 81            [ 6]  528 	rts
                            529 	.area CSEG    (CODE)
                            530 	.area CONST   (CODE)
   0000                     531 _atanf_a_65536_26:
   0000 00 00 00 00         532 	.byte #0x00, #0x00, #0x00, #0x00	;  0.000000e+00
   0004 3F 06 0A 92         533 	.byte #0x3f, #0x06, #0x0a, #0x92	;  5.235988e-01
   0008 3F C9 0F DB         534 	.byte #0x3f, #0xc9, #0x0f, #0xdb	;  1.570796e+00
   000C 3F 86 0A 92         535 	.byte #0x3f, #0x86, #0x0a, #0x92	;  1.047198e+00
                            536 	.area XINIT   (CODE)
                            537 	.area CABS    (ABS,CODE)
