                              1 ;--------------------------------------------------------
                              2 ; File Created by SDCC : free open source ISO C Compiler 
                              3 ; Version 4.2.14 #0 (Linux)
                              4 ;--------------------------------------------------------
                              5 	.cs08
                              6 	.module ckd_mul
                              7 	.optsdcc -ms08
                              8 	
                              9 	.area HOME    (CODE)
                             10 	.area GSINIT0 (CODE)
                             11 	.area GSINIT  (CODE)
                             12 	.area GSFINAL (CODE)
                             13 	.area CSEG    (CODE)
                             14 	.area XINIT   (CODE)
                             15 	.area CONST   (CODE)
                             16 	.area DSEG    (PAG)
                             17 	.area OSEG    (PAG, OVR)
                             18 	.area XSEG
                             19 	.area XISEG
                             20 ;--------------------------------------------------------
                             21 ; Public variables in this module
                             22 ;--------------------------------------------------------
                             23 	.globl ___ckd_mul_ulong_PARM_3
                             24 	.globl ___ckd_mul_ulong_PARM_2
                             25 	.globl ___ckd_mul_long_PARM_3
                             26 	.globl ___ckd_mul_long_PARM_2
                             27 	.globl ___ckd_mul_uint_PARM_3
                             28 	.globl ___ckd_mul_uint_PARM_2
                             29 	.globl ___ckd_mul_int_PARM_3
                             30 	.globl ___ckd_mul_int_PARM_2
                             31 	.globl ___ckd_mul_ushort_PARM_3
                             32 	.globl ___ckd_mul_ushort_PARM_2
                             33 	.globl ___ckd_mul_short_PARM_3
                             34 	.globl ___ckd_mul_short_PARM_2
                             35 	.globl ___ckd_mul_uchar_PARM_3
                             36 	.globl ___ckd_mul_uchar_PARM_2
                             37 	.globl ___ckd_mul_schar_PARM_3
                             38 	.globl ___ckd_mul_schar_PARM_2
                             39 	.globl ___ckd_mul_schar
                             40 	.globl ___ckd_mul_uchar
                             41 	.globl ___ckd_mul_short
                             42 	.globl ___ckd_mul_ushort
                             43 	.globl ___ckd_mul_int
                             44 	.globl ___ckd_mul_uint
                             45 	.globl ___ckd_mul_long
                             46 	.globl ___ckd_mul_ulong
                             47 ;--------------------------------------------------------
                             48 ; ram data
                             49 ;--------------------------------------------------------
                             50 	.area DSEG    (PAG)
   0000                      51 ___ckd_mul_schar_sloc0_1_0:
   0000                      52 	.ds 8
   0008                      53 ___ckd_mul_schar_sloc1_1_0:
   0008                      54 	.ds 8
   0010                      55 ___ckd_mul_uchar_sloc0_1_0:
   0010                      56 	.ds 8
   0018                      57 ___ckd_mul_uchar_sloc1_1_0:
   0018                      58 	.ds 8
   0020                      59 ___ckd_mul_short_sloc0_1_0:
   0020                      60 	.ds 8
   0028                      61 ___ckd_mul_short_sloc1_1_0:
   0028                      62 	.ds 8
   0030                      63 ___ckd_mul_ushort_sloc0_1_0:
   0030                      64 	.ds 8
   0038                      65 ___ckd_mul_ushort_sloc1_1_0:
   0038                      66 	.ds 8
   0040                      67 ___ckd_mul_int_sloc0_1_0:
   0040                      68 	.ds 8
   0048                      69 ___ckd_mul_int_sloc1_1_0:
   0048                      70 	.ds 8
   0050                      71 ___ckd_mul_uint_sloc0_1_0:
   0050                      72 	.ds 8
   0058                      73 ___ckd_mul_uint_sloc1_1_0:
   0058                      74 	.ds 8
   0060                      75 ___ckd_mul_long_sloc0_1_0:
   0060                      76 	.ds 8
   0068                      77 ___ckd_mul_long_sloc1_1_0:
   0068                      78 	.ds 4
   006C                      79 ___ckd_mul_long_sloc2_1_0:
   006C                      80 	.ds 8
   0074                      81 ___ckd_mul_ulong_sloc0_1_0:
   0074                      82 	.ds 8
   007C                      83 ___ckd_mul_ulong_sloc1_1_0:
   007C                      84 	.ds 4
   0080                      85 ___ckd_mul_ulong_sloc2_1_0:
   0080                      86 	.ds 8
                             87 ;--------------------------------------------------------
                             88 ; overlayable items in ram
                             89 ;--------------------------------------------------------
                             90 ;--------------------------------------------------------
                             91 ; absolute ram data
                             92 ;--------------------------------------------------------
                             93 	.area IABS    (ABS)
                             94 	.area IABS    (ABS)
                             95 ;--------------------------------------------------------
                             96 ; absolute external ram data
                             97 ;--------------------------------------------------------
                             98 	.area XABS    (ABS)
                             99 ;--------------------------------------------------------
                            100 ; initialized external ram data
                            101 ;--------------------------------------------------------
                            102 	.area XISEG
                            103 ;--------------------------------------------------------
                            104 ; extended address mode data
                            105 ;--------------------------------------------------------
                            106 	.area XSEG
   0000                     107 ___ckd_mul_schar_PARM_2:
   0000                     108 	.ds 8
   0008                     109 ___ckd_mul_schar_PARM_3:
   0008                     110 	.ds 8
   0010                     111 ___ckd_mul_schar_r_65536_41:
   0010                     112 	.ds 2
   0012                     113 ___ckd_mul_uchar_PARM_2:
   0012                     114 	.ds 8
   001A                     115 ___ckd_mul_uchar_PARM_3:
   001A                     116 	.ds 8
   0022                     117 ___ckd_mul_uchar_r_65536_43:
   0022                     118 	.ds 2
   0024                     119 ___ckd_mul_short_PARM_2:
   0024                     120 	.ds 8
   002C                     121 ___ckd_mul_short_PARM_3:
   002C                     122 	.ds 8
   0034                     123 ___ckd_mul_short_r_65536_45:
   0034                     124 	.ds 2
   0036                     125 ___ckd_mul_ushort_PARM_2:
   0036                     126 	.ds 8
   003E                     127 ___ckd_mul_ushort_PARM_3:
   003E                     128 	.ds 8
   0046                     129 ___ckd_mul_ushort_r_65536_47:
   0046                     130 	.ds 2
   0048                     131 ___ckd_mul_int_PARM_2:
   0048                     132 	.ds 8
   0050                     133 ___ckd_mul_int_PARM_3:
   0050                     134 	.ds 8
   0058                     135 ___ckd_mul_int_r_65536_49:
   0058                     136 	.ds 2
   005A                     137 ___ckd_mul_uint_PARM_2:
   005A                     138 	.ds 8
   0062                     139 ___ckd_mul_uint_PARM_3:
   0062                     140 	.ds 8
   006A                     141 ___ckd_mul_uint_r_65536_51:
   006A                     142 	.ds 2
   006C                     143 ___ckd_mul_long_PARM_2:
   006C                     144 	.ds 8
   0074                     145 ___ckd_mul_long_PARM_3:
   0074                     146 	.ds 8
   007C                     147 ___ckd_mul_long_r_65536_53:
   007C                     148 	.ds 2
   007E                     149 ___ckd_mul_ulong_PARM_2:
   007E                     150 	.ds 8
   0086                     151 ___ckd_mul_ulong_PARM_3:
   0086                     152 	.ds 8
   008E                     153 ___ckd_mul_ulong_r_65536_55:
   008E                     154 	.ds 2
                            155 ;--------------------------------------------------------
                            156 ; global & static initialisations
                            157 ;--------------------------------------------------------
                            158 	.area HOME    (CODE)
                            159 	.area GSINIT  (CODE)
                            160 	.area GSFINAL (CODE)
                            161 	.area GSINIT  (CODE)
                            162 ;--------------------------------------------------------
                            163 ; Home
                            164 ;--------------------------------------------------------
                            165 	.area HOME    (CODE)
                            166 	.area HOME    (CODE)
                            167 ;--------------------------------------------------------
                            168 ; code
                            169 ;--------------------------------------------------------
                            170 	.area CSEG    (CODE)
                            171 ;------------------------------------------------------------
                            172 ;Allocation info for local variables in function '__ckd_mul_schar'
                            173 ;------------------------------------------------------------
                            174 ;sloc0                     Allocated with name '___ckd_mul_schar_sloc0_1_0'
                            175 ;sloc1                     Allocated with name '___ckd_mul_schar_sloc1_1_0'
                            176 ;a                         Allocated with name '___ckd_mul_schar_PARM_2'
                            177 ;b                         Allocated with name '___ckd_mul_schar_PARM_3'
                            178 ;r                         Allocated with name '___ckd_mul_schar_r_65536_41'
                            179 ;result                    Allocated with name '___ckd_mul_schar_result_65536_42'
                            180 ;------------------------------------------------------------
                            181 ;./../../include/stdckdint.h:69: inline _Bool __ckd_mul_schar __CKD_DEFAULT_IMPL(signed char, *)
                            182 ;	-----------------------------------------
                            183 ;	 function __ckd_mul_schar
                            184 ;	-----------------------------------------
                            185 ;	Register assignment might be sub-optimal.
                            186 ;	Stack space usage: 0 bytes.
   0000                     187 ___ckd_mul_schar:
   0000 C7r00r11      [ 4]  188 	sta	(___ckd_mul_schar_r_65536_41 + 1)
   0003 CFr00r10      [ 4]  189 	stx	___ckd_mul_schar_r_65536_41
   0006 32r00r00      [ 5]  190 	ldhx	___ckd_mul_schar_PARM_2
   0009 96r00r00      [ 5]  191 	sthx	__mullonglong_PARM_1
   000C 32r00r02      [ 5]  192 	ldhx	(___ckd_mul_schar_PARM_2 + 2)
   000F 96r00r02      [ 5]  193 	sthx	(__mullonglong_PARM_1 + 2)
   0012 32r00r04      [ 5]  194 	ldhx	(___ckd_mul_schar_PARM_2 + 4)
   0015 96r00r04      [ 5]  195 	sthx	(__mullonglong_PARM_1 + 4)
   0018 32r00r06      [ 5]  196 	ldhx	(___ckd_mul_schar_PARM_2 + 6)
   001B 96r00r06      [ 5]  197 	sthx	(__mullonglong_PARM_1 + 6)
   001E 32r00r08      [ 5]  198 	ldhx	___ckd_mul_schar_PARM_3
   0021 96r00r00      [ 5]  199 	sthx	__mullonglong_PARM_2
   0024 32r00r0A      [ 5]  200 	ldhx	(___ckd_mul_schar_PARM_3 + 2)
   0027 96r00r02      [ 5]  201 	sthx	(__mullonglong_PARM_2 + 2)
   002A 32r00r0C      [ 5]  202 	ldhx	(___ckd_mul_schar_PARM_3 + 4)
   002D 96r00r04      [ 5]  203 	sthx	(__mullonglong_PARM_2 + 4)
   0030 32r00r0E      [ 5]  204 	ldhx	(___ckd_mul_schar_PARM_3 + 6)
   0033 96r00r06      [ 5]  205 	sthx	(__mullonglong_PARM_2 + 6)
   0036 CDr00r00      [ 6]  206 	jsr	__mullonglong
   0039 B7*07         [ 3]  207 	sta	*(___ckd_mul_schar_sloc0_1_0 + 7)
   003B BF*06         [ 3]  208 	stx	*(___ckd_mul_schar_sloc0_1_0 + 6)
   003D 4E*00*05      [ 6]  209 	mov	*___SDCC_hc08_ret2,*(___ckd_mul_schar_sloc0_1_0 + 5)
   0040 4E*00*04      [ 6]  210 	mov	*___SDCC_hc08_ret3,*(___ckd_mul_schar_sloc0_1_0 + 4)
   0043 4E*00*03      [ 6]  211 	mov	*___SDCC_hc08_ret4,*(___ckd_mul_schar_sloc0_1_0 + 3)
   0046 4E*00*02      [ 6]  212 	mov	*___SDCC_hc08_ret5,*(___ckd_mul_schar_sloc0_1_0 + 2)
   0049 4E*00*01      [ 6]  213 	mov	*___SDCC_hc08_ret6,*(___ckd_mul_schar_sloc0_1_0 + 1)
   004C 4E*00*00      [ 6]  214 	mov	*___SDCC_hc08_ret7,*___ckd_mul_schar_sloc0_1_0
   004F B6*07         [ 3]  215 	lda	*(___ckd_mul_schar_sloc0_1_0 + 7)
   0051 32r00r10      [ 5]  216 	ldhx	___ckd_mul_schar_r_65536_41
   0054 F7            [ 2]  217 	sta	,x
   0055 B7*0F         [ 3]  218 	sta	*(___ckd_mul_schar_sloc1_1_0 + 7)
   0057 49            [ 1]  219 	rola	
   0058 4F            [ 1]  220 	clra	
   0059 A2 00         [ 2]  221 	sbc	#0x00
   005B B7*0E         [ 3]  222 	sta	*(___ckd_mul_schar_sloc1_1_0 + 6)
   005D B7*0D         [ 3]  223 	sta	*(___ckd_mul_schar_sloc1_1_0 + 5)
   005F B7*0C         [ 3]  224 	sta	*(___ckd_mul_schar_sloc1_1_0 + 4)
   0061 B7*0B         [ 3]  225 	sta	*(___ckd_mul_schar_sloc1_1_0 + 3)
   0063 B7*0A         [ 3]  226 	sta	*(___ckd_mul_schar_sloc1_1_0 + 2)
   0065 B7*09         [ 3]  227 	sta	*(___ckd_mul_schar_sloc1_1_0 + 1)
   0067 B7*08         [ 3]  228 	sta	*___ckd_mul_schar_sloc1_1_0
   0069 B6*0F         [ 3]  229 	lda	*(___ckd_mul_schar_sloc1_1_0 + 7)
   006B B1*07         [ 3]  230 	cmp	*(___ckd_mul_schar_sloc0_1_0 + 7)
   006D 26 29         [ 3]  231 	bne	00103$
   006F B6*0E         [ 3]  232 	lda	*(___ckd_mul_schar_sloc1_1_0 + 6)
   0071 B1*06         [ 3]  233 	cmp	*(___ckd_mul_schar_sloc0_1_0 + 6)
   0073 26 23         [ 3]  234 	bne	00103$
   0075 B6*0D         [ 3]  235 	lda	*(___ckd_mul_schar_sloc1_1_0 + 5)
   0077 B1*05         [ 3]  236 	cmp	*(___ckd_mul_schar_sloc0_1_0 + 5)
   0079 26 1D         [ 3]  237 	bne	00103$
   007B B6*0C         [ 3]  238 	lda	*(___ckd_mul_schar_sloc1_1_0 + 4)
   007D B1*04         [ 3]  239 	cmp	*(___ckd_mul_schar_sloc0_1_0 + 4)
   007F 26 17         [ 3]  240 	bne	00103$
   0081 B6*0B         [ 3]  241 	lda	*(___ckd_mul_schar_sloc1_1_0 + 3)
   0083 B1*03         [ 3]  242 	cmp	*(___ckd_mul_schar_sloc0_1_0 + 3)
   0085 26 11         [ 3]  243 	bne	00103$
   0087 B6*0A         [ 3]  244 	lda	*(___ckd_mul_schar_sloc1_1_0 + 2)
   0089 B1*02         [ 3]  245 	cmp	*(___ckd_mul_schar_sloc0_1_0 + 2)
   008B 26 0B         [ 3]  246 	bne	00103$
   008D B6*09         [ 3]  247 	lda	*(___ckd_mul_schar_sloc1_1_0 + 1)
   008F B1*01         [ 3]  248 	cmp	*(___ckd_mul_schar_sloc0_1_0 + 1)
   0091 26 05         [ 3]  249 	bne	00103$
   0093 B6*08         [ 3]  250 	lda	*___ckd_mul_schar_sloc1_1_0
   0095 31*00 03      [ 5]  251 	cbeq	*___ckd_mul_schar_sloc0_1_0,00105$
   0098                     252 00103$:
   0098 4F            [ 1]  253 	clra
   0099 20 02         [ 3]  254 	bra	00104$
   009B                     255 00105$:
   009B A6 01         [ 2]  256 	lda	#0x01
   009D                     257 00104$:
   009D A8 01         [ 2]  258 	eor	#0x01
   009F 81            [ 6]  259 	rts
                            260 ;------------------------------------------------------------
                            261 ;Allocation info for local variables in function '__ckd_mul_uchar'
                            262 ;------------------------------------------------------------
                            263 ;sloc0                     Allocated with name '___ckd_mul_uchar_sloc0_1_0'
                            264 ;sloc1                     Allocated with name '___ckd_mul_uchar_sloc1_1_0'
                            265 ;a                         Allocated with name '___ckd_mul_uchar_PARM_2'
                            266 ;b                         Allocated with name '___ckd_mul_uchar_PARM_3'
                            267 ;r                         Allocated with name '___ckd_mul_uchar_r_65536_43'
                            268 ;result                    Allocated with name '___ckd_mul_uchar_result_65536_44'
                            269 ;------------------------------------------------------------
                            270 ;./../../include/stdckdint.h:70: inline _Bool __ckd_mul_uchar __CKD_DEFAULT_IMPL(unsigned char, *)
                            271 ;	-----------------------------------------
                            272 ;	 function __ckd_mul_uchar
                            273 ;	-----------------------------------------
                            274 ;	Register assignment might be sub-optimal.
                            275 ;	Stack space usage: 0 bytes.
   00A0                     276 ___ckd_mul_uchar:
   00A0 C7r00r23      [ 4]  277 	sta	(___ckd_mul_uchar_r_65536_43 + 1)
   00A3 CFr00r22      [ 4]  278 	stx	___ckd_mul_uchar_r_65536_43
   00A6 32r00r12      [ 5]  279 	ldhx	___ckd_mul_uchar_PARM_2
   00A9 96r00r00      [ 5]  280 	sthx	__mullonglong_PARM_1
   00AC 32r00r14      [ 5]  281 	ldhx	(___ckd_mul_uchar_PARM_2 + 2)
   00AF 96r00r02      [ 5]  282 	sthx	(__mullonglong_PARM_1 + 2)
   00B2 32r00r16      [ 5]  283 	ldhx	(___ckd_mul_uchar_PARM_2 + 4)
   00B5 96r00r04      [ 5]  284 	sthx	(__mullonglong_PARM_1 + 4)
   00B8 32r00r18      [ 5]  285 	ldhx	(___ckd_mul_uchar_PARM_2 + 6)
   00BB 96r00r06      [ 5]  286 	sthx	(__mullonglong_PARM_1 + 6)
   00BE 32r00r1A      [ 5]  287 	ldhx	___ckd_mul_uchar_PARM_3
   00C1 96r00r00      [ 5]  288 	sthx	__mullonglong_PARM_2
   00C4 32r00r1C      [ 5]  289 	ldhx	(___ckd_mul_uchar_PARM_3 + 2)
   00C7 96r00r02      [ 5]  290 	sthx	(__mullonglong_PARM_2 + 2)
   00CA 32r00r1E      [ 5]  291 	ldhx	(___ckd_mul_uchar_PARM_3 + 4)
   00CD 96r00r04      [ 5]  292 	sthx	(__mullonglong_PARM_2 + 4)
   00D0 32r00r20      [ 5]  293 	ldhx	(___ckd_mul_uchar_PARM_3 + 6)
   00D3 96r00r06      [ 5]  294 	sthx	(__mullonglong_PARM_2 + 6)
   00D6 CDr00r00      [ 6]  295 	jsr	__mullonglong
   00D9 B7*17         [ 3]  296 	sta	*(___ckd_mul_uchar_sloc0_1_0 + 7)
   00DB BF*16         [ 3]  297 	stx	*(___ckd_mul_uchar_sloc0_1_0 + 6)
   00DD 4E*00*15      [ 6]  298 	mov	*___SDCC_hc08_ret2,*(___ckd_mul_uchar_sloc0_1_0 + 5)
   00E0 4E*00*14      [ 6]  299 	mov	*___SDCC_hc08_ret3,*(___ckd_mul_uchar_sloc0_1_0 + 4)
   00E3 4E*00*13      [ 6]  300 	mov	*___SDCC_hc08_ret4,*(___ckd_mul_uchar_sloc0_1_0 + 3)
   00E6 4E*00*12      [ 6]  301 	mov	*___SDCC_hc08_ret5,*(___ckd_mul_uchar_sloc0_1_0 + 2)
   00E9 4E*00*11      [ 6]  302 	mov	*___SDCC_hc08_ret6,*(___ckd_mul_uchar_sloc0_1_0 + 1)
   00EC 4E*00*10      [ 6]  303 	mov	*___SDCC_hc08_ret7,*___ckd_mul_uchar_sloc0_1_0
   00EF B6*17         [ 3]  304 	lda	*(___ckd_mul_uchar_sloc0_1_0 + 7)
   00F1 32r00r22      [ 5]  305 	ldhx	___ckd_mul_uchar_r_65536_43
   00F4 F7            [ 2]  306 	sta	,x
   00F5 B7*1F         [ 3]  307 	sta	*(___ckd_mul_uchar_sloc1_1_0 + 7)
   00F7 6E 00*1E      [ 4]  308 	mov	#0x00,*(___ckd_mul_uchar_sloc1_1_0 + 6)
   00FA 6E 00*1D      [ 4]  309 	mov	#0x00,*(___ckd_mul_uchar_sloc1_1_0 + 5)
   00FD 6E 00*1C      [ 4]  310 	mov	#0x00,*(___ckd_mul_uchar_sloc1_1_0 + 4)
   0100 6E 00*1B      [ 4]  311 	mov	#0x00,*(___ckd_mul_uchar_sloc1_1_0 + 3)
   0103 6E 00*1A      [ 4]  312 	mov	#0x00,*(___ckd_mul_uchar_sloc1_1_0 + 2)
   0106 6E 00*19      [ 4]  313 	mov	#0x00,*(___ckd_mul_uchar_sloc1_1_0 + 1)
   0109 6E 00*18      [ 4]  314 	mov	#0x00,*___ckd_mul_uchar_sloc1_1_0
   010C B6*1F         [ 3]  315 	lda	*(___ckd_mul_uchar_sloc1_1_0 + 7)
   010E B1*17         [ 3]  316 	cmp	*(___ckd_mul_uchar_sloc0_1_0 + 7)
   0110 26 29         [ 3]  317 	bne	00103$
   0112 B6*1E         [ 3]  318 	lda	*(___ckd_mul_uchar_sloc1_1_0 + 6)
   0114 B1*16         [ 3]  319 	cmp	*(___ckd_mul_uchar_sloc0_1_0 + 6)
   0116 26 23         [ 3]  320 	bne	00103$
   0118 B6*1D         [ 3]  321 	lda	*(___ckd_mul_uchar_sloc1_1_0 + 5)
   011A B1*15         [ 3]  322 	cmp	*(___ckd_mul_uchar_sloc0_1_0 + 5)
   011C 26 1D         [ 3]  323 	bne	00103$
   011E B6*1C         [ 3]  324 	lda	*(___ckd_mul_uchar_sloc1_1_0 + 4)
   0120 B1*14         [ 3]  325 	cmp	*(___ckd_mul_uchar_sloc0_1_0 + 4)
   0122 26 17         [ 3]  326 	bne	00103$
   0124 B6*1B         [ 3]  327 	lda	*(___ckd_mul_uchar_sloc1_1_0 + 3)
   0126 B1*13         [ 3]  328 	cmp	*(___ckd_mul_uchar_sloc0_1_0 + 3)
   0128 26 11         [ 3]  329 	bne	00103$
   012A B6*1A         [ 3]  330 	lda	*(___ckd_mul_uchar_sloc1_1_0 + 2)
   012C B1*12         [ 3]  331 	cmp	*(___ckd_mul_uchar_sloc0_1_0 + 2)
   012E 26 0B         [ 3]  332 	bne	00103$
   0130 B6*19         [ 3]  333 	lda	*(___ckd_mul_uchar_sloc1_1_0 + 1)
   0132 B1*11         [ 3]  334 	cmp	*(___ckd_mul_uchar_sloc0_1_0 + 1)
   0134 26 05         [ 3]  335 	bne	00103$
   0136 B6*18         [ 3]  336 	lda	*___ckd_mul_uchar_sloc1_1_0
   0138 31*10 03      [ 5]  337 	cbeq	*___ckd_mul_uchar_sloc0_1_0,00105$
   013B                     338 00103$:
   013B 4F            [ 1]  339 	clra
   013C 20 02         [ 3]  340 	bra	00104$
   013E                     341 00105$:
   013E A6 01         [ 2]  342 	lda	#0x01
   0140                     343 00104$:
   0140 A8 01         [ 2]  344 	eor	#0x01
   0142 81            [ 6]  345 	rts
                            346 ;------------------------------------------------------------
                            347 ;Allocation info for local variables in function '__ckd_mul_short'
                            348 ;------------------------------------------------------------
                            349 ;sloc0                     Allocated with name '___ckd_mul_short_sloc0_1_0'
                            350 ;sloc1                     Allocated with name '___ckd_mul_short_sloc1_1_0'
                            351 ;a                         Allocated with name '___ckd_mul_short_PARM_2'
                            352 ;b                         Allocated with name '___ckd_mul_short_PARM_3'
                            353 ;r                         Allocated with name '___ckd_mul_short_r_65536_45'
                            354 ;result                    Allocated with name '___ckd_mul_short_result_65536_46'
                            355 ;------------------------------------------------------------
                            356 ;./../../include/stdckdint.h:71: inline _Bool __ckd_mul_short __CKD_DEFAULT_IMPL(short, *)
                            357 ;	-----------------------------------------
                            358 ;	 function __ckd_mul_short
                            359 ;	-----------------------------------------
                            360 ;	Register assignment might be sub-optimal.
                            361 ;	Stack space usage: 0 bytes.
   0143                     362 ___ckd_mul_short:
   0143 C7r00r35      [ 4]  363 	sta	(___ckd_mul_short_r_65536_45 + 1)
   0146 CFr00r34      [ 4]  364 	stx	___ckd_mul_short_r_65536_45
   0149 32r00r24      [ 5]  365 	ldhx	___ckd_mul_short_PARM_2
   014C 96r00r00      [ 5]  366 	sthx	__mullonglong_PARM_1
   014F 32r00r26      [ 5]  367 	ldhx	(___ckd_mul_short_PARM_2 + 2)
   0152 96r00r02      [ 5]  368 	sthx	(__mullonglong_PARM_1 + 2)
   0155 32r00r28      [ 5]  369 	ldhx	(___ckd_mul_short_PARM_2 + 4)
   0158 96r00r04      [ 5]  370 	sthx	(__mullonglong_PARM_1 + 4)
   015B 32r00r2A      [ 5]  371 	ldhx	(___ckd_mul_short_PARM_2 + 6)
   015E 96r00r06      [ 5]  372 	sthx	(__mullonglong_PARM_1 + 6)
   0161 32r00r2C      [ 5]  373 	ldhx	___ckd_mul_short_PARM_3
   0164 96r00r00      [ 5]  374 	sthx	__mullonglong_PARM_2
   0167 32r00r2E      [ 5]  375 	ldhx	(___ckd_mul_short_PARM_3 + 2)
   016A 96r00r02      [ 5]  376 	sthx	(__mullonglong_PARM_2 + 2)
   016D 32r00r30      [ 5]  377 	ldhx	(___ckd_mul_short_PARM_3 + 4)
   0170 96r00r04      [ 5]  378 	sthx	(__mullonglong_PARM_2 + 4)
   0173 32r00r32      [ 5]  379 	ldhx	(___ckd_mul_short_PARM_3 + 6)
   0176 96r00r06      [ 5]  380 	sthx	(__mullonglong_PARM_2 + 6)
   0179 CDr00r00      [ 6]  381 	jsr	__mullonglong
   017C B7*27         [ 3]  382 	sta	*(___ckd_mul_short_sloc0_1_0 + 7)
   017E BF*26         [ 3]  383 	stx	*(___ckd_mul_short_sloc0_1_0 + 6)
   0180 4E*00*25      [ 6]  384 	mov	*___SDCC_hc08_ret2,*(___ckd_mul_short_sloc0_1_0 + 5)
   0183 4E*00*24      [ 6]  385 	mov	*___SDCC_hc08_ret3,*(___ckd_mul_short_sloc0_1_0 + 4)
   0186 4E*00*23      [ 6]  386 	mov	*___SDCC_hc08_ret4,*(___ckd_mul_short_sloc0_1_0 + 3)
   0189 4E*00*22      [ 6]  387 	mov	*___SDCC_hc08_ret5,*(___ckd_mul_short_sloc0_1_0 + 2)
   018C 4E*00*21      [ 6]  388 	mov	*___SDCC_hc08_ret6,*(___ckd_mul_short_sloc0_1_0 + 1)
   018F 4E*00*20      [ 6]  389 	mov	*___SDCC_hc08_ret7,*___ckd_mul_short_sloc0_1_0
   0192 B6*27         [ 3]  390 	lda	*(___ckd_mul_short_sloc0_1_0 + 7)
   0194 BE*26         [ 3]  391 	ldx	*(___ckd_mul_short_sloc0_1_0 + 6)
   0196 89            [ 2]  392 	pshx
   0197 87            [ 2]  393 	psha
   0198 89            [ 2]  394 	pshx
   0199 32r00r34      [ 5]  395 	ldhx	___ckd_mul_short_r_65536_45
   019C E7 01         [ 3]  396 	sta	1,x
   019E 86            [ 3]  397 	pula
   019F F7            [ 2]  398 	sta	,x
   01A0 86            [ 3]  399 	pula
   01A1 88            [ 3]  400 	pulx
   01A2 B7*2F         [ 3]  401 	sta	*(___ckd_mul_short_sloc1_1_0 + 7)
   01A4 9F            [ 1]  402 	txa
   01A5 B7*2E         [ 3]  403 	sta	*(___ckd_mul_short_sloc1_1_0 + 6)
   01A7 49            [ 1]  404 	rola	
   01A8 4F            [ 1]  405 	clra	
   01A9 A2 00         [ 2]  406 	sbc	#0x00
   01AB B7*2D         [ 3]  407 	sta	*(___ckd_mul_short_sloc1_1_0 + 5)
   01AD B7*2C         [ 3]  408 	sta	*(___ckd_mul_short_sloc1_1_0 + 4)
   01AF B7*2B         [ 3]  409 	sta	*(___ckd_mul_short_sloc1_1_0 + 3)
   01B1 B7*2A         [ 3]  410 	sta	*(___ckd_mul_short_sloc1_1_0 + 2)
   01B3 B7*29         [ 3]  411 	sta	*(___ckd_mul_short_sloc1_1_0 + 1)
   01B5 B7*28         [ 3]  412 	sta	*___ckd_mul_short_sloc1_1_0
   01B7 B6*2F         [ 3]  413 	lda	*(___ckd_mul_short_sloc1_1_0 + 7)
   01B9 B1*27         [ 3]  414 	cmp	*(___ckd_mul_short_sloc0_1_0 + 7)
   01BB 26 29         [ 3]  415 	bne	00103$
   01BD B6*2E         [ 3]  416 	lda	*(___ckd_mul_short_sloc1_1_0 + 6)
   01BF B1*26         [ 3]  417 	cmp	*(___ckd_mul_short_sloc0_1_0 + 6)
   01C1 26 23         [ 3]  418 	bne	00103$
   01C3 B6*2D         [ 3]  419 	lda	*(___ckd_mul_short_sloc1_1_0 + 5)
   01C5 B1*25         [ 3]  420 	cmp	*(___ckd_mul_short_sloc0_1_0 + 5)
   01C7 26 1D         [ 3]  421 	bne	00103$
   01C9 B6*2C         [ 3]  422 	lda	*(___ckd_mul_short_sloc1_1_0 + 4)
   01CB B1*24         [ 3]  423 	cmp	*(___ckd_mul_short_sloc0_1_0 + 4)
   01CD 26 17         [ 3]  424 	bne	00103$
   01CF B6*2B         [ 3]  425 	lda	*(___ckd_mul_short_sloc1_1_0 + 3)
   01D1 B1*23         [ 3]  426 	cmp	*(___ckd_mul_short_sloc0_1_0 + 3)
   01D3 26 11         [ 3]  427 	bne	00103$
   01D5 B6*2A         [ 3]  428 	lda	*(___ckd_mul_short_sloc1_1_0 + 2)
   01D7 B1*22         [ 3]  429 	cmp	*(___ckd_mul_short_sloc0_1_0 + 2)
   01D9 26 0B         [ 3]  430 	bne	00103$
   01DB B6*29         [ 3]  431 	lda	*(___ckd_mul_short_sloc1_1_0 + 1)
   01DD B1*21         [ 3]  432 	cmp	*(___ckd_mul_short_sloc0_1_0 + 1)
   01DF 26 05         [ 3]  433 	bne	00103$
   01E1 B6*28         [ 3]  434 	lda	*___ckd_mul_short_sloc1_1_0
   01E3 31*20 03      [ 5]  435 	cbeq	*___ckd_mul_short_sloc0_1_0,00105$
   01E6                     436 00103$:
   01E6 4F            [ 1]  437 	clra
   01E7 20 02         [ 3]  438 	bra	00104$
   01E9                     439 00105$:
   01E9 A6 01         [ 2]  440 	lda	#0x01
   01EB                     441 00104$:
   01EB A8 01         [ 2]  442 	eor	#0x01
   01ED 81            [ 6]  443 	rts
                            444 ;------------------------------------------------------------
                            445 ;Allocation info for local variables in function '__ckd_mul_ushort'
                            446 ;------------------------------------------------------------
                            447 ;sloc0                     Allocated with name '___ckd_mul_ushort_sloc0_1_0'
                            448 ;sloc1                     Allocated with name '___ckd_mul_ushort_sloc1_1_0'
                            449 ;a                         Allocated with name '___ckd_mul_ushort_PARM_2'
                            450 ;b                         Allocated with name '___ckd_mul_ushort_PARM_3'
                            451 ;r                         Allocated with name '___ckd_mul_ushort_r_65536_47'
                            452 ;result                    Allocated with name '___ckd_mul_ushort_result_65536_48'
                            453 ;------------------------------------------------------------
                            454 ;./../../include/stdckdint.h:72: inline _Bool __ckd_mul_ushort __CKD_DEFAULT_IMPL(unsigned short, *)
                            455 ;	-----------------------------------------
                            456 ;	 function __ckd_mul_ushort
                            457 ;	-----------------------------------------
                            458 ;	Register assignment might be sub-optimal.
                            459 ;	Stack space usage: 0 bytes.
   01EE                     460 ___ckd_mul_ushort:
   01EE C7r00r47      [ 4]  461 	sta	(___ckd_mul_ushort_r_65536_47 + 1)
   01F1 CFr00r46      [ 4]  462 	stx	___ckd_mul_ushort_r_65536_47
   01F4 32r00r36      [ 5]  463 	ldhx	___ckd_mul_ushort_PARM_2
   01F7 96r00r00      [ 5]  464 	sthx	__mullonglong_PARM_1
   01FA 32r00r38      [ 5]  465 	ldhx	(___ckd_mul_ushort_PARM_2 + 2)
   01FD 96r00r02      [ 5]  466 	sthx	(__mullonglong_PARM_1 + 2)
   0200 32r00r3A      [ 5]  467 	ldhx	(___ckd_mul_ushort_PARM_2 + 4)
   0203 96r00r04      [ 5]  468 	sthx	(__mullonglong_PARM_1 + 4)
   0206 32r00r3C      [ 5]  469 	ldhx	(___ckd_mul_ushort_PARM_2 + 6)
   0209 96r00r06      [ 5]  470 	sthx	(__mullonglong_PARM_1 + 6)
   020C 32r00r3E      [ 5]  471 	ldhx	___ckd_mul_ushort_PARM_3
   020F 96r00r00      [ 5]  472 	sthx	__mullonglong_PARM_2
   0212 32r00r40      [ 5]  473 	ldhx	(___ckd_mul_ushort_PARM_3 + 2)
   0215 96r00r02      [ 5]  474 	sthx	(__mullonglong_PARM_2 + 2)
   0218 32r00r42      [ 5]  475 	ldhx	(___ckd_mul_ushort_PARM_3 + 4)
   021B 96r00r04      [ 5]  476 	sthx	(__mullonglong_PARM_2 + 4)
   021E 32r00r44      [ 5]  477 	ldhx	(___ckd_mul_ushort_PARM_3 + 6)
   0221 96r00r06      [ 5]  478 	sthx	(__mullonglong_PARM_2 + 6)
   0224 CDr00r00      [ 6]  479 	jsr	__mullonglong
   0227 B7*37         [ 3]  480 	sta	*(___ckd_mul_ushort_sloc0_1_0 + 7)
   0229 BF*36         [ 3]  481 	stx	*(___ckd_mul_ushort_sloc0_1_0 + 6)
   022B 4E*00*35      [ 6]  482 	mov	*___SDCC_hc08_ret2,*(___ckd_mul_ushort_sloc0_1_0 + 5)
   022E 4E*00*34      [ 6]  483 	mov	*___SDCC_hc08_ret3,*(___ckd_mul_ushort_sloc0_1_0 + 4)
   0231 4E*00*33      [ 6]  484 	mov	*___SDCC_hc08_ret4,*(___ckd_mul_ushort_sloc0_1_0 + 3)
   0234 4E*00*32      [ 6]  485 	mov	*___SDCC_hc08_ret5,*(___ckd_mul_ushort_sloc0_1_0 + 2)
   0237 4E*00*31      [ 6]  486 	mov	*___SDCC_hc08_ret6,*(___ckd_mul_ushort_sloc0_1_0 + 1)
   023A 4E*00*30      [ 6]  487 	mov	*___SDCC_hc08_ret7,*___ckd_mul_ushort_sloc0_1_0
   023D B6*37         [ 3]  488 	lda	*(___ckd_mul_ushort_sloc0_1_0 + 7)
   023F BE*36         [ 3]  489 	ldx	*(___ckd_mul_ushort_sloc0_1_0 + 6)
   0241 89            [ 2]  490 	pshx
   0242 87            [ 2]  491 	psha
   0243 89            [ 2]  492 	pshx
   0244 32r00r46      [ 5]  493 	ldhx	___ckd_mul_ushort_r_65536_47
   0247 E7 01         [ 3]  494 	sta	1,x
   0249 86            [ 3]  495 	pula
   024A F7            [ 2]  496 	sta	,x
   024B 86            [ 3]  497 	pula
   024C 88            [ 3]  498 	pulx
   024D B7*3F         [ 3]  499 	sta	*(___ckd_mul_ushort_sloc1_1_0 + 7)
   024F BF*3E         [ 3]  500 	stx	*(___ckd_mul_ushort_sloc1_1_0 + 6)
   0251 6E 00*3D      [ 4]  501 	mov	#0x00,*(___ckd_mul_ushort_sloc1_1_0 + 5)
   0254 6E 00*3C      [ 4]  502 	mov	#0x00,*(___ckd_mul_ushort_sloc1_1_0 + 4)
   0257 6E 00*3B      [ 4]  503 	mov	#0x00,*(___ckd_mul_ushort_sloc1_1_0 + 3)
   025A 6E 00*3A      [ 4]  504 	mov	#0x00,*(___ckd_mul_ushort_sloc1_1_0 + 2)
   025D 6E 00*39      [ 4]  505 	mov	#0x00,*(___ckd_mul_ushort_sloc1_1_0 + 1)
   0260 6E 00*38      [ 4]  506 	mov	#0x00,*___ckd_mul_ushort_sloc1_1_0
   0263 B6*3F         [ 3]  507 	lda	*(___ckd_mul_ushort_sloc1_1_0 + 7)
   0265 B1*37         [ 3]  508 	cmp	*(___ckd_mul_ushort_sloc0_1_0 + 7)
   0267 26 29         [ 3]  509 	bne	00103$
   0269 B6*3E         [ 3]  510 	lda	*(___ckd_mul_ushort_sloc1_1_0 + 6)
   026B B1*36         [ 3]  511 	cmp	*(___ckd_mul_ushort_sloc0_1_0 + 6)
   026D 26 23         [ 3]  512 	bne	00103$
   026F B6*3D         [ 3]  513 	lda	*(___ckd_mul_ushort_sloc1_1_0 + 5)
   0271 B1*35         [ 3]  514 	cmp	*(___ckd_mul_ushort_sloc0_1_0 + 5)
   0273 26 1D         [ 3]  515 	bne	00103$
   0275 B6*3C         [ 3]  516 	lda	*(___ckd_mul_ushort_sloc1_1_0 + 4)
   0277 B1*34         [ 3]  517 	cmp	*(___ckd_mul_ushort_sloc0_1_0 + 4)
   0279 26 17         [ 3]  518 	bne	00103$
   027B B6*3B         [ 3]  519 	lda	*(___ckd_mul_ushort_sloc1_1_0 + 3)
   027D B1*33         [ 3]  520 	cmp	*(___ckd_mul_ushort_sloc0_1_0 + 3)
   027F 26 11         [ 3]  521 	bne	00103$
   0281 B6*3A         [ 3]  522 	lda	*(___ckd_mul_ushort_sloc1_1_0 + 2)
   0283 B1*32         [ 3]  523 	cmp	*(___ckd_mul_ushort_sloc0_1_0 + 2)
   0285 26 0B         [ 3]  524 	bne	00103$
   0287 B6*39         [ 3]  525 	lda	*(___ckd_mul_ushort_sloc1_1_0 + 1)
   0289 B1*31         [ 3]  526 	cmp	*(___ckd_mul_ushort_sloc0_1_0 + 1)
   028B 26 05         [ 3]  527 	bne	00103$
   028D B6*38         [ 3]  528 	lda	*___ckd_mul_ushort_sloc1_1_0
   028F 31*30 03      [ 5]  529 	cbeq	*___ckd_mul_ushort_sloc0_1_0,00105$
   0292                     530 00103$:
   0292 4F            [ 1]  531 	clra
   0293 20 02         [ 3]  532 	bra	00104$
   0295                     533 00105$:
   0295 A6 01         [ 2]  534 	lda	#0x01
   0297                     535 00104$:
   0297 A8 01         [ 2]  536 	eor	#0x01
   0299 81            [ 6]  537 	rts
                            538 ;------------------------------------------------------------
                            539 ;Allocation info for local variables in function '__ckd_mul_int'
                            540 ;------------------------------------------------------------
                            541 ;sloc0                     Allocated with name '___ckd_mul_int_sloc0_1_0'
                            542 ;sloc1                     Allocated with name '___ckd_mul_int_sloc1_1_0'
                            543 ;a                         Allocated with name '___ckd_mul_int_PARM_2'
                            544 ;b                         Allocated with name '___ckd_mul_int_PARM_3'
                            545 ;r                         Allocated with name '___ckd_mul_int_r_65536_49'
                            546 ;result                    Allocated with name '___ckd_mul_int_result_65536_50'
                            547 ;------------------------------------------------------------
                            548 ;./../../include/stdckdint.h:73: inline _Bool __ckd_mul_int __CKD_DEFAULT_IMPL(int, *)
                            549 ;	-----------------------------------------
                            550 ;	 function __ckd_mul_int
                            551 ;	-----------------------------------------
                            552 ;	Register assignment might be sub-optimal.
                            553 ;	Stack space usage: 0 bytes.
   029A                     554 ___ckd_mul_int:
   029A C7r00r59      [ 4]  555 	sta	(___ckd_mul_int_r_65536_49 + 1)
   029D CFr00r58      [ 4]  556 	stx	___ckd_mul_int_r_65536_49
   02A0 32r00r48      [ 5]  557 	ldhx	___ckd_mul_int_PARM_2
   02A3 96r00r00      [ 5]  558 	sthx	__mullonglong_PARM_1
   02A6 32r00r4A      [ 5]  559 	ldhx	(___ckd_mul_int_PARM_2 + 2)
   02A9 96r00r02      [ 5]  560 	sthx	(__mullonglong_PARM_1 + 2)
   02AC 32r00r4C      [ 5]  561 	ldhx	(___ckd_mul_int_PARM_2 + 4)
   02AF 96r00r04      [ 5]  562 	sthx	(__mullonglong_PARM_1 + 4)
   02B2 32r00r4E      [ 5]  563 	ldhx	(___ckd_mul_int_PARM_2 + 6)
   02B5 96r00r06      [ 5]  564 	sthx	(__mullonglong_PARM_1 + 6)
   02B8 32r00r50      [ 5]  565 	ldhx	___ckd_mul_int_PARM_3
   02BB 96r00r00      [ 5]  566 	sthx	__mullonglong_PARM_2
   02BE 32r00r52      [ 5]  567 	ldhx	(___ckd_mul_int_PARM_3 + 2)
   02C1 96r00r02      [ 5]  568 	sthx	(__mullonglong_PARM_2 + 2)
   02C4 32r00r54      [ 5]  569 	ldhx	(___ckd_mul_int_PARM_3 + 4)
   02C7 96r00r04      [ 5]  570 	sthx	(__mullonglong_PARM_2 + 4)
   02CA 32r00r56      [ 5]  571 	ldhx	(___ckd_mul_int_PARM_3 + 6)
   02CD 96r00r06      [ 5]  572 	sthx	(__mullonglong_PARM_2 + 6)
   02D0 CDr00r00      [ 6]  573 	jsr	__mullonglong
   02D3 B7*47         [ 3]  574 	sta	*(___ckd_mul_int_sloc0_1_0 + 7)
   02D5 BF*46         [ 3]  575 	stx	*(___ckd_mul_int_sloc0_1_0 + 6)
   02D7 4E*00*45      [ 6]  576 	mov	*___SDCC_hc08_ret2,*(___ckd_mul_int_sloc0_1_0 + 5)
   02DA 4E*00*44      [ 6]  577 	mov	*___SDCC_hc08_ret3,*(___ckd_mul_int_sloc0_1_0 + 4)
   02DD 4E*00*43      [ 6]  578 	mov	*___SDCC_hc08_ret4,*(___ckd_mul_int_sloc0_1_0 + 3)
   02E0 4E*00*42      [ 6]  579 	mov	*___SDCC_hc08_ret5,*(___ckd_mul_int_sloc0_1_0 + 2)
   02E3 4E*00*41      [ 6]  580 	mov	*___SDCC_hc08_ret6,*(___ckd_mul_int_sloc0_1_0 + 1)
   02E6 4E*00*40      [ 6]  581 	mov	*___SDCC_hc08_ret7,*___ckd_mul_int_sloc0_1_0
   02E9 B6*47         [ 3]  582 	lda	*(___ckd_mul_int_sloc0_1_0 + 7)
   02EB BE*46         [ 3]  583 	ldx	*(___ckd_mul_int_sloc0_1_0 + 6)
   02ED 89            [ 2]  584 	pshx
   02EE 87            [ 2]  585 	psha
   02EF 89            [ 2]  586 	pshx
   02F0 32r00r58      [ 5]  587 	ldhx	___ckd_mul_int_r_65536_49
   02F3 E7 01         [ 3]  588 	sta	1,x
   02F5 86            [ 3]  589 	pula
   02F6 F7            [ 2]  590 	sta	,x
   02F7 86            [ 3]  591 	pula
   02F8 88            [ 3]  592 	pulx
   02F9 B7*4F         [ 3]  593 	sta	*(___ckd_mul_int_sloc1_1_0 + 7)
   02FB 9F            [ 1]  594 	txa
   02FC B7*4E         [ 3]  595 	sta	*(___ckd_mul_int_sloc1_1_0 + 6)
   02FE 49            [ 1]  596 	rola	
   02FF 4F            [ 1]  597 	clra	
   0300 A2 00         [ 2]  598 	sbc	#0x00
   0302 B7*4D         [ 3]  599 	sta	*(___ckd_mul_int_sloc1_1_0 + 5)
   0304 B7*4C         [ 3]  600 	sta	*(___ckd_mul_int_sloc1_1_0 + 4)
   0306 B7*4B         [ 3]  601 	sta	*(___ckd_mul_int_sloc1_1_0 + 3)
   0308 B7*4A         [ 3]  602 	sta	*(___ckd_mul_int_sloc1_1_0 + 2)
   030A B7*49         [ 3]  603 	sta	*(___ckd_mul_int_sloc1_1_0 + 1)
   030C B7*48         [ 3]  604 	sta	*___ckd_mul_int_sloc1_1_0
   030E B6*4F         [ 3]  605 	lda	*(___ckd_mul_int_sloc1_1_0 + 7)
   0310 B1*47         [ 3]  606 	cmp	*(___ckd_mul_int_sloc0_1_0 + 7)
   0312 26 29         [ 3]  607 	bne	00103$
   0314 B6*4E         [ 3]  608 	lda	*(___ckd_mul_int_sloc1_1_0 + 6)
   0316 B1*46         [ 3]  609 	cmp	*(___ckd_mul_int_sloc0_1_0 + 6)
   0318 26 23         [ 3]  610 	bne	00103$
   031A B6*4D         [ 3]  611 	lda	*(___ckd_mul_int_sloc1_1_0 + 5)
   031C B1*45         [ 3]  612 	cmp	*(___ckd_mul_int_sloc0_1_0 + 5)
   031E 26 1D         [ 3]  613 	bne	00103$
   0320 B6*4C         [ 3]  614 	lda	*(___ckd_mul_int_sloc1_1_0 + 4)
   0322 B1*44         [ 3]  615 	cmp	*(___ckd_mul_int_sloc0_1_0 + 4)
   0324 26 17         [ 3]  616 	bne	00103$
   0326 B6*4B         [ 3]  617 	lda	*(___ckd_mul_int_sloc1_1_0 + 3)
   0328 B1*43         [ 3]  618 	cmp	*(___ckd_mul_int_sloc0_1_0 + 3)
   032A 26 11         [ 3]  619 	bne	00103$
   032C B6*4A         [ 3]  620 	lda	*(___ckd_mul_int_sloc1_1_0 + 2)
   032E B1*42         [ 3]  621 	cmp	*(___ckd_mul_int_sloc0_1_0 + 2)
   0330 26 0B         [ 3]  622 	bne	00103$
   0332 B6*49         [ 3]  623 	lda	*(___ckd_mul_int_sloc1_1_0 + 1)
   0334 B1*41         [ 3]  624 	cmp	*(___ckd_mul_int_sloc0_1_0 + 1)
   0336 26 05         [ 3]  625 	bne	00103$
   0338 B6*48         [ 3]  626 	lda	*___ckd_mul_int_sloc1_1_0
   033A 31*40 03      [ 5]  627 	cbeq	*___ckd_mul_int_sloc0_1_0,00105$
   033D                     628 00103$:
   033D 4F            [ 1]  629 	clra
   033E 20 02         [ 3]  630 	bra	00104$
   0340                     631 00105$:
   0340 A6 01         [ 2]  632 	lda	#0x01
   0342                     633 00104$:
   0342 A8 01         [ 2]  634 	eor	#0x01
   0344 81            [ 6]  635 	rts
                            636 ;------------------------------------------------------------
                            637 ;Allocation info for local variables in function '__ckd_mul_uint'
                            638 ;------------------------------------------------------------
                            639 ;sloc0                     Allocated with name '___ckd_mul_uint_sloc0_1_0'
                            640 ;sloc1                     Allocated with name '___ckd_mul_uint_sloc1_1_0'
                            641 ;a                         Allocated with name '___ckd_mul_uint_PARM_2'
                            642 ;b                         Allocated with name '___ckd_mul_uint_PARM_3'
                            643 ;r                         Allocated with name '___ckd_mul_uint_r_65536_51'
                            644 ;result                    Allocated with name '___ckd_mul_uint_result_65536_52'
                            645 ;------------------------------------------------------------
                            646 ;./../../include/stdckdint.h:74: inline _Bool __ckd_mul_uint __CKD_DEFAULT_IMPL(unsigned int, *)
                            647 ;	-----------------------------------------
                            648 ;	 function __ckd_mul_uint
                            649 ;	-----------------------------------------
                            650 ;	Register assignment might be sub-optimal.
                            651 ;	Stack space usage: 0 bytes.
   0345                     652 ___ckd_mul_uint:
   0345 C7r00r6B      [ 4]  653 	sta	(___ckd_mul_uint_r_65536_51 + 1)
   0348 CFr00r6A      [ 4]  654 	stx	___ckd_mul_uint_r_65536_51
   034B 32r00r5A      [ 5]  655 	ldhx	___ckd_mul_uint_PARM_2
   034E 96r00r00      [ 5]  656 	sthx	__mullonglong_PARM_1
   0351 32r00r5C      [ 5]  657 	ldhx	(___ckd_mul_uint_PARM_2 + 2)
   0354 96r00r02      [ 5]  658 	sthx	(__mullonglong_PARM_1 + 2)
   0357 32r00r5E      [ 5]  659 	ldhx	(___ckd_mul_uint_PARM_2 + 4)
   035A 96r00r04      [ 5]  660 	sthx	(__mullonglong_PARM_1 + 4)
   035D 32r00r60      [ 5]  661 	ldhx	(___ckd_mul_uint_PARM_2 + 6)
   0360 96r00r06      [ 5]  662 	sthx	(__mullonglong_PARM_1 + 6)
   0363 32r00r62      [ 5]  663 	ldhx	___ckd_mul_uint_PARM_3
   0366 96r00r00      [ 5]  664 	sthx	__mullonglong_PARM_2
   0369 32r00r64      [ 5]  665 	ldhx	(___ckd_mul_uint_PARM_3 + 2)
   036C 96r00r02      [ 5]  666 	sthx	(__mullonglong_PARM_2 + 2)
   036F 32r00r66      [ 5]  667 	ldhx	(___ckd_mul_uint_PARM_3 + 4)
   0372 96r00r04      [ 5]  668 	sthx	(__mullonglong_PARM_2 + 4)
   0375 32r00r68      [ 5]  669 	ldhx	(___ckd_mul_uint_PARM_3 + 6)
   0378 96r00r06      [ 5]  670 	sthx	(__mullonglong_PARM_2 + 6)
   037B CDr00r00      [ 6]  671 	jsr	__mullonglong
   037E B7*57         [ 3]  672 	sta	*(___ckd_mul_uint_sloc0_1_0 + 7)
   0380 BF*56         [ 3]  673 	stx	*(___ckd_mul_uint_sloc0_1_0 + 6)
   0382 4E*00*55      [ 6]  674 	mov	*___SDCC_hc08_ret2,*(___ckd_mul_uint_sloc0_1_0 + 5)
   0385 4E*00*54      [ 6]  675 	mov	*___SDCC_hc08_ret3,*(___ckd_mul_uint_sloc0_1_0 + 4)
   0388 4E*00*53      [ 6]  676 	mov	*___SDCC_hc08_ret4,*(___ckd_mul_uint_sloc0_1_0 + 3)
   038B 4E*00*52      [ 6]  677 	mov	*___SDCC_hc08_ret5,*(___ckd_mul_uint_sloc0_1_0 + 2)
   038E 4E*00*51      [ 6]  678 	mov	*___SDCC_hc08_ret6,*(___ckd_mul_uint_sloc0_1_0 + 1)
   0391 4E*00*50      [ 6]  679 	mov	*___SDCC_hc08_ret7,*___ckd_mul_uint_sloc0_1_0
   0394 B6*57         [ 3]  680 	lda	*(___ckd_mul_uint_sloc0_1_0 + 7)
   0396 BE*56         [ 3]  681 	ldx	*(___ckd_mul_uint_sloc0_1_0 + 6)
   0398 89            [ 2]  682 	pshx
   0399 87            [ 2]  683 	psha
   039A 89            [ 2]  684 	pshx
   039B 32r00r6A      [ 5]  685 	ldhx	___ckd_mul_uint_r_65536_51
   039E E7 01         [ 3]  686 	sta	1,x
   03A0 86            [ 3]  687 	pula
   03A1 F7            [ 2]  688 	sta	,x
   03A2 86            [ 3]  689 	pula
   03A3 88            [ 3]  690 	pulx
   03A4 B7*5F         [ 3]  691 	sta	*(___ckd_mul_uint_sloc1_1_0 + 7)
   03A6 BF*5E         [ 3]  692 	stx	*(___ckd_mul_uint_sloc1_1_0 + 6)
   03A8 6E 00*5D      [ 4]  693 	mov	#0x00,*(___ckd_mul_uint_sloc1_1_0 + 5)
   03AB 6E 00*5C      [ 4]  694 	mov	#0x00,*(___ckd_mul_uint_sloc1_1_0 + 4)
   03AE 6E 00*5B      [ 4]  695 	mov	#0x00,*(___ckd_mul_uint_sloc1_1_0 + 3)
   03B1 6E 00*5A      [ 4]  696 	mov	#0x00,*(___ckd_mul_uint_sloc1_1_0 + 2)
   03B4 6E 00*59      [ 4]  697 	mov	#0x00,*(___ckd_mul_uint_sloc1_1_0 + 1)
   03B7 6E 00*58      [ 4]  698 	mov	#0x00,*___ckd_mul_uint_sloc1_1_0
   03BA B6*5F         [ 3]  699 	lda	*(___ckd_mul_uint_sloc1_1_0 + 7)
   03BC B1*57         [ 3]  700 	cmp	*(___ckd_mul_uint_sloc0_1_0 + 7)
   03BE 26 29         [ 3]  701 	bne	00103$
   03C0 B6*5E         [ 3]  702 	lda	*(___ckd_mul_uint_sloc1_1_0 + 6)
   03C2 B1*56         [ 3]  703 	cmp	*(___ckd_mul_uint_sloc0_1_0 + 6)
   03C4 26 23         [ 3]  704 	bne	00103$
   03C6 B6*5D         [ 3]  705 	lda	*(___ckd_mul_uint_sloc1_1_0 + 5)
   03C8 B1*55         [ 3]  706 	cmp	*(___ckd_mul_uint_sloc0_1_0 + 5)
   03CA 26 1D         [ 3]  707 	bne	00103$
   03CC B6*5C         [ 3]  708 	lda	*(___ckd_mul_uint_sloc1_1_0 + 4)
   03CE B1*54         [ 3]  709 	cmp	*(___ckd_mul_uint_sloc0_1_0 + 4)
   03D0 26 17         [ 3]  710 	bne	00103$
   03D2 B6*5B         [ 3]  711 	lda	*(___ckd_mul_uint_sloc1_1_0 + 3)
   03D4 B1*53         [ 3]  712 	cmp	*(___ckd_mul_uint_sloc0_1_0 + 3)
   03D6 26 11         [ 3]  713 	bne	00103$
   03D8 B6*5A         [ 3]  714 	lda	*(___ckd_mul_uint_sloc1_1_0 + 2)
   03DA B1*52         [ 3]  715 	cmp	*(___ckd_mul_uint_sloc0_1_0 + 2)
   03DC 26 0B         [ 3]  716 	bne	00103$
   03DE B6*59         [ 3]  717 	lda	*(___ckd_mul_uint_sloc1_1_0 + 1)
   03E0 B1*51         [ 3]  718 	cmp	*(___ckd_mul_uint_sloc0_1_0 + 1)
   03E2 26 05         [ 3]  719 	bne	00103$
   03E4 B6*58         [ 3]  720 	lda	*___ckd_mul_uint_sloc1_1_0
   03E6 31*50 03      [ 5]  721 	cbeq	*___ckd_mul_uint_sloc0_1_0,00105$
   03E9                     722 00103$:
   03E9 4F            [ 1]  723 	clra
   03EA 20 02         [ 3]  724 	bra	00104$
   03EC                     725 00105$:
   03EC A6 01         [ 2]  726 	lda	#0x01
   03EE                     727 00104$:
   03EE A8 01         [ 2]  728 	eor	#0x01
   03F0 81            [ 6]  729 	rts
                            730 ;------------------------------------------------------------
                            731 ;Allocation info for local variables in function '__ckd_mul_long'
                            732 ;------------------------------------------------------------
                            733 ;sloc0                     Allocated with name '___ckd_mul_long_sloc0_1_0'
                            734 ;sloc1                     Allocated with name '___ckd_mul_long_sloc1_1_0'
                            735 ;sloc2                     Allocated with name '___ckd_mul_long_sloc2_1_0'
                            736 ;a                         Allocated with name '___ckd_mul_long_PARM_2'
                            737 ;b                         Allocated with name '___ckd_mul_long_PARM_3'
                            738 ;r                         Allocated with name '___ckd_mul_long_r_65536_53'
                            739 ;result                    Allocated with name '___ckd_mul_long_result_65536_54'
                            740 ;------------------------------------------------------------
                            741 ;./../../include/stdckdint.h:75: inline _Bool __ckd_mul_long __CKD_DEFAULT_IMPL(long, *)
                            742 ;	-----------------------------------------
                            743 ;	 function __ckd_mul_long
                            744 ;	-----------------------------------------
                            745 ;	Register assignment might be sub-optimal.
                            746 ;	Stack space usage: 0 bytes.
   03F1                     747 ___ckd_mul_long:
   03F1 C7r00r7D      [ 4]  748 	sta	(___ckd_mul_long_r_65536_53 + 1)
   03F4 CFr00r7C      [ 4]  749 	stx	___ckd_mul_long_r_65536_53
   03F7 32r00r6C      [ 5]  750 	ldhx	___ckd_mul_long_PARM_2
   03FA 96r00r00      [ 5]  751 	sthx	__mullonglong_PARM_1
   03FD 32r00r6E      [ 5]  752 	ldhx	(___ckd_mul_long_PARM_2 + 2)
   0400 96r00r02      [ 5]  753 	sthx	(__mullonglong_PARM_1 + 2)
   0403 32r00r70      [ 5]  754 	ldhx	(___ckd_mul_long_PARM_2 + 4)
   0406 96r00r04      [ 5]  755 	sthx	(__mullonglong_PARM_1 + 4)
   0409 32r00r72      [ 5]  756 	ldhx	(___ckd_mul_long_PARM_2 + 6)
   040C 96r00r06      [ 5]  757 	sthx	(__mullonglong_PARM_1 + 6)
   040F 32r00r74      [ 5]  758 	ldhx	___ckd_mul_long_PARM_3
   0412 96r00r00      [ 5]  759 	sthx	__mullonglong_PARM_2
   0415 32r00r76      [ 5]  760 	ldhx	(___ckd_mul_long_PARM_3 + 2)
   0418 96r00r02      [ 5]  761 	sthx	(__mullonglong_PARM_2 + 2)
   041B 32r00r78      [ 5]  762 	ldhx	(___ckd_mul_long_PARM_3 + 4)
   041E 96r00r04      [ 5]  763 	sthx	(__mullonglong_PARM_2 + 4)
   0421 32r00r7A      [ 5]  764 	ldhx	(___ckd_mul_long_PARM_3 + 6)
   0424 96r00r06      [ 5]  765 	sthx	(__mullonglong_PARM_2 + 6)
   0427 CDr00r00      [ 6]  766 	jsr	__mullonglong
   042A B7*67         [ 3]  767 	sta	*(___ckd_mul_long_sloc0_1_0 + 7)
   042C BF*66         [ 3]  768 	stx	*(___ckd_mul_long_sloc0_1_0 + 6)
   042E 4E*00*65      [ 6]  769 	mov	*___SDCC_hc08_ret2,*(___ckd_mul_long_sloc0_1_0 + 5)
   0431 4E*00*64      [ 6]  770 	mov	*___SDCC_hc08_ret3,*(___ckd_mul_long_sloc0_1_0 + 4)
   0434 4E*00*63      [ 6]  771 	mov	*___SDCC_hc08_ret4,*(___ckd_mul_long_sloc0_1_0 + 3)
   0437 4E*00*62      [ 6]  772 	mov	*___SDCC_hc08_ret5,*(___ckd_mul_long_sloc0_1_0 + 2)
   043A 4E*00*61      [ 6]  773 	mov	*___SDCC_hc08_ret6,*(___ckd_mul_long_sloc0_1_0 + 1)
   043D 4E*00*60      [ 6]  774 	mov	*___SDCC_hc08_ret7,*___ckd_mul_long_sloc0_1_0
   0440 4E*67*6B      [ 6]  775 	mov	*(___ckd_mul_long_sloc0_1_0 + 7),*(___ckd_mul_long_sloc1_1_0 + 3)
   0443 4E*66*6A      [ 6]  776 	mov	*(___ckd_mul_long_sloc0_1_0 + 6),*(___ckd_mul_long_sloc1_1_0 + 2)
   0446 4E*65*69      [ 6]  777 	mov	*(___ckd_mul_long_sloc0_1_0 + 5),*(___ckd_mul_long_sloc1_1_0 + 1)
   0449 4E*64*68      [ 6]  778 	mov	*(___ckd_mul_long_sloc0_1_0 + 4),*___ckd_mul_long_sloc1_1_0
   044C 32r00r7C      [ 5]  779 	ldhx	___ckd_mul_long_r_65536_53
   044F B6*68         [ 3]  780 	lda	*___ckd_mul_long_sloc1_1_0
   0451 F7            [ 2]  781 	sta	,x
   0452 B6*69         [ 3]  782 	lda	*(___ckd_mul_long_sloc1_1_0 + 1)
   0454 E7 01         [ 3]  783 	sta	1,x
   0456 B6*6A         [ 3]  784 	lda	*(___ckd_mul_long_sloc1_1_0 + 2)
   0458 E7 02         [ 3]  785 	sta	2,x
   045A B6*6B         [ 3]  786 	lda	*(___ckd_mul_long_sloc1_1_0 + 3)
   045C E7 03         [ 3]  787 	sta	3,x
   045E 4E*6B*73      [ 6]  788 	mov	*(___ckd_mul_long_sloc1_1_0 + 3),*(___ckd_mul_long_sloc2_1_0 + 7)
   0461 4E*6A*72      [ 6]  789 	mov	*(___ckd_mul_long_sloc1_1_0 + 2),*(___ckd_mul_long_sloc2_1_0 + 6)
   0464 4E*69*71      [ 6]  790 	mov	*(___ckd_mul_long_sloc1_1_0 + 1),*(___ckd_mul_long_sloc2_1_0 + 5)
   0467 B6*68         [ 3]  791 	lda	*___ckd_mul_long_sloc1_1_0
   0469 B7*70         [ 3]  792 	sta	*(___ckd_mul_long_sloc2_1_0 + 4)
   046B 49            [ 1]  793 	rola	
   046C 4F            [ 1]  794 	clra	
   046D A2 00         [ 2]  795 	sbc	#0x00
   046F B7*6F         [ 3]  796 	sta	*(___ckd_mul_long_sloc2_1_0 + 3)
   0471 B7*6E         [ 3]  797 	sta	*(___ckd_mul_long_sloc2_1_0 + 2)
   0473 B7*6D         [ 3]  798 	sta	*(___ckd_mul_long_sloc2_1_0 + 1)
   0475 B7*6C         [ 3]  799 	sta	*___ckd_mul_long_sloc2_1_0
   0477 B6*73         [ 3]  800 	lda	*(___ckd_mul_long_sloc2_1_0 + 7)
   0479 B1*67         [ 3]  801 	cmp	*(___ckd_mul_long_sloc0_1_0 + 7)
   047B 26 29         [ 3]  802 	bne	00103$
   047D B6*72         [ 3]  803 	lda	*(___ckd_mul_long_sloc2_1_0 + 6)
   047F B1*66         [ 3]  804 	cmp	*(___ckd_mul_long_sloc0_1_0 + 6)
   0481 26 23         [ 3]  805 	bne	00103$
   0483 B6*71         [ 3]  806 	lda	*(___ckd_mul_long_sloc2_1_0 + 5)
   0485 B1*65         [ 3]  807 	cmp	*(___ckd_mul_long_sloc0_1_0 + 5)
   0487 26 1D         [ 3]  808 	bne	00103$
   0489 B6*70         [ 3]  809 	lda	*(___ckd_mul_long_sloc2_1_0 + 4)
   048B B1*64         [ 3]  810 	cmp	*(___ckd_mul_long_sloc0_1_0 + 4)
   048D 26 17         [ 3]  811 	bne	00103$
   048F B6*6F         [ 3]  812 	lda	*(___ckd_mul_long_sloc2_1_0 + 3)
   0491 B1*63         [ 3]  813 	cmp	*(___ckd_mul_long_sloc0_1_0 + 3)
   0493 26 11         [ 3]  814 	bne	00103$
   0495 B6*6E         [ 3]  815 	lda	*(___ckd_mul_long_sloc2_1_0 + 2)
   0497 B1*62         [ 3]  816 	cmp	*(___ckd_mul_long_sloc0_1_0 + 2)
   0499 26 0B         [ 3]  817 	bne	00103$
   049B B6*6D         [ 3]  818 	lda	*(___ckd_mul_long_sloc2_1_0 + 1)
   049D B1*61         [ 3]  819 	cmp	*(___ckd_mul_long_sloc0_1_0 + 1)
   049F 26 05         [ 3]  820 	bne	00103$
   04A1 B6*6C         [ 3]  821 	lda	*___ckd_mul_long_sloc2_1_0
   04A3 31*60 03      [ 5]  822 	cbeq	*___ckd_mul_long_sloc0_1_0,00105$
   04A6                     823 00103$:
   04A6 4F            [ 1]  824 	clra
   04A7 20 02         [ 3]  825 	bra	00104$
   04A9                     826 00105$:
   04A9 A6 01         [ 2]  827 	lda	#0x01
   04AB                     828 00104$:
   04AB A8 01         [ 2]  829 	eor	#0x01
   04AD 81            [ 6]  830 	rts
                            831 ;------------------------------------------------------------
                            832 ;Allocation info for local variables in function '__ckd_mul_ulong'
                            833 ;------------------------------------------------------------
                            834 ;sloc0                     Allocated with name '___ckd_mul_ulong_sloc0_1_0'
                            835 ;sloc1                     Allocated with name '___ckd_mul_ulong_sloc1_1_0'
                            836 ;sloc2                     Allocated with name '___ckd_mul_ulong_sloc2_1_0'
                            837 ;a                         Allocated with name '___ckd_mul_ulong_PARM_2'
                            838 ;b                         Allocated with name '___ckd_mul_ulong_PARM_3'
                            839 ;r                         Allocated with name '___ckd_mul_ulong_r_65536_55'
                            840 ;result                    Allocated with name '___ckd_mul_ulong_result_65536_56'
                            841 ;------------------------------------------------------------
                            842 ;./../../include/stdckdint.h:76: inline _Bool __ckd_mul_ulong __CKD_DEFAULT_IMPL(unsigned long, *)
                            843 ;	-----------------------------------------
                            844 ;	 function __ckd_mul_ulong
                            845 ;	-----------------------------------------
                            846 ;	Register assignment might be sub-optimal.
                            847 ;	Stack space usage: 0 bytes.
   04AE                     848 ___ckd_mul_ulong:
   04AE C7r00r8F      [ 4]  849 	sta	(___ckd_mul_ulong_r_65536_55 + 1)
   04B1 CFr00r8E      [ 4]  850 	stx	___ckd_mul_ulong_r_65536_55
   04B4 32r00r7E      [ 5]  851 	ldhx	___ckd_mul_ulong_PARM_2
   04B7 96r00r00      [ 5]  852 	sthx	__mullonglong_PARM_1
   04BA 32r00r80      [ 5]  853 	ldhx	(___ckd_mul_ulong_PARM_2 + 2)
   04BD 96r00r02      [ 5]  854 	sthx	(__mullonglong_PARM_1 + 2)
   04C0 32r00r82      [ 5]  855 	ldhx	(___ckd_mul_ulong_PARM_2 + 4)
   04C3 96r00r04      [ 5]  856 	sthx	(__mullonglong_PARM_1 + 4)
   04C6 32r00r84      [ 5]  857 	ldhx	(___ckd_mul_ulong_PARM_2 + 6)
   04C9 96r00r06      [ 5]  858 	sthx	(__mullonglong_PARM_1 + 6)
   04CC 32r00r86      [ 5]  859 	ldhx	___ckd_mul_ulong_PARM_3
   04CF 96r00r00      [ 5]  860 	sthx	__mullonglong_PARM_2
   04D2 32r00r88      [ 5]  861 	ldhx	(___ckd_mul_ulong_PARM_3 + 2)
   04D5 96r00r02      [ 5]  862 	sthx	(__mullonglong_PARM_2 + 2)
   04D8 32r00r8A      [ 5]  863 	ldhx	(___ckd_mul_ulong_PARM_3 + 4)
   04DB 96r00r04      [ 5]  864 	sthx	(__mullonglong_PARM_2 + 4)
   04DE 32r00r8C      [ 5]  865 	ldhx	(___ckd_mul_ulong_PARM_3 + 6)
   04E1 96r00r06      [ 5]  866 	sthx	(__mullonglong_PARM_2 + 6)
   04E4 CDr00r00      [ 6]  867 	jsr	__mullonglong
   04E7 B7*7B         [ 3]  868 	sta	*(___ckd_mul_ulong_sloc0_1_0 + 7)
   04E9 BF*7A         [ 3]  869 	stx	*(___ckd_mul_ulong_sloc0_1_0 + 6)
   04EB 4E*00*79      [ 6]  870 	mov	*___SDCC_hc08_ret2,*(___ckd_mul_ulong_sloc0_1_0 + 5)
   04EE 4E*00*78      [ 6]  871 	mov	*___SDCC_hc08_ret3,*(___ckd_mul_ulong_sloc0_1_0 + 4)
   04F1 4E*00*77      [ 6]  872 	mov	*___SDCC_hc08_ret4,*(___ckd_mul_ulong_sloc0_1_0 + 3)
   04F4 4E*00*76      [ 6]  873 	mov	*___SDCC_hc08_ret5,*(___ckd_mul_ulong_sloc0_1_0 + 2)
   04F7 4E*00*75      [ 6]  874 	mov	*___SDCC_hc08_ret6,*(___ckd_mul_ulong_sloc0_1_0 + 1)
   04FA 4E*00*74      [ 6]  875 	mov	*___SDCC_hc08_ret7,*___ckd_mul_ulong_sloc0_1_0
   04FD 4E*7B*7F      [ 6]  876 	mov	*(___ckd_mul_ulong_sloc0_1_0 + 7),*(___ckd_mul_ulong_sloc1_1_0 + 3)
   0500 4E*7A*7E      [ 6]  877 	mov	*(___ckd_mul_ulong_sloc0_1_0 + 6),*(___ckd_mul_ulong_sloc1_1_0 + 2)
   0503 4E*79*7D      [ 6]  878 	mov	*(___ckd_mul_ulong_sloc0_1_0 + 5),*(___ckd_mul_ulong_sloc1_1_0 + 1)
   0506 4E*78*7C      [ 6]  879 	mov	*(___ckd_mul_ulong_sloc0_1_0 + 4),*___ckd_mul_ulong_sloc1_1_0
   0509 32r00r8E      [ 5]  880 	ldhx	___ckd_mul_ulong_r_65536_55
   050C B6*7C         [ 3]  881 	lda	*___ckd_mul_ulong_sloc1_1_0
   050E F7            [ 2]  882 	sta	,x
   050F B6*7D         [ 3]  883 	lda	*(___ckd_mul_ulong_sloc1_1_0 + 1)
   0511 E7 01         [ 3]  884 	sta	1,x
   0513 B6*7E         [ 3]  885 	lda	*(___ckd_mul_ulong_sloc1_1_0 + 2)
   0515 E7 02         [ 3]  886 	sta	2,x
   0517 B6*7F         [ 3]  887 	lda	*(___ckd_mul_ulong_sloc1_1_0 + 3)
   0519 E7 03         [ 3]  888 	sta	3,x
   051B 4E*7F*87      [ 6]  889 	mov	*(___ckd_mul_ulong_sloc1_1_0 + 3),*(___ckd_mul_ulong_sloc2_1_0 + 7)
   051E 4E*7E*86      [ 6]  890 	mov	*(___ckd_mul_ulong_sloc1_1_0 + 2),*(___ckd_mul_ulong_sloc2_1_0 + 6)
   0521 4E*7D*85      [ 6]  891 	mov	*(___ckd_mul_ulong_sloc1_1_0 + 1),*(___ckd_mul_ulong_sloc2_1_0 + 5)
   0524 4E*7C*84      [ 6]  892 	mov	*___ckd_mul_ulong_sloc1_1_0,*(___ckd_mul_ulong_sloc2_1_0 + 4)
   0527 6E 00*83      [ 4]  893 	mov	#0x00,*(___ckd_mul_ulong_sloc2_1_0 + 3)
   052A 6E 00*82      [ 4]  894 	mov	#0x00,*(___ckd_mul_ulong_sloc2_1_0 + 2)
   052D 6E 00*81      [ 4]  895 	mov	#0x00,*(___ckd_mul_ulong_sloc2_1_0 + 1)
   0530 6E 00*80      [ 4]  896 	mov	#0x00,*___ckd_mul_ulong_sloc2_1_0
   0533 B6*87         [ 3]  897 	lda	*(___ckd_mul_ulong_sloc2_1_0 + 7)
   0535 B1*7B         [ 3]  898 	cmp	*(___ckd_mul_ulong_sloc0_1_0 + 7)
   0537 26 29         [ 3]  899 	bne	00103$
   0539 B6*86         [ 3]  900 	lda	*(___ckd_mul_ulong_sloc2_1_0 + 6)
   053B B1*7A         [ 3]  901 	cmp	*(___ckd_mul_ulong_sloc0_1_0 + 6)
   053D 26 23         [ 3]  902 	bne	00103$
   053F B6*85         [ 3]  903 	lda	*(___ckd_mul_ulong_sloc2_1_0 + 5)
   0541 B1*79         [ 3]  904 	cmp	*(___ckd_mul_ulong_sloc0_1_0 + 5)
   0543 26 1D         [ 3]  905 	bne	00103$
   0545 B6*84         [ 3]  906 	lda	*(___ckd_mul_ulong_sloc2_1_0 + 4)
   0547 B1*78         [ 3]  907 	cmp	*(___ckd_mul_ulong_sloc0_1_0 + 4)
   0549 26 17         [ 3]  908 	bne	00103$
   054B B6*83         [ 3]  909 	lda	*(___ckd_mul_ulong_sloc2_1_0 + 3)
   054D B1*77         [ 3]  910 	cmp	*(___ckd_mul_ulong_sloc0_1_0 + 3)
   054F 26 11         [ 3]  911 	bne	00103$
   0551 B6*82         [ 3]  912 	lda	*(___ckd_mul_ulong_sloc2_1_0 + 2)
   0553 B1*76         [ 3]  913 	cmp	*(___ckd_mul_ulong_sloc0_1_0 + 2)
   0555 26 0B         [ 3]  914 	bne	00103$
   0557 B6*81         [ 3]  915 	lda	*(___ckd_mul_ulong_sloc2_1_0 + 1)
   0559 B1*75         [ 3]  916 	cmp	*(___ckd_mul_ulong_sloc0_1_0 + 1)
   055B 26 05         [ 3]  917 	bne	00103$
   055D B6*80         [ 3]  918 	lda	*___ckd_mul_ulong_sloc2_1_0
   055F 31*74 03      [ 5]  919 	cbeq	*___ckd_mul_ulong_sloc0_1_0,00105$
   0562                     920 00103$:
   0562 4F            [ 1]  921 	clra
   0563 20 02         [ 3]  922 	bra	00104$
   0565                     923 00105$:
   0565 A6 01         [ 2]  924 	lda	#0x01
   0567                     925 00104$:
   0567 A8 01         [ 2]  926 	eor	#0x01
   0569 81            [ 6]  927 	rts
                            928 	.area CSEG    (CODE)
                            929 	.area CONST   (CODE)
                            930 	.area XINIT   (CODE)
                            931 	.area CABS    (ABS,CODE)
