                                      1 ;--------------------------------------------------------
                                      2 ; File Created by SDCC : free open source ISO C Compiler 
                                      3 ; Version 4.2.14 #0 (Linux)
                                      4 ;--------------------------------------------------------
                                      5 	.module _rrslonglong
                                      6 	.optsdcc -mmcs51 --model-large
                                      7 	
                                      8 ;--------------------------------------------------------
                                      9 ; Public variables in this module
                                     10 ;--------------------------------------------------------
                                     11 	.globl __rrslonglong_PARM_2
                                     12 	.globl __rrslonglong
                                     13 ;--------------------------------------------------------
                                     14 ; special function registers
                                     15 ;--------------------------------------------------------
                                     16 	.area RSEG    (ABS,DATA)
      000000                         17 	.org 0x0000
                                     18 ;--------------------------------------------------------
                                     19 ; special function bits
                                     20 ;--------------------------------------------------------
                                     21 	.area RSEG    (ABS,DATA)
      000000                         22 	.org 0x0000
                                     23 ;--------------------------------------------------------
                                     24 ; overlayable register banks
                                     25 ;--------------------------------------------------------
                                     26 	.area REG_BANK_0	(REL,OVR,DATA)
      000000                         27 	.ds 8
                                     28 ;--------------------------------------------------------
                                     29 ; internal ram data
                                     30 ;--------------------------------------------------------
                                     31 	.area DSEG    (DATA)
                                     32 ;--------------------------------------------------------
                                     33 ; overlayable items in internal ram
                                     34 ;--------------------------------------------------------
                                     35 	.area	OSEG    (OVR,DATA)
      000000                         36 __rrslonglong_sloc0_1_0:
      000000                         37 	.ds 4
                                     38 ;--------------------------------------------------------
                                     39 ; indirectly addressable internal ram data
                                     40 ;--------------------------------------------------------
                                     41 	.area ISEG    (DATA)
                                     42 ;--------------------------------------------------------
                                     43 ; absolute internal ram data
                                     44 ;--------------------------------------------------------
                                     45 	.area IABS    (ABS,DATA)
                                     46 	.area IABS    (ABS,DATA)
                                     47 ;--------------------------------------------------------
                                     48 ; bit data
                                     49 ;--------------------------------------------------------
                                     50 	.area BSEG    (BIT)
                                     51 ;--------------------------------------------------------
                                     52 ; paged external ram data
                                     53 ;--------------------------------------------------------
                                     54 	.area PSEG    (PAG,XDATA)
                                     55 ;--------------------------------------------------------
                                     56 ; uninitialized external ram data
                                     57 ;--------------------------------------------------------
                                     58 	.area XSEG    (XDATA)
      000000                         59 __rrslonglong_PARM_2:
      000000                         60 	.ds 1
      000001                         61 __rrslonglong_l_65536_1:
      000001                         62 	.ds 8
                                     63 ;--------------------------------------------------------
                                     64 ; absolute external ram data
                                     65 ;--------------------------------------------------------
                                     66 	.area XABS    (ABS,XDATA)
                                     67 ;--------------------------------------------------------
                                     68 ; initialized external ram data
                                     69 ;--------------------------------------------------------
                                     70 	.area XISEG   (XDATA)
                                     71 	.area HOME    (CODE)
                                     72 	.area GSINIT0 (CODE)
                                     73 	.area GSINIT1 (CODE)
                                     74 	.area GSINIT2 (CODE)
                                     75 	.area GSINIT3 (CODE)
                                     76 	.area GSINIT4 (CODE)
                                     77 	.area GSINIT5 (CODE)
                                     78 	.area GSINIT  (CODE)
                                     79 	.area GSFINAL (CODE)
                                     80 	.area CSEG    (CODE)
                                     81 ;--------------------------------------------------------
                                     82 ; global & static initialisations
                                     83 ;--------------------------------------------------------
                                     84 	.area HOME    (CODE)
                                     85 	.area GSINIT  (CODE)
                                     86 	.area GSFINAL (CODE)
                                     87 	.area GSINIT  (CODE)
                                     88 ;--------------------------------------------------------
                                     89 ; Home
                                     90 ;--------------------------------------------------------
                                     91 	.area HOME    (CODE)
                                     92 	.area HOME    (CODE)
                                     93 ;--------------------------------------------------------
                                     94 ; code
                                     95 ;--------------------------------------------------------
                                     96 	.area CSEG    (CODE)
                                     97 ;------------------------------------------------------------
                                     98 ;Allocation info for local variables in function '_rrslonglong'
                                     99 ;------------------------------------------------------------
                                    100 ;s                         Allocated with name '__rrslonglong_PARM_2'
                                    101 ;l                         Allocated with name '__rrslonglong_l_65536_1'
                                    102 ;top                       Allocated with name '__rrslonglong_top_65536_2'
                                    103 ;middle                    Allocated with name '__rrslonglong_middle_65536_2'
                                    104 ;bottom                    Allocated with name '__rrslonglong_bottom_65536_2'
                                    105 ;b                         Allocated with name '__rrslonglong_b_65536_2'
                                    106 ;sloc0                     Allocated with name '__rrslonglong_sloc0_1_0'
                                    107 ;------------------------------------------------------------
                                    108 ;	_rrslonglong.c:41: long long _rrslonglong(long long l, char s) __SDCC_NONBANKED
                                    109 ;	-----------------------------------------
                                    110 ;	 function _rrslonglong
                                    111 ;	-----------------------------------------
      000000                        112 __rrslonglong:
                           000007   113 	ar7 = 0x07
                           000006   114 	ar6 = 0x06
                           000005   115 	ar5 = 0x05
                           000004   116 	ar4 = 0x04
                           000003   117 	ar3 = 0x03
                           000002   118 	ar2 = 0x02
                           000001   119 	ar1 = 0x01
                           000000   120 	ar0 = 0x00
      000000 C0 07            [24]  121 	push	ar7
      000002 C0 06            [24]  122 	push	ar6
      000004 C0 05            [24]  123 	push	ar5
      000006 C0 04            [24]  124 	push	ar4
      000008 C0 E0            [24]  125 	push	acc
      00000A C0 F0            [24]  126 	push	b
      00000C C0 83            [24]  127 	push	dph
      00000E C0 82            [24]  128 	push	dpl
      000010 90r00r01         [24]  129 	mov	dptr,#__rrslonglong_l_65536_1
      000013 D0 E0            [24]  130 	pop	acc
      000015 F0               [24]  131 	movx	@dptr,a
      000016 D0 E0            [24]  132 	pop	acc
      000018 A3               [24]  133 	inc	dptr
      000019 F0               [24]  134 	movx	@dptr,a
      00001A D0 E0            [24]  135 	pop	acc
      00001C A3               [24]  136 	inc	dptr
      00001D F0               [24]  137 	movx	@dptr,a
      00001E D0 E0            [24]  138 	pop	acc
      000020 A3               [24]  139 	inc	dptr
      000021 F0               [24]  140 	movx	@dptr,a
      000022 D0 E0            [24]  141 	pop	acc
      000024 A3               [24]  142 	inc	dptr
      000025 F0               [24]  143 	movx	@dptr,a
      000026 D0 E0            [24]  144 	pop	acc
      000028 A3               [24]  145 	inc	dptr
      000029 F0               [24]  146 	movx	@dptr,a
      00002A D0 E0            [24]  147 	pop	acc
      00002C A3               [24]  148 	inc	dptr
      00002D F0               [24]  149 	movx	@dptr,a
      00002E D0 E0            [24]  150 	pop	acc
      000030 A3               [24]  151 	inc	dptr
      000031 F0               [24]  152 	movx	@dptr,a
                                    153 ;	_rrslonglong.c:43: int32_t *top = (uint32_t *)((char *)(&l) + 0);
                                    154 ;	_rrslonglong.c:44: uint32_t *middle = (uint16_t *)((char *)(&l) + 2);
                                    155 ;	_rrslonglong.c:45: uint32_t *bottom = (uint32_t *)((char *)(&l) + 4);
                                    156 ;	_rrslonglong.c:46: uint16_t *b = (uint16_t *)(&l);
                                    157 ;	_rrslonglong.c:56: (*bottom) >>= s;
      000032                        158 00103$:
                                    159 ;	_rrslonglong.c:48: for(;s >= 16; s-= 16)
      000032 90r00r00         [24]  160 	mov	dptr,#__rrslonglong_PARM_2
      000035 E0               [24]  161 	movx	a,@dptr
      000036 FF               [12]  162 	mov	r7,a
      000037 BF 10 00         [24]  163 	cjne	r7,#0x10,00121$
      00003A                        164 00121$:
      00003A 40 7A            [24]  165 	jc	00101$
                                    166 ;	_rrslonglong.c:50: b[3] = b[2];
      00003C 90r00r05         [24]  167 	mov	dptr,#(__rrslonglong_l_65536_1 + 0x0004)
      00003F 75 F0 00         [24]  168 	mov	b,#0x00
      000042 12r00r00         [24]  169 	lcall	__gptrget
      000045 FD               [12]  170 	mov	r5,a
      000046 A3               [24]  171 	inc	dptr
      000047 12r00r00         [24]  172 	lcall	__gptrget
      00004A FE               [12]  173 	mov	r6,a
      00004B 90r00r07         [24]  174 	mov	dptr,#(__rrslonglong_l_65536_1 + 0x0006)
      00004E ED               [12]  175 	mov	a,r5
      00004F 12r00r00         [24]  176 	lcall	__gptrput
      000052 A3               [24]  177 	inc	dptr
      000053 EE               [12]  178 	mov	a,r6
      000054 12r00r00         [24]  179 	lcall	__gptrput
                                    180 ;	_rrslonglong.c:51: b[2] = b[1];
      000057 90r00r03         [24]  181 	mov	dptr,#(__rrslonglong_l_65536_1 + 0x0002)
      00005A 12r00r00         [24]  182 	lcall	__gptrget
      00005D FD               [12]  183 	mov	r5,a
      00005E A3               [24]  184 	inc	dptr
      00005F 12r00r00         [24]  185 	lcall	__gptrget
      000062 FE               [12]  186 	mov	r6,a
      000063 90r00r05         [24]  187 	mov	dptr,#(__rrslonglong_l_65536_1 + 0x0004)
      000066 ED               [12]  188 	mov	a,r5
      000067 12r00r00         [24]  189 	lcall	__gptrput
      00006A A3               [24]  190 	inc	dptr
      00006B EE               [12]  191 	mov	a,r6
      00006C 12r00r00         [24]  192 	lcall	__gptrput
                                    193 ;	_rrslonglong.c:52: b[1] = b[0];
      00006F 90r00r01         [24]  194 	mov	dptr,#__rrslonglong_l_65536_1
      000072 E0               [24]  195 	movx	a,@dptr
      000073 FD               [12]  196 	mov	r5,a
      000074 A3               [24]  197 	inc	dptr
      000075 E0               [24]  198 	movx	a,@dptr
      000076 FE               [12]  199 	mov	r6,a
      000077 90r00r03         [24]  200 	mov	dptr,#(__rrslonglong_l_65536_1 + 0x0002)
      00007A ED               [12]  201 	mov	a,r5
      00007B 12r00r00         [24]  202 	lcall	__gptrput
      00007E A3               [24]  203 	inc	dptr
      00007F EE               [12]  204 	mov	a,r6
      000080 12r00r00         [24]  205 	lcall	__gptrput
                                    206 ;	_rrslonglong.c:53: b[0] = (b[0] & 0x8000) ? 0xffff : 0x000000;
      000083 7Cr01            [12]  207 	mov	r4,#__rrslonglong_l_65536_1
      000085 7Ds00            [12]  208 	mov	r5,#(__rrslonglong_l_65536_1 >> 8)
      000087 7E 00            [12]  209 	mov	r6,#0x00
      000089 90r00r01         [24]  210 	mov	dptr,#__rrslonglong_l_65536_1
      00008C E0               [24]  211 	movx	a,@dptr
      00008D A3               [24]  212 	inc	dptr
      00008E E0               [24]  213 	movx	a,@dptr
      00008F 30 E7 06         [24]  214 	jnb	acc.7,00107$
      000092 7A FF            [12]  215 	mov	r2,#0xff
      000094 7B FF            [12]  216 	mov	r3,#0xff
      000096 80 04            [24]  217 	sjmp	00108$
      000098                        218 00107$:
      000098 7A 00            [12]  219 	mov	r2,#0x00
      00009A 7B 00            [12]  220 	mov	r3,#0x00
      00009C                        221 00108$:
      00009C 8C 82            [24]  222 	mov	dpl,r4
      00009E 8D 83            [24]  223 	mov	dph,r5
      0000A0 8E F0            [24]  224 	mov	b,r6
      0000A2 EA               [12]  225 	mov	a,r2
      0000A3 12r00r00         [24]  226 	lcall	__gptrput
      0000A6 A3               [24]  227 	inc	dptr
      0000A7 EB               [12]  228 	mov	a,r3
      0000A8 12r00r00         [24]  229 	lcall	__gptrput
                                    230 ;	_rrslonglong.c:48: for(;s >= 16; s-= 16)
      0000AB 90r00r00         [24]  231 	mov	dptr,#__rrslonglong_PARM_2
      0000AE E0               [24]  232 	movx	a,@dptr
      0000AF FE               [12]  233 	mov	r6,a
      0000B0 24 F0            [12]  234 	add	a,#0xf0
      0000B2 F0               [24]  235 	movx	@dptr,a
      0000B3 02r00r32         [24]  236 	ljmp	00103$
      0000B6                        237 00101$:
                                    238 ;	_rrslonglong.c:56: (*bottom) >>= s;
      0000B6 90r00r05         [24]  239 	mov	dptr,#(__rrslonglong_l_65536_1 + 0x0004)
      0000B9 75 F0 00         [24]  240 	mov	b,#0x00
      0000BC 12r00r00         [24]  241 	lcall	__gptrget
      0000BF FB               [12]  242 	mov	r3,a
      0000C0 A3               [24]  243 	inc	dptr
      0000C1 12r00r00         [24]  244 	lcall	__gptrget
      0000C4 FC               [12]  245 	mov	r4,a
      0000C5 A3               [24]  246 	inc	dptr
      0000C6 12r00r00         [24]  247 	lcall	__gptrget
      0000C9 FD               [12]  248 	mov	r5,a
      0000CA A3               [24]  249 	inc	dptr
      0000CB 12r00r00         [24]  250 	lcall	__gptrget
      0000CE FE               [12]  251 	mov	r6,a
      0000CF 8F F0            [24]  252 	mov	b,r7
      0000D1 05 F0            [12]  253 	inc	b
      0000D3 80 0D            [24]  254 	sjmp	00125$
      0000D5                        255 00124$:
      0000D5 C3               [12]  256 	clr	c
      0000D6 EE               [12]  257 	mov	a,r6
      0000D7 13               [12]  258 	rrc	a
      0000D8 FE               [12]  259 	mov	r6,a
      0000D9 ED               [12]  260 	mov	a,r5
      0000DA 13               [12]  261 	rrc	a
      0000DB FD               [12]  262 	mov	r5,a
      0000DC EC               [12]  263 	mov	a,r4
      0000DD 13               [12]  264 	rrc	a
      0000DE FC               [12]  265 	mov	r4,a
      0000DF EB               [12]  266 	mov	a,r3
      0000E0 13               [12]  267 	rrc	a
      0000E1 FB               [12]  268 	mov	r3,a
      0000E2                        269 00125$:
      0000E2 D5 F0 F0         [24]  270 	djnz	b,00124$
      0000E5 90r00r05         [24]  271 	mov	dptr,#(__rrslonglong_l_65536_1 + 0x0004)
      0000E8 EB               [12]  272 	mov	a,r3
      0000E9 12r00r00         [24]  273 	lcall	__gptrput
      0000EC A3               [24]  274 	inc	dptr
      0000ED EC               [12]  275 	mov	a,r4
      0000EE 12r00r00         [24]  276 	lcall	__gptrput
      0000F1 A3               [24]  277 	inc	dptr
      0000F2 ED               [12]  278 	mov	a,r5
      0000F3 12r00r00         [24]  279 	lcall	__gptrput
      0000F6 A3               [24]  280 	inc	dptr
      0000F7 EE               [12]  281 	mov	a,r6
      0000F8 12r00r00         [24]  282 	lcall	__gptrput
                                    283 ;	_rrslonglong.c:57: (*middle) |= (((*middle & 0xffff0000ul) >> s) & 0x0000fffful);
      0000FB 90r00r03         [24]  284 	mov	dptr,#(__rrslonglong_l_65536_1 + 0x0002)
      0000FE 12r00r00         [24]  285 	lcall	__gptrget
      000101 F5*00            [12]  286 	mov	__rrslonglong_sloc0_1_0,a
      000103 A3               [24]  287 	inc	dptr
      000104 12r00r00         [24]  288 	lcall	__gptrget
      000107 F5*01            [12]  289 	mov	(__rrslonglong_sloc0_1_0 + 1),a
      000109 A3               [24]  290 	inc	dptr
      00010A 12r00r00         [24]  291 	lcall	__gptrget
      00010D F5*02            [12]  292 	mov	(__rrslonglong_sloc0_1_0 + 2),a
      00010F A3               [24]  293 	inc	dptr
      000110 12r00r00         [24]  294 	lcall	__gptrget
      000113 F5*03            [12]  295 	mov	(__rrslonglong_sloc0_1_0 + 3),a
      000115 78 00            [12]  296 	mov	r0,#0x00
      000117 79 00            [12]  297 	mov	r1,#0x00
      000119 AA*02            [24]  298 	mov	r2,(__rrslonglong_sloc0_1_0 + 2)
      00011B AE*03            [24]  299 	mov	r6,(__rrslonglong_sloc0_1_0 + 3)
      00011D 8F F0            [24]  300 	mov	b,r7
      00011F 05 F0            [12]  301 	inc	b
      000121 80 0D            [24]  302 	sjmp	00127$
      000123                        303 00126$:
      000123 C3               [12]  304 	clr	c
      000124 EE               [12]  305 	mov	a,r6
      000125 13               [12]  306 	rrc	a
      000126 FE               [12]  307 	mov	r6,a
      000127 EA               [12]  308 	mov	a,r2
      000128 13               [12]  309 	rrc	a
      000129 FA               [12]  310 	mov	r2,a
      00012A E9               [12]  311 	mov	a,r1
      00012B 13               [12]  312 	rrc	a
      00012C F9               [12]  313 	mov	r1,a
      00012D E8               [12]  314 	mov	a,r0
      00012E 13               [12]  315 	rrc	a
      00012F F8               [12]  316 	mov	r0,a
      000130                        317 00127$:
      000130 D5 F0 F0         [24]  318 	djnz	b,00126$
      000133 E4               [12]  319 	clr	a
      000134 FA               [12]  320 	mov	r2,a
      000135 FE               [12]  321 	mov	r6,a
      000136 E5*00            [12]  322 	mov	a,__rrslonglong_sloc0_1_0
      000138 42 00            [12]  323 	orl	ar0,a
      00013A E5*01            [12]  324 	mov	a,(__rrslonglong_sloc0_1_0 + 1)
      00013C 42 01            [12]  325 	orl	ar1,a
      00013E E5*02            [12]  326 	mov	a,(__rrslonglong_sloc0_1_0 + 2)
      000140 42 02            [12]  327 	orl	ar2,a
      000142 E5*03            [12]  328 	mov	a,(__rrslonglong_sloc0_1_0 + 3)
      000144 42 06            [12]  329 	orl	ar6,a
      000146 90r00r03         [24]  330 	mov	dptr,#(__rrslonglong_l_65536_1 + 0x0002)
      000149 75 F0 00         [24]  331 	mov	b,#0x00
      00014C E8               [12]  332 	mov	a,r0
      00014D 12r00r00         [24]  333 	lcall	__gptrput
      000150 A3               [24]  334 	inc	dptr
      000151 E9               [12]  335 	mov	a,r1
      000152 12r00r00         [24]  336 	lcall	__gptrput
      000155 A3               [24]  337 	inc	dptr
      000156 EA               [12]  338 	mov	a,r2
      000157 12r00r00         [24]  339 	lcall	__gptrput
      00015A A3               [24]  340 	inc	dptr
      00015B EE               [12]  341 	mov	a,r6
      00015C 12r00r00         [24]  342 	lcall	__gptrput
                                    343 ;	_rrslonglong.c:58: (*top) >>= s;
      00015F 90r00r01         [24]  344 	mov	dptr,#__rrslonglong_l_65536_1
      000162 E0               [24]  345 	movx	a,@dptr
      000163 FB               [12]  346 	mov	r3,a
      000164 A3               [24]  347 	inc	dptr
      000165 E0               [24]  348 	movx	a,@dptr
      000166 FC               [12]  349 	mov	r4,a
      000167 A3               [24]  350 	inc	dptr
      000168 E0               [24]  351 	movx	a,@dptr
      000169 FD               [12]  352 	mov	r5,a
      00016A A3               [24]  353 	inc	dptr
      00016B E0               [24]  354 	movx	a,@dptr
      00016C FE               [12]  355 	mov	r6,a
      00016D 8F F0            [24]  356 	mov	b,r7
      00016F 05 F0            [12]  357 	inc	b
      000171 EE               [12]  358 	mov	a,r6
      000172 33               [12]  359 	rlc	a
      000173 92 D2            [24]  360 	mov	ov,c
      000175 80 0E            [24]  361 	sjmp	00129$
      000177                        362 00128$:
      000177 A2 D2            [12]  363 	mov	c,ov
      000179 EE               [12]  364 	mov	a,r6
      00017A 13               [12]  365 	rrc	a
      00017B FE               [12]  366 	mov	r6,a
      00017C ED               [12]  367 	mov	a,r5
      00017D 13               [12]  368 	rrc	a
      00017E FD               [12]  369 	mov	r5,a
      00017F EC               [12]  370 	mov	a,r4
      000180 13               [12]  371 	rrc	a
      000181 FC               [12]  372 	mov	r4,a
      000182 EB               [12]  373 	mov	a,r3
      000183 13               [12]  374 	rrc	a
      000184 FB               [12]  375 	mov	r3,a
      000185                        376 00129$:
      000185 D5 F0 EF         [24]  377 	djnz	b,00128$
      000188 90r00r01         [24]  378 	mov	dptr,#__rrslonglong_l_65536_1
      00018B EB               [12]  379 	mov	a,r3
      00018C F0               [24]  380 	movx	@dptr,a
      00018D EC               [12]  381 	mov	a,r4
      00018E A3               [24]  382 	inc	dptr
      00018F F0               [24]  383 	movx	@dptr,a
      000190 ED               [12]  384 	mov	a,r5
      000191 A3               [24]  385 	inc	dptr
      000192 F0               [24]  386 	movx	@dptr,a
      000193 EE               [12]  387 	mov	a,r6
      000194 A3               [24]  388 	inc	dptr
      000195 F0               [24]  389 	movx	@dptr,a
                                    390 ;	_rrslonglong.c:60: return(l);
      000196 90r00r01         [24]  391 	mov	dptr,#__rrslonglong_l_65536_1
      000199 E0               [24]  392 	movx	a,@dptr
      00019A F8               [12]  393 	mov	r0,a
      00019B A3               [24]  394 	inc	dptr
      00019C E0               [24]  395 	movx	a,@dptr
      00019D F9               [12]  396 	mov	r1,a
      00019E A3               [24]  397 	inc	dptr
      00019F E0               [24]  398 	movx	a,@dptr
      0001A0 FA               [12]  399 	mov	r2,a
      0001A1 A3               [24]  400 	inc	dptr
      0001A2 E0               [24]  401 	movx	a,@dptr
      0001A3 FB               [12]  402 	mov	r3,a
      0001A4 A3               [24]  403 	inc	dptr
      0001A5 E0               [24]  404 	movx	a,@dptr
      0001A6 FC               [12]  405 	mov	r4,a
      0001A7 A3               [24]  406 	inc	dptr
      0001A8 E0               [24]  407 	movx	a,@dptr
      0001A9 FD               [12]  408 	mov	r5,a
      0001AA A3               [24]  409 	inc	dptr
      0001AB E0               [24]  410 	movx	a,@dptr
      0001AC FE               [12]  411 	mov	r6,a
      0001AD A3               [24]  412 	inc	dptr
      0001AE E0               [24]  413 	movx	a,@dptr
      0001AF FF               [12]  414 	mov	r7,a
      0001B0 88 82            [24]  415 	mov	dpl,r0
      0001B2 89 83            [24]  416 	mov	dph,r1
      0001B4 8A F0            [24]  417 	mov	b,r2
      0001B6 EB               [12]  418 	mov	a,r3
                                    419 ;	_rrslonglong.c:61: }
      0001B7 22               [24]  420 	ret
                                    421 	.area CSEG    (CODE)
                                    422 	.area CONST   (CODE)
                                    423 	.area XINIT   (CODE)
                                    424 	.area CABS    (ABS,CODE)
