                                      1 ;--------------------------------------------------------
                                      2 ; File Created by SDCC : free open source ISO C Compiler 
                                      3 ; Version 4.2.14 #0 (Linux)
                                      4 ;--------------------------------------------------------
                                      5 	.module _strpbrk
                                      6 	.optsdcc -mmcs51 --model-large
                                      7 	
                                      8 ;--------------------------------------------------------
                                      9 ; Public variables in this module
                                     10 ;--------------------------------------------------------
                                     11 	.globl _strchr
                                     12 	.globl _strpbrk_PARM_2
                                     13 	.globl _strpbrk
                                     14 ;--------------------------------------------------------
                                     15 ; special function registers
                                     16 ;--------------------------------------------------------
                                     17 	.area RSEG    (ABS,DATA)
      000000                         18 	.org 0x0000
                                     19 ;--------------------------------------------------------
                                     20 ; special function bits
                                     21 ;--------------------------------------------------------
                                     22 	.area RSEG    (ABS,DATA)
      000000                         23 	.org 0x0000
                                     24 ;--------------------------------------------------------
                                     25 ; overlayable register banks
                                     26 ;--------------------------------------------------------
                                     27 	.area REG_BANK_0	(REL,OVR,DATA)
      000000                         28 	.ds 8
                                     29 ;--------------------------------------------------------
                                     30 ; internal ram data
                                     31 ;--------------------------------------------------------
                                     32 	.area DSEG    (DATA)
      000000                         33 _strpbrk_sloc0_1_0:
      000000                         34 	.ds 3
      000003                         35 _strpbrk_sloc1_1_0:
      000003                         36 	.ds 3
                                     37 ;--------------------------------------------------------
                                     38 ; overlayable items in internal ram
                                     39 ;--------------------------------------------------------
                                     40 ;--------------------------------------------------------
                                     41 ; indirectly addressable internal ram data
                                     42 ;--------------------------------------------------------
                                     43 	.area ISEG    (DATA)
                                     44 ;--------------------------------------------------------
                                     45 ; absolute internal ram data
                                     46 ;--------------------------------------------------------
                                     47 	.area IABS    (ABS,DATA)
                                     48 	.area IABS    (ABS,DATA)
                                     49 ;--------------------------------------------------------
                                     50 ; bit data
                                     51 ;--------------------------------------------------------
                                     52 	.area BSEG    (BIT)
                                     53 ;--------------------------------------------------------
                                     54 ; paged external ram data
                                     55 ;--------------------------------------------------------
                                     56 	.area PSEG    (PAG,XDATA)
                                     57 ;--------------------------------------------------------
                                     58 ; uninitialized external ram data
                                     59 ;--------------------------------------------------------
                                     60 	.area XSEG    (XDATA)
      000000                         61 _strpbrk_PARM_2:
      000000                         62 	.ds 3
      000003                         63 _strpbrk_string_65536_26:
      000003                         64 	.ds 3
      000006                         65 _strpbrk_ret_65536_27:
      000006                         66 	.ds 3
                                     67 ;--------------------------------------------------------
                                     68 ; absolute external ram data
                                     69 ;--------------------------------------------------------
                                     70 	.area XABS    (ABS,XDATA)
                                     71 ;--------------------------------------------------------
                                     72 ; initialized external ram data
                                     73 ;--------------------------------------------------------
                                     74 	.area XISEG   (XDATA)
                                     75 	.area HOME    (CODE)
                                     76 	.area GSINIT0 (CODE)
                                     77 	.area GSINIT1 (CODE)
                                     78 	.area GSINIT2 (CODE)
                                     79 	.area GSINIT3 (CODE)
                                     80 	.area GSINIT4 (CODE)
                                     81 	.area GSINIT5 (CODE)
                                     82 	.area GSINIT  (CODE)
                                     83 	.area GSFINAL (CODE)
                                     84 	.area CSEG    (CODE)
                                     85 ;--------------------------------------------------------
                                     86 ; global & static initialisations
                                     87 ;--------------------------------------------------------
                                     88 	.area HOME    (CODE)
                                     89 	.area GSINIT  (CODE)
                                     90 	.area GSFINAL (CODE)
                                     91 	.area GSINIT  (CODE)
                                     92 ;--------------------------------------------------------
                                     93 ; Home
                                     94 ;--------------------------------------------------------
                                     95 	.area HOME    (CODE)
                                     96 	.area HOME    (CODE)
                                     97 ;--------------------------------------------------------
                                     98 ; code
                                     99 ;--------------------------------------------------------
                                    100 	.area CSEG    (CODE)
                                    101 ;------------------------------------------------------------
                                    102 ;Allocation info for local variables in function 'strpbrk'
                                    103 ;------------------------------------------------------------
                                    104 ;ch                        Allocated to registers r3 
                                    105 ;sloc0                     Allocated with name '_strpbrk_sloc0_1_0'
                                    106 ;sloc1                     Allocated with name '_strpbrk_sloc1_1_0'
                                    107 ;control                   Allocated with name '_strpbrk_PARM_2'
                                    108 ;string                    Allocated with name '_strpbrk_string_65536_26'
                                    109 ;ret                       Allocated with name '_strpbrk_ret_65536_27'
                                    110 ;p                         Allocated with name '_strpbrk_p_131072_28'
                                    111 ;------------------------------------------------------------
                                    112 ;	_strpbrk.c:31: char * strpbrk ( const char * string, const char * control )
                                    113 ;	-----------------------------------------
                                    114 ;	 function strpbrk
                                    115 ;	-----------------------------------------
      000000                        116 _strpbrk:
                           000007   117 	ar7 = 0x07
                           000006   118 	ar6 = 0x06
                           000005   119 	ar5 = 0x05
                           000004   120 	ar4 = 0x04
                           000003   121 	ar3 = 0x03
                           000002   122 	ar2 = 0x02
                           000001   123 	ar1 = 0x01
                           000000   124 	ar0 = 0x00
      000000 AF F0            [24]  125 	mov	r7,b
      000002 AE 83            [24]  126 	mov	r6,dph
      000004 E5 82            [12]  127 	mov	a,dpl
      000006 90r00r03         [24]  128 	mov	dptr,#_strpbrk_string_65536_26
      000009 F0               [24]  129 	movx	@dptr,a
      00000A EE               [12]  130 	mov	a,r6
      00000B A3               [24]  131 	inc	dptr
      00000C F0               [24]  132 	movx	@dptr,a
      00000D EF               [12]  133 	mov	a,r7
      00000E A3               [24]  134 	inc	dptr
      00000F F0               [24]  135 	movx	@dptr,a
                                    136 ;	_strpbrk.c:33: char *ret = NULL;
      000010 90r00r06         [24]  137 	mov	dptr,#_strpbrk_ret_65536_27
      000013 E4               [12]  138 	clr	a
      000014 F0               [24]  139 	movx	@dptr,a
      000015 A3               [24]  140 	inc	dptr
      000016 F0               [24]  141 	movx	@dptr,a
      000017 A3               [24]  142 	inc	dptr
      000018 F0               [24]  143 	movx	@dptr,a
                                    144 ;	_strpbrk.c:36: while (ch = *control) {
      000019 90r00r00         [24]  145 	mov	dptr,#_strpbrk_PARM_2
      00001C E0               [24]  146 	movx	a,@dptr
      00001D FD               [12]  147 	mov	r5,a
      00001E A3               [24]  148 	inc	dptr
      00001F E0               [24]  149 	movx	a,@dptr
      000020 FE               [12]  150 	mov	r6,a
      000021 A3               [24]  151 	inc	dptr
      000022 E0               [24]  152 	movx	a,@dptr
      000023 FF               [12]  153 	mov	r7,a
      000024                        154 00105$:
      000024 8D 82            [24]  155 	mov	dpl,r5
      000026 8E 83            [24]  156 	mov	dph,r6
      000028 8F F0            [24]  157 	mov	b,r7
      00002A 12r00r00         [24]  158 	lcall	__gptrget
      00002D FC               [12]  159 	mov	r4,a
      00002E FB               [12]  160 	mov	r3,a
      00002F 70 03            [24]  161 	jnz	00127$
      000031 02r00rC2         [24]  162 	ljmp	00107$
      000034                        163 00127$:
                                    164 ;	_strpbrk.c:37: char * p = strchr(string, ch);
      000034 90r00r03         [24]  165 	mov	dptr,#_strpbrk_string_65536_26
      000037 E0               [24]  166 	movx	a,@dptr
      000038 F9               [12]  167 	mov	r1,a
      000039 A3               [24]  168 	inc	dptr
      00003A E0               [24]  169 	movx	a,@dptr
      00003B FA               [12]  170 	mov	r2,a
      00003C A3               [24]  171 	inc	dptr
      00003D E0               [24]  172 	movx	a,@dptr
      00003E FC               [12]  173 	mov	r4,a
      00003F 90r00r00         [24]  174 	mov	dptr,#_strchr_PARM_2
      000042 EB               [12]  175 	mov	a,r3
      000043 F0               [24]  176 	movx	@dptr,a
      000044 89 82            [24]  177 	mov	dpl,r1
      000046 8A 83            [24]  178 	mov	dph,r2
      000048 8C F0            [24]  179 	mov	b,r4
      00004A C0 07            [24]  180 	push	ar7
      00004C C0 06            [24]  181 	push	ar6
      00004E C0 05            [24]  182 	push	ar5
      000050 12r00r00         [24]  183 	lcall	_strchr
      000053 AA 82            [24]  184 	mov	r2,dpl
      000055 AB 83            [24]  185 	mov	r3,dph
      000057 AC F0            [24]  186 	mov	r4,b
      000059 D0 05            [24]  187 	pop	ar5
      00005B D0 06            [24]  188 	pop	ar6
      00005D D0 07            [24]  189 	pop	ar7
                                    190 ;	_strpbrk.c:38: if (p != NULL && (ret == NULL || p < ret)) {
      00005F EA               [12]  191 	mov	a,r2
      000060 4B               [12]  192 	orl	a,r3
      000061 60 57            [24]  193 	jz	00102$
      000063 90r00r06         [24]  194 	mov	dptr,#_strpbrk_ret_65536_27
      000066 E0               [24]  195 	movx	a,@dptr
      000067 F5*00            [12]  196 	mov	_strpbrk_sloc0_1_0,a
      000069 A3               [24]  197 	inc	dptr
      00006A E0               [24]  198 	movx	a,@dptr
      00006B F5*01            [12]  199 	mov	(_strpbrk_sloc0_1_0 + 1),a
      00006D A3               [24]  200 	inc	dptr
      00006E E0               [24]  201 	movx	a,@dptr
      00006F F5*02            [12]  202 	mov	(_strpbrk_sloc0_1_0 + 2),a
      000071 90r00r06         [24]  203 	mov	dptr,#_strpbrk_ret_65536_27
      000074 E0               [24]  204 	movx	a,@dptr
      000075 F5 F0            [12]  205 	mov	b,a
      000077 A3               [24]  206 	inc	dptr
      000078 E0               [24]  207 	movx	a,@dptr
      000079 45 F0            [12]  208 	orl	a,b
      00007B 60 32            [24]  209 	jz	00101$
      00007D C0 05            [24]  210 	push	ar5
      00007F C0 06            [24]  211 	push	ar6
      000081 C0 07            [24]  212 	push	ar7
      000083 8A*03            [24]  213 	mov	_strpbrk_sloc1_1_0,r2
      000085 8B*04            [24]  214 	mov	(_strpbrk_sloc1_1_0 + 1),r3
      000087 8C*05            [24]  215 	mov	(_strpbrk_sloc1_1_0 + 2),r4
      000089 AD*00            [24]  216 	mov	r5,_strpbrk_sloc0_1_0
      00008B AE*01            [24]  217 	mov	r6,(_strpbrk_sloc0_1_0 + 1)
      00008D AF*02            [24]  218 	mov	r7,(_strpbrk_sloc0_1_0 + 2)
      00008F C0 05            [24]  219 	push	ar5
      000091 C0 06            [24]  220 	push	ar6
      000093 C0 07            [24]  221 	push	ar7
      000095 85*03 82         [24]  222 	mov	dpl,_strpbrk_sloc1_1_0
      000098 85*04 83         [24]  223 	mov	dph,(_strpbrk_sloc1_1_0 + 1)
      00009B 85*05 F0         [24]  224 	mov	b,(_strpbrk_sloc1_1_0 + 2)
      00009E 12r00r00         [24]  225 	lcall	___gptr_cmp
      0000A1 15 81            [12]  226 	dec	sp
      0000A3 15 81            [12]  227 	dec	sp
      0000A5 15 81            [12]  228 	dec	sp
      0000A7 D0 07            [24]  229 	pop	ar7
      0000A9 D0 06            [24]  230 	pop	ar6
      0000AB D0 05            [24]  231 	pop	ar5
      0000AD 50 0B            [24]  232 	jnc	00102$
      0000AF                        233 00101$:
                                    234 ;	_strpbrk.c:39: ret = p;
      0000AF 90r00r06         [24]  235 	mov	dptr,#_strpbrk_ret_65536_27
      0000B2 EA               [12]  236 	mov	a,r2
      0000B3 F0               [24]  237 	movx	@dptr,a
      0000B4 EB               [12]  238 	mov	a,r3
      0000B5 A3               [24]  239 	inc	dptr
      0000B6 F0               [24]  240 	movx	@dptr,a
      0000B7 EC               [12]  241 	mov	a,r4
      0000B8 A3               [24]  242 	inc	dptr
      0000B9 F0               [24]  243 	movx	@dptr,a
      0000BA                        244 00102$:
                                    245 ;	_strpbrk.c:41: control++;
      0000BA 0D               [12]  246 	inc	r5
      0000BB BD 00 01         [24]  247 	cjne	r5,#0x00,00131$
      0000BE 0E               [12]  248 	inc	r6
      0000BF                        249 00131$:
      0000BF 02r00r24         [24]  250 	ljmp	00105$
      0000C2                        251 00107$:
                                    252 ;	_strpbrk.c:44: return (ret);
      0000C2 90r00r06         [24]  253 	mov	dptr,#_strpbrk_ret_65536_27
      0000C5 E0               [24]  254 	movx	a,@dptr
      0000C6 FD               [12]  255 	mov	r5,a
      0000C7 A3               [24]  256 	inc	dptr
      0000C8 E0               [24]  257 	movx	a,@dptr
      0000C9 FE               [12]  258 	mov	r6,a
      0000CA A3               [24]  259 	inc	dptr
      0000CB E0               [24]  260 	movx	a,@dptr
      0000CC FF               [12]  261 	mov	r7,a
      0000CD 8D 82            [24]  262 	mov	dpl,r5
      0000CF 8E 83            [24]  263 	mov	dph,r6
      0000D1 8F F0            [24]  264 	mov	b,r7
                                    265 ;	_strpbrk.c:45: }
      0000D3 22               [24]  266 	ret
                                    267 	.area CSEG    (CODE)
                                    268 	.area CONST   (CODE)
                                    269 	.area XINIT   (CODE)
                                    270 	.area CABS    (ABS,CODE)
