;--------------------------------------------------------
; File Created by SDCC : free open source ISO C Compiler 
; Version 4.2.14 #0 (Linux)
;--------------------------------------------------------
	.module _rrslonglong
	.optsdcc -mmcs51 --model-small
	
;--------------------------------------------------------
; Public variables in this module
;--------------------------------------------------------
	.globl __rrslonglong
;--------------------------------------------------------
; special function registers
;--------------------------------------------------------
	.area RSEG    (ABS,DATA)
	.org 0x0000
;--------------------------------------------------------
; special function bits
;--------------------------------------------------------
	.area RSEG    (ABS,DATA)
	.org 0x0000
;--------------------------------------------------------
; overlayable register banks
;--------------------------------------------------------
	.area REG_BANK_0	(REL,OVR,DATA)
	.ds 8
;--------------------------------------------------------
; internal ram data
;--------------------------------------------------------
	.area DSEG    (DATA)
;--------------------------------------------------------
; overlayable items in internal ram
;--------------------------------------------------------
;--------------------------------------------------------
; indirectly addressable internal ram data
;--------------------------------------------------------
	.area ISEG    (DATA)
;--------------------------------------------------------
; absolute internal ram data
;--------------------------------------------------------
	.area IABS    (ABS,DATA)
	.area IABS    (ABS,DATA)
;--------------------------------------------------------
; bit data
;--------------------------------------------------------
	.area BSEG    (BIT)
;--------------------------------------------------------
; paged external ram data
;--------------------------------------------------------
	.area PSEG    (PAG,XDATA)
;--------------------------------------------------------
; uninitialized external ram data
;--------------------------------------------------------
	.area XSEG    (XDATA)
;--------------------------------------------------------
; absolute external ram data
;--------------------------------------------------------
	.area XABS    (ABS,XDATA)
;--------------------------------------------------------
; initialized external ram data
;--------------------------------------------------------
	.area XISEG   (XDATA)
	.area HOME    (CODE)
	.area GSINIT0 (CODE)
	.area GSINIT1 (CODE)
	.area GSINIT2 (CODE)
	.area GSINIT3 (CODE)
	.area GSINIT4 (CODE)
	.area GSINIT5 (CODE)
	.area GSINIT  (CODE)
	.area GSFINAL (CODE)
	.area CSEG    (CODE)
;--------------------------------------------------------
; global & static initialisations
;--------------------------------------------------------
	.area HOME    (CODE)
	.area GSINIT  (CODE)
	.area GSFINAL (CODE)
	.area GSINIT  (CODE)
;--------------------------------------------------------
; Home
;--------------------------------------------------------
	.area HOME    (CODE)
	.area HOME    (CODE)
;--------------------------------------------------------
; code
;--------------------------------------------------------
	.area CSEG    (CODE)
;------------------------------------------------------------
;Allocation info for local variables in function '_rrslonglong'
;------------------------------------------------------------
;s                         Allocated to stack - _bp -3
;l                         Allocated to stack - _bp +1
;top                       Allocated to stack - _bp +16
;middle                    Allocated to stack - _bp +19
;bottom                    Allocated to stack - _bp +22
;b                         Allocated to stack - _bp +25
;sloc0                     Allocated to stack - _bp +9
;sloc1                     Allocated to stack - _bp +12
;------------------------------------------------------------
;	_rrslonglong.c:41: long long _rrslonglong(long long l, char s) __SDCC_NONBANKED
;	-----------------------------------------
;	 function _rrslonglong
;	-----------------------------------------
__rrslonglong:
	ar7 = 0x07
	ar6 = 0x06
	ar5 = 0x05
	ar4 = 0x04
	ar3 = 0x03
	ar2 = 0x02
	ar1 = 0x01
	ar0 = 0x00
	push	_bp
	mov	_bp,sp
	push	dpl
	push	dph
	push	b
	push	acc
	push	ar4
	push	ar5
	push	ar6
	push	ar7
	mov	a,sp
	add	a,#0x13
	mov	sp,a
;	_rrslonglong.c:43: int32_t *top = (uint32_t *)((char *)(&l) + 0);
	mov	r7,_bp
	inc	r7
	mov	ar4,r7
	mov	r5,#0x00
	mov	r6,#0x40
	mov	a,_bp
	add	a,#0x10
	mov	r0,a
	mov	@r0,ar4
	inc	r0
	mov	@r0,ar5
	inc	r0
	mov	@r0,ar6
;	_rrslonglong.c:44: uint32_t *middle = (uint16_t *)((char *)(&l) + 2);
	mov	ar3,r7
	mov	ar2,r3
	mov	r3,#0x00
	mov	r6,#0x40
	mov	a,#0x02
	add	a,r2
	mov	r2,a
	clr	a
	addc	a,r3
	mov	r3,a
	mov	a,_bp
	add	a,#0x13
	mov	r0,a
	mov	@r0,ar2
	inc	r0
	mov	@r0,ar3
	inc	r0
	mov	@r0,ar6
;	_rrslonglong.c:45: uint32_t *bottom = (uint32_t *)((char *)(&l) + 4);
	mov	ar5,r7
	mov	ar4,r5
	mov	r5,#0x00
	mov	r6,#0x40
	mov	a,#0x04
	add	a,r4
	mov	r4,a
	clr	a
	addc	a,r5
	mov	r5,a
	mov	a,_bp
	add	a,#0x16
	mov	r0,a
	mov	@r0,ar4
	inc	r0
	mov	@r0,ar5
	inc	r0
	mov	@r0,ar6
;	_rrslonglong.c:46: uint16_t *b = (uint16_t *)(&l);
	mov	a,_bp
	add	a,#0x19
	mov	r0,a
	mov	@r0,ar7
	inc	r0
	mov	@r0,#0x00
	inc	r0
	mov	@r0,#0x40
;	_rrslonglong.c:56: (*bottom) >>= s;
00103$:
;	_rrslonglong.c:48: for(;s >= 16; s-= 16)
	mov	a,_bp
	add	a,#0xfd
	mov	r0,a
	cjne	@r0,#0x10,00121$
00121$:
	jnc	00122$
	ljmp	00101$
00122$:
;	_rrslonglong.c:50: b[3] = b[2];
	mov	a,_bp
	add	a,#0x19
	mov	r0,a
	mov	a,_bp
	add	a,#0x09
	mov	r1,a
	mov	a,#0x06
	add	a,@r0
	mov	@r1,a
	clr	a
	inc	r0
	addc	a,@r0
	inc	r1
	mov	@r1,a
	inc	r0
	mov	a,@r0
	inc	r1
	mov	@r1,a
	mov	a,_bp
	add	a,#0x19
	mov	r0,a
	mov	a,#0x04
	add	a,@r0
	mov	r2,a
	clr	a
	inc	r0
	addc	a,@r0
	mov	r3,a
	inc	r0
	mov	ar7,@r0
	mov	dpl,r2
	mov	dph,r3
	mov	b,r7
	lcall	__gptrget
	mov	r6,a
	inc	dptr
	lcall	__gptrget
	mov	r5,a
	mov	a,_bp
	add	a,#0x09
	mov	r0,a
	mov	dpl,@r0
	inc	r0
	mov	dph,@r0
	inc	r0
	mov	b,@r0
	mov	a,r6
	lcall	__gptrput
	inc	dptr
	mov	a,r5
	lcall	__gptrput
;	_rrslonglong.c:51: b[2] = b[1];
	mov	a,_bp
	add	a,#0x19
	mov	r0,a
	mov	a,_bp
	add	a,#0x09
	mov	r1,a
	mov	a,#0x02
	add	a,@r0
	mov	@r1,a
	clr	a
	inc	r0
	addc	a,@r0
	inc	r1
	mov	@r1,a
	inc	r0
	mov	a,@r0
	inc	r1
	mov	@r1,a
	mov	a,_bp
	add	a,#0x09
	mov	r0,a
	mov	dpl,@r0
	inc	r0
	mov	dph,@r0
	inc	r0
	mov	b,@r0
	lcall	__gptrget
	mov	r5,a
	inc	dptr
	lcall	__gptrget
	mov	r6,a
	mov	dpl,r2
	mov	dph,r3
	mov	b,r7
	mov	a,r5
	lcall	__gptrput
	inc	dptr
	mov	a,r6
	lcall	__gptrput
;	_rrslonglong.c:52: b[1] = b[0];
	mov	a,_bp
	add	a,#0x19
	mov	r0,a
	mov	dpl,@r0
	inc	r0
	mov	dph,@r0
	inc	r0
	mov	b,@r0
	lcall	__gptrget
	mov	r6,a
	inc	dptr
	lcall	__gptrget
	mov	r7,a
	mov	a,_bp
	add	a,#0x09
	mov	r0,a
	mov	dpl,@r0
	inc	r0
	mov	dph,@r0
	inc	r0
	mov	b,@r0
	mov	a,r6
	lcall	__gptrput
	inc	dptr
	mov	a,r7
	lcall	__gptrput
;	_rrslonglong.c:53: b[0] = (b[0] & 0x8000) ? 0xffff : 0x000000;
	mov	a,_bp
	add	a,#0x19
	mov	r0,a
	mov	ar5,@r0
	inc	r0
	mov	ar4,@r0
	inc	r0
	mov	ar2,@r0
	mov	a,_bp
	add	a,#0x19
	mov	r0,a
	mov	dpl,@r0
	inc	r0
	mov	dph,@r0
	inc	r0
	mov	b,@r0
	lcall	__gptrget
	mov	r6,a
	inc	dptr
	lcall	__gptrget
	jnb	acc.7,00107$
	mov	r3,#0xff
	mov	r7,#0xff
	sjmp	00108$
00107$:
	mov	r3,#0x00
	mov	r7,#0x00
00108$:
	mov	dpl,r5
	mov	dph,r4
	mov	b,r2
	mov	a,r3
	lcall	__gptrput
	inc	dptr
	mov	a,r7
	lcall	__gptrput
;	_rrslonglong.c:48: for(;s >= 16; s-= 16)
	mov	a,_bp
	add	a,#0xfd
	mov	r0,a
	mov	ar7,@r0
	mov	a,_bp
	add	a,#0xfd
	mov	r0,a
	mov	a,r7
	add	a,#0xf0
	mov	@r0,a
	ljmp	00103$
00101$:
;	_rrslonglong.c:56: (*bottom) >>= s;
	mov	a,_bp
	add	a,#0x16
	mov	r0,a
	mov	dpl,@r0
	inc	r0
	mov	dph,@r0
	inc	r0
	mov	b,@r0
	lcall	__gptrget
	mov	r2,a
	inc	dptr
	lcall	__gptrget
	mov	r3,a
	inc	dptr
	lcall	__gptrget
	mov	r6,a
	inc	dptr
	lcall	__gptrget
	mov	r7,a
	mov	a,_bp
	add	a,#0xfd
	mov	r0,a
	mov	b,@r0
	inc	b
	sjmp	00125$
00124$:
	clr	c
	mov	a,r7
	rrc	a
	mov	r7,a
	mov	a,r6
	rrc	a
	mov	r6,a
	mov	a,r3
	rrc	a
	mov	r3,a
	mov	a,r2
	rrc	a
	mov	r2,a
00125$:
	djnz	b,00124$
	mov	a,_bp
	add	a,#0x16
	mov	r0,a
	mov	dpl,@r0
	inc	r0
	mov	dph,@r0
	inc	r0
	mov	b,@r0
	mov	a,r2
	lcall	__gptrput
	inc	dptr
	mov	a,r3
	lcall	__gptrput
	inc	dptr
	mov	a,r6
	lcall	__gptrput
	inc	dptr
	mov	a,r7
	lcall	__gptrput
;	_rrslonglong.c:57: (*middle) |= (((*middle & 0xffff0000ul) >> s) & 0x0000fffful);
	mov	a,_bp
	add	a,#0x13
	mov	r0,a
	mov	dpl,@r0
	inc	r0
	mov	dph,@r0
	inc	r0
	mov	b,@r0
	mov	a,_bp
	add	a,#0x0c
	mov	r1,a
	lcall	__gptrget
	mov	@r1,a
	inc	dptr
	lcall	__gptrget
	inc	r1
	mov	@r1,a
	inc	dptr
	lcall	__gptrget
	inc	r1
	mov	@r1,a
	inc	dptr
	lcall	__gptrget
	inc	r1
	mov	@r1,a
	mov	a,_bp
	add	a,#0x0c
	mov	r0,a
	mov	r2,#0x00
	mov	r3,#0x00
	inc	r0
	inc	r0
	mov	ar6,@r0
	inc	r0
	mov	ar7,@r0
	mov	a,_bp
	add	a,#0xfd
	mov	r0,a
	mov	b,@r0
	inc	b
	sjmp	00127$
00126$:
	clr	c
	mov	a,r7
	rrc	a
	mov	r7,a
	mov	a,r6
	rrc	a
	mov	r6,a
	mov	a,r3
	rrc	a
	mov	r3,a
	mov	a,r2
	rrc	a
	mov	r2,a
00127$:
	djnz	b,00126$
	clr	a
	mov	r6,a
	mov	r7,a
	mov	a,_bp
	add	a,#0x0c
	mov	r0,a
	mov	a,@r0
	orl	ar2,a
	inc	r0
	mov	a,@r0
	orl	ar3,a
	inc	r0
	mov	a,@r0
	orl	ar6,a
	inc	r0
	mov	a,@r0
	orl	ar7,a
	mov	a,_bp
	add	a,#0x13
	mov	r0,a
	mov	dpl,@r0
	inc	r0
	mov	dph,@r0
	inc	r0
	mov	b,@r0
	mov	a,r2
	lcall	__gptrput
	inc	dptr
	mov	a,r3
	lcall	__gptrput
	inc	dptr
	mov	a,r6
	lcall	__gptrput
	inc	dptr
	mov	a,r7
	lcall	__gptrput
;	_rrslonglong.c:58: (*top) >>= s;
	mov	a,_bp
	add	a,#0x10
	mov	r0,a
	mov	dpl,@r0
	inc	r0
	mov	dph,@r0
	inc	r0
	mov	b,@r0
	lcall	__gptrget
	mov	r4,a
	inc	dptr
	lcall	__gptrget
	mov	r5,a
	inc	dptr
	lcall	__gptrget
	mov	r6,a
	inc	dptr
	lcall	__gptrget
	mov	r7,a
	mov	a,_bp
	add	a,#0xfd
	mov	r0,a
	mov	b,@r0
	inc	b
	mov	a,r7
	rlc	a
	mov	ov,c
	sjmp	00129$
00128$:
	mov	c,ov
	mov	a,r7
	rrc	a
	mov	r7,a
	mov	a,r6
	rrc	a
	mov	r6,a
	mov	a,r5
	rrc	a
	mov	r5,a
	mov	a,r4
	rrc	a
	mov	r4,a
00129$:
	djnz	b,00128$
	mov	a,_bp
	add	a,#0x10
	mov	r0,a
	mov	dpl,@r0
	inc	r0
	mov	dph,@r0
	inc	r0
	mov	b,@r0
	mov	a,r4
	lcall	__gptrput
	inc	dptr
	mov	a,r5
	lcall	__gptrput
	inc	dptr
	mov	a,r6
	lcall	__gptrput
	inc	dptr
	mov	a,r7
	lcall	__gptrput
;	_rrslonglong.c:60: return(l);
	mov	r0,_bp
	inc	r0
	mov	dpl,@r0
	inc	r0
	mov	dph,@r0
	inc	r0
	mov	b,@r0
	inc	r0
	mov	a,@r0
	inc	r0
	mov	ar4,@r0
	inc	r0
	mov	ar5,@r0
	inc	r0
	mov	ar6,@r0
	inc	r0
	mov	ar7,@r0
;	_rrslonglong.c:61: }
	mov	sp,_bp
	pop	_bp
	ret
	.area CSEG    (CODE)
	.area CONST   (CODE)
	.area XINIT   (CODE)
	.area CABS    (ABS,CODE)
