                                      1 ;--------------------------------------------------------
                                      2 ; File Created by SDCC : free open source ISO C Compiler 
                                      3 ; Version 4.2.14 #0 (Linux)
                                      4 ;--------------------------------------------------------
                                      5 	.module ckd_add
                                      6 	.optsdcc -mmcs51 --model-small
                                      7 	
                                      8 ;--------------------------------------------------------
                                      9 ; Public variables in this module
                                     10 ;--------------------------------------------------------
                                     11 	.globl ___ckd_add_schar
                                     12 	.globl ___ckd_add_uchar
                                     13 	.globl ___ckd_add_short
                                     14 	.globl ___ckd_add_ushort
                                     15 	.globl ___ckd_add_int
                                     16 	.globl ___ckd_add_uint
                                     17 	.globl ___ckd_add_long
                                     18 	.globl ___ckd_add_ulong
                                     19 ;--------------------------------------------------------
                                     20 ; special function registers
                                     21 ;--------------------------------------------------------
                                     22 	.area RSEG    (ABS,DATA)
      000000                         23 	.org 0x0000
                                     24 ;--------------------------------------------------------
                                     25 ; special function bits
                                     26 ;--------------------------------------------------------
                                     27 	.area RSEG    (ABS,DATA)
      000000                         28 	.org 0x0000
                                     29 ;--------------------------------------------------------
                                     30 ; overlayable register banks
                                     31 ;--------------------------------------------------------
                                     32 	.area REG_BANK_0	(REL,OVR,DATA)
      000000                         33 	.ds 8
                                     34 ;--------------------------------------------------------
                                     35 ; overlayable bit register bank
                                     36 ;--------------------------------------------------------
                                     37 	.area BIT_BANK	(REL,OVR,DATA)
      000000                         38 bits:
      000000                         39 	.ds 1
                           008000    40 	b0 = bits[0]
                           008100    41 	b1 = bits[1]
                           008200    42 	b2 = bits[2]
                           008300    43 	b3 = bits[3]
                           008400    44 	b4 = bits[4]
                           008500    45 	b5 = bits[5]
                           008600    46 	b6 = bits[6]
                           008700    47 	b7 = bits[7]
                                     48 ;--------------------------------------------------------
                                     49 ; internal ram data
                                     50 ;--------------------------------------------------------
                                     51 	.area DSEG    (DATA)
                                     52 ;--------------------------------------------------------
                                     53 ; overlayable items in internal ram
                                     54 ;--------------------------------------------------------
                                     55 ;--------------------------------------------------------
                                     56 ; indirectly addressable internal ram data
                                     57 ;--------------------------------------------------------
                                     58 	.area ISEG    (DATA)
                                     59 ;--------------------------------------------------------
                                     60 ; absolute internal ram data
                                     61 ;--------------------------------------------------------
                                     62 	.area IABS    (ABS,DATA)
                                     63 	.area IABS    (ABS,DATA)
                                     64 ;--------------------------------------------------------
                                     65 ; bit data
                                     66 ;--------------------------------------------------------
                                     67 	.area BSEG    (BIT)
                                     68 ;--------------------------------------------------------
                                     69 ; paged external ram data
                                     70 ;--------------------------------------------------------
                                     71 	.area PSEG    (PAG,XDATA)
                                     72 ;--------------------------------------------------------
                                     73 ; uninitialized external ram data
                                     74 ;--------------------------------------------------------
                                     75 	.area XSEG    (XDATA)
                                     76 ;--------------------------------------------------------
                                     77 ; absolute external ram data
                                     78 ;--------------------------------------------------------
                                     79 	.area XABS    (ABS,XDATA)
                                     80 ;--------------------------------------------------------
                                     81 ; initialized external ram data
                                     82 ;--------------------------------------------------------
                                     83 	.area XISEG   (XDATA)
                                     84 	.area HOME    (CODE)
                                     85 	.area GSINIT0 (CODE)
                                     86 	.area GSINIT1 (CODE)
                                     87 	.area GSINIT2 (CODE)
                                     88 	.area GSINIT3 (CODE)
                                     89 	.area GSINIT4 (CODE)
                                     90 	.area GSINIT5 (CODE)
                                     91 	.area GSINIT  (CODE)
                                     92 	.area GSFINAL (CODE)
                                     93 	.area CSEG    (CODE)
                                     94 ;--------------------------------------------------------
                                     95 ; global & static initialisations
                                     96 ;--------------------------------------------------------
                                     97 	.area HOME    (CODE)
                                     98 	.area GSINIT  (CODE)
                                     99 	.area GSFINAL (CODE)
                                    100 	.area GSINIT  (CODE)
                                    101 ;--------------------------------------------------------
                                    102 ; Home
                                    103 ;--------------------------------------------------------
                                    104 	.area HOME    (CODE)
                                    105 	.area HOME    (CODE)
                                    106 ;--------------------------------------------------------
                                    107 ; code
                                    108 ;--------------------------------------------------------
                                    109 	.area CSEG    (CODE)
                                    110 ;------------------------------------------------------------
                                    111 ;Allocation info for local variables in function '__ckd_add_schar'
                                    112 ;------------------------------------------------------------
                                    113 ;a                         Allocated to stack - _bp -10
                                    114 ;b                         Allocated to stack - _bp -18
                                    115 ;r                         Allocated to registers r6 r5 r4 
                                    116 ;result                    Allocated to stack - _bp +9
                                    117 ;sloc0                     Allocated to stack - _bp +1
                                    118 ;------------------------------------------------------------
                                    119 ;	../../device/include/stdckdint.h:51: inline _Bool __ckd_add_schar __CKD_DEFAULT_IMPL(signed char, +)
                                    120 ;	-----------------------------------------
                                    121 ;	 function __ckd_add_schar
                                    122 ;	-----------------------------------------
      000000                        123 ___ckd_add_schar:
                           000007   124 	ar7 = 0x07
                           000006   125 	ar6 = 0x06
                           000005   126 	ar5 = 0x05
                           000004   127 	ar4 = 0x04
                           000003   128 	ar3 = 0x03
                           000002   129 	ar2 = 0x02
                           000001   130 	ar1 = 0x01
                           000000   131 	ar0 = 0x00
      000000 C0*00            [24]  132 	push	_bp
      000002 E5 81            [12]  133 	mov	a,sp
      000004 F5*00            [12]  134 	mov	_bp,a
      000006 24 10            [12]  135 	add	a,#0x10
      000008 F5 81            [12]  136 	mov	sp,a
      00000A AE 82            [24]  137 	mov	r6,dpl
      00000C AD 83            [24]  138 	mov	r5,dph
      00000E AC F0            [24]  139 	mov	r4,b
      000010 E5*00            [12]  140 	mov	a,_bp
      000012 24 F6            [12]  141 	add	a,#0xf6
      000014 F8               [12]  142 	mov	r0,a
      000015 E5*00            [12]  143 	mov	a,_bp
      000017 24 EE            [12]  144 	add	a,#0xee
      000019 F9               [12]  145 	mov	r1,a
      00001A E7               [12]  146 	mov	a,@r1
      00001B 26               [12]  147 	add	a,@r0
      00001C C0 E0            [24]  148 	push	acc
      00001E 09               [12]  149 	inc	r1
      00001F E7               [12]  150 	mov	a,@r1
      000020 08               [12]  151 	inc	r0
      000021 36               [12]  152 	addc	a,@r0
      000022 C0 E0            [24]  153 	push	acc
      000024 09               [12]  154 	inc	r1
      000025 E7               [12]  155 	mov	a,@r1
      000026 08               [12]  156 	inc	r0
      000027 36               [12]  157 	addc	a,@r0
      000028 C0 E0            [24]  158 	push	acc
      00002A 09               [12]  159 	inc	r1
      00002B E7               [12]  160 	mov	a,@r1
      00002C 08               [12]  161 	inc	r0
      00002D 36               [12]  162 	addc	a,@r0
      00002E C0 E0            [24]  163 	push	acc
      000030 09               [12]  164 	inc	r1
      000031 E7               [12]  165 	mov	a,@r1
      000032 08               [12]  166 	inc	r0
      000033 36               [12]  167 	addc	a,@r0
      000034 C0 E0            [24]  168 	push	acc
      000036 09               [12]  169 	inc	r1
      000037 E7               [12]  170 	mov	a,@r1
      000038 08               [12]  171 	inc	r0
      000039 36               [12]  172 	addc	a,@r0
      00003A C0 E0            [24]  173 	push	acc
      00003C 09               [12]  174 	inc	r1
      00003D E7               [12]  175 	mov	a,@r1
      00003E 08               [12]  176 	inc	r0
      00003F 36               [12]  177 	addc	a,@r0
      000040 C0 E0            [24]  178 	push	acc
      000042 09               [12]  179 	inc	r1
      000043 E7               [12]  180 	mov	a,@r1
      000044 08               [12]  181 	inc	r0
      000045 36               [12]  182 	addc	a,@r0
      000046 C0 E0            [24]  183 	push	acc
      000048 E5*00            [12]  184 	mov	a,_bp
      00004A 24 10            [12]  185 	add	a,#0x10
      00004C F8               [12]  186 	mov	r0,a
      00004D D0 E0            [24]  187 	pop	acc
      00004F F6               [12]  188 	mov	@r0,a
      000050 18               [12]  189 	dec	r0
      000051 D0 E0            [24]  190 	pop	acc
      000053 F6               [12]  191 	mov	@r0,a
      000054 18               [12]  192 	dec	r0
      000055 D0 E0            [24]  193 	pop	acc
      000057 F6               [12]  194 	mov	@r0,a
      000058 18               [12]  195 	dec	r0
      000059 D0 E0            [24]  196 	pop	acc
      00005B F6               [12]  197 	mov	@r0,a
      00005C 18               [12]  198 	dec	r0
      00005D D0 E0            [24]  199 	pop	acc
      00005F F6               [12]  200 	mov	@r0,a
      000060 18               [12]  201 	dec	r0
      000061 D0 E0            [24]  202 	pop	acc
      000063 F6               [12]  203 	mov	@r0,a
      000064 18               [12]  204 	dec	r0
      000065 D0 E0            [24]  205 	pop	acc
      000067 F6               [12]  206 	mov	@r0,a
      000068 18               [12]  207 	dec	r0
      000069 D0 E0            [24]  208 	pop	acc
      00006B F6               [12]  209 	mov	@r0,a
      00006C E5*00            [12]  210 	mov	a,_bp
      00006E 24 09            [12]  211 	add	a,#0x09
      000070 E5*00            [12]  212 	mov	a,_bp
      000072 24 09            [12]  213 	add	a,#0x09
      000074 F8               [12]  214 	mov	r0,a
      000075 86 07            [24]  215 	mov	ar7,@r0
      000077 8E 82            [24]  216 	mov	dpl,r6
      000079 8D 83            [24]  217 	mov	dph,r5
      00007B 8C F0            [24]  218 	mov	b,r4
      00007D EF               [12]  219 	mov	a,r7
      00007E 12r00r00         [24]  220 	lcall	__gptrput
      000081 A8*00            [24]  221 	mov	r0,_bp
      000083 08               [12]  222 	inc	r0
      000084 A6 07            [24]  223 	mov	@r0,ar7
      000086 EF               [12]  224 	mov	a,r7
      000087 33               [12]  225 	rlc	a
      000088 95 E0            [12]  226 	subb	a,acc
      00008A 08               [12]  227 	inc	r0
      00008B F6               [12]  228 	mov	@r0,a
      00008C 08               [12]  229 	inc	r0
      00008D F6               [12]  230 	mov	@r0,a
      00008E 08               [12]  231 	inc	r0
      00008F F6               [12]  232 	mov	@r0,a
      000090 08               [12]  233 	inc	r0
      000091 F6               [12]  234 	mov	@r0,a
      000092 08               [12]  235 	inc	r0
      000093 F6               [12]  236 	mov	@r0,a
      000094 08               [12]  237 	inc	r0
      000095 F6               [12]  238 	mov	@r0,a
      000096 08               [12]  239 	inc	r0
      000097 F6               [12]  240 	mov	@r0,a
      000098 A8*00            [24]  241 	mov	r0,_bp
      00009A 08               [12]  242 	inc	r0
      00009B E5*00            [12]  243 	mov	a,_bp
      00009D 24 09            [12]  244 	add	a,#0x09
      00009F F9               [12]  245 	mov	r1,a
      0000A0 86 F0            [24]  246 	mov	b,@r0
      0000A2 E7               [12]  247 	mov	a,@r1
      0000A3 B5 F0 3B         [24]  248 	cjne	a,b,00103$
      0000A6 08               [12]  249 	inc	r0
      0000A7 86 F0            [24]  250 	mov	b,@r0
      0000A9 09               [12]  251 	inc	r1
      0000AA E7               [12]  252 	mov	a,@r1
      0000AB B5 F0 33         [24]  253 	cjne	a,b,00103$
      0000AE 08               [12]  254 	inc	r0
      0000AF 86 F0            [24]  255 	mov	b,@r0
      0000B1 09               [12]  256 	inc	r1
      0000B2 E7               [12]  257 	mov	a,@r1
      0000B3 B5 F0 2B         [24]  258 	cjne	a,b,00103$
      0000B6 08               [12]  259 	inc	r0
      0000B7 86 F0            [24]  260 	mov	b,@r0
      0000B9 09               [12]  261 	inc	r1
      0000BA E7               [12]  262 	mov	a,@r1
      0000BB B5 F0 23         [24]  263 	cjne	a,b,00103$
      0000BE 08               [12]  264 	inc	r0
      0000BF 86 F0            [24]  265 	mov	b,@r0
      0000C1 09               [12]  266 	inc	r1
      0000C2 E7               [12]  267 	mov	a,@r1
      0000C3 B5 F0 1B         [24]  268 	cjne	a,b,00103$
      0000C6 08               [12]  269 	inc	r0
      0000C7 86 F0            [24]  270 	mov	b,@r0
      0000C9 09               [12]  271 	inc	r1
      0000CA E7               [12]  272 	mov	a,@r1
      0000CB B5 F0 13         [24]  273 	cjne	a,b,00103$
      0000CE 08               [12]  274 	inc	r0
      0000CF 86 F0            [24]  275 	mov	b,@r0
      0000D1 09               [12]  276 	inc	r1
      0000D2 E7               [12]  277 	mov	a,@r1
      0000D3 B5 F0 0B         [24]  278 	cjne	a,b,00103$
      0000D6 08               [12]  279 	inc	r0
      0000D7 86 F0            [24]  280 	mov	b,@r0
      0000D9 09               [12]  281 	inc	r1
      0000DA E7               [12]  282 	mov	a,@r1
      0000DB B5 F0 03         [24]  283 	cjne	a,b,00103$
      0000DE D3               [12]  284 	setb	c
      0000DF 80 01            [24]  285 	sjmp	00104$
      0000E1                        286 00103$:
      0000E1 C3               [12]  287 	clr	c
      0000E2                        288 00104$:
      0000E2 92*00            [24]  289 	mov  b0,c
      0000E4 B3               [12]  290 	cpl	c
      0000E5 E4               [12]  291 	clr	a
      0000E6 33               [12]  292 	rlc	a
      0000E7 F5 82            [12]  293 	mov	dpl,a
      0000E9 85*00 81         [24]  294 	mov	sp,_bp
      0000EC D0*00            [24]  295 	pop	_bp
      0000EE 22               [24]  296 	ret
                                    297 ;------------------------------------------------------------
                                    298 ;Allocation info for local variables in function '__ckd_add_uchar'
                                    299 ;------------------------------------------------------------
                                    300 ;a                         Allocated to stack - _bp -10
                                    301 ;b                         Allocated to stack - _bp -18
                                    302 ;r                         Allocated to registers r6 r5 r4 
                                    303 ;result                    Allocated to stack - _bp +9
                                    304 ;sloc0                     Allocated to stack - _bp +1
                                    305 ;------------------------------------------------------------
                                    306 ;	../../device/include/stdckdint.h:52: inline _Bool __ckd_add_uchar __CKD_DEFAULT_IMPL(unsigned char, +)
                                    307 ;	-----------------------------------------
                                    308 ;	 function __ckd_add_uchar
                                    309 ;	-----------------------------------------
      0000EF                        310 ___ckd_add_uchar:
      0000EF C0*00            [24]  311 	push	_bp
      0000F1 E5 81            [12]  312 	mov	a,sp
      0000F3 F5*00            [12]  313 	mov	_bp,a
      0000F5 24 10            [12]  314 	add	a,#0x10
      0000F7 F5 81            [12]  315 	mov	sp,a
      0000F9 AE 82            [24]  316 	mov	r6,dpl
      0000FB AD 83            [24]  317 	mov	r5,dph
      0000FD AC F0            [24]  318 	mov	r4,b
      0000FF E5*00            [12]  319 	mov	a,_bp
      000101 24 F6            [12]  320 	add	a,#0xf6
      000103 F8               [12]  321 	mov	r0,a
      000104 E5*00            [12]  322 	mov	a,_bp
      000106 24 EE            [12]  323 	add	a,#0xee
      000108 F9               [12]  324 	mov	r1,a
      000109 E7               [12]  325 	mov	a,@r1
      00010A 26               [12]  326 	add	a,@r0
      00010B C0 E0            [24]  327 	push	acc
      00010D 09               [12]  328 	inc	r1
      00010E E7               [12]  329 	mov	a,@r1
      00010F 08               [12]  330 	inc	r0
      000110 36               [12]  331 	addc	a,@r0
      000111 C0 E0            [24]  332 	push	acc
      000113 09               [12]  333 	inc	r1
      000114 E7               [12]  334 	mov	a,@r1
      000115 08               [12]  335 	inc	r0
      000116 36               [12]  336 	addc	a,@r0
      000117 C0 E0            [24]  337 	push	acc
      000119 09               [12]  338 	inc	r1
      00011A E7               [12]  339 	mov	a,@r1
      00011B 08               [12]  340 	inc	r0
      00011C 36               [12]  341 	addc	a,@r0
      00011D C0 E0            [24]  342 	push	acc
      00011F 09               [12]  343 	inc	r1
      000120 E7               [12]  344 	mov	a,@r1
      000121 08               [12]  345 	inc	r0
      000122 36               [12]  346 	addc	a,@r0
      000123 C0 E0            [24]  347 	push	acc
      000125 09               [12]  348 	inc	r1
      000126 E7               [12]  349 	mov	a,@r1
      000127 08               [12]  350 	inc	r0
      000128 36               [12]  351 	addc	a,@r0
      000129 C0 E0            [24]  352 	push	acc
      00012B 09               [12]  353 	inc	r1
      00012C E7               [12]  354 	mov	a,@r1
      00012D 08               [12]  355 	inc	r0
      00012E 36               [12]  356 	addc	a,@r0
      00012F C0 E0            [24]  357 	push	acc
      000131 09               [12]  358 	inc	r1
      000132 E7               [12]  359 	mov	a,@r1
      000133 08               [12]  360 	inc	r0
      000134 36               [12]  361 	addc	a,@r0
      000135 C0 E0            [24]  362 	push	acc
      000137 E5*00            [12]  363 	mov	a,_bp
      000139 24 10            [12]  364 	add	a,#0x10
      00013B F8               [12]  365 	mov	r0,a
      00013C D0 E0            [24]  366 	pop	acc
      00013E F6               [12]  367 	mov	@r0,a
      00013F 18               [12]  368 	dec	r0
      000140 D0 E0            [24]  369 	pop	acc
      000142 F6               [12]  370 	mov	@r0,a
      000143 18               [12]  371 	dec	r0
      000144 D0 E0            [24]  372 	pop	acc
      000146 F6               [12]  373 	mov	@r0,a
      000147 18               [12]  374 	dec	r0
      000148 D0 E0            [24]  375 	pop	acc
      00014A F6               [12]  376 	mov	@r0,a
      00014B 18               [12]  377 	dec	r0
      00014C D0 E0            [24]  378 	pop	acc
      00014E F6               [12]  379 	mov	@r0,a
      00014F 18               [12]  380 	dec	r0
      000150 D0 E0            [24]  381 	pop	acc
      000152 F6               [12]  382 	mov	@r0,a
      000153 18               [12]  383 	dec	r0
      000154 D0 E0            [24]  384 	pop	acc
      000156 F6               [12]  385 	mov	@r0,a
      000157 18               [12]  386 	dec	r0
      000158 D0 E0            [24]  387 	pop	acc
      00015A F6               [12]  388 	mov	@r0,a
      00015B E5*00            [12]  389 	mov	a,_bp
      00015D 24 09            [12]  390 	add	a,#0x09
      00015F E5*00            [12]  391 	mov	a,_bp
      000161 24 09            [12]  392 	add	a,#0x09
      000163 F8               [12]  393 	mov	r0,a
      000164 86 07            [24]  394 	mov	ar7,@r0
      000166 8E 82            [24]  395 	mov	dpl,r6
      000168 8D 83            [24]  396 	mov	dph,r5
      00016A 8C F0            [24]  397 	mov	b,r4
      00016C EF               [12]  398 	mov	a,r7
      00016D 12r00r00         [24]  399 	lcall	__gptrput
      000170 A8*00            [24]  400 	mov	r0,_bp
      000172 08               [12]  401 	inc	r0
      000173 A6 07            [24]  402 	mov	@r0,ar7
      000175 08               [12]  403 	inc	r0
      000176 76 00            [12]  404 	mov	@r0,#0x00
      000178 08               [12]  405 	inc	r0
      000179 76 00            [12]  406 	mov	@r0,#0x00
      00017B 08               [12]  407 	inc	r0
      00017C 76 00            [12]  408 	mov	@r0,#0x00
      00017E 08               [12]  409 	inc	r0
      00017F 76 00            [12]  410 	mov	@r0,#0x00
      000181 08               [12]  411 	inc	r0
      000182 76 00            [12]  412 	mov	@r0,#0x00
      000184 08               [12]  413 	inc	r0
      000185 76 00            [12]  414 	mov	@r0,#0x00
      000187 08               [12]  415 	inc	r0
      000188 76 00            [12]  416 	mov	@r0,#0x00
      00018A A8*00            [24]  417 	mov	r0,_bp
      00018C 08               [12]  418 	inc	r0
      00018D E5*00            [12]  419 	mov	a,_bp
      00018F 24 09            [12]  420 	add	a,#0x09
      000191 F9               [12]  421 	mov	r1,a
      000192 86 F0            [24]  422 	mov	b,@r0
      000194 E7               [12]  423 	mov	a,@r1
      000195 B5 F0 3B         [24]  424 	cjne	a,b,00103$
      000198 08               [12]  425 	inc	r0
      000199 86 F0            [24]  426 	mov	b,@r0
      00019B 09               [12]  427 	inc	r1
      00019C E7               [12]  428 	mov	a,@r1
      00019D B5 F0 33         [24]  429 	cjne	a,b,00103$
      0001A0 08               [12]  430 	inc	r0
      0001A1 86 F0            [24]  431 	mov	b,@r0
      0001A3 09               [12]  432 	inc	r1
      0001A4 E7               [12]  433 	mov	a,@r1
      0001A5 B5 F0 2B         [24]  434 	cjne	a,b,00103$
      0001A8 08               [12]  435 	inc	r0
      0001A9 86 F0            [24]  436 	mov	b,@r0
      0001AB 09               [12]  437 	inc	r1
      0001AC E7               [12]  438 	mov	a,@r1
      0001AD B5 F0 23         [24]  439 	cjne	a,b,00103$
      0001B0 08               [12]  440 	inc	r0
      0001B1 86 F0            [24]  441 	mov	b,@r0
      0001B3 09               [12]  442 	inc	r1
      0001B4 E7               [12]  443 	mov	a,@r1
      0001B5 B5 F0 1B         [24]  444 	cjne	a,b,00103$
      0001B8 08               [12]  445 	inc	r0
      0001B9 86 F0            [24]  446 	mov	b,@r0
      0001BB 09               [12]  447 	inc	r1
      0001BC E7               [12]  448 	mov	a,@r1
      0001BD B5 F0 13         [24]  449 	cjne	a,b,00103$
      0001C0 08               [12]  450 	inc	r0
      0001C1 86 F0            [24]  451 	mov	b,@r0
      0001C3 09               [12]  452 	inc	r1
      0001C4 E7               [12]  453 	mov	a,@r1
      0001C5 B5 F0 0B         [24]  454 	cjne	a,b,00103$
      0001C8 08               [12]  455 	inc	r0
      0001C9 86 F0            [24]  456 	mov	b,@r0
      0001CB 09               [12]  457 	inc	r1
      0001CC E7               [12]  458 	mov	a,@r1
      0001CD B5 F0 03         [24]  459 	cjne	a,b,00103$
      0001D0 D3               [12]  460 	setb	c
      0001D1 80 01            [24]  461 	sjmp	00104$
      0001D3                        462 00103$:
      0001D3 C3               [12]  463 	clr	c
      0001D4                        464 00104$:
      0001D4 92*00            [24]  465 	mov  b0,c
      0001D6 B3               [12]  466 	cpl	c
      0001D7 E4               [12]  467 	clr	a
      0001D8 33               [12]  468 	rlc	a
      0001D9 F5 82            [12]  469 	mov	dpl,a
      0001DB 85*00 81         [24]  470 	mov	sp,_bp
      0001DE D0*00            [24]  471 	pop	_bp
      0001E0 22               [24]  472 	ret
                                    473 ;------------------------------------------------------------
                                    474 ;Allocation info for local variables in function '__ckd_add_short'
                                    475 ;------------------------------------------------------------
                                    476 ;a                         Allocated to stack - _bp -10
                                    477 ;b                         Allocated to stack - _bp -18
                                    478 ;r                         Allocated to registers r5 r4 r3 
                                    479 ;result                    Allocated to stack - _bp +9
                                    480 ;sloc0                     Allocated to stack - _bp +1
                                    481 ;------------------------------------------------------------
                                    482 ;	../../device/include/stdckdint.h:53: inline _Bool __ckd_add_short __CKD_DEFAULT_IMPL(short, +)
                                    483 ;	-----------------------------------------
                                    484 ;	 function __ckd_add_short
                                    485 ;	-----------------------------------------
      0001E1                        486 ___ckd_add_short:
      0001E1 C0*00            [24]  487 	push	_bp
      0001E3 E5 81            [12]  488 	mov	a,sp
      0001E5 F5*00            [12]  489 	mov	_bp,a
      0001E7 24 10            [12]  490 	add	a,#0x10
      0001E9 F5 81            [12]  491 	mov	sp,a
      0001EB AD 82            [24]  492 	mov	r5,dpl
      0001ED AC 83            [24]  493 	mov	r4,dph
      0001EF AB F0            [24]  494 	mov	r3,b
      0001F1 E5*00            [12]  495 	mov	a,_bp
      0001F3 24 F6            [12]  496 	add	a,#0xf6
      0001F5 F8               [12]  497 	mov	r0,a
      0001F6 E5*00            [12]  498 	mov	a,_bp
      0001F8 24 EE            [12]  499 	add	a,#0xee
      0001FA F9               [12]  500 	mov	r1,a
      0001FB E7               [12]  501 	mov	a,@r1
      0001FC 26               [12]  502 	add	a,@r0
      0001FD C0 E0            [24]  503 	push	acc
      0001FF 09               [12]  504 	inc	r1
      000200 E7               [12]  505 	mov	a,@r1
      000201 08               [12]  506 	inc	r0
      000202 36               [12]  507 	addc	a,@r0
      000203 C0 E0            [24]  508 	push	acc
      000205 09               [12]  509 	inc	r1
      000206 E7               [12]  510 	mov	a,@r1
      000207 08               [12]  511 	inc	r0
      000208 36               [12]  512 	addc	a,@r0
      000209 C0 E0            [24]  513 	push	acc
      00020B 09               [12]  514 	inc	r1
      00020C E7               [12]  515 	mov	a,@r1
      00020D 08               [12]  516 	inc	r0
      00020E 36               [12]  517 	addc	a,@r0
      00020F C0 E0            [24]  518 	push	acc
      000211 09               [12]  519 	inc	r1
      000212 E7               [12]  520 	mov	a,@r1
      000213 08               [12]  521 	inc	r0
      000214 36               [12]  522 	addc	a,@r0
      000215 C0 E0            [24]  523 	push	acc
      000217 09               [12]  524 	inc	r1
      000218 E7               [12]  525 	mov	a,@r1
      000219 08               [12]  526 	inc	r0
      00021A 36               [12]  527 	addc	a,@r0
      00021B C0 E0            [24]  528 	push	acc
      00021D 09               [12]  529 	inc	r1
      00021E E7               [12]  530 	mov	a,@r1
      00021F 08               [12]  531 	inc	r0
      000220 36               [12]  532 	addc	a,@r0
      000221 C0 E0            [24]  533 	push	acc
      000223 09               [12]  534 	inc	r1
      000224 E7               [12]  535 	mov	a,@r1
      000225 08               [12]  536 	inc	r0
      000226 36               [12]  537 	addc	a,@r0
      000227 C0 E0            [24]  538 	push	acc
      000229 E5*00            [12]  539 	mov	a,_bp
      00022B 24 10            [12]  540 	add	a,#0x10
      00022D F8               [12]  541 	mov	r0,a
      00022E D0 E0            [24]  542 	pop	acc
      000230 F6               [12]  543 	mov	@r0,a
      000231 18               [12]  544 	dec	r0
      000232 D0 E0            [24]  545 	pop	acc
      000234 F6               [12]  546 	mov	@r0,a
      000235 18               [12]  547 	dec	r0
      000236 D0 E0            [24]  548 	pop	acc
      000238 F6               [12]  549 	mov	@r0,a
      000239 18               [12]  550 	dec	r0
      00023A D0 E0            [24]  551 	pop	acc
      00023C F6               [12]  552 	mov	@r0,a
      00023D 18               [12]  553 	dec	r0
      00023E D0 E0            [24]  554 	pop	acc
      000240 F6               [12]  555 	mov	@r0,a
      000241 18               [12]  556 	dec	r0
      000242 D0 E0            [24]  557 	pop	acc
      000244 F6               [12]  558 	mov	@r0,a
      000245 18               [12]  559 	dec	r0
      000246 D0 E0            [24]  560 	pop	acc
      000248 F6               [12]  561 	mov	@r0,a
      000249 18               [12]  562 	dec	r0
      00024A D0 E0            [24]  563 	pop	acc
      00024C F6               [12]  564 	mov	@r0,a
      00024D E5*00            [12]  565 	mov	a,_bp
      00024F 24 09            [12]  566 	add	a,#0x09
      000251 E5*00            [12]  567 	mov	a,_bp
      000253 24 09            [12]  568 	add	a,#0x09
      000255 F8               [12]  569 	mov	r0,a
      000256 86 06            [24]  570 	mov	ar6,@r0
      000258 08               [12]  571 	inc	r0
      000259 86 07            [24]  572 	mov	ar7,@r0
      00025B 8D 82            [24]  573 	mov	dpl,r5
      00025D 8C 83            [24]  574 	mov	dph,r4
      00025F 8B F0            [24]  575 	mov	b,r3
      000261 EE               [12]  576 	mov	a,r6
      000262 12r00r00         [24]  577 	lcall	__gptrput
      000265 A3               [24]  578 	inc	dptr
      000266 EF               [12]  579 	mov	a,r7
      000267 12r00r00         [24]  580 	lcall	__gptrput
      00026A A8*00            [24]  581 	mov	r0,_bp
      00026C 08               [12]  582 	inc	r0
      00026D A6 06            [24]  583 	mov	@r0,ar6
      00026F 08               [12]  584 	inc	r0
      000270 A6 07            [24]  585 	mov	@r0,ar7
      000272 EF               [12]  586 	mov	a,r7
      000273 33               [12]  587 	rlc	a
      000274 95 E0            [12]  588 	subb	a,acc
      000276 08               [12]  589 	inc	r0
      000277 F6               [12]  590 	mov	@r0,a
      000278 08               [12]  591 	inc	r0
      000279 F6               [12]  592 	mov	@r0,a
      00027A 08               [12]  593 	inc	r0
      00027B F6               [12]  594 	mov	@r0,a
      00027C 08               [12]  595 	inc	r0
      00027D F6               [12]  596 	mov	@r0,a
      00027E 08               [12]  597 	inc	r0
      00027F F6               [12]  598 	mov	@r0,a
      000280 08               [12]  599 	inc	r0
      000281 F6               [12]  600 	mov	@r0,a
      000282 A8*00            [24]  601 	mov	r0,_bp
      000284 08               [12]  602 	inc	r0
      000285 E5*00            [12]  603 	mov	a,_bp
      000287 24 09            [12]  604 	add	a,#0x09
      000289 F9               [12]  605 	mov	r1,a
      00028A 86 F0            [24]  606 	mov	b,@r0
      00028C E7               [12]  607 	mov	a,@r1
      00028D B5 F0 3B         [24]  608 	cjne	a,b,00103$
      000290 08               [12]  609 	inc	r0
      000291 86 F0            [24]  610 	mov	b,@r0
      000293 09               [12]  611 	inc	r1
      000294 E7               [12]  612 	mov	a,@r1
      000295 B5 F0 33         [24]  613 	cjne	a,b,00103$
      000298 08               [12]  614 	inc	r0
      000299 86 F0            [24]  615 	mov	b,@r0
      00029B 09               [12]  616 	inc	r1
      00029C E7               [12]  617 	mov	a,@r1
      00029D B5 F0 2B         [24]  618 	cjne	a,b,00103$
      0002A0 08               [12]  619 	inc	r0
      0002A1 86 F0            [24]  620 	mov	b,@r0
      0002A3 09               [12]  621 	inc	r1
      0002A4 E7               [12]  622 	mov	a,@r1
      0002A5 B5 F0 23         [24]  623 	cjne	a,b,00103$
      0002A8 08               [12]  624 	inc	r0
      0002A9 86 F0            [24]  625 	mov	b,@r0
      0002AB 09               [12]  626 	inc	r1
      0002AC E7               [12]  627 	mov	a,@r1
      0002AD B5 F0 1B         [24]  628 	cjne	a,b,00103$
      0002B0 08               [12]  629 	inc	r0
      0002B1 86 F0            [24]  630 	mov	b,@r0
      0002B3 09               [12]  631 	inc	r1
      0002B4 E7               [12]  632 	mov	a,@r1
      0002B5 B5 F0 13         [24]  633 	cjne	a,b,00103$
      0002B8 08               [12]  634 	inc	r0
      0002B9 86 F0            [24]  635 	mov	b,@r0
      0002BB 09               [12]  636 	inc	r1
      0002BC E7               [12]  637 	mov	a,@r1
      0002BD B5 F0 0B         [24]  638 	cjne	a,b,00103$
      0002C0 08               [12]  639 	inc	r0
      0002C1 86 F0            [24]  640 	mov	b,@r0
      0002C3 09               [12]  641 	inc	r1
      0002C4 E7               [12]  642 	mov	a,@r1
      0002C5 B5 F0 03         [24]  643 	cjne	a,b,00103$
      0002C8 D3               [12]  644 	setb	c
      0002C9 80 01            [24]  645 	sjmp	00104$
      0002CB                        646 00103$:
      0002CB C3               [12]  647 	clr	c
      0002CC                        648 00104$:
      0002CC 92*00            [24]  649 	mov  b0,c
      0002CE B3               [12]  650 	cpl	c
      0002CF E4               [12]  651 	clr	a
      0002D0 33               [12]  652 	rlc	a
      0002D1 F5 82            [12]  653 	mov	dpl,a
      0002D3 85*00 81         [24]  654 	mov	sp,_bp
      0002D6 D0*00            [24]  655 	pop	_bp
      0002D8 22               [24]  656 	ret
                                    657 ;------------------------------------------------------------
                                    658 ;Allocation info for local variables in function '__ckd_add_ushort'
                                    659 ;------------------------------------------------------------
                                    660 ;a                         Allocated to stack - _bp -10
                                    661 ;b                         Allocated to stack - _bp -18
                                    662 ;r                         Allocated to registers r5 r4 r3 
                                    663 ;result                    Allocated to stack - _bp +9
                                    664 ;sloc0                     Allocated to stack - _bp +1
                                    665 ;------------------------------------------------------------
                                    666 ;	../../device/include/stdckdint.h:54: inline _Bool __ckd_add_ushort __CKD_DEFAULT_IMPL(unsigned short, +)
                                    667 ;	-----------------------------------------
                                    668 ;	 function __ckd_add_ushort
                                    669 ;	-----------------------------------------
      0002D9                        670 ___ckd_add_ushort:
      0002D9 C0*00            [24]  671 	push	_bp
      0002DB E5 81            [12]  672 	mov	a,sp
      0002DD F5*00            [12]  673 	mov	_bp,a
      0002DF 24 10            [12]  674 	add	a,#0x10
      0002E1 F5 81            [12]  675 	mov	sp,a
      0002E3 AD 82            [24]  676 	mov	r5,dpl
      0002E5 AC 83            [24]  677 	mov	r4,dph
      0002E7 AB F0            [24]  678 	mov	r3,b
      0002E9 E5*00            [12]  679 	mov	a,_bp
      0002EB 24 F6            [12]  680 	add	a,#0xf6
      0002ED F8               [12]  681 	mov	r0,a
      0002EE E5*00            [12]  682 	mov	a,_bp
      0002F0 24 EE            [12]  683 	add	a,#0xee
      0002F2 F9               [12]  684 	mov	r1,a
      0002F3 E7               [12]  685 	mov	a,@r1
      0002F4 26               [12]  686 	add	a,@r0
      0002F5 C0 E0            [24]  687 	push	acc
      0002F7 09               [12]  688 	inc	r1
      0002F8 E7               [12]  689 	mov	a,@r1
      0002F9 08               [12]  690 	inc	r0
      0002FA 36               [12]  691 	addc	a,@r0
      0002FB C0 E0            [24]  692 	push	acc
      0002FD 09               [12]  693 	inc	r1
      0002FE E7               [12]  694 	mov	a,@r1
      0002FF 08               [12]  695 	inc	r0
      000300 36               [12]  696 	addc	a,@r0
      000301 C0 E0            [24]  697 	push	acc
      000303 09               [12]  698 	inc	r1
      000304 E7               [12]  699 	mov	a,@r1
      000305 08               [12]  700 	inc	r0
      000306 36               [12]  701 	addc	a,@r0
      000307 C0 E0            [24]  702 	push	acc
      000309 09               [12]  703 	inc	r1
      00030A E7               [12]  704 	mov	a,@r1
      00030B 08               [12]  705 	inc	r0
      00030C 36               [12]  706 	addc	a,@r0
      00030D C0 E0            [24]  707 	push	acc
      00030F 09               [12]  708 	inc	r1
      000310 E7               [12]  709 	mov	a,@r1
      000311 08               [12]  710 	inc	r0
      000312 36               [12]  711 	addc	a,@r0
      000313 C0 E0            [24]  712 	push	acc
      000315 09               [12]  713 	inc	r1
      000316 E7               [12]  714 	mov	a,@r1
      000317 08               [12]  715 	inc	r0
      000318 36               [12]  716 	addc	a,@r0
      000319 C0 E0            [24]  717 	push	acc
      00031B 09               [12]  718 	inc	r1
      00031C E7               [12]  719 	mov	a,@r1
      00031D 08               [12]  720 	inc	r0
      00031E 36               [12]  721 	addc	a,@r0
      00031F C0 E0            [24]  722 	push	acc
      000321 E5*00            [12]  723 	mov	a,_bp
      000323 24 10            [12]  724 	add	a,#0x10
      000325 F8               [12]  725 	mov	r0,a
      000326 D0 E0            [24]  726 	pop	acc
      000328 F6               [12]  727 	mov	@r0,a
      000329 18               [12]  728 	dec	r0
      00032A D0 E0            [24]  729 	pop	acc
      00032C F6               [12]  730 	mov	@r0,a
      00032D 18               [12]  731 	dec	r0
      00032E D0 E0            [24]  732 	pop	acc
      000330 F6               [12]  733 	mov	@r0,a
      000331 18               [12]  734 	dec	r0
      000332 D0 E0            [24]  735 	pop	acc
      000334 F6               [12]  736 	mov	@r0,a
      000335 18               [12]  737 	dec	r0
      000336 D0 E0            [24]  738 	pop	acc
      000338 F6               [12]  739 	mov	@r0,a
      000339 18               [12]  740 	dec	r0
      00033A D0 E0            [24]  741 	pop	acc
      00033C F6               [12]  742 	mov	@r0,a
      00033D 18               [12]  743 	dec	r0
      00033E D0 E0            [24]  744 	pop	acc
      000340 F6               [12]  745 	mov	@r0,a
      000341 18               [12]  746 	dec	r0
      000342 D0 E0            [24]  747 	pop	acc
      000344 F6               [12]  748 	mov	@r0,a
      000345 E5*00            [12]  749 	mov	a,_bp
      000347 24 09            [12]  750 	add	a,#0x09
      000349 E5*00            [12]  751 	mov	a,_bp
      00034B 24 09            [12]  752 	add	a,#0x09
      00034D F8               [12]  753 	mov	r0,a
      00034E 86 06            [24]  754 	mov	ar6,@r0
      000350 08               [12]  755 	inc	r0
      000351 86 07            [24]  756 	mov	ar7,@r0
      000353 8D 82            [24]  757 	mov	dpl,r5
      000355 8C 83            [24]  758 	mov	dph,r4
      000357 8B F0            [24]  759 	mov	b,r3
      000359 EE               [12]  760 	mov	a,r6
      00035A 12r00r00         [24]  761 	lcall	__gptrput
      00035D A3               [24]  762 	inc	dptr
      00035E EF               [12]  763 	mov	a,r7
      00035F 12r00r00         [24]  764 	lcall	__gptrput
      000362 A8*00            [24]  765 	mov	r0,_bp
      000364 08               [12]  766 	inc	r0
      000365 A6 06            [24]  767 	mov	@r0,ar6
      000367 08               [12]  768 	inc	r0
      000368 A6 07            [24]  769 	mov	@r0,ar7
      00036A 08               [12]  770 	inc	r0
      00036B 76 00            [12]  771 	mov	@r0,#0x00
      00036D 08               [12]  772 	inc	r0
      00036E 76 00            [12]  773 	mov	@r0,#0x00
      000370 08               [12]  774 	inc	r0
      000371 76 00            [12]  775 	mov	@r0,#0x00
      000373 08               [12]  776 	inc	r0
      000374 76 00            [12]  777 	mov	@r0,#0x00
      000376 08               [12]  778 	inc	r0
      000377 76 00            [12]  779 	mov	@r0,#0x00
      000379 08               [12]  780 	inc	r0
      00037A 76 00            [12]  781 	mov	@r0,#0x00
      00037C A8*00            [24]  782 	mov	r0,_bp
      00037E 08               [12]  783 	inc	r0
      00037F E5*00            [12]  784 	mov	a,_bp
      000381 24 09            [12]  785 	add	a,#0x09
      000383 F9               [12]  786 	mov	r1,a
      000384 86 F0            [24]  787 	mov	b,@r0
      000386 E7               [12]  788 	mov	a,@r1
      000387 B5 F0 3B         [24]  789 	cjne	a,b,00103$
      00038A 08               [12]  790 	inc	r0
      00038B 86 F0            [24]  791 	mov	b,@r0
      00038D 09               [12]  792 	inc	r1
      00038E E7               [12]  793 	mov	a,@r1
      00038F B5 F0 33         [24]  794 	cjne	a,b,00103$
      000392 08               [12]  795 	inc	r0
      000393 86 F0            [24]  796 	mov	b,@r0
      000395 09               [12]  797 	inc	r1
      000396 E7               [12]  798 	mov	a,@r1
      000397 B5 F0 2B         [24]  799 	cjne	a,b,00103$
      00039A 08               [12]  800 	inc	r0
      00039B 86 F0            [24]  801 	mov	b,@r0
      00039D 09               [12]  802 	inc	r1
      00039E E7               [12]  803 	mov	a,@r1
      00039F B5 F0 23         [24]  804 	cjne	a,b,00103$
      0003A2 08               [12]  805 	inc	r0
      0003A3 86 F0            [24]  806 	mov	b,@r0
      0003A5 09               [12]  807 	inc	r1
      0003A6 E7               [12]  808 	mov	a,@r1
      0003A7 B5 F0 1B         [24]  809 	cjne	a,b,00103$
      0003AA 08               [12]  810 	inc	r0
      0003AB 86 F0            [24]  811 	mov	b,@r0
      0003AD 09               [12]  812 	inc	r1
      0003AE E7               [12]  813 	mov	a,@r1
      0003AF B5 F0 13         [24]  814 	cjne	a,b,00103$
      0003B2 08               [12]  815 	inc	r0
      0003B3 86 F0            [24]  816 	mov	b,@r0
      0003B5 09               [12]  817 	inc	r1
      0003B6 E7               [12]  818 	mov	a,@r1
      0003B7 B5 F0 0B         [24]  819 	cjne	a,b,00103$
      0003BA 08               [12]  820 	inc	r0
      0003BB 86 F0            [24]  821 	mov	b,@r0
      0003BD 09               [12]  822 	inc	r1
      0003BE E7               [12]  823 	mov	a,@r1
      0003BF B5 F0 03         [24]  824 	cjne	a,b,00103$
      0003C2 D3               [12]  825 	setb	c
      0003C3 80 01            [24]  826 	sjmp	00104$
      0003C5                        827 00103$:
      0003C5 C3               [12]  828 	clr	c
      0003C6                        829 00104$:
      0003C6 92*00            [24]  830 	mov  b0,c
      0003C8 B3               [12]  831 	cpl	c
      0003C9 E4               [12]  832 	clr	a
      0003CA 33               [12]  833 	rlc	a
      0003CB F5 82            [12]  834 	mov	dpl,a
      0003CD 85*00 81         [24]  835 	mov	sp,_bp
      0003D0 D0*00            [24]  836 	pop	_bp
      0003D2 22               [24]  837 	ret
                                    838 ;------------------------------------------------------------
                                    839 ;Allocation info for local variables in function '__ckd_add_int'
                                    840 ;------------------------------------------------------------
                                    841 ;a                         Allocated to stack - _bp -10
                                    842 ;b                         Allocated to stack - _bp -18
                                    843 ;r                         Allocated to registers r5 r4 r3 
                                    844 ;result                    Allocated to stack - _bp +9
                                    845 ;sloc0                     Allocated to stack - _bp +1
                                    846 ;------------------------------------------------------------
                                    847 ;	../../device/include/stdckdint.h:55: inline _Bool __ckd_add_int __CKD_DEFAULT_IMPL(int, +)
                                    848 ;	-----------------------------------------
                                    849 ;	 function __ckd_add_int
                                    850 ;	-----------------------------------------
      0003D3                        851 ___ckd_add_int:
      0003D3 C0*00            [24]  852 	push	_bp
      0003D5 E5 81            [12]  853 	mov	a,sp
      0003D7 F5*00            [12]  854 	mov	_bp,a
      0003D9 24 10            [12]  855 	add	a,#0x10
      0003DB F5 81            [12]  856 	mov	sp,a
      0003DD AD 82            [24]  857 	mov	r5,dpl
      0003DF AC 83            [24]  858 	mov	r4,dph
      0003E1 AB F0            [24]  859 	mov	r3,b
      0003E3 E5*00            [12]  860 	mov	a,_bp
      0003E5 24 F6            [12]  861 	add	a,#0xf6
      0003E7 F8               [12]  862 	mov	r0,a
      0003E8 E5*00            [12]  863 	mov	a,_bp
      0003EA 24 EE            [12]  864 	add	a,#0xee
      0003EC F9               [12]  865 	mov	r1,a
      0003ED E7               [12]  866 	mov	a,@r1
      0003EE 26               [12]  867 	add	a,@r0
      0003EF C0 E0            [24]  868 	push	acc
      0003F1 09               [12]  869 	inc	r1
      0003F2 E7               [12]  870 	mov	a,@r1
      0003F3 08               [12]  871 	inc	r0
      0003F4 36               [12]  872 	addc	a,@r0
      0003F5 C0 E0            [24]  873 	push	acc
      0003F7 09               [12]  874 	inc	r1
      0003F8 E7               [12]  875 	mov	a,@r1
      0003F9 08               [12]  876 	inc	r0
      0003FA 36               [12]  877 	addc	a,@r0
      0003FB C0 E0            [24]  878 	push	acc
      0003FD 09               [12]  879 	inc	r1
      0003FE E7               [12]  880 	mov	a,@r1
      0003FF 08               [12]  881 	inc	r0
      000400 36               [12]  882 	addc	a,@r0
      000401 C0 E0            [24]  883 	push	acc
      000403 09               [12]  884 	inc	r1
      000404 E7               [12]  885 	mov	a,@r1
      000405 08               [12]  886 	inc	r0
      000406 36               [12]  887 	addc	a,@r0
      000407 C0 E0            [24]  888 	push	acc
      000409 09               [12]  889 	inc	r1
      00040A E7               [12]  890 	mov	a,@r1
      00040B 08               [12]  891 	inc	r0
      00040C 36               [12]  892 	addc	a,@r0
      00040D C0 E0            [24]  893 	push	acc
      00040F 09               [12]  894 	inc	r1
      000410 E7               [12]  895 	mov	a,@r1
      000411 08               [12]  896 	inc	r0
      000412 36               [12]  897 	addc	a,@r0
      000413 C0 E0            [24]  898 	push	acc
      000415 09               [12]  899 	inc	r1
      000416 E7               [12]  900 	mov	a,@r1
      000417 08               [12]  901 	inc	r0
      000418 36               [12]  902 	addc	a,@r0
      000419 C0 E0            [24]  903 	push	acc
      00041B E5*00            [12]  904 	mov	a,_bp
      00041D 24 10            [12]  905 	add	a,#0x10
      00041F F8               [12]  906 	mov	r0,a
      000420 D0 E0            [24]  907 	pop	acc
      000422 F6               [12]  908 	mov	@r0,a
      000423 18               [12]  909 	dec	r0
      000424 D0 E0            [24]  910 	pop	acc
      000426 F6               [12]  911 	mov	@r0,a
      000427 18               [12]  912 	dec	r0
      000428 D0 E0            [24]  913 	pop	acc
      00042A F6               [12]  914 	mov	@r0,a
      00042B 18               [12]  915 	dec	r0
      00042C D0 E0            [24]  916 	pop	acc
      00042E F6               [12]  917 	mov	@r0,a
      00042F 18               [12]  918 	dec	r0
      000430 D0 E0            [24]  919 	pop	acc
      000432 F6               [12]  920 	mov	@r0,a
      000433 18               [12]  921 	dec	r0
      000434 D0 E0            [24]  922 	pop	acc
      000436 F6               [12]  923 	mov	@r0,a
      000437 18               [12]  924 	dec	r0
      000438 D0 E0            [24]  925 	pop	acc
      00043A F6               [12]  926 	mov	@r0,a
      00043B 18               [12]  927 	dec	r0
      00043C D0 E0            [24]  928 	pop	acc
      00043E F6               [12]  929 	mov	@r0,a
      00043F E5*00            [12]  930 	mov	a,_bp
      000441 24 09            [12]  931 	add	a,#0x09
      000443 E5*00            [12]  932 	mov	a,_bp
      000445 24 09            [12]  933 	add	a,#0x09
      000447 F8               [12]  934 	mov	r0,a
      000448 86 06            [24]  935 	mov	ar6,@r0
      00044A 08               [12]  936 	inc	r0
      00044B 86 07            [24]  937 	mov	ar7,@r0
      00044D 8D 82            [24]  938 	mov	dpl,r5
      00044F 8C 83            [24]  939 	mov	dph,r4
      000451 8B F0            [24]  940 	mov	b,r3
      000453 EE               [12]  941 	mov	a,r6
      000454 12r00r00         [24]  942 	lcall	__gptrput
      000457 A3               [24]  943 	inc	dptr
      000458 EF               [12]  944 	mov	a,r7
      000459 12r00r00         [24]  945 	lcall	__gptrput
      00045C A8*00            [24]  946 	mov	r0,_bp
      00045E 08               [12]  947 	inc	r0
      00045F A6 06            [24]  948 	mov	@r0,ar6
      000461 08               [12]  949 	inc	r0
      000462 A6 07            [24]  950 	mov	@r0,ar7
      000464 EF               [12]  951 	mov	a,r7
      000465 33               [12]  952 	rlc	a
      000466 95 E0            [12]  953 	subb	a,acc
      000468 08               [12]  954 	inc	r0
      000469 F6               [12]  955 	mov	@r0,a
      00046A 08               [12]  956 	inc	r0
      00046B F6               [12]  957 	mov	@r0,a
      00046C 08               [12]  958 	inc	r0
      00046D F6               [12]  959 	mov	@r0,a
      00046E 08               [12]  960 	inc	r0
      00046F F6               [12]  961 	mov	@r0,a
      000470 08               [12]  962 	inc	r0
      000471 F6               [12]  963 	mov	@r0,a
      000472 08               [12]  964 	inc	r0
      000473 F6               [12]  965 	mov	@r0,a
      000474 A8*00            [24]  966 	mov	r0,_bp
      000476 08               [12]  967 	inc	r0
      000477 E5*00            [12]  968 	mov	a,_bp
      000479 24 09            [12]  969 	add	a,#0x09
      00047B F9               [12]  970 	mov	r1,a
      00047C 86 F0            [24]  971 	mov	b,@r0
      00047E E7               [12]  972 	mov	a,@r1
      00047F B5 F0 3B         [24]  973 	cjne	a,b,00103$
      000482 08               [12]  974 	inc	r0
      000483 86 F0            [24]  975 	mov	b,@r0
      000485 09               [12]  976 	inc	r1
      000486 E7               [12]  977 	mov	a,@r1
      000487 B5 F0 33         [24]  978 	cjne	a,b,00103$
      00048A 08               [12]  979 	inc	r0
      00048B 86 F0            [24]  980 	mov	b,@r0
      00048D 09               [12]  981 	inc	r1
      00048E E7               [12]  982 	mov	a,@r1
      00048F B5 F0 2B         [24]  983 	cjne	a,b,00103$
      000492 08               [12]  984 	inc	r0
      000493 86 F0            [24]  985 	mov	b,@r0
      000495 09               [12]  986 	inc	r1
      000496 E7               [12]  987 	mov	a,@r1
      000497 B5 F0 23         [24]  988 	cjne	a,b,00103$
      00049A 08               [12]  989 	inc	r0
      00049B 86 F0            [24]  990 	mov	b,@r0
      00049D 09               [12]  991 	inc	r1
      00049E E7               [12]  992 	mov	a,@r1
      00049F B5 F0 1B         [24]  993 	cjne	a,b,00103$
      0004A2 08               [12]  994 	inc	r0
      0004A3 86 F0            [24]  995 	mov	b,@r0
      0004A5 09               [12]  996 	inc	r1
      0004A6 E7               [12]  997 	mov	a,@r1
      0004A7 B5 F0 13         [24]  998 	cjne	a,b,00103$
      0004AA 08               [12]  999 	inc	r0
      0004AB 86 F0            [24] 1000 	mov	b,@r0
      0004AD 09               [12] 1001 	inc	r1
      0004AE E7               [12] 1002 	mov	a,@r1
      0004AF B5 F0 0B         [24] 1003 	cjne	a,b,00103$
      0004B2 08               [12] 1004 	inc	r0
      0004B3 86 F0            [24] 1005 	mov	b,@r0
      0004B5 09               [12] 1006 	inc	r1
      0004B6 E7               [12] 1007 	mov	a,@r1
      0004B7 B5 F0 03         [24] 1008 	cjne	a,b,00103$
      0004BA D3               [12] 1009 	setb	c
      0004BB 80 01            [24] 1010 	sjmp	00104$
      0004BD                       1011 00103$:
      0004BD C3               [12] 1012 	clr	c
      0004BE                       1013 00104$:
      0004BE 92*00            [24] 1014 	mov  b0,c
      0004C0 B3               [12] 1015 	cpl	c
      0004C1 E4               [12] 1016 	clr	a
      0004C2 33               [12] 1017 	rlc	a
      0004C3 F5 82            [12] 1018 	mov	dpl,a
      0004C5 85*00 81         [24] 1019 	mov	sp,_bp
      0004C8 D0*00            [24] 1020 	pop	_bp
      0004CA 22               [24] 1021 	ret
                                   1022 ;------------------------------------------------------------
                                   1023 ;Allocation info for local variables in function '__ckd_add_uint'
                                   1024 ;------------------------------------------------------------
                                   1025 ;a                         Allocated to stack - _bp -10
                                   1026 ;b                         Allocated to stack - _bp -18
                                   1027 ;r                         Allocated to registers r5 r4 r3 
                                   1028 ;result                    Allocated to stack - _bp +9
                                   1029 ;sloc0                     Allocated to stack - _bp +1
                                   1030 ;------------------------------------------------------------
                                   1031 ;	../../device/include/stdckdint.h:56: inline _Bool __ckd_add_uint __CKD_DEFAULT_IMPL(unsigned int, +)
                                   1032 ;	-----------------------------------------
                                   1033 ;	 function __ckd_add_uint
                                   1034 ;	-----------------------------------------
      0004CB                       1035 ___ckd_add_uint:
      0004CB C0*00            [24] 1036 	push	_bp
      0004CD E5 81            [12] 1037 	mov	a,sp
      0004CF F5*00            [12] 1038 	mov	_bp,a
      0004D1 24 10            [12] 1039 	add	a,#0x10
      0004D3 F5 81            [12] 1040 	mov	sp,a
      0004D5 AD 82            [24] 1041 	mov	r5,dpl
      0004D7 AC 83            [24] 1042 	mov	r4,dph
      0004D9 AB F0            [24] 1043 	mov	r3,b
      0004DB E5*00            [12] 1044 	mov	a,_bp
      0004DD 24 F6            [12] 1045 	add	a,#0xf6
      0004DF F8               [12] 1046 	mov	r0,a
      0004E0 E5*00            [12] 1047 	mov	a,_bp
      0004E2 24 EE            [12] 1048 	add	a,#0xee
      0004E4 F9               [12] 1049 	mov	r1,a
      0004E5 E7               [12] 1050 	mov	a,@r1
      0004E6 26               [12] 1051 	add	a,@r0
      0004E7 C0 E0            [24] 1052 	push	acc
      0004E9 09               [12] 1053 	inc	r1
      0004EA E7               [12] 1054 	mov	a,@r1
      0004EB 08               [12] 1055 	inc	r0
      0004EC 36               [12] 1056 	addc	a,@r0
      0004ED C0 E0            [24] 1057 	push	acc
      0004EF 09               [12] 1058 	inc	r1
      0004F0 E7               [12] 1059 	mov	a,@r1
      0004F1 08               [12] 1060 	inc	r0
      0004F2 36               [12] 1061 	addc	a,@r0
      0004F3 C0 E0            [24] 1062 	push	acc
      0004F5 09               [12] 1063 	inc	r1
      0004F6 E7               [12] 1064 	mov	a,@r1
      0004F7 08               [12] 1065 	inc	r0
      0004F8 36               [12] 1066 	addc	a,@r0
      0004F9 C0 E0            [24] 1067 	push	acc
      0004FB 09               [12] 1068 	inc	r1
      0004FC E7               [12] 1069 	mov	a,@r1
      0004FD 08               [12] 1070 	inc	r0
      0004FE 36               [12] 1071 	addc	a,@r0
      0004FF C0 E0            [24] 1072 	push	acc
      000501 09               [12] 1073 	inc	r1
      000502 E7               [12] 1074 	mov	a,@r1
      000503 08               [12] 1075 	inc	r0
      000504 36               [12] 1076 	addc	a,@r0
      000505 C0 E0            [24] 1077 	push	acc
      000507 09               [12] 1078 	inc	r1
      000508 E7               [12] 1079 	mov	a,@r1
      000509 08               [12] 1080 	inc	r0
      00050A 36               [12] 1081 	addc	a,@r0
      00050B C0 E0            [24] 1082 	push	acc
      00050D 09               [12] 1083 	inc	r1
      00050E E7               [12] 1084 	mov	a,@r1
      00050F 08               [12] 1085 	inc	r0
      000510 36               [12] 1086 	addc	a,@r0
      000511 C0 E0            [24] 1087 	push	acc
      000513 E5*00            [12] 1088 	mov	a,_bp
      000515 24 10            [12] 1089 	add	a,#0x10
      000517 F8               [12] 1090 	mov	r0,a
      000518 D0 E0            [24] 1091 	pop	acc
      00051A F6               [12] 1092 	mov	@r0,a
      00051B 18               [12] 1093 	dec	r0
      00051C D0 E0            [24] 1094 	pop	acc
      00051E F6               [12] 1095 	mov	@r0,a
      00051F 18               [12] 1096 	dec	r0
      000520 D0 E0            [24] 1097 	pop	acc
      000522 F6               [12] 1098 	mov	@r0,a
      000523 18               [12] 1099 	dec	r0
      000524 D0 E0            [24] 1100 	pop	acc
      000526 F6               [12] 1101 	mov	@r0,a
      000527 18               [12] 1102 	dec	r0
      000528 D0 E0            [24] 1103 	pop	acc
      00052A F6               [12] 1104 	mov	@r0,a
      00052B 18               [12] 1105 	dec	r0
      00052C D0 E0            [24] 1106 	pop	acc
      00052E F6               [12] 1107 	mov	@r0,a
      00052F 18               [12] 1108 	dec	r0
      000530 D0 E0            [24] 1109 	pop	acc
      000532 F6               [12] 1110 	mov	@r0,a
      000533 18               [12] 1111 	dec	r0
      000534 D0 E0            [24] 1112 	pop	acc
      000536 F6               [12] 1113 	mov	@r0,a
      000537 E5*00            [12] 1114 	mov	a,_bp
      000539 24 09            [12] 1115 	add	a,#0x09
      00053B E5*00            [12] 1116 	mov	a,_bp
      00053D 24 09            [12] 1117 	add	a,#0x09
      00053F F8               [12] 1118 	mov	r0,a
      000540 86 06            [24] 1119 	mov	ar6,@r0
      000542 08               [12] 1120 	inc	r0
      000543 86 07            [24] 1121 	mov	ar7,@r0
      000545 8D 82            [24] 1122 	mov	dpl,r5
      000547 8C 83            [24] 1123 	mov	dph,r4
      000549 8B F0            [24] 1124 	mov	b,r3
      00054B EE               [12] 1125 	mov	a,r6
      00054C 12r00r00         [24] 1126 	lcall	__gptrput
      00054F A3               [24] 1127 	inc	dptr
      000550 EF               [12] 1128 	mov	a,r7
      000551 12r00r00         [24] 1129 	lcall	__gptrput
      000554 A8*00            [24] 1130 	mov	r0,_bp
      000556 08               [12] 1131 	inc	r0
      000557 A6 06            [24] 1132 	mov	@r0,ar6
      000559 08               [12] 1133 	inc	r0
      00055A A6 07            [24] 1134 	mov	@r0,ar7
      00055C 08               [12] 1135 	inc	r0
      00055D 76 00            [12] 1136 	mov	@r0,#0x00
      00055F 08               [12] 1137 	inc	r0
      000560 76 00            [12] 1138 	mov	@r0,#0x00
      000562 08               [12] 1139 	inc	r0
      000563 76 00            [12] 1140 	mov	@r0,#0x00
      000565 08               [12] 1141 	inc	r0
      000566 76 00            [12] 1142 	mov	@r0,#0x00
      000568 08               [12] 1143 	inc	r0
      000569 76 00            [12] 1144 	mov	@r0,#0x00
      00056B 08               [12] 1145 	inc	r0
      00056C 76 00            [12] 1146 	mov	@r0,#0x00
      00056E A8*00            [24] 1147 	mov	r0,_bp
      000570 08               [12] 1148 	inc	r0
      000571 E5*00            [12] 1149 	mov	a,_bp
      000573 24 09            [12] 1150 	add	a,#0x09
      000575 F9               [12] 1151 	mov	r1,a
      000576 86 F0            [24] 1152 	mov	b,@r0
      000578 E7               [12] 1153 	mov	a,@r1
      000579 B5 F0 3B         [24] 1154 	cjne	a,b,00103$
      00057C 08               [12] 1155 	inc	r0
      00057D 86 F0            [24] 1156 	mov	b,@r0
      00057F 09               [12] 1157 	inc	r1
      000580 E7               [12] 1158 	mov	a,@r1
      000581 B5 F0 33         [24] 1159 	cjne	a,b,00103$
      000584 08               [12] 1160 	inc	r0
      000585 86 F0            [24] 1161 	mov	b,@r0
      000587 09               [12] 1162 	inc	r1
      000588 E7               [12] 1163 	mov	a,@r1
      000589 B5 F0 2B         [24] 1164 	cjne	a,b,00103$
      00058C 08               [12] 1165 	inc	r0
      00058D 86 F0            [24] 1166 	mov	b,@r0
      00058F 09               [12] 1167 	inc	r1
      000590 E7               [12] 1168 	mov	a,@r1
      000591 B5 F0 23         [24] 1169 	cjne	a,b,00103$
      000594 08               [12] 1170 	inc	r0
      000595 86 F0            [24] 1171 	mov	b,@r0
      000597 09               [12] 1172 	inc	r1
      000598 E7               [12] 1173 	mov	a,@r1
      000599 B5 F0 1B         [24] 1174 	cjne	a,b,00103$
      00059C 08               [12] 1175 	inc	r0
      00059D 86 F0            [24] 1176 	mov	b,@r0
      00059F 09               [12] 1177 	inc	r1
      0005A0 E7               [12] 1178 	mov	a,@r1
      0005A1 B5 F0 13         [24] 1179 	cjne	a,b,00103$
      0005A4 08               [12] 1180 	inc	r0
      0005A5 86 F0            [24] 1181 	mov	b,@r0
      0005A7 09               [12] 1182 	inc	r1
      0005A8 E7               [12] 1183 	mov	a,@r1
      0005A9 B5 F0 0B         [24] 1184 	cjne	a,b,00103$
      0005AC 08               [12] 1185 	inc	r0
      0005AD 86 F0            [24] 1186 	mov	b,@r0
      0005AF 09               [12] 1187 	inc	r1
      0005B0 E7               [12] 1188 	mov	a,@r1
      0005B1 B5 F0 03         [24] 1189 	cjne	a,b,00103$
      0005B4 D3               [12] 1190 	setb	c
      0005B5 80 01            [24] 1191 	sjmp	00104$
      0005B7                       1192 00103$:
      0005B7 C3               [12] 1193 	clr	c
      0005B8                       1194 00104$:
      0005B8 92*00            [24] 1195 	mov  b0,c
      0005BA B3               [12] 1196 	cpl	c
      0005BB E4               [12] 1197 	clr	a
      0005BC 33               [12] 1198 	rlc	a
      0005BD F5 82            [12] 1199 	mov	dpl,a
      0005BF 85*00 81         [24] 1200 	mov	sp,_bp
      0005C2 D0*00            [24] 1201 	pop	_bp
      0005C4 22               [24] 1202 	ret
                                   1203 ;------------------------------------------------------------
                                   1204 ;Allocation info for local variables in function '__ckd_add_long'
                                   1205 ;------------------------------------------------------------
                                   1206 ;a                         Allocated to stack - _bp -10
                                   1207 ;b                         Allocated to stack - _bp -18
                                   1208 ;r                         Allocated to stack - _bp +1
                                   1209 ;result                    Allocated to stack - _bp +12
                                   1210 ;sloc0                     Allocated to stack - _bp +4
                                   1211 ;------------------------------------------------------------
                                   1212 ;	../../device/include/stdckdint.h:57: inline _Bool __ckd_add_long __CKD_DEFAULT_IMPL(long, +)
                                   1213 ;	-----------------------------------------
                                   1214 ;	 function __ckd_add_long
                                   1215 ;	-----------------------------------------
      0005C5                       1216 ___ckd_add_long:
      0005C5 C0*00            [24] 1217 	push	_bp
      0005C7 85 81*00         [24] 1218 	mov	_bp,sp
      0005CA C0 82            [24] 1219 	push	dpl
      0005CC C0 83            [24] 1220 	push	dph
      0005CE C0 F0            [24] 1221 	push	b
      0005D0 E5 81            [12] 1222 	mov	a,sp
      0005D2 24 10            [12] 1223 	add	a,#0x10
      0005D4 F5 81            [12] 1224 	mov	sp,a
      0005D6 E5*00            [12] 1225 	mov	a,_bp
      0005D8 24 F6            [12] 1226 	add	a,#0xf6
      0005DA F8               [12] 1227 	mov	r0,a
      0005DB E5*00            [12] 1228 	mov	a,_bp
      0005DD 24 EE            [12] 1229 	add	a,#0xee
      0005DF F9               [12] 1230 	mov	r1,a
      0005E0 E7               [12] 1231 	mov	a,@r1
      0005E1 26               [12] 1232 	add	a,@r0
      0005E2 C0 E0            [24] 1233 	push	acc
      0005E4 09               [12] 1234 	inc	r1
      0005E5 E7               [12] 1235 	mov	a,@r1
      0005E6 08               [12] 1236 	inc	r0
      0005E7 36               [12] 1237 	addc	a,@r0
      0005E8 C0 E0            [24] 1238 	push	acc
      0005EA 09               [12] 1239 	inc	r1
      0005EB E7               [12] 1240 	mov	a,@r1
      0005EC 08               [12] 1241 	inc	r0
      0005ED 36               [12] 1242 	addc	a,@r0
      0005EE C0 E0            [24] 1243 	push	acc
      0005F0 09               [12] 1244 	inc	r1
      0005F1 E7               [12] 1245 	mov	a,@r1
      0005F2 08               [12] 1246 	inc	r0
      0005F3 36               [12] 1247 	addc	a,@r0
      0005F4 C0 E0            [24] 1248 	push	acc
      0005F6 09               [12] 1249 	inc	r1
      0005F7 E7               [12] 1250 	mov	a,@r1
      0005F8 08               [12] 1251 	inc	r0
      0005F9 36               [12] 1252 	addc	a,@r0
      0005FA C0 E0            [24] 1253 	push	acc
      0005FC 09               [12] 1254 	inc	r1
      0005FD E7               [12] 1255 	mov	a,@r1
      0005FE 08               [12] 1256 	inc	r0
      0005FF 36               [12] 1257 	addc	a,@r0
      000600 C0 E0            [24] 1258 	push	acc
      000602 09               [12] 1259 	inc	r1
      000603 E7               [12] 1260 	mov	a,@r1
      000604 08               [12] 1261 	inc	r0
      000605 36               [12] 1262 	addc	a,@r0
      000606 C0 E0            [24] 1263 	push	acc
      000608 09               [12] 1264 	inc	r1
      000609 E7               [12] 1265 	mov	a,@r1
      00060A 08               [12] 1266 	inc	r0
      00060B 36               [12] 1267 	addc	a,@r0
      00060C C0 E0            [24] 1268 	push	acc
      00060E E5*00            [12] 1269 	mov	a,_bp
      000610 24 13            [12] 1270 	add	a,#0x13
      000612 F8               [12] 1271 	mov	r0,a
      000613 D0 E0            [24] 1272 	pop	acc
      000615 F6               [12] 1273 	mov	@r0,a
      000616 18               [12] 1274 	dec	r0
      000617 D0 E0            [24] 1275 	pop	acc
      000619 F6               [12] 1276 	mov	@r0,a
      00061A 18               [12] 1277 	dec	r0
      00061B D0 E0            [24] 1278 	pop	acc
      00061D F6               [12] 1279 	mov	@r0,a
      00061E 18               [12] 1280 	dec	r0
      00061F D0 E0            [24] 1281 	pop	acc
      000621 F6               [12] 1282 	mov	@r0,a
      000622 18               [12] 1283 	dec	r0
      000623 D0 E0            [24] 1284 	pop	acc
      000625 F6               [12] 1285 	mov	@r0,a
      000626 18               [12] 1286 	dec	r0
      000627 D0 E0            [24] 1287 	pop	acc
      000629 F6               [12] 1288 	mov	@r0,a
      00062A 18               [12] 1289 	dec	r0
      00062B D0 E0            [24] 1290 	pop	acc
      00062D F6               [12] 1291 	mov	@r0,a
      00062E 18               [12] 1292 	dec	r0
      00062F D0 E0            [24] 1293 	pop	acc
      000631 F6               [12] 1294 	mov	@r0,a
      000632 E5*00            [12] 1295 	mov	a,_bp
      000634 24 0C            [12] 1296 	add	a,#0x0c
      000636 E5*00            [12] 1297 	mov	a,_bp
      000638 24 0C            [12] 1298 	add	a,#0x0c
      00063A F8               [12] 1299 	mov	r0,a
      00063B 86 05            [24] 1300 	mov	ar5,@r0
      00063D 08               [12] 1301 	inc	r0
      00063E 86 06            [24] 1302 	mov	ar6,@r0
      000640 08               [12] 1303 	inc	r0
      000641 86 04            [24] 1304 	mov	ar4,@r0
      000643 08               [12] 1305 	inc	r0
      000644 86 07            [24] 1306 	mov	ar7,@r0
      000646 A8*00            [24] 1307 	mov	r0,_bp
      000648 08               [12] 1308 	inc	r0
      000649 86 82            [24] 1309 	mov	dpl,@r0
      00064B 08               [12] 1310 	inc	r0
      00064C 86 83            [24] 1311 	mov	dph,@r0
      00064E 08               [12] 1312 	inc	r0
      00064F 86 F0            [24] 1313 	mov	b,@r0
      000651 ED               [12] 1314 	mov	a,r5
      000652 12r00r00         [24] 1315 	lcall	__gptrput
      000655 A3               [24] 1316 	inc	dptr
      000656 EE               [12] 1317 	mov	a,r6
      000657 12r00r00         [24] 1318 	lcall	__gptrput
      00065A A3               [24] 1319 	inc	dptr
      00065B EC               [12] 1320 	mov	a,r4
      00065C 12r00r00         [24] 1321 	lcall	__gptrput
      00065F A3               [24] 1322 	inc	dptr
      000660 EF               [12] 1323 	mov	a,r7
      000661 12r00r00         [24] 1324 	lcall	__gptrput
      000664 E5*00            [12] 1325 	mov	a,_bp
      000666 24 04            [12] 1326 	add	a,#0x04
      000668 F8               [12] 1327 	mov	r0,a
      000669 A6 05            [24] 1328 	mov	@r0,ar5
      00066B 08               [12] 1329 	inc	r0
      00066C A6 06            [24] 1330 	mov	@r0,ar6
      00066E 08               [12] 1331 	inc	r0
      00066F A6 04            [24] 1332 	mov	@r0,ar4
      000671 08               [12] 1333 	inc	r0
      000672 A6 07            [24] 1334 	mov	@r0,ar7
      000674 EF               [12] 1335 	mov	a,r7
      000675 33               [12] 1336 	rlc	a
      000676 95 E0            [12] 1337 	subb	a,acc
      000678 08               [12] 1338 	inc	r0
      000679 F6               [12] 1339 	mov	@r0,a
      00067A 08               [12] 1340 	inc	r0
      00067B F6               [12] 1341 	mov	@r0,a
      00067C 08               [12] 1342 	inc	r0
      00067D F6               [12] 1343 	mov	@r0,a
      00067E 08               [12] 1344 	inc	r0
      00067F F6               [12] 1345 	mov	@r0,a
      000680 E5*00            [12] 1346 	mov	a,_bp
      000682 24 04            [12] 1347 	add	a,#0x04
      000684 F8               [12] 1348 	mov	r0,a
      000685 E5*00            [12] 1349 	mov	a,_bp
      000687 24 0C            [12] 1350 	add	a,#0x0c
      000689 F9               [12] 1351 	mov	r1,a
      00068A 86 F0            [24] 1352 	mov	b,@r0
      00068C E7               [12] 1353 	mov	a,@r1
      00068D B5 F0 3B         [24] 1354 	cjne	a,b,00103$
      000690 08               [12] 1355 	inc	r0
      000691 86 F0            [24] 1356 	mov	b,@r0
      000693 09               [12] 1357 	inc	r1
      000694 E7               [12] 1358 	mov	a,@r1
      000695 B5 F0 33         [24] 1359 	cjne	a,b,00103$
      000698 08               [12] 1360 	inc	r0
      000699 86 F0            [24] 1361 	mov	b,@r0
      00069B 09               [12] 1362 	inc	r1
      00069C E7               [12] 1363 	mov	a,@r1
      00069D B5 F0 2B         [24] 1364 	cjne	a,b,00103$
      0006A0 08               [12] 1365 	inc	r0
      0006A1 86 F0            [24] 1366 	mov	b,@r0
      0006A3 09               [12] 1367 	inc	r1
      0006A4 E7               [12] 1368 	mov	a,@r1
      0006A5 B5 F0 23         [24] 1369 	cjne	a,b,00103$
      0006A8 08               [12] 1370 	inc	r0
      0006A9 86 F0            [24] 1371 	mov	b,@r0
      0006AB 09               [12] 1372 	inc	r1
      0006AC E7               [12] 1373 	mov	a,@r1
      0006AD B5 F0 1B         [24] 1374 	cjne	a,b,00103$
      0006B0 08               [12] 1375 	inc	r0
      0006B1 86 F0            [24] 1376 	mov	b,@r0
      0006B3 09               [12] 1377 	inc	r1
      0006B4 E7               [12] 1378 	mov	a,@r1
      0006B5 B5 F0 13         [24] 1379 	cjne	a,b,00103$
      0006B8 08               [12] 1380 	inc	r0
      0006B9 86 F0            [24] 1381 	mov	b,@r0
      0006BB 09               [12] 1382 	inc	r1
      0006BC E7               [12] 1383 	mov	a,@r1
      0006BD B5 F0 0B         [24] 1384 	cjne	a,b,00103$
      0006C0 08               [12] 1385 	inc	r0
      0006C1 86 F0            [24] 1386 	mov	b,@r0
      0006C3 09               [12] 1387 	inc	r1
      0006C4 E7               [12] 1388 	mov	a,@r1
      0006C5 B5 F0 03         [24] 1389 	cjne	a,b,00103$
      0006C8 D3               [12] 1390 	setb	c
      0006C9 80 01            [24] 1391 	sjmp	00104$
      0006CB                       1392 00103$:
      0006CB C3               [12] 1393 	clr	c
      0006CC                       1394 00104$:
      0006CC 92*00            [24] 1395 	mov  b0,c
      0006CE B3               [12] 1396 	cpl	c
      0006CF E4               [12] 1397 	clr	a
      0006D0 33               [12] 1398 	rlc	a
      0006D1 F5 82            [12] 1399 	mov	dpl,a
      0006D3 85*00 81         [24] 1400 	mov	sp,_bp
      0006D6 D0*00            [24] 1401 	pop	_bp
      0006D8 22               [24] 1402 	ret
                                   1403 ;------------------------------------------------------------
                                   1404 ;Allocation info for local variables in function '__ckd_add_ulong'
                                   1405 ;------------------------------------------------------------
                                   1406 ;a                         Allocated to stack - _bp -10
                                   1407 ;b                         Allocated to stack - _bp -18
                                   1408 ;r                         Allocated to stack - _bp +1
                                   1409 ;result                    Allocated to stack - _bp +12
                                   1410 ;sloc0                     Allocated to stack - _bp +4
                                   1411 ;------------------------------------------------------------
                                   1412 ;	../../device/include/stdckdint.h:58: inline _Bool __ckd_add_ulong __CKD_DEFAULT_IMPL(unsigned long, +)
                                   1413 ;	-----------------------------------------
                                   1414 ;	 function __ckd_add_ulong
                                   1415 ;	-----------------------------------------
      0006D9                       1416 ___ckd_add_ulong:
      0006D9 C0*00            [24] 1417 	push	_bp
      0006DB 85 81*00         [24] 1418 	mov	_bp,sp
      0006DE C0 82            [24] 1419 	push	dpl
      0006E0 C0 83            [24] 1420 	push	dph
      0006E2 C0 F0            [24] 1421 	push	b
      0006E4 E5 81            [12] 1422 	mov	a,sp
      0006E6 24 10            [12] 1423 	add	a,#0x10
      0006E8 F5 81            [12] 1424 	mov	sp,a
      0006EA E5*00            [12] 1425 	mov	a,_bp
      0006EC 24 F6            [12] 1426 	add	a,#0xf6
      0006EE F8               [12] 1427 	mov	r0,a
      0006EF E5*00            [12] 1428 	mov	a,_bp
      0006F1 24 EE            [12] 1429 	add	a,#0xee
      0006F3 F9               [12] 1430 	mov	r1,a
      0006F4 E7               [12] 1431 	mov	a,@r1
      0006F5 26               [12] 1432 	add	a,@r0
      0006F6 C0 E0            [24] 1433 	push	acc
      0006F8 09               [12] 1434 	inc	r1
      0006F9 E7               [12] 1435 	mov	a,@r1
      0006FA 08               [12] 1436 	inc	r0
      0006FB 36               [12] 1437 	addc	a,@r0
      0006FC C0 E0            [24] 1438 	push	acc
      0006FE 09               [12] 1439 	inc	r1
      0006FF E7               [12] 1440 	mov	a,@r1
      000700 08               [12] 1441 	inc	r0
      000701 36               [12] 1442 	addc	a,@r0
      000702 C0 E0            [24] 1443 	push	acc
      000704 09               [12] 1444 	inc	r1
      000705 E7               [12] 1445 	mov	a,@r1
      000706 08               [12] 1446 	inc	r0
      000707 36               [12] 1447 	addc	a,@r0
      000708 C0 E0            [24] 1448 	push	acc
      00070A 09               [12] 1449 	inc	r1
      00070B E7               [12] 1450 	mov	a,@r1
      00070C 08               [12] 1451 	inc	r0
      00070D 36               [12] 1452 	addc	a,@r0
      00070E C0 E0            [24] 1453 	push	acc
      000710 09               [12] 1454 	inc	r1
      000711 E7               [12] 1455 	mov	a,@r1
      000712 08               [12] 1456 	inc	r0
      000713 36               [12] 1457 	addc	a,@r0
      000714 C0 E0            [24] 1458 	push	acc
      000716 09               [12] 1459 	inc	r1
      000717 E7               [12] 1460 	mov	a,@r1
      000718 08               [12] 1461 	inc	r0
      000719 36               [12] 1462 	addc	a,@r0
      00071A C0 E0            [24] 1463 	push	acc
      00071C 09               [12] 1464 	inc	r1
      00071D E7               [12] 1465 	mov	a,@r1
      00071E 08               [12] 1466 	inc	r0
      00071F 36               [12] 1467 	addc	a,@r0
      000720 C0 E0            [24] 1468 	push	acc
      000722 E5*00            [12] 1469 	mov	a,_bp
      000724 24 13            [12] 1470 	add	a,#0x13
      000726 F8               [12] 1471 	mov	r0,a
      000727 D0 E0            [24] 1472 	pop	acc
      000729 F6               [12] 1473 	mov	@r0,a
      00072A 18               [12] 1474 	dec	r0
      00072B D0 E0            [24] 1475 	pop	acc
      00072D F6               [12] 1476 	mov	@r0,a
      00072E 18               [12] 1477 	dec	r0
      00072F D0 E0            [24] 1478 	pop	acc
      000731 F6               [12] 1479 	mov	@r0,a
      000732 18               [12] 1480 	dec	r0
      000733 D0 E0            [24] 1481 	pop	acc
      000735 F6               [12] 1482 	mov	@r0,a
      000736 18               [12] 1483 	dec	r0
      000737 D0 E0            [24] 1484 	pop	acc
      000739 F6               [12] 1485 	mov	@r0,a
      00073A 18               [12] 1486 	dec	r0
      00073B D0 E0            [24] 1487 	pop	acc
      00073D F6               [12] 1488 	mov	@r0,a
      00073E 18               [12] 1489 	dec	r0
      00073F D0 E0            [24] 1490 	pop	acc
      000741 F6               [12] 1491 	mov	@r0,a
      000742 18               [12] 1492 	dec	r0
      000743 D0 E0            [24] 1493 	pop	acc
      000745 F6               [12] 1494 	mov	@r0,a
      000746 E5*00            [12] 1495 	mov	a,_bp
      000748 24 0C            [12] 1496 	add	a,#0x0c
      00074A E5*00            [12] 1497 	mov	a,_bp
      00074C 24 0C            [12] 1498 	add	a,#0x0c
      00074E F8               [12] 1499 	mov	r0,a
      00074F 86 05            [24] 1500 	mov	ar5,@r0
      000751 08               [12] 1501 	inc	r0
      000752 86 06            [24] 1502 	mov	ar6,@r0
      000754 08               [12] 1503 	inc	r0
      000755 86 04            [24] 1504 	mov	ar4,@r0
      000757 08               [12] 1505 	inc	r0
      000758 86 07            [24] 1506 	mov	ar7,@r0
      00075A A8*00            [24] 1507 	mov	r0,_bp
      00075C 08               [12] 1508 	inc	r0
      00075D 86 82            [24] 1509 	mov	dpl,@r0
      00075F 08               [12] 1510 	inc	r0
      000760 86 83            [24] 1511 	mov	dph,@r0
      000762 08               [12] 1512 	inc	r0
      000763 86 F0            [24] 1513 	mov	b,@r0
      000765 ED               [12] 1514 	mov	a,r5
      000766 12r00r00         [24] 1515 	lcall	__gptrput
      000769 A3               [24] 1516 	inc	dptr
      00076A EE               [12] 1517 	mov	a,r6
      00076B 12r00r00         [24] 1518 	lcall	__gptrput
      00076E A3               [24] 1519 	inc	dptr
      00076F EC               [12] 1520 	mov	a,r4
      000770 12r00r00         [24] 1521 	lcall	__gptrput
      000773 A3               [24] 1522 	inc	dptr
      000774 EF               [12] 1523 	mov	a,r7
      000775 12r00r00         [24] 1524 	lcall	__gptrput
      000778 E5*00            [12] 1525 	mov	a,_bp
      00077A 24 04            [12] 1526 	add	a,#0x04
      00077C F8               [12] 1527 	mov	r0,a
      00077D A6 05            [24] 1528 	mov	@r0,ar5
      00077F 08               [12] 1529 	inc	r0
      000780 A6 06            [24] 1530 	mov	@r0,ar6
      000782 08               [12] 1531 	inc	r0
      000783 A6 04            [24] 1532 	mov	@r0,ar4
      000785 08               [12] 1533 	inc	r0
      000786 A6 07            [24] 1534 	mov	@r0,ar7
      000788 08               [12] 1535 	inc	r0
      000789 76 00            [12] 1536 	mov	@r0,#0x00
      00078B 08               [12] 1537 	inc	r0
      00078C 76 00            [12] 1538 	mov	@r0,#0x00
      00078E 08               [12] 1539 	inc	r0
      00078F 76 00            [12] 1540 	mov	@r0,#0x00
      000791 08               [12] 1541 	inc	r0
      000792 76 00            [12] 1542 	mov	@r0,#0x00
      000794 E5*00            [12] 1543 	mov	a,_bp
      000796 24 04            [12] 1544 	add	a,#0x04
      000798 F8               [12] 1545 	mov	r0,a
      000799 E5*00            [12] 1546 	mov	a,_bp
      00079B 24 0C            [12] 1547 	add	a,#0x0c
      00079D F9               [12] 1548 	mov	r1,a
      00079E 86 F0            [24] 1549 	mov	b,@r0
      0007A0 E7               [12] 1550 	mov	a,@r1
      0007A1 B5 F0 3B         [24] 1551 	cjne	a,b,00103$
      0007A4 08               [12] 1552 	inc	r0
      0007A5 86 F0            [24] 1553 	mov	b,@r0
      0007A7 09               [12] 1554 	inc	r1
      0007A8 E7               [12] 1555 	mov	a,@r1
      0007A9 B5 F0 33         [24] 1556 	cjne	a,b,00103$
      0007AC 08               [12] 1557 	inc	r0
      0007AD 86 F0            [24] 1558 	mov	b,@r0
      0007AF 09               [12] 1559 	inc	r1
      0007B0 E7               [12] 1560 	mov	a,@r1
      0007B1 B5 F0 2B         [24] 1561 	cjne	a,b,00103$
      0007B4 08               [12] 1562 	inc	r0
      0007B5 86 F0            [24] 1563 	mov	b,@r0
      0007B7 09               [12] 1564 	inc	r1
      0007B8 E7               [12] 1565 	mov	a,@r1
      0007B9 B5 F0 23         [24] 1566 	cjne	a,b,00103$
      0007BC 08               [12] 1567 	inc	r0
      0007BD 86 F0            [24] 1568 	mov	b,@r0
      0007BF 09               [12] 1569 	inc	r1
      0007C0 E7               [12] 1570 	mov	a,@r1
      0007C1 B5 F0 1B         [24] 1571 	cjne	a,b,00103$
      0007C4 08               [12] 1572 	inc	r0
      0007C5 86 F0            [24] 1573 	mov	b,@r0
      0007C7 09               [12] 1574 	inc	r1
      0007C8 E7               [12] 1575 	mov	a,@r1
      0007C9 B5 F0 13         [24] 1576 	cjne	a,b,00103$
      0007CC 08               [12] 1577 	inc	r0
      0007CD 86 F0            [24] 1578 	mov	b,@r0
      0007CF 09               [12] 1579 	inc	r1
      0007D0 E7               [12] 1580 	mov	a,@r1
      0007D1 B5 F0 0B         [24] 1581 	cjne	a,b,00103$
      0007D4 08               [12] 1582 	inc	r0
      0007D5 86 F0            [24] 1583 	mov	b,@r0
      0007D7 09               [12] 1584 	inc	r1
      0007D8 E7               [12] 1585 	mov	a,@r1
      0007D9 B5 F0 03         [24] 1586 	cjne	a,b,00103$
      0007DC D3               [12] 1587 	setb	c
      0007DD 80 01            [24] 1588 	sjmp	00104$
      0007DF                       1589 00103$:
      0007DF C3               [12] 1590 	clr	c
      0007E0                       1591 00104$:
      0007E0 92*00            [24] 1592 	mov  b0,c
      0007E2 B3               [12] 1593 	cpl	c
      0007E3 E4               [12] 1594 	clr	a
      0007E4 33               [12] 1595 	rlc	a
      0007E5 F5 82            [12] 1596 	mov	dpl,a
      0007E7 85*00 81         [24] 1597 	mov	sp,_bp
      0007EA D0*00            [24] 1598 	pop	_bp
      0007EC 22               [24] 1599 	ret
                                   1600 	.area CSEG    (CODE)
                                   1601 	.area CONST   (CODE)
                                   1602 	.area XINIT   (CODE)
                                   1603 	.area CABS    (ABS,CODE)
