                                      1 ;--------------------------------------------------------
                                      2 ; File Created by SDCC : free open source ISO C Compiler 
                                      3 ; Version 4.2.14 #0 (Linux)
                                      4 ;--------------------------------------------------------
                                      5 	.module _fslt
                                      6 	.optsdcc -mds400 --model-flat24
                                      7 	
                                      8 ;--------------------------------------------------------
                                      9 ; CPU specific extensions
                                     10 ;--------------------------------------------------------
                                     11 	.DS80C390
                                     12 	.amode	2	; 24 bit flat addressing
                           000082    13 dpl	=	0x82
                           000083    14 dph	=	0x83
                           000084    15 dpl1	=	0x84
                           000085    16 dph1	=	0x85
                           000086    17 dps	=	0x86
                           000093    18 dpx	=	0x93
                           000095    19 dpx1	=	0x95
                           00009B    20 esp	=	0x9B
                           00009C    21 ap	=	0x9C
                           00009C    22 acc1	=	0x9C
                           0000D1    23 mcnt0	=	0xD1
                           0000D2    24 mcnt1	=	0xD2
                           0000D3    25 ma	=	0xD3
                           0000D4    26 mb	=	0xD4
                           0000D5    27 mc	=	0xD5
                           00009D    28 acon	=	0x9D
                           0000C6    29 mcon	=	0xC6
                           0000D1    30 F1	=	0xD1	; user flag
                                     31 ;--------------------------------------------------------
                                     32 ; Public variables in this module
                                     33 ;--------------------------------------------------------
                                     34 	.globl ___fslt_PARM_2
                                     35 	.globl ___fslt
                                     36 ;--------------------------------------------------------
                                     37 ; special function registers
                                     38 ;--------------------------------------------------------
                                     39 ;--------------------------------------------------------
                                     40 ; special function bits
                                     41 ;--------------------------------------------------------
                                     42 ;--------------------------------------------------------
                                     43 ; overlayable register banks
                                     44 ;--------------------------------------------------------
                                     45 	.area REG_BANK_0	(REL,OVR,DATA)
      000000                         46 	.ds 8
                                     47 	.area REG_BANK_3	(REL,OVR,DATA)
      000000                         48 	.ds 8
                                     49 ;--------------------------------------------------------
                                     50 ; internal ram data
                                     51 ;--------------------------------------------------------
                                     52 	.area DSEG    (DATA)
                                     53 ;--------------------------------------------------------
                                     54 ; overlayable items in internal ram
                                     55 ;--------------------------------------------------------
                                     56 ;--------------------------------------------------------
                                     57 ; indirectly addressable internal ram data
                                     58 ;--------------------------------------------------------
                                     59 	.area ISEG    (DATA)
                                     60 ;--------------------------------------------------------
                                     61 ; absolute internal ram data
                                     62 ;--------------------------------------------------------
                                     63 	.area IABS    (ABS,DATA)
                                     64 	.area IABS    (ABS,DATA)
                                     65 ;--------------------------------------------------------
                                     66 ; bit data
                                     67 ;--------------------------------------------------------
                                     68 	.area BSEG    (BIT)
                                     69 ;--------------------------------------------------------
                                     70 ; paged external ram data
                                     71 ;--------------------------------------------------------
                                     72 	.area PSEG    (PAG,XDATA)
                                     73 ;--------------------------------------------------------
                                     74 ; uninitialized external ram data
                                     75 ;--------------------------------------------------------
                                     76 	.area XSEG    (XDATA)
      000000                         77 ___fslt_PARM_2:
      000000                         78 	.ds 4
      000004                         79 ___fslt_fl1_65536_21:
      000004                         80 	.ds 4
      000008                         81 ___fslt_fl2_65536_21:
      000008                         82 	.ds 4
                                     83 ;--------------------------------------------------------
                                     84 ; absolute external ram data
                                     85 ;--------------------------------------------------------
                                     86 	.area XABS    (ABS,XDATA)
                                     87 ;--------------------------------------------------------
                                     88 ; initialized external ram data
                                     89 ;--------------------------------------------------------
                                     90 	.area XISEG   (XDATA)
                                     91 ;--------------------------------------------------------
                                     92 ; global & static initialisations
                                     93 ;--------------------------------------------------------
                                     94 	.area HOME    (CODE)
                                     95 	.area GSINIT  (CODE)
                                     96 	.area GSFINAL (CODE)
                                     97 	.area GSINIT  (CODE)
                                     98 ;--------------------------------------------------------
                                     99 ; Home
                                    100 ;--------------------------------------------------------
                                    101 	.area HOME    (CODE)
                                    102 	.area HOME    (CODE)
                                    103 ;--------------------------------------------------------
                                    104 ; code
                                    105 ;--------------------------------------------------------
                                    106 	.area CSEG    (CODE)
                                    107 ;------------------------------------------------------------
                                    108 ;Allocation info for local variables in function '__fslt'
                                    109 ;------------------------------------------------------------
                                    110 ;a2                        Allocated with name '___fslt_PARM_2'
                                    111 ;a1                        Allocated to registers r2 r3 r4 r5 
                                    112 ;fl1                       Allocated with name '___fslt_fl1_65536_21'
                                    113 ;fl2                       Allocated with name '___fslt_fl2_65536_21'
                                    114 ;------------------------------------------------------------
                                    115 ;	_fslt.c:108: _Bool __fslt (float a1, float a2)
                                    116 ;	-----------------------------------------
                                    117 ;	 function __fslt
                                    118 ;	-----------------------------------------
      000000                        119 ___fslt:
                           000002   120 	ar2 = 0x02
                           000003   121 	ar3 = 0x03
                           000004   122 	ar4 = 0x04
                           000005   123 	ar5 = 0x05
                           000006   124 	ar6 = 0x06
                           000007   125 	ar7 = 0x07
                           000000   126 	ar0 = 0x00
                           000001   127 	ar1 = 0x01
      000000 AA 82            [ 8]  128 	mov	r2,dpl
      000002 AB 83            [ 8]  129 	mov	r3,dph
      000004 AC 93            [ 8]  130 	mov	r4,dpx
      000006 AD F0            [ 8]  131 	mov	r5,b
                                    132 ;	_fslt.c:112: fl1.f = a1;
      000008 90s00r00r04      [12]  133 	mov	dptr,#___fslt_fl1_65536_21
      00000C EA               [ 4]  134 	mov	a,r2
      00000D F0               [ 8]  135 	movx	@dptr,a
      00000E A3               [12]  136 	inc	dptr
      00000F EB               [ 4]  137 	mov	a,r3
      000010 F0               [ 8]  138 	movx	@dptr,a
      000011 A3               [12]  139 	inc	dptr
      000012 EC               [ 4]  140 	mov	a,r4
      000013 F0               [ 8]  141 	movx	@dptr,a
      000014 A3               [12]  142 	inc	dptr
      000015 ED               [ 4]  143 	mov	a,r5
      000016 F0               [ 8]  144 	movx	@dptr,a
                                    145 ;	_fslt.c:113: fl2.f = a2;
      000017 90s00r00r08      [12]  146 	mov	dptr,#___fslt_fl2_65536_21
      00001B 75 86 01         [12]  147 	mov     dps, #1
      00001E 90s00r00r00      [12]  148 	mov     dptr, #___fslt_PARM_2
      000022 E0               [ 8]  149 	movx	a,@dptr
      000023 15 86            [ 8]  150 	dec	dps
      000025 F0               [ 8]  151 	movx	@dptr,a
      000026 A3               [12]  152 	inc	dptr
      000027 05 86            [ 8]  153 	inc	dps
      000029 A3               [12]  154 	inc	dptr
      00002A E0               [ 8]  155 	movx	a,@dptr
      00002B 15 86            [ 8]  156 	dec	dps
      00002D F0               [ 8]  157 	movx	@dptr,a
      00002E A3               [12]  158 	inc	dptr
      00002F 05 86            [ 8]  159 	inc	dps
      000031 A3               [12]  160 	inc	dptr
      000032 E0               [ 8]  161 	movx	a,@dptr
      000033 15 86            [ 8]  162 	dec	dps
      000035 F0               [ 8]  163 	movx	@dptr,a
      000036 A3               [12]  164 	inc	dptr
      000037 05 86            [ 8]  165 	inc	dps
      000039 A3               [12]  166 	inc	dptr
      00003A E0               [ 8]  167 	movx	a,@dptr
      00003B 15 86            [ 8]  168 	dec	dps
      00003D F0               [ 8]  169 	movx	@dptr,a
                                    170 ;	_fslt.c:115: if (((fl1.l | fl2.l) & 0x7FFFFFFF) == 0)
      00003E 90s00r00r04      [12]  171 	mov	dptr,#___fslt_fl1_65536_21
      000042 E0               [ 8]  172 	movx	a,@dptr
      000043 A3               [12]  173 	inc	dptr
      000044 FA               [ 4]  174 	mov	r2,a
      000045 E0               [ 8]  175 	movx	a,@dptr
      000046 A3               [12]  176 	inc	dptr
      000047 FB               [ 4]  177 	mov	r3,a
      000048 E0               [ 8]  178 	movx	a,@dptr
      000049 A3               [12]  179 	inc	dptr
      00004A FC               [ 4]  180 	mov	r4,a
      00004B E0               [ 8]  181 	movx	a,@dptr
      00004C FD               [ 4]  182 	mov	r5,a
      00004D 90s00r00r08      [12]  183 	mov	dptr,#___fslt_fl2_65536_21
      000051 E0               [ 8]  184 	movx	a,@dptr
      000052 A3               [12]  185 	inc	dptr
      000053 FE               [ 4]  186 	mov	r6,a
      000054 E0               [ 8]  187 	movx	a,@dptr
      000055 A3               [12]  188 	inc	dptr
      000056 FF               [ 4]  189 	mov	r7,a
      000057 E0               [ 8]  190 	movx	a,@dptr
      000058 A3               [12]  191 	inc	dptr
      000059 F8               [ 4]  192 	mov	r0,a
      00005A E0               [ 8]  193 	movx	a,@dptr
      00005B F9               [ 4]  194 	mov	r1,a
      00005C EE               [ 4]  195 	mov	a,r6
      00005D 42 02            [ 8]  196 	orl	ar2,a
      00005F EF               [ 4]  197 	mov	a,r7
      000060 42 03            [ 8]  198 	orl	ar3,a
      000062 E8               [ 4]  199 	mov	a,r0
      000063 42 04            [ 8]  200 	orl	ar4,a
      000065 E9               [ 4]  201 	mov	a,r1
      000066 42 05            [ 8]  202 	orl	ar5,a
      000068 EA               [ 4]  203 	mov	a,r2
      000069 70 0B            [12]  204 	jnz	00132$
      00006B EB               [ 4]  205 	mov	a,r3
      00006C 70 08            [12]  206 	jnz	00132$
      00006E EC               [ 4]  207 	mov	a,r4
      00006F 70 05            [12]  208 	jnz	00132$
      000071 ED               [ 4]  209 	mov	a,r5
      000072 54 7F            [ 8]  210 	anl	a,#0x7f
      000074 60 02            [12]  211 	jz   00133$
      000076                        212 00132$:
      000076 80 07            [12]  213 	sjmp 00102$
      000078                        214 00133$:
                                    215 ;	_fslt.c:116: return (0);
      000078 75 82 00         [12]  216 	mov	dpl,#0x00
      00007B 02s00r01r16      [16]  217 	ljmp	00110$
      00007F                        218 00102$:
                                    219 ;	_fslt.c:118: if (fl1.l<0 && fl2.l<0) {
      00007F 90s00r00r04      [12]  220 	mov	dptr,#___fslt_fl1_65536_21
      000083 E0               [ 8]  221 	movx	a,@dptr
      000084 A3               [12]  222 	inc	dptr
      000085 FA               [ 4]  223 	mov	r2,a
      000086 E0               [ 8]  224 	movx	a,@dptr
      000087 A3               [12]  225 	inc	dptr
      000088 FB               [ 4]  226 	mov	r3,a
      000089 E0               [ 8]  227 	movx	a,@dptr
      00008A A3               [12]  228 	inc	dptr
      00008B FC               [ 4]  229 	mov	r4,a
      00008C E0               [ 8]  230 	movx	a,@dptr
      00008D FD               [ 4]  231 	mov  r5,a
      00008E 30 E7 4D         [12]  232 	jnb  acc[7],00106$
      000091                        233 00134$:
      000091 90s00r00r08      [12]  234 	mov	dptr,#___fslt_fl2_65536_21
      000095 E0               [ 8]  235 	movx	a,@dptr
      000096 A3               [12]  236 	inc	dptr
      000097 FA               [ 4]  237 	mov	r2,a
      000098 E0               [ 8]  238 	movx	a,@dptr
      000099 A3               [12]  239 	inc	dptr
      00009A FB               [ 4]  240 	mov	r3,a
      00009B E0               [ 8]  241 	movx	a,@dptr
      00009C A3               [12]  242 	inc	dptr
      00009D FC               [ 4]  243 	mov	r4,a
      00009E E0               [ 8]  244 	movx	a,@dptr
      00009F FD               [ 4]  245 	mov  r5,a
      0000A0 30 E7 3B         [12]  246 	jnb  acc[7],00106$
      0000A3                        247 00135$:
                                    248 ;	_fslt.c:119: if (fl2.l < fl1.l)
      0000A3 90s00r00r08      [12]  249 	mov	dptr,#___fslt_fl2_65536_21
      0000A7 E0               [ 8]  250 	movx	a,@dptr
      0000A8 A3               [12]  251 	inc	dptr
      0000A9 FA               [ 4]  252 	mov	r2,a
      0000AA E0               [ 8]  253 	movx	a,@dptr
      0000AB A3               [12]  254 	inc	dptr
      0000AC FB               [ 4]  255 	mov	r3,a
      0000AD E0               [ 8]  256 	movx	a,@dptr
      0000AE A3               [12]  257 	inc	dptr
      0000AF FC               [ 4]  258 	mov	r4,a
      0000B0 E0               [ 8]  259 	movx	a,@dptr
      0000B1 FD               [ 4]  260 	mov	r5,a
      0000B2 90s00r00r04      [12]  261 	mov	dptr,#___fslt_fl1_65536_21
      0000B6 E0               [ 8]  262 	movx	a,@dptr
      0000B7 A3               [12]  263 	inc	dptr
      0000B8 FE               [ 4]  264 	mov	r6,a
      0000B9 E0               [ 8]  265 	movx	a,@dptr
      0000BA A3               [12]  266 	inc	dptr
      0000BB FF               [ 4]  267 	mov	r7,a
      0000BC E0               [ 8]  268 	movx	a,@dptr
      0000BD A3               [12]  269 	inc	dptr
      0000BE F8               [ 4]  270 	mov	r0,a
      0000BF E0               [ 8]  271 	movx	a,@dptr
      0000C0 F9               [ 4]  272 	mov	r1,a
      0000C1 C3               [ 4]  273 	clr	c
      0000C2 EA               [ 4]  274 	mov	a,r2
      0000C3 9E               [ 4]  275 	subb	a,r6
      0000C4 EB               [ 4]  276 	mov	a,r3
      0000C5 9F               [ 4]  277 	subb	a,r7
      0000C6 EC               [ 4]  278 	mov	a,r4
      0000C7 98               [ 4]  279 	subb	a,r0
      0000C8 ED               [ 4]  280 	mov	a,r5
      0000C9 64 80            [ 8]  281 	xrl	a,#0x80
      0000CB 89 F0            [ 8]  282 	mov	b,r1
      0000CD 63 F0 80         [12]  283 	xrl	b,#0x80
      0000D0 95 F0            [ 8]  284 	subb	a,b
      0000D2 50 05            [12]  285 	jnc  00104$
      0000D4                        286 00136$:
                                    287 ;	_fslt.c:120: return (1);
      0000D4 75 82 01         [12]  288 	mov	dpl,#0x01
      0000D7 80 3D            [12]  289 	sjmp 00110$
      0000D9                        290 00104$:
                                    291 ;	_fslt.c:121: return (0);
      0000D9 75 82 00         [12]  292 	mov	dpl,#0x00
      0000DC 80 38            [12]  293 	sjmp 00110$
      0000DE                        294 00106$:
                                    295 ;	_fslt.c:124: if (fl1.l < fl2.l)
      0000DE 90s00r00r04      [12]  296 	mov	dptr,#___fslt_fl1_65536_21
      0000E2 E0               [ 8]  297 	movx	a,@dptr
      0000E3 A3               [12]  298 	inc	dptr
      0000E4 FA               [ 4]  299 	mov	r2,a
      0000E5 E0               [ 8]  300 	movx	a,@dptr
      0000E6 A3               [12]  301 	inc	dptr
      0000E7 FB               [ 4]  302 	mov	r3,a
      0000E8 E0               [ 8]  303 	movx	a,@dptr
      0000E9 A3               [12]  304 	inc	dptr
      0000EA FC               [ 4]  305 	mov	r4,a
      0000EB E0               [ 8]  306 	movx	a,@dptr
      0000EC FD               [ 4]  307 	mov	r5,a
      0000ED 90s00r00r08      [12]  308 	mov	dptr,#___fslt_fl2_65536_21
      0000F1 E0               [ 8]  309 	movx	a,@dptr
      0000F2 A3               [12]  310 	inc	dptr
      0000F3 FE               [ 4]  311 	mov	r6,a
      0000F4 E0               [ 8]  312 	movx	a,@dptr
      0000F5 A3               [12]  313 	inc	dptr
      0000F6 FF               [ 4]  314 	mov	r7,a
      0000F7 E0               [ 8]  315 	movx	a,@dptr
      0000F8 A3               [12]  316 	inc	dptr
      0000F9 F8               [ 4]  317 	mov	r0,a
      0000FA E0               [ 8]  318 	movx	a,@dptr
      0000FB F9               [ 4]  319 	mov	r1,a
      0000FC C3               [ 4]  320 	clr	c
      0000FD EA               [ 4]  321 	mov	a,r2
      0000FE 9E               [ 4]  322 	subb	a,r6
      0000FF EB               [ 4]  323 	mov	a,r3
      000100 9F               [ 4]  324 	subb	a,r7
      000101 EC               [ 4]  325 	mov	a,r4
      000102 98               [ 4]  326 	subb	a,r0
      000103 ED               [ 4]  327 	mov	a,r5
      000104 64 80            [ 8]  328 	xrl	a,#0x80
      000106 89 F0            [ 8]  329 	mov	b,r1
      000108 63 F0 80         [12]  330 	xrl	b,#0x80
      00010B 95 F0            [ 8]  331 	subb	a,b
      00010D 50 04            [12]  332 	jnc  00109$
      00010F                        333 00137$:
                                    334 ;	_fslt.c:125: return (1);
      00010F 75 82 01         [12]  335 	mov	dpl,#0x01
                                    336 ;	_fslt.c:126: return (0);
                                    337 ;	_fslt.c:127: }
      000112 22               [16]  338 	ret
      000113                        339 00109$:
      000113 75 82 00         [12]  340 	mov     dpl,#0x00
      000116                        341 00110$:
      000116 22               [16]  342 	ret
                                    343 	.area CSEG    (CODE)
                                    344 	.area CONST   (CODE)
                                    345 	.area XINIT   (CODE)
                                    346 	.area CABS    (ABS,CODE)
