                                      1 ;--------------------------------------------------------
                                      2 ; File Created by SDCC : free open source ISO C Compiler 
                                      3 ; Version 4.2.14 #0 (Linux)
                                      4 ;--------------------------------------------------------
                                      5 	.module _ulong2fs
                                      6 	.optsdcc -mds400 --model-flat24
                                      7 	
                                      8 ;--------------------------------------------------------
                                      9 ; CPU specific extensions
                                     10 ;--------------------------------------------------------
                                     11 	.DS80C390
                                     12 	.amode	2	; 24 bit flat addressing
                           000082    13 dpl	=	0x82
                           000083    14 dph	=	0x83
                           000084    15 dpl1	=	0x84
                           000085    16 dph1	=	0x85
                           000086    17 dps	=	0x86
                           000093    18 dpx	=	0x93
                           000095    19 dpx1	=	0x95
                           00009B    20 esp	=	0x9B
                           00009C    21 ap	=	0x9C
                           00009C    22 acc1	=	0x9C
                           0000D1    23 mcnt0	=	0xD1
                           0000D2    24 mcnt1	=	0xD2
                           0000D3    25 ma	=	0xD3
                           0000D4    26 mb	=	0xD4
                           0000D5    27 mc	=	0xD5
                           00009D    28 acon	=	0x9D
                           0000C6    29 mcon	=	0xC6
                           0000D1    30 F1	=	0xD1	; user flag
                                     31 ;--------------------------------------------------------
                                     32 ; Public variables in this module
                                     33 ;--------------------------------------------------------
                                     34 	.globl ___ulong2fs
                                     35 ;--------------------------------------------------------
                                     36 ; special function registers
                                     37 ;--------------------------------------------------------
                                     38 ;--------------------------------------------------------
                                     39 ; special function bits
                                     40 ;--------------------------------------------------------
                                     41 ;--------------------------------------------------------
                                     42 ; overlayable register banks
                                     43 ;--------------------------------------------------------
                                     44 	.area REG_BANK_0	(REL,OVR,DATA)
      000000                         45 	.ds 8
                                     46 	.area REG_BANK_3	(REL,OVR,DATA)
      000000                         47 	.ds 8
                                     48 ;--------------------------------------------------------
                                     49 ; internal ram data
                                     50 ;--------------------------------------------------------
                                     51 	.area DSEG    (DATA)
                                     52 ;--------------------------------------------------------
                                     53 ; overlayable items in internal ram
                                     54 ;--------------------------------------------------------
                                     55 ;--------------------------------------------------------
                                     56 ; indirectly addressable internal ram data
                                     57 ;--------------------------------------------------------
                                     58 	.area ISEG    (DATA)
                                     59 ;--------------------------------------------------------
                                     60 ; absolute internal ram data
                                     61 ;--------------------------------------------------------
                                     62 	.area IABS    (ABS,DATA)
                                     63 	.area IABS    (ABS,DATA)
                                     64 ;--------------------------------------------------------
                                     65 ; bit data
                                     66 ;--------------------------------------------------------
                                     67 	.area BSEG    (BIT)
                                     68 ;--------------------------------------------------------
                                     69 ; paged external ram data
                                     70 ;--------------------------------------------------------
                                     71 	.area PSEG    (PAG,XDATA)
                                     72 ;--------------------------------------------------------
                                     73 ; uninitialized external ram data
                                     74 ;--------------------------------------------------------
                                     75 	.area XSEG    (XDATA)
      000000                         76 ___ulong2fs_fl_65536_21:
      000000                         77 	.ds 4
                                     78 ;--------------------------------------------------------
                                     79 ; absolute external ram data
                                     80 ;--------------------------------------------------------
                                     81 	.area XABS    (ABS,XDATA)
                                     82 ;--------------------------------------------------------
                                     83 ; initialized external ram data
                                     84 ;--------------------------------------------------------
                                     85 	.area XISEG   (XDATA)
                                     86 ;--------------------------------------------------------
                                     87 ; global & static initialisations
                                     88 ;--------------------------------------------------------
                                     89 	.area HOME    (CODE)
                                     90 	.area GSINIT  (CODE)
                                     91 	.area GSFINAL (CODE)
                                     92 	.area GSINIT  (CODE)
                                     93 ;--------------------------------------------------------
                                     94 ; Home
                                     95 ;--------------------------------------------------------
                                     96 	.area HOME    (CODE)
                                     97 	.area HOME    (CODE)
                                     98 ;--------------------------------------------------------
                                     99 ; code
                                    100 ;--------------------------------------------------------
                                    101 	.area CSEG    (CODE)
                                    102 ;------------------------------------------------------------
                                    103 ;Allocation info for local variables in function '__ulong2fs'
                                    104 ;------------------------------------------------------------
                                    105 ;a                         Allocated to registers r2 r3 r4 r5 
                                    106 ;exp                       Allocated to registers 
                                    107 ;fl                        Allocated with name '___ulong2fs_fl_65536_21'
                                    108 ;------------------------------------------------------------
                                    109 ;	_ulong2fs.c:84: float __ulong2fs (unsigned long a )
                                    110 ;	-----------------------------------------
                                    111 ;	 function __ulong2fs
                                    112 ;	-----------------------------------------
      000000                        113 ___ulong2fs:
                           000002   114 	ar2 = 0x02
                           000003   115 	ar3 = 0x03
                           000004   116 	ar4 = 0x04
                           000005   117 	ar5 = 0x05
                           000006   118 	ar6 = 0x06
                           000007   119 	ar7 = 0x07
                           000000   120 	ar0 = 0x00
                           000001   121 	ar1 = 0x01
      000000 AA 82            [ 8]  122 	mov	r2,dpl
      000002 AB 83            [ 8]  123 	mov	r3,dph
      000004 AC 93            [ 8]  124 	mov	r4,dpx
      000006 AD F0            [ 8]  125 	mov	r5,b
                                    126 ;	_ulong2fs.c:89: if (!a)
      000008 EA               [ 4]  127 	mov	a,r2
      000009 4B               [ 4]  128 	orl	a,r3
      00000A 4C               [ 4]  129 	orl	a,r4
      00000B 4D               [ 4]  130 	orl	a,r5
      00000C 70 0B            [12]  131 	jnz  00102$
      00000E                        132 00152$:
                                    133 ;	_ulong2fs.c:91: return 0.0;
      00000E 90 00 00 00      [12]  134 	mov  dptr,#0x0000
      000012 75 F0 00         [12]  135 	mov	b,#0x00
      000015 02s00r00rC3      [16]  136 	ljmp	00113$
      000019                        137 00102$:
                                    138 ;	_ulong2fs.c:94: if (a == 0xfffffffful)
      000019 BA FF 17         [16]  139 	cjne r2,#0xff,00118$
      00001C BB FF 14         [16]  140 	cjne r3,#0xff,00118$
      00001F BC FF 11         [16]  141 	cjne r4,#0xff,00118$
      000022 BD FF 0E         [16]  142 	cjne r5,#0xff,00118$
      000025                        143 00154$:
                                    144 ;	_ulong2fs.c:96: return 4294967296.0f;
      000025 90 00 00 00      [12]  145 	mov  dptr,#0x0000
      000029 75 93 80         [12]  146 	mov	dpx,#0x80
      00002C 75 F0 4F         [12]  147 	mov	b,#0x4f
      00002F 02s00r00rC3      [16]  148 	ljmp	00113$
                                    149 ;	_ulong2fs.c:99: while (a < HIDDEN)
      000033                        150 00118$:
                                    151 ;	genAssign: resultIsFar = FALSE
      000033 7E 96            [ 8]  152 	mov	r6,#0x96
      000035                        153 00105$:
      000035 C3               [ 4]  154 	clr	c
      000036 EA               [ 4]  155 	mov	a,r2
      000037 94 00            [ 8]  156 	subb	a,#0x00
      000039 EB               [ 4]  157 	mov	a,r3
      00003A 94 00            [ 8]  158 	subb	a,#0x00
      00003C EC               [ 4]  159 	mov	a,r4
      00003D 94 80            [ 8]  160 	subb	a,#0x80
      00003F ED               [ 4]  161 	mov	a,r5
      000040 94 00            [ 8]  162 	subb	a,#0x00
      000042 50 10            [12]  163 	jnc  00121$
      000044                        164 00155$:
                                    165 ;	_ulong2fs.c:101: a <<= 1;
      000044 EA               [ 4]  166 	mov	a,r2
      000045 25 E0            [ 8]  167 	add	a,acc
      000047 FA               [ 4]  168 	mov	r2,a
      000048 EB               [ 4]  169 	mov	a,r3
      000049 33               [ 4]  170 	rlc	a
      00004A FB               [ 4]  171 	mov	r3,a
      00004B EC               [ 4]  172 	mov	a,r4
      00004C 33               [ 4]  173 	rlc	a
      00004D FC               [ 4]  174 	mov	r4,a
      00004E ED               [ 4]  175 	mov	a,r5
      00004F 33               [ 4]  176 	rlc	a
      000050 FD               [ 4]  177 	mov	r5,a
                                    178 ;	_ulong2fs.c:102: exp--;
      000051 1E               [ 4]  179 	dec	r6
                                    180 ;	_ulong2fs.c:105: while (a & NORM)
      000052 80 E1            [12]  181 	sjmp 00105$
      000054                        182 00121$:
                                    183 ;	genAssign: resultIsFar = FALSE
      000054                        184 00110$:
      000054 ED               [ 4]  185 	mov	a,r5
      000055 60 21            [12]  186 	jz  00112$
      000057                        187 00156$:
                                    188 ;	_ulong2fs.c:108: if (a & 1)
      000057 EA               [ 4]  189 	mov	a,r2
      000058 30 E0 0D         [12]  190 	jnb  acc[0],00109$
      00005B                        191 00157$:
                                    192 ;	_ulong2fs.c:109: a += 2;
      00005B 74 02            [ 8]  193 	mov	a,#0x02
      00005D 2A               [ 4]  194 	add	a,r2
      00005E FA               [ 4]  195 	mov	r2,a
      00005F E4               [ 4]  196 	clr	a
      000060 3B               [ 4]  197 	addc	a,r3
      000061 FB               [ 4]  198 	mov	r3,a
      000062 E4               [ 4]  199 	clr	a
      000063 3C               [ 4]  200 	addc	a,r4
      000064 FC               [ 4]  201 	mov	r4,a
      000065 E4               [ 4]  202 	clr	a
      000066 3D               [ 4]  203 	addc	a,r5
      000067 FD               [ 4]  204 	mov	r5,a
      000068                        205 00109$:
                                    206 ;	_ulong2fs.c:110: a >>= 1;
      000068 ED               [ 4]  207 	mov	a,r5
      000069 C3               [ 4]  208 	clr	c
      00006A 13               [ 4]  209 	rrc	a
      00006B FD               [ 4]  210 	mov	r5,a
      00006C EC               [ 4]  211 	mov	a,r4
      00006D 13               [ 4]  212 	rrc	a
      00006E FC               [ 4]  213 	mov	r4,a
      00006F EB               [ 4]  214 	mov	a,r3
      000070 13               [ 4]  215 	rrc	a
      000071 FB               [ 4]  216 	mov	r3,a
      000072 EA               [ 4]  217 	mov	a,r2
      000073 13               [ 4]  218 	rrc	a
      000074 FA               [ 4]  219 	mov	r2,a
                                    220 ;	_ulong2fs.c:111: exp++;
      000075 0E               [ 4]  221 	inc	r6
      000076 80 DC            [12]  222 	sjmp 00110$
      000078                        223 00112$:
                                    224 ;	_ulong2fs.c:114: a &= ~HIDDEN ;
      000078 53 04 7F         [12]  225 	anl	ar4,#0x7f
                                    226 ;	_ulong2fs.c:116: fl.l = PACK(0,(unsigned long)exp, a);
      00007B 7F 00            [ 8]  227 	mov	r7,#0x00
      00007D 78 00            [ 8]  228 	mov	r0,#0x00
      00007F 79 00            [ 8]  229 	mov	r1,#0x00
      000081 8E 00            [ 8]  230 	mov	ar0,r6
      000083 EF               [ 4]  231 	mov	a,r7
      000084 54 01            [ 8]  232 	anl	a,#0x01
      000086 A2 E0            [ 8]  233 	mov	c,acc[0]
      000088 C8               [ 4]  234 	xch	a,r0
      000089 13               [ 4]  235 	rrc	a
      00008A C8               [ 4]  236 	xch	a,r0
      00008B 13               [ 4]  237 	rrc	a
      00008C C8               [ 4]  238 	xch	a,r0
      00008D F9               [ 4]  239 	mov	r1,a
      00008E E4               [ 4]  240 	clr  a
      00008F FE               [ 4]  241 	mov  r6,a
      000090 FF               [ 4]  242 	mov  r7,a
      000091 EE               [ 4]  243 	mov  a,r6
      000092 42 02            [ 8]  244 	orl	ar2,a
      000094 EF               [ 4]  245 	mov	a,r7
      000095 42 03            [ 8]  246 	orl	ar3,a
      000097 E8               [ 4]  247 	mov	a,r0
      000098 42 04            [ 8]  248 	orl	ar4,a
      00009A E9               [ 4]  249 	mov	a,r1
      00009B 42 05            [ 8]  250 	orl	ar5,a
      00009D 90s00r00r00      [12]  251 	mov	dptr,#___ulong2fs_fl_65536_21
      0000A1 EA               [ 4]  252 	mov	a,r2
      0000A2 F0               [ 8]  253 	movx	@dptr,a
      0000A3 A3               [12]  254 	inc	dptr
      0000A4 EB               [ 4]  255 	mov	a,r3
      0000A5 F0               [ 8]  256 	movx	@dptr,a
      0000A6 A3               [12]  257 	inc	dptr
      0000A7 EC               [ 4]  258 	mov	a,r4
      0000A8 F0               [ 8]  259 	movx	@dptr,a
      0000A9 A3               [12]  260 	inc	dptr
      0000AA ED               [ 4]  261 	mov	a,r5
      0000AB F0               [ 8]  262 	movx	@dptr,a
                                    263 ;	_ulong2fs.c:118: return (fl.f);
      0000AC 90s00r00r00      [12]  264 	mov	dptr,#___ulong2fs_fl_65536_21
      0000B0 E0               [ 8]  265 	movx	a,@dptr
      0000B1 A3               [12]  266 	inc	dptr
      0000B2 FA               [ 4]  267 	mov	r2,a
      0000B3 E0               [ 8]  268 	movx	a,@dptr
      0000B4 A3               [12]  269 	inc	dptr
      0000B5 FB               [ 4]  270 	mov	r3,a
      0000B6 E0               [ 8]  271 	movx	a,@dptr
      0000B7 A3               [12]  272 	inc	dptr
      0000B8 FC               [ 4]  273 	mov	r4,a
      0000B9 E0               [ 8]  274 	movx	a,@dptr
      0000BA FD               [ 4]  275 	mov	r5,a
      0000BB 8A 82            [ 8]  276 	mov	dpl,r2
      0000BD 8B 83            [ 8]  277 	mov	dph,r3
      0000BF 8C 93            [ 8]  278 	mov	dpx,r4
      0000C1 8D F0            [ 8]  279 	mov	b,r5
      0000C3                        280 00113$:
                                    281 ;	_ulong2fs.c:119: }
      0000C3 22               [16]  282 	ret
                                    283 	.area CSEG    (CODE)
                                    284 	.area CONST   (CODE)
                                    285 	.area XINIT   (CODE)
                                    286 	.area CABS    (ABS,CODE)
