;--------------------------------------------------------
; File Created by SDCC : free open source ISO C Compiler 
; Version 4.2.14 #0 (Linux)
;--------------------------------------------------------
	.module gets
	.optsdcc -mds400 --model-flat24
	
;--------------------------------------------------------
; CPU specific extensions
;--------------------------------------------------------
	.DS80C390
	.amode	2	; 24 bit flat addressing
dpl	=	0x82
dph	=	0x83
dpl1	=	0x84
dph1	=	0x85
dps	=	0x86
dpx	=	0x93
dpx1	=	0x95
esp	=	0x9B
ap	=	0x9C
acc1	=	0x9C
mcnt0	=	0xD1
mcnt1	=	0xD2
ma	=	0xD3
mb	=	0xD4
mc	=	0xD5
acon	=	0x9D
mcon	=	0xC6
F1	=	0xD1	; user flag
;--------------------------------------------------------
; Public variables in this module
;--------------------------------------------------------
	.globl _gets
	.globl _putchar
	.globl _getchar
;--------------------------------------------------------
; special function registers
;--------------------------------------------------------
_P4	=	0x0080
_SP	=	0x0081
_DPL	=	0x0082
_DPH	=	0x0083
_DPL1	=	0x0084
_DPH1	=	0x0085
_DPS	=	0x0086
_PCON	=	0x0087
_TCON	=	0x0088
_TMOD	=	0x0089
_TL0	=	0x008a
_TL1	=	0x008b
_TH0	=	0x008c
_TH1	=	0x008d
_CKCON	=	0x008e
_P1	=	0x0090
_EXIF	=	0x0091
_P4CNT	=	0x0092
_DPX	=	0x0093
_DPX1	=	0x0095
_SCON0	=	0x0098
_SBUF0	=	0x0099
_ESP	=	0x009b
_AP	=	0x009c
_ACON	=	0x009d
_P2	=	0x00a0
_P5	=	0x00a1
_P5CNT	=	0x00a2
_IE	=	0x00a8
_P3	=	0x00b0
_IP	=	0x00b8
_SCON1	=	0x00c0
_SBUF1	=	0x00c1
_PMR	=	0x00c4
_MCON	=	0x00c6
_TA	=	0x00c7
_T2CON	=	0x00c8
_T2MOD	=	0x00c9
_RCAP2L	=	0x00ca
_RTL2	=	0x00ca
_RCAP2H	=	0x00cb
_RTH2	=	0x00cb
_TL2	=	0x00cc
_TH2	=	0x00cd
_PSW	=	0x00d0
_MCNT0	=	0x00d1
_MCNT1	=	0x00d2
_MA	=	0x00d3
_MB	=	0x00d4
_MC	=	0x00d5
_WDCON	=	0x00d8
_ACC	=	0x00e0
_EIE	=	0x00e8
_MXAX	=	0x00ea
_B	=	0x00f0
_EIP	=	0x00f8
_TMR0	=	0x8c8a
_TMR1	=	0x8d8b
_TMR2	=	0xcdcc
_RCAP2	=	0xcbca
;--------------------------------------------------------
; special function bits
;--------------------------------------------------------
_IT0	=	0x0088
_IE0	=	0x0089
_IT1	=	0x008a
_IE1	=	0x008b
_TR0	=	0x008c
_TF0	=	0x008d
_TR1	=	0x008e
_TF1	=	0x008f
_T2	=	0x0090
_T2EX	=	0x0091
_RXD1	=	0x0092
_TXD1	=	0x0093
_INT2	=	0x0094
_INT3	=	0x0095
_INT4	=	0x0096
_INT5	=	0x0097
_RI_0	=	0x0098
_TI_0	=	0x0099
_RB8_0	=	0x009a
_TB8_0	=	0x009b
_REN_0	=	0x009c
_SM2_0	=	0x009d
_SM1_0	=	0x009e
_SM0_0	=	0x009f
_FE_0	=	0x009f
_EX0	=	0x00a8
_ET0	=	0x00a9
_EX1	=	0x00aa
_ET1	=	0x00ab
_ES0	=	0x00ac
_ET2	=	0x00ad
_ES1	=	0x00ae
_EA	=	0x00af
_RXD0	=	0x00b0
_TXD0	=	0x00b1
_INT0	=	0x00b2
_INT1	=	0x00b3
_T0	=	0x00b4
_T1	=	0x00b5
_WR	=	0x00b6
_RD	=	0x00b7
_PX0	=	0x00b8
_PT0	=	0x00b9
_PX1	=	0x00ba
_PT1	=	0x00bb
_PS0	=	0x00bc
_PT2	=	0x00bd
_PS1	=	0x00be
_RI_1	=	0x00c0
_TI_1	=	0x00c1
_RB8_1	=	0x00c2
_TB8_1	=	0x00c3
_REN_1	=	0x00c4
_SM2_1	=	0x00c5
_SM1_1	=	0x00c6
_SM0_1	=	0x00c7
_FE_1	=	0x00c7
_CP_RL	=	0x00c8
_C_T	=	0x00c9
_TR2	=	0x00ca
_EXEN2	=	0x00cb
_TCLK	=	0x00cc
_RCLK	=	0x00cd
_EXF2	=	0x00ce
_TF2	=	0x00cf
_P	=	0x00d0
_F1	=	0x00d1
_OV	=	0x00d2
_RS0	=	0x00d3
_RS1	=	0x00d4
_F0	=	0x00d5
_AC	=	0x00d6
_CY	=	0x00d7
_RWT	=	0x00d8
_EWT	=	0x00d9
_WDRF	=	0x00da
_WDIF	=	0x00db
_PFI	=	0x00dc
_EPFI	=	0x00dd
_POR	=	0x00de
_SMOD_1	=	0x00df
_EX2	=	0x00e8
_EX3	=	0x00e9
_EX4	=	0x00ea
_EX5	=	0x00eb
_EWDI	=	0x00ec
_C1IE	=	0x00ed
_C0IE	=	0x00ee
_CANBIE	=	0x00ef
_PX2	=	0x00f8
_PX3	=	0x00f9
_PX4	=	0x00fa
_PX5	=	0x00fb
_PWDI	=	0x00fc
_C1IP	=	0x00fd
_C0IP	=	0x00fe
_CANBIP	=	0x00ff
;--------------------------------------------------------
; overlayable register banks
;--------------------------------------------------------
	.area REG_BANK_0	(REL,OVR,DATA)
	.ds 8
	.area REG_BANK_3	(REL,OVR,DATA)
	.ds 8
;--------------------------------------------------------
; internal ram data
;--------------------------------------------------------
	.area DSEG    (DATA)
;--------------------------------------------------------
; overlayable items in internal ram
;--------------------------------------------------------
;--------------------------------------------------------
; indirectly addressable internal ram data
;--------------------------------------------------------
	.area ISEG    (DATA)
;--------------------------------------------------------
; absolute internal ram data
;--------------------------------------------------------
	.area IABS    (ABS,DATA)
	.area IABS    (ABS,DATA)
;--------------------------------------------------------
; bit data
;--------------------------------------------------------
	.area BSEG    (BIT)
;--------------------------------------------------------
; paged external ram data
;--------------------------------------------------------
	.area PSEG    (PAG,XDATA)
;--------------------------------------------------------
; uninitialized external ram data
;--------------------------------------------------------
	.area XSEG    (XDATA)
_gets_s_65536_61:
	.ds 4
;--------------------------------------------------------
; absolute external ram data
;--------------------------------------------------------
	.area XABS    (ABS,XDATA)
;--------------------------------------------------------
; initialized external ram data
;--------------------------------------------------------
	.area XISEG   (XDATA)
;--------------------------------------------------------
; global & static initialisations
;--------------------------------------------------------
	.area HOME    (CODE)
	.area GSINIT  (CODE)
	.area GSFINAL (CODE)
	.area GSINIT  (CODE)
;--------------------------------------------------------
; Home
;--------------------------------------------------------
	.area HOME    (CODE)
	.area HOME    (CODE)
;--------------------------------------------------------
; code
;--------------------------------------------------------
	.area CSEG    (CODE)
;------------------------------------------------------------
;Allocation info for local variables in function 'gets'
;------------------------------------------------------------
;s                         Allocated with name '_gets_s_65536_61'
;c                         Allocated to registers r0 
;count                     Allocated to registers r4 r5 
;------------------------------------------------------------
;	gets.c:32: gets (char *s)
;	-----------------------------------------
;	 function gets
;	-----------------------------------------
_gets:
	ar2 = 0x02
	ar3 = 0x03
	ar4 = 0x04
	ar5 = 0x05
	ar6 = 0x06
	ar7 = 0x07
	ar0 = 0x00
	ar1 = 0x01
	mov     dps, #1
	mov     dptr, #_gets_s_65536_61
	mov	a,dpl
	movx	@dptr,a
	inc	dptr
	mov	a,dph
	movx	@dptr,a
	inc	dptr
	mov	a,dpx
	movx	@dptr,a
	inc	dptr
	mov	a,b
	movx	@dptr,a
	mov	dps,#0
;	gets.c:35: unsigned int count = 0;
;	genAssign: resultIsFar = FALSE
	mov	r4,#0x00
	mov	r5,#0x00
;	gets.c:37: while (1)
00109$:
;	gets.c:39: c = getchar ();
	push	ar4
	push	ar5
	lcall	_getchar
	mov	r0,dpl
	mov	r1,dph
	pop	ar5
	pop	ar4
;	gets.c:40: switch(c)
	cjne	r0,#0x08,00133$
	sjmp 00101$
00133$:
	cjne	r0,#0x0a,00134$
	sjmp 00105$
00134$:
	cjne	r0,#0x0d,00135$
	sjmp 00105$
00135$:
	ljmp	00106$
;	gets.c:42: case '\b': /* backspace */
00101$:
;	gets.c:43: if (count)
	mov	a,r4
	orl	a,r5
	jz  00109$
00136$:
;	gets.c:45: putchar ('\b');
	push	ar4
	push	ar5
	mov  dptr,#0x0008
	lcall	_putchar
	pop	ar5
	pop	ar4
;	gets.c:46: putchar (' ');
	push	ar4
	push	ar5
	mov  dptr,#0x0020
	lcall	_putchar
	pop	ar5
	pop	ar4
;	gets.c:47: putchar ('\b');
	push	ar4
	push	ar5
	mov  dptr,#0x0008
	lcall	_putchar
	pop	ar5
	pop	ar4
;	gets.c:48: --s;
	mov	dptr,#_gets_s_65536_61
	movx	a,@dptr
	add	a,#0xff
	mov	r1,a
	inc	dptr
	movx	a,@dptr
	addc	a,#0xff
	mov	r6,a
	inc	dptr
	movx	a,@dptr
	addc	a,#0xff
	mov	r7,a
	inc	dptr
	movx	a,@dptr
	mov	r2,a
;	genAssign: resultIsFar = TRUE
	mov	dptr,#_gets_s_65536_61
	mov	a,r1
	movx	@dptr,a
	inc	dptr
	mov	a,r6
	movx	@dptr,a
	inc	dptr
	mov	a,r7
	movx	@dptr,a
	inc	dptr
	mov	a,r2
	movx	@dptr,a
;	gets.c:49: --count;
	mov	a,r4
	add	a,#0xff
	mov	r2,a
	mov	a,r5
	addc	a,#0xff
	mov	r3,a
;	genAssign: resultIsFar = FALSE
	mov	ar4,r2
	mov	ar5,r3
;	gets.c:51: break;
	ljmp	00109$
;	gets.c:54: case '\r': /* CR or LF */
00105$:
;	gets.c:55: putchar ('\r');
	mov  dptr,#0x000d
	lcall	_putchar
;	gets.c:56: putchar ('\n');
	mov  dptr,#0x000a
	lcall	_putchar
;	gets.c:57: *s = 0;
	mov	dptr,#_gets_s_65536_61
	movx	a,@dptr
	push	acc
	inc	dptr
	movx	a,@dptr
	push	acc
	inc	dptr
	movx	a,@dptr
	push	acc
	inc	dptr
	movx	a,@dptr
	mov	b,a
	pop	dpx
	pop	dph
	pop	dpl
	clr	a
	lcall	__gptrput
;	gets.c:58: return s;
	mov     dps, #1
	mov     dptr, #_gets_s_65536_61
	movx	a,@dptr
	mov	dpl,a
	inc	dptr
	movx	a,@dptr
	mov	dph,a
	inc	dptr
	movx	a,@dptr
	mov	dpx,a
	inc	dptr
	movx	a,@dptr
	mov	b,a
	mov	dps,#0
;	gets.c:60: default:
	sjmp 00111$
00106$:
;	gets.c:61: *s++ = c;
	mov	dptr,#_gets_s_65536_61
	movx	a,@dptr
	push	acc
	inc	dptr
	movx	a,@dptr
	push	acc
	inc	dptr
	movx	a,@dptr
	push	acc
	inc	dptr
	movx	a,@dptr
	mov	b,a
	pop	dpx
	pop	dph
	pop	dpl
	mov	a,r0
	lcall	__gptrput
	mov	dptr,#_gets_s_65536_61
	movx	a,@dptr
	add	a,#0x01
	movx	@dptr,a
	inc	dptr
	movx	a,@dptr
	addc	a,#0x00
	movx	@dptr,a
	inc	dptr
	movx	a,@dptr
	addc	a,#0x00
	movx	@dptr,a
	inc	dptr
	movx	a,@dptr
	movx	@dptr,a
;	gets.c:62: ++count;
	inc	r4
	cjne	r4,#0x00,00137$
	inc	r5
00137$:
;	gets.c:63: putchar (c);
	mov	dpl1,r0
	mov	dph1,#0x00
	push	ar4
	push	ar5
	mov	dpl,dpl1
	mov	dph,dph1
	lcall	_putchar
	pop	ar5
	pop	ar4
;	gets.c:65: }
	ljmp	00109$
00111$:
;	gets.c:67: }
	ret
	.area CSEG    (CODE)
	.area CONST   (CODE)
	.area XINIT   (CODE)
	.area CABS    (ABS,CODE)
