;--------------------------------------------------------
; File Created by SDCC : free open source ISO C Compiler 
; Version 4.2.14 #0 (Linux)
;--------------------------------------------------------
	.module sincosf
	.optsdcc -mds400 --model-flat24
	
;--------------------------------------------------------
; CPU specific extensions
;--------------------------------------------------------
	.DS80C390
	.amode	2	; 24 bit flat addressing
dpl	=	0x82
dph	=	0x83
dpl1	=	0x84
dph1	=	0x85
dps	=	0x86
dpx	=	0x93
dpx1	=	0x95
esp	=	0x9B
ap	=	0x9C
acc1	=	0x9C
mcnt0	=	0xD1
mcnt1	=	0xD2
ma	=	0xD3
mb	=	0xD4
mc	=	0xD5
acon	=	0x9D
mcon	=	0xC6
F1	=	0xD1	; user flag
;--------------------------------------------------------
; Public variables in this module
;--------------------------------------------------------
	.globl _sincosf
	.globl _fabsf
	.globl _sincosf_PARM_2
;--------------------------------------------------------
; special function registers
;--------------------------------------------------------
;--------------------------------------------------------
; special function bits
;--------------------------------------------------------
;--------------------------------------------------------
; overlayable register banks
;--------------------------------------------------------
	.area REG_BANK_0	(REL,OVR,DATA)
	.ds 8
	.area REG_BANK_3	(REL,OVR,DATA)
	.ds 8
;--------------------------------------------------------
; internal ram data
;--------------------------------------------------------
	.area DSEG    (DATA)
;--------------------------------------------------------
; overlayable items in internal ram
;--------------------------------------------------------
;--------------------------------------------------------
; indirectly addressable internal ram data
;--------------------------------------------------------
	.area ISEG    (DATA)
;--------------------------------------------------------
; absolute internal ram data
;--------------------------------------------------------
	.area IABS    (ABS,DATA)
	.area IABS    (ABS,DATA)
;--------------------------------------------------------
; bit data
;--------------------------------------------------------
	.area BSEG    (BIT)
;--------------------------------------------------------
; paged external ram data
;--------------------------------------------------------
	.area PSEG    (PAG,XDATA)
;--------------------------------------------------------
; uninitialized external ram data
;--------------------------------------------------------
	.area XSEG    (XDATA)
_sincosf_PARM_2:
	.ds 1
_sincosf_x_65536_25:
	.ds 4
_sincosf_g_65536_26:
	.ds 4
_sincosf_XN_65536_26:
	.ds 4
_sincosf_sign_65536_26:
	.ds 1
_sincosf_sloc0_1_0:
	.ds 4
;--------------------------------------------------------
; absolute external ram data
;--------------------------------------------------------
	.area XABS    (ABS,XDATA)
;--------------------------------------------------------
; initialized external ram data
;--------------------------------------------------------
	.area XISEG   (XDATA)
;--------------------------------------------------------
; global & static initialisations
;--------------------------------------------------------
	.area HOME    (CODE)
	.area GSINIT  (CODE)
	.area GSFINAL (CODE)
	.area GSINIT  (CODE)
;--------------------------------------------------------
; Home
;--------------------------------------------------------
	.area HOME    (CODE)
	.area HOME    (CODE)
;--------------------------------------------------------
; code
;--------------------------------------------------------
	.area CSEG    (CODE)
;------------------------------------------------------------
;Allocation info for local variables in function 'sincosf'
;------------------------------------------------------------
;iscos                     Allocated with name '_sincosf_PARM_2'
;x                         Allocated with name '_sincosf_x_65536_25'
;y                         Allocated to registers r3 r4 r5 r6 
;f                         Allocated to registers r2 r3 r4 r5 
;r                         Allocated to registers 
;g                         Allocated with name '_sincosf_g_65536_26'
;XN                        Allocated with name '_sincosf_XN_65536_26'
;N                         Allocated to registers r3 r4 
;sign                      Allocated with name '_sincosf_sign_65536_26'
;sloc0                     Allocated with name '_sincosf_sloc0_1_0'
;------------------------------------------------------------
;	sincosf.c:50: float sincosf(float x, bool iscos)
;	-----------------------------------------
;	 function sincosf
;	-----------------------------------------
_sincosf:
	ar2 = 0x02
	ar3 = 0x03
	ar4 = 0x04
	ar5 = 0x05
	ar6 = 0x06
	ar7 = 0x07
	ar0 = 0x00
	ar1 = 0x01
	mov     dps, #1
	mov     dptr, #_sincosf_x_65536_25
	mov	a,dpl
	movx	@dptr,a
	inc	dptr
	mov	a,dph
	movx	@dptr,a
	inc	dptr
	mov	a,dpx
	movx	@dptr,a
	inc	dptr
	mov	a,b
	movx	@dptr,a
	mov	dps,#0
;	sincosf.c:56: if(iscos)
	mov	dptr,#_sincosf_PARM_2
	movx	a,@dptr
	jz  00105$
00154$:
;	sincosf.c:58: y=fabsf(x)+HALF_PI;
	inc	dps
	mov	dptr,#_sincosf_x_65536_25
	movx	a,@dptr
	mov	dpl,a
	inc	dptr
	movx	a,@dptr
	mov	dph,a
	inc	dptr
	movx	a,@dptr
	mov	dpx,a
	inc	dptr
	movx	a,@dptr
	mov	b,a
	mov	dps,#0
	lcall	_fabsf
	mov	r6,dpl
	mov	r7,dph
	mov	r0,dpx
	mov	r1,b
;	genAssign: resultIsFar = TRUE
	mov	dptr,#___fsadd_PARM_2
	mov	a,#0xdb
	movx	@dptr,a
	inc	dptr
	mov	a,#0x0f
	movx	@dptr,a
	inc	dptr
	mov	a,#0xc9
	movx	@dptr,a
	inc	dptr
	mov	a,#0x3f
	movx	@dptr,a
	mov	dpl,r6
	mov	dph,r7
	mov	dpx,r0
	mov	b,r1
	lcall	___fsadd
	mov	r6,dpl
	mov	r7,dph
	mov	r0,dpx
	mov	r1,b
;	genAssign: resultIsFar = FALSE
;	sincosf.c:59: sign=0;
;	genAssign: resultIsFar = TRUE
	mov	dptr,#_sincosf_sign_65536_26
	clr	a
	movx	@dptr,a
	sjmp 00106$
00105$:
;	sincosf.c:63: if(x<0.0)
;	genAssign: resultIsFar = TRUE
	mov	dptr,#___fslt_PARM_2
	clr	a
	movx	@dptr,a
	inc	dptr
	movx	@dptr,a
	inc	dptr
	movx	@dptr,a
	inc	dptr
	movx	@dptr,a
	inc	dps
	mov	dptr,#_sincosf_x_65536_25
	movx	a,@dptr
	mov	dpl,a
	inc	dptr
	movx	a,@dptr
	mov	dph,a
	inc	dptr
	movx	a,@dptr
	mov	dpx,a
	inc	dptr
	movx	a,@dptr
	mov	b,a
	mov	dps,#0
	lcall	___fslt
	mov	a,dpl
	jz  00102$
00155$:
;	sincosf.c:64: { y=-x; sign=1; }
	mov	dptr,#_sincosf_x_65536_25
	movx	a,@dptr
	mov	r6,a
	inc	dptr
	movx	a,@dptr
	mov	r7,a
	inc	dptr
	movx	a,@dptr
	mov	r0,a
	inc	dptr
	movx	a,@dptr
	cpl	acc[7]
	mov	r1,a
;	genAssign: resultIsFar = TRUE
	mov	dptr,#_sincosf_sign_65536_26
	mov	a,#0x01
	movx	@dptr,a
	sjmp 00106$
00102$:
;	sincosf.c:66: { y=x; sign=0; }
	mov	dptr,#_sincosf_x_65536_25
;	genAssign: resultIsFar = FALSE
	movx	a,@dptr
	mov	r6,a
	inc	dptr
	movx	a,@dptr
	mov	r7,a
	inc	dptr
	movx	a,@dptr
	mov	r0,a
	inc	dptr
	movx	a,@dptr
	mov	r1,a
;	genAssign: resultIsFar = TRUE
	mov	dptr,#_sincosf_sign_65536_26
	clr	a
	movx	@dptr,a
00106$:
;	sincosf.c:69: if(y>YMAX)
;	genAssign: resultIsFar = TRUE
	mov	dptr,#___fslt_PARM_2
	mov	a,r6
	movx	@dptr,a
	inc	dptr
	mov	a,r7
	movx	@dptr,a
	inc	dptr
	mov	a,r0
	movx	@dptr,a
	inc	dptr
	mov	a,r1
	movx	@dptr,a
	push	ar6
	push	ar7
	push	ar0
	push	ar1
	mov	dptr,#0x490c00
	mov	b,#0x46
	lcall	___fslt
	pop	ar1
	pop	ar0
	pop	ar7
	pop	ar6
	mov	a,dpl
	jz  00108$
00156$:
;	sincosf.c:71: errno=ERANGE;
;	genAssign: resultIsFar = TRUE
	mov	dptr,#_errno
	mov	a,#0x22
	movx	@dptr,a
	clr	a
	inc	dptr
	movx	@dptr,a
;	sincosf.c:72: return 0.0;
	mov  dptr,#0x0000
	mov	b,#0x00
	ljmp	00115$
00108$:
;	sincosf.c:76: N=((y*iPI)+0.5); /*y is positive*/
;	genAssign: resultIsFar = TRUE
	mov	dptr,#___fsmul_PARM_2
	mov	a,r6
	movx	@dptr,a
	inc	dptr
	mov	a,r7
	movx	@dptr,a
	inc	dptr
	mov	a,r0
	movx	@dptr,a
	inc	dptr
	mov	a,r1
	movx	@dptr,a
	mov	dptr,#0xa2f983
	mov	b,#0x3e
	lcall	___fsmul
	mov	r3,dpl
	mov	r4,dph
	mov	r5,dpx
	mov	r6,b
;	genAssign: resultIsFar = TRUE
	mov	dptr,#___fsadd_PARM_2
	clr	a
	movx	@dptr,a
	inc	dptr
	clr	a
	movx	@dptr,a
	inc	dptr
	clr	a
	movx	@dptr,a
	inc	dptr
	mov	a,#0x3f
	movx	@dptr,a
	mov	dpl,r3
	mov	dph,r4
	mov	dpx,r5
	mov	b,r6
	lcall	___fsadd
	lcall	___fs2sint
	mov	r3,dpl
	mov	r4,dph
;	genAssign: resultIsFar = TRUE
;	sincosf.c:79: if(N&1) sign=!sign;
	mov	a,r3
	jnb  acc[0],00110$
00157$:
	mov	dptr,#_sincosf_sign_65536_26
	mov	dps, #1
	mov	dptr, #_sincosf_sign_65536_26
	dec	dps
	movx	a,@dptr
	cjne	a,#0x01,00158$
00158$:
	clr	a
	rlc	a
	mov	dps,#1
	movx	@dptr,a
	mov	dps,#0
00110$:
;	sincosf.c:81: XN=N;
	mov	dpl,r3
	mov	dph,r4
	lcall	___sint2fs
	mov	r3,dpl
	mov	r4,dph
	mov	r5,dpx
	mov	r6,b
;	genAssign: resultIsFar = TRUE
	mov	dptr,#_sincosf_XN_65536_26
	mov	a,r3
	movx	@dptr,a
	inc	dptr
	mov	a,r4
	movx	@dptr,a
	inc	dptr
	mov	a,r5
	movx	@dptr,a
	inc	dptr
	mov	a,r6
	movx	@dptr,a
;	sincosf.c:83: if(iscos) XN-=0.5;
	mov	dptr,#_sincosf_PARM_2
	movx	a,@dptr
	jz  00112$
00159$:
;	genAssign: resultIsFar = TRUE
	mov	dptr,#___fssub_PARM_2
	clr	a
	movx	@dptr,a
	inc	dptr
	clr	a
	movx	@dptr,a
	inc	dptr
	clr	a
	movx	@dptr,a
	inc	dptr
	mov	a,#0x3f
	movx	@dptr,a
	inc	dps
	mov	dptr,#_sincosf_XN_65536_26
	movx	a,@dptr
	mov	dpl,a
	inc	dptr
	movx	a,@dptr
	mov	dph,a
	inc	dptr
	movx	a,@dptr
	mov	dpx,a
	inc	dptr
	movx	a,@dptr
	mov	b,a
	mov	dps,#0
	lcall	___fssub
	mov	r7,dpl
	mov	r0,dph
	mov	r1,dpx
	mov	r2,b
;	genAssign: resultIsFar = TRUE
	mov	dptr,#_sincosf_XN_65536_26
	mov	a,r7
	movx	@dptr,a
	inc	dptr
	mov	a,r0
	movx	@dptr,a
	inc	dptr
	mov	a,r1
	movx	@dptr,a
	inc	dptr
	mov	a,r2
	movx	@dptr,a
00112$:
;	sincosf.c:85: y=fabsf(x);
	inc	dps
	mov	dptr,#_sincosf_x_65536_25
	movx	a,@dptr
	mov	dpl,a
	inc	dptr
	movx	a,@dptr
	mov	dph,a
	inc	dptr
	movx	a,@dptr
	mov	dpx,a
	inc	dptr
	movx	a,@dptr
	mov	b,a
	mov	dps,#0
	lcall	_fabsf
	mov	r2,dpl
	mov	r7,dph
	mov	r0,dpx
	mov	r1,b
;	genAssign: resultIsFar = FALSE
	mov	ar3,r2
	mov	ar4,r7
	mov	ar5,r0
	mov	ar6,r1
;	sincosf.c:86: r=(int)y;
	push	ar3
	push	ar4
	push	ar5
	push	ar6
	mov	dpl,r3
	mov	dph,r4
	mov	dpx,r5
	mov	b,r6
	lcall	___fs2sint
	pop	ar6
	pop	ar5
	pop	ar4
	pop	ar3
	push	ar3
	push	ar4
	push	ar5
	push	ar6
	lcall	___sint2fs
	mov	r2,dpl
	mov	r7,dph
	mov	r0,dpx
	mov	r1,b
	pop	ar6
	pop	ar5
	pop	ar4
	pop	ar3
;	genAssign: resultIsFar = FALSE
;	sincosf.c:87: g=y-r;
;	genAssign: resultIsFar = TRUE
	mov	dptr,#___fssub_PARM_2
	mov	a,r2
	movx	@dptr,a
	inc	dptr
	mov	a,r7
	movx	@dptr,a
	inc	dptr
	mov	a,r0
	movx	@dptr,a
	inc	dptr
	mov	a,r1
	movx	@dptr,a
	push	ar2
	push	ar7
	push	ar0
	push	ar1
	mov	dpl,r3
	mov	dph,r4
	mov	dpx,r5
	mov	b,r6
	lcall	___fssub
	mov	r3,dpl
	mov	r4,dph
	mov	r5,dpx
	mov	r6,b
	pop	ar1
	pop	ar0
	pop	ar7
	pop	ar2
;	genAssign: resultIsFar = TRUE
	mov	dptr,#_sincosf_sloc0_1_0
	mov	a,r3
	movx	@dptr,a
	inc	dptr
	mov	a,r4
	movx	@dptr,a
	inc	dptr
	mov	a,r5
	movx	@dptr,a
	inc	dptr
	mov	a,r6
	movx	@dptr,a
;	sincosf.c:88: f=((r-XN*C1)+g)-XN*C2;
	mov	dptr,#_sincosf_XN_65536_26
;	genAssign: resultIsFar = TRUE
	mov	dps,#0x21
	mov	dptr,#___fsmul_PARM_2
	movx	a,@dptr
	movx	@dptr,a
	inc	dptr
	inc	dptr
	movx	a,@dptr
	movx	@dptr,a
	inc	dptr
	inc	dptr
	movx	a,@dptr
	movx	@dptr,a
	inc	dptr
	inc	dptr
	movx	a,@dptr
	movx	@dptr,a
	mov	dps,#0
	push	ar2
	push	ar7
	push	ar0
	push	ar1
	mov  dptr,#0x0000
	mov	dpx,#0x49
	mov	b,#0x40
	lcall	___fsmul
	mov	r3,dpl
	mov	r4,dph
	mov	r5,dpx
	mov	r6,b
	pop	ar1
	pop	ar0
	pop	ar7
	pop	ar2
;	genAssign: resultIsFar = TRUE
	mov	dptr,#___fssub_PARM_2
	mov	a,r3
	movx	@dptr,a
	inc	dptr
	mov	a,r4
	movx	@dptr,a
	inc	dptr
	mov	a,r5
	movx	@dptr,a
	inc	dptr
	mov	a,r6
	movx	@dptr,a
	mov	dpl,r2
	mov	dph,r7
	mov	dpx,r0
	mov	b,r1
	lcall	___fssub
	mov	r2,dpl
	mov	r3,dph
	mov	r4,dpx
	mov	r5,b
	mov	dptr,#_sincosf_sloc0_1_0
;	genAssign: resultIsFar = TRUE
	mov	dps,#0x21
	mov	dptr,#___fsadd_PARM_2
	movx	a,@dptr
	movx	@dptr,a
	inc	dptr
	inc	dptr
	movx	a,@dptr
	movx	@dptr,a
	inc	dptr
	inc	dptr
	movx	a,@dptr
	movx	@dptr,a
	inc	dptr
	inc	dptr
	movx	a,@dptr
	movx	@dptr,a
	mov	dps,#0
	mov	dpl,r2
	mov	dph,r3
	mov	dpx,r4
	mov	b,r5
	lcall	___fsadd
	mov	r2,dpl
	mov	r3,dph
	mov	r4,dpx
	mov	r5,b
	mov	dptr,#_sincosf_XN_65536_26
;	genAssign: resultIsFar = TRUE
	mov	dps,#0x21
	mov	dptr,#___fsmul_PARM_2
	movx	a,@dptr
	movx	@dptr,a
	inc	dptr
	inc	dptr
	movx	a,@dptr
	movx	@dptr,a
	inc	dptr
	inc	dptr
	movx	a,@dptr
	movx	@dptr,a
	inc	dptr
	inc	dptr
	movx	a,@dptr
	movx	@dptr,a
	mov	dps,#0
	push	ar2
	push	ar3
	push	ar4
	push	ar5
	mov	dptr,#0x7daa22
	mov	b,#0x3a
	lcall	___fsmul
	mov	r6,dpl
	mov	r7,dph
	mov	r0,dpx
	mov	r1,b
	pop	ar5
	pop	ar4
	pop	ar3
	pop	ar2
;	genAssign: resultIsFar = TRUE
	mov	dptr,#___fssub_PARM_2
	mov	a,r6
	movx	@dptr,a
	inc	dptr
	mov	a,r7
	movx	@dptr,a
	inc	dptr
	mov	a,r0
	movx	@dptr,a
	inc	dptr
	mov	a,r1
	movx	@dptr,a
	mov	dpl,r2
	mov	dph,r3
	mov	dpx,r4
	mov	b,r5
	lcall	___fssub
	mov	r2,dpl
	mov	r3,dph
	mov	r4,dpx
	mov	r5,b
;	genAssign: resultIsFar = TRUE
;	sincosf.c:90: g=f*f;
;	genAssign: resultIsFar = TRUE
	mov	dptr,#___fsmul_PARM_2
	mov	a,r2
	movx	@dptr,a
	inc	dptr
	mov	a,r3
	movx	@dptr,a
	inc	dptr
	mov	a,r4
	movx	@dptr,a
	inc	dptr
	mov	a,r5
	movx	@dptr,a
	push	ar2
	push	ar3
	push	ar4
	push	ar5
	mov	dpl,r2
	mov	dph,r3
	mov	dpx,r4
	mov	b,r5
	lcall	___fsmul
	mov	r6,dpl
	mov	r7,dph
	mov	r0,dpx
	mov	r1,b
	pop	ar5
	pop	ar4
	pop	ar3
	pop	ar2
;	genAssign: resultIsFar = TRUE
	mov	dptr,#_sincosf_g_65536_26
	mov	a,r6
	movx	@dptr,a
	inc	dptr
	mov	a,r7
	movx	@dptr,a
	inc	dptr
	mov	a,r0
	movx	@dptr,a
	inc	dptr
	mov	a,r1
	movx	@dptr,a
;	sincosf.c:91: if(g>EPS2) //Used to be if(fabsf(f)>EPS)
	mov	dptr,#_sincosf_g_65536_26
;	genAssign: resultIsFar = TRUE
	mov	dps,#0x21
	mov	dptr,#___fslt_PARM_2
	movx	a,@dptr
	movx	@dptr,a
	inc	dptr
	inc	dptr
	movx	a,@dptr
	movx	@dptr,a
	inc	dptr
	inc	dptr
	movx	a,@dptr
	movx	@dptr,a
	inc	dptr
	inc	dptr
	movx	a,@dptr
	movx	@dptr,a
	mov	dps,#0
	push	ar2
	push	ar3
	push	ar4
	push	ar5
	mov	dptr,#0x7ffff3
	mov	b,#0x33
	lcall	___fslt
	pop	ar5
	pop	ar4
	pop	ar3
	pop	ar2
	mov	a,dpl
	jnz	00160$
	ljmp	00114$
00160$:
;	sincosf.c:93: r=(((r4*g+r3)*g+r2)*g+r1)*g;
	mov	dptr,#_sincosf_g_65536_26
;	genAssign: resultIsFar = TRUE
	mov	dps,#0x21
	mov	dptr,#___fsmul_PARM_2
	movx	a,@dptr
	movx	@dptr,a
	inc	dptr
	inc	dptr
	movx	a,@dptr
	movx	@dptr,a
	inc	dptr
	inc	dptr
	movx	a,@dptr
	movx	@dptr,a
	inc	dptr
	inc	dptr
	movx	a,@dptr
	movx	@dptr,a
	mov	dps,#0
	push	ar2
	push	ar3
	push	ar4
	push	ar5
	mov	dptr,#0x2e9c5b
	mov	b,#0x36
	lcall	___fsmul
	mov	r6,dpl
	mov	r7,dph
	mov	r0,dpx
	mov	r1,b
	pop	ar5
	pop	ar4
	pop	ar3
	pop	ar2
;	genAssign: resultIsFar = TRUE
	mov	dptr,#___fsadd_PARM_2
	mov	a,#0x22
	movx	@dptr,a
	inc	dptr
	mov	a,#0xb2
	movx	@dptr,a
	inc	dptr
	mov	a,#0x4f
	movx	@dptr,a
	inc	dptr
	mov	a,#0xb9
	movx	@dptr,a
	push	ar2
	push	ar3
	push	ar4
	push	ar5
	mov	dpl,r6
	mov	dph,r7
	mov	dpx,r0
	mov	b,r1
	lcall	___fsadd
	mov	r6,dpl
	mov	r7,dph
	mov	r0,dpx
	mov	r1,b
	pop	ar5
	pop	ar4
	pop	ar3
	pop	ar2
	mov	dptr,#_sincosf_g_65536_26
;	genAssign: resultIsFar = TRUE
	mov	dps,#0x21
	mov	dptr,#___fsmul_PARM_2
	movx	a,@dptr
	movx	@dptr,a
	inc	dptr
	inc	dptr
	movx	a,@dptr
	movx	@dptr,a
	inc	dptr
	inc	dptr
	movx	a,@dptr
	movx	@dptr,a
	inc	dptr
	inc	dptr
	movx	a,@dptr
	movx	@dptr,a
	mov	dps,#0
	push	ar2
	push	ar3
	push	ar4
	push	ar5
	mov	dpl,r6
	mov	dph,r7
	mov	dpx,r0
	mov	b,r1
	lcall	___fsmul
	mov	r6,dpl
	mov	r7,dph
	mov	r0,dpx
	mov	r1,b
	pop	ar5
	pop	ar4
	pop	ar3
	pop	ar2
;	genAssign: resultIsFar = TRUE
	mov	dptr,#___fsadd_PARM_2
	mov	a,#0x3e
	movx	@dptr,a
	inc	dptr
	mov	a,#0x87
	movx	@dptr,a
	inc	dptr
	mov	a,#0x08
	movx	@dptr,a
	inc	dptr
	mov	a,#0x3c
	movx	@dptr,a
	push	ar2
	push	ar3
	push	ar4
	push	ar5
	mov	dpl,r6
	mov	dph,r7
	mov	dpx,r0
	mov	b,r1
	lcall	___fsadd
	mov	r6,dpl
	mov	r7,dph
	mov	r0,dpx
	mov	r1,b
	pop	ar5
	pop	ar4
	pop	ar3
	pop	ar2
	mov	dptr,#_sincosf_g_65536_26
;	genAssign: resultIsFar = TRUE
	mov	dps,#0x21
	mov	dptr,#___fsmul_PARM_2
	movx	a,@dptr
	movx	@dptr,a
	inc	dptr
	inc	dptr
	movx	a,@dptr
	movx	@dptr,a
	inc	dptr
	inc	dptr
	movx	a,@dptr
	movx	@dptr,a
	inc	dptr
	inc	dptr
	movx	a,@dptr
	movx	@dptr,a
	mov	dps,#0
	push	ar2
	push	ar3
	push	ar4
	push	ar5
	mov	dpl,r6
	mov	dph,r7
	mov	dpx,r0
	mov	b,r1
	lcall	___fsmul
	mov	r6,dpl
	mov	r7,dph
	mov	r0,dpx
	mov	r1,b
	pop	ar5
	pop	ar4
	pop	ar3
	pop	ar2
;	genAssign: resultIsFar = TRUE
	mov	dptr,#___fsadd_PARM_2
	mov	a,#0xa4
	movx	@dptr,a
	inc	dptr
	mov	a,#0xaa
	movx	@dptr,a
	inc	dptr
	mov	a,#0x2a
	movx	@dptr,a
	inc	dptr
	mov	a,#0xbe
	movx	@dptr,a
	push	ar2
	push	ar3
	push	ar4
	push	ar5
	mov	dpl,r6
	mov	dph,r7
	mov	dpx,r0
	mov	b,r1
	lcall	___fsadd
	mov	r6,dpl
	mov	r7,dph
	mov	r0,dpx
	mov	r1,b
	pop	ar5
	pop	ar4
	pop	ar3
	pop	ar2
	mov	dptr,#_sincosf_g_65536_26
;	genAssign: resultIsFar = TRUE
	mov	dps,#0x21
	mov	dptr,#___fsmul_PARM_2
	movx	a,@dptr
	movx	@dptr,a
	inc	dptr
	inc	dptr
	movx	a,@dptr
	movx	@dptr,a
	inc	dptr
	inc	dptr
	movx	a,@dptr
	movx	@dptr,a
	inc	dptr
	inc	dptr
	movx	a,@dptr
	movx	@dptr,a
	mov	dps,#0
	push	ar2
	push	ar3
	push	ar4
	push	ar5
	mov	dpl,r6
	mov	dph,r7
	mov	dpx,r0
	mov	b,r1
	lcall	___fsmul
	mov	r6,dpl
	mov	r7,dph
	mov	r0,dpx
	mov	r1,b
	pop	ar5
	pop	ar4
	pop	ar3
	pop	ar2
;	genAssign: resultIsFar = TRUE
	mov	dptr,#___fsmul_PARM_2
	mov	a,r6
	movx	@dptr,a
	inc	dptr
	mov	a,r7
	movx	@dptr,a
	inc	dptr
	mov	a,r0
	movx	@dptr,a
	inc	dptr
	mov	a,r1
	movx	@dptr,a
;	sincosf.c:94: f+=f*r;
	push	ar2
	push	ar3
	push	ar4
	push	ar5
	mov	dpl,r2
	mov	dph,r3
	mov	dpx,r4
	mov	b,r5
	lcall	___fsmul
	mov	r6,dpl
	mov	r7,dph
	mov	r0,dpx
	mov	r1,b
	pop	ar5
	pop	ar4
	pop	ar3
	pop	ar2
;	genAssign: resultIsFar = TRUE
	mov	dptr,#___fsadd_PARM_2
	mov	a,r6
	movx	@dptr,a
	inc	dptr
	mov	a,r7
	movx	@dptr,a
	inc	dptr
	mov	a,r0
	movx	@dptr,a
	inc	dptr
	mov	a,r1
	movx	@dptr,a
	mov	dpl,r2
	mov	dph,r3
	mov	dpx,r4
	mov	b,r5
	lcall	___fsadd
	mov	r6,dpl
	mov	r7,dph
	mov	r0,dpx
	mov	r1,b
;	genAssign: resultIsFar = TRUE
	mov	ar2,r6
	mov	ar3,r7
	mov	ar4,r0
	mov	ar5,r1
00114$:
;	sincosf.c:96: return (sign?-f:f);
	mov	dptr,#_sincosf_sign_65536_26
	movx	a,@dptr
	jz  00117$
00161$:
	mov	ar6,r2
	mov	ar7,r3
	mov	ar0,r4
	mov	a,r5
	cpl	acc[7]
	mov	r1,a
	sjmp 00118$
00117$:
;	genAssign: resultIsFar = FALSE
	mov	ar6,r2
	mov	ar7,r3
	mov	ar0,r4
	mov	ar1,r5
00118$:
	mov	dpl,r6
	mov	dph,r7
	mov	dpx,r0
	mov	b,r1
00115$:
;	sincosf.c:97: }
	ret
	.area CSEG    (CODE)
	.area CONST   (CODE)
	.area XINIT   (CODE)
	.area CABS    (ABS,CODE)
