                                      1 ;--------------------------------------------------------
                                      2 ; File Created by SDCC : free open source ISO C Compiler 
                                      3 ; Version 4.2.14 #0 (Linux)
                                      4 ;--------------------------------------------------------
                                      5 	.module wctomb
                                      6 	.optsdcc -mds400 --model-flat24
                                      7 	
                                      8 ;--------------------------------------------------------
                                      9 ; CPU specific extensions
                                     10 ;--------------------------------------------------------
                                     11 	.DS80C390
                                     12 	.amode	2	; 24 bit flat addressing
                           000082    13 dpl	=	0x82
                           000083    14 dph	=	0x83
                           000084    15 dpl1	=	0x84
                           000085    16 dph1	=	0x85
                           000086    17 dps	=	0x86
                           000093    18 dpx	=	0x93
                           000095    19 dpx1	=	0x95
                           00009B    20 esp	=	0x9B
                           00009C    21 ap	=	0x9C
                           00009C    22 acc1	=	0x9C
                           0000D1    23 mcnt0	=	0xD1
                           0000D2    24 mcnt1	=	0xD2
                           0000D3    25 ma	=	0xD3
                           0000D4    26 mb	=	0xD4
                           0000D5    27 mc	=	0xD5
                           00009D    28 acon	=	0x9D
                           0000C6    29 mcon	=	0xC6
                           0000D1    30 F1	=	0xD1	; user flag
                                     31 ;--------------------------------------------------------
                                     32 ; Public variables in this module
                                     33 ;--------------------------------------------------------
                                     34 	.globl _wctomb_PARM_2
                                     35 	.globl _wctomb
                                     36 ;--------------------------------------------------------
                                     37 ; special function registers
                                     38 ;--------------------------------------------------------
                                     39 ;--------------------------------------------------------
                                     40 ; special function bits
                                     41 ;--------------------------------------------------------
                                     42 ;--------------------------------------------------------
                                     43 ; overlayable register banks
                                     44 ;--------------------------------------------------------
                                     45 	.area REG_BANK_0	(REL,OVR,DATA)
      000000                         46 	.ds 8
                                     47 	.area REG_BANK_3	(REL,OVR,DATA)
      000000                         48 	.ds 8
                                     49 ;--------------------------------------------------------
                                     50 ; internal ram data
                                     51 ;--------------------------------------------------------
                                     52 	.area DSEG    (DATA)
                                     53 ;--------------------------------------------------------
                                     54 ; overlayable items in internal ram
                                     55 ;--------------------------------------------------------
                                     56 ;--------------------------------------------------------
                                     57 ; indirectly addressable internal ram data
                                     58 ;--------------------------------------------------------
                                     59 	.area ISEG    (DATA)
                                     60 ;--------------------------------------------------------
                                     61 ; absolute internal ram data
                                     62 ;--------------------------------------------------------
                                     63 	.area IABS    (ABS,DATA)
                                     64 	.area IABS    (ABS,DATA)
                                     65 ;--------------------------------------------------------
                                     66 ; bit data
                                     67 ;--------------------------------------------------------
                                     68 	.area BSEG    (BIT)
                                     69 ;--------------------------------------------------------
                                     70 ; paged external ram data
                                     71 ;--------------------------------------------------------
                                     72 	.area PSEG    (PAG,XDATA)
                                     73 ;--------------------------------------------------------
                                     74 ; uninitialized external ram data
                                     75 ;--------------------------------------------------------
                                     76 	.area XSEG    (XDATA)
      000000                         77 _wctomb_PARM_2:
      000000                         78 	.ds 4
      000004                         79 _wctomb_s_65536_36:
      000004                         80 	.ds 4
                                     81 ;--------------------------------------------------------
                                     82 ; absolute external ram data
                                     83 ;--------------------------------------------------------
                                     84 	.area XABS    (ABS,XDATA)
                                     85 ;--------------------------------------------------------
                                     86 ; initialized external ram data
                                     87 ;--------------------------------------------------------
                                     88 	.area XISEG   (XDATA)
                                     89 ;--------------------------------------------------------
                                     90 ; global & static initialisations
                                     91 ;--------------------------------------------------------
                                     92 	.area HOME    (CODE)
                                     93 	.area GSINIT  (CODE)
                                     94 	.area GSFINAL (CODE)
                                     95 	.area GSINIT  (CODE)
                                     96 ;--------------------------------------------------------
                                     97 ; Home
                                     98 ;--------------------------------------------------------
                                     99 	.area HOME    (CODE)
                                    100 	.area HOME    (CODE)
                                    101 ;--------------------------------------------------------
                                    102 ; code
                                    103 ;--------------------------------------------------------
                                    104 	.area CSEG    (CODE)
                                    105 ;------------------------------------------------------------
                                    106 ;Allocation info for local variables in function 'wctomb'
                                    107 ;------------------------------------------------------------
                                    108 ;wc                        Allocated with name '_wctomb_PARM_2'
                                    109 ;s                         Allocated with name '_wctomb_s_65536_36'
                                    110 ;sloc0                     Allocated with name '_wctomb_sloc0_1_0'
                                    111 ;------------------------------------------------------------
                                    112 ;	wctomb.c:31: int wctomb(char *s, wchar_t wc)
                                    113 ;	-----------------------------------------
                                    114 ;	 function wctomb
                                    115 ;	-----------------------------------------
      000000                        116 _wctomb:
                           000002   117 	ar2 = 0x02
                           000003   118 	ar3 = 0x03
                           000004   119 	ar4 = 0x04
                           000005   120 	ar5 = 0x05
                           000006   121 	ar6 = 0x06
                           000007   122 	ar7 = 0x07
                           000000   123 	ar0 = 0x00
                           000001   124 	ar1 = 0x01
      000000 75 86 01         [12]  125 	mov     dps, #1
      000003 90s00r00r04      [12]  126 	mov     dptr, #_wctomb_s_65536_36
      000007 E5 82            [ 8]  127 	mov	a,dpl
      000009 F0               [ 8]  128 	movx	@dptr,a
      00000A A3               [12]  129 	inc	dptr
      00000B E5 83            [ 8]  130 	mov	a,dph
      00000D F0               [ 8]  131 	movx	@dptr,a
      00000E A3               [12]  132 	inc	dptr
      00000F E5 93            [ 8]  133 	mov	a,dpx
      000011 F0               [ 8]  134 	movx	@dptr,a
      000012 A3               [12]  135 	inc	dptr
      000013 E5 F0            [ 8]  136 	mov	a,b
      000015 F0               [ 8]  137 	movx	@dptr,a
      000016 75 86 00         [12]  138 	mov	dps,#0
                                    139 ;	wctomb.c:33: if(!s)
      000019 90s00r00r04      [12]  140 	mov	dptr,#_wctomb_s_65536_36
      00001D E0               [ 8]  141 	movx	a,@dptr
      00001E F5 F0            [ 8]  142 	mov	b,a
      000020 A3               [12]  143 	inc	dptr
      000021 E0               [ 8]  144 	movx	a,@dptr
      000022 42 F0            [ 8]  145 	orl	b,a
      000024 A3               [12]  146 	inc	dptr
      000025 E0               [ 8]  147 	movx	a,@dptr
      000026 45 F0            [ 8]  148 	orl	a,b
      000028 70 08            [12]  149 	jnz  00102$
      00002A                        150 00149$:
                                    151 ;	wctomb.c:34: return(0);
      00002A 90 00 00 00      [12]  152 	mov  dptr,#0x0000
      00002E 02s00r03r25      [16]  153 	ljmp	00119$
      000032                        154 00102$:
                                    155 ;	wctomb.c:36: if(wc < 0x80)
      000032 90s00r00r00      [12]  156 	mov	dptr,#_wctomb_PARM_2
      000036 C3               [ 4]  157 	clr	c
      000037 E0               [ 8]  158 	movx	a,@dptr
      000038 94 80            [ 8]  159 	subb	a,#0x80
      00003A A3               [12]  160 	inc	dptr
      00003B E0               [ 8]  161 	movx	a,@dptr
      00003C 94 00            [ 8]  162 	subb	a,#0x00
      00003E A3               [12]  163 	inc	dptr
      00003F E0               [ 8]  164 	movx	a,@dptr
      000040 94 00            [ 8]  165 	subb	a,#0x00
      000042 A3               [12]  166 	inc	dptr
      000043 E0               [ 8]  167 	movx	a,@dptr
      000044 94 00            [ 8]  168 	subb	a,#0x00
      000046 50 2C            [12]  169 	jnc  00117$
      000048                        170 00150$:
                                    171 ;	wctomb.c:38: s[0] = wc;
      000048 90s00r00r00      [12]  172 	mov	dptr,#_wctomb_PARM_2
      00004C E0               [ 8]  173 	movx	a,@dptr
      00004D FE               [ 4]  174 	mov	r6,a
      00004E 90s00r00r04      [12]  175 	mov	dptr,#_wctomb_s_65536_36
      000052 E0               [ 8]  176 	movx	a,@dptr
      000053 C0 E0            [ 8]  177 	push	acc
      000055 A3               [12]  178 	inc	dptr
      000056 E0               [ 8]  179 	movx	a,@dptr
      000057 C0 E0            [ 8]  180 	push	acc
      000059 A3               [12]  181 	inc	dptr
      00005A E0               [ 8]  182 	movx	a,@dptr
      00005B C0 E0            [ 8]  183 	push	acc
      00005D A3               [12]  184 	inc	dptr
      00005E E0               [ 8]  185 	movx	a,@dptr
      00005F F5 F0            [ 8]  186 	mov	b,a
      000061 D0 93            [ 8]  187 	pop	dpx
      000063 D0 83            [ 8]  188 	pop	dph
      000065 D0 82            [ 8]  189 	pop	dpl
      000067 EE               [ 4]  190 	mov	a,r6
      000068 12s00r00r00      [16]  191 	lcall	__gptrput
                                    192 ;	wctomb.c:39: return(1);
      00006C 90 00 00 01      [12]  193 	mov  dptr,#0x0001
      000070 02s00r03r25      [16]  194 	ljmp	00119$
      000074                        195 00117$:
                                    196 ;	wctomb.c:41: else if(wc < 0x800)
      000074 90s00r00r00      [12]  197 	mov	dptr,#_wctomb_PARM_2
      000078 C3               [ 4]  198 	clr	c
      000079 E0               [ 8]  199 	movx	a,@dptr
      00007A 94 00            [ 8]  200 	subb	a,#0x00
      00007C A3               [12]  201 	inc	dptr
      00007D E0               [ 8]  202 	movx	a,@dptr
      00007E 94 08            [ 8]  203 	subb	a,#0x08
      000080 A3               [12]  204 	inc	dptr
      000081 E0               [ 8]  205 	movx	a,@dptr
      000082 94 00            [ 8]  206 	subb	a,#0x00
      000084 A3               [12]  207 	inc	dptr
      000085 E0               [ 8]  208 	movx	a,@dptr
      000086 94 00            [ 8]  209 	subb	a,#0x00
      000088 50 73            [12]  210 	jnc  00114$
      00008A                        211 00151$:
                                    212 ;	wctomb.c:43: s[0] = (wc >> 6) & 0x1f | 0xc0;
      00008A 90s00r00r00      [12]  213 	mov	dptr,#_wctomb_PARM_2
      00008E E0               [ 8]  214 	movx	a,@dptr
      00008F FE               [ 4]  215 	mov	r6,a
      000090 A3               [12]  216 	inc	dptr
      000091 E0               [ 8]  217 	movx	a,@dptr
      000092 FF               [ 4]  218 	mov  r7,a
      000093 A2 E7            [ 8]  219 	mov	c,acc[7]
      000095 CE               [ 4]  220 	xch	a,r6
      000096 33               [ 4]  221 	rlc	a
      000097 CE               [ 4]  222 	xch	a,r6
      000098 33               [ 4]  223 	rlc	a
      000099 A2 E7            [ 8]  224 	mov	c,acc[7]
      00009B CE               [ 4]  225 	xch	a,r6
      00009C 33               [ 4]  226 	rlc	a
      00009D CE               [ 4]  227 	xch	a,r6
      00009E 33               [ 4]  228 	rlc	a
      00009F CE               [ 4]  229 	xch	a,r6
      0000A0 54 03            [ 8]  230 	anl	a,#0x03
      0000A2 FF               [ 4]  231 	mov	r7,a
      0000A3 53 06 1F         [12]  232 	anl	ar6,#0x1f
      0000A6 43 06 C0         [12]  233 	orl	ar6,#0xc0
      0000A9 90s00r00r04      [12]  234 	mov	dptr,#_wctomb_s_65536_36
      0000AD E0               [ 8]  235 	movx	a,@dptr
      0000AE C0 E0            [ 8]  236 	push	acc
      0000B0 A3               [12]  237 	inc	dptr
      0000B1 E0               [ 8]  238 	movx	a,@dptr
      0000B2 C0 E0            [ 8]  239 	push	acc
      0000B4 A3               [12]  240 	inc	dptr
      0000B5 E0               [ 8]  241 	movx	a,@dptr
      0000B6 C0 E0            [ 8]  242 	push	acc
      0000B8 A3               [12]  243 	inc	dptr
      0000B9 E0               [ 8]  244 	movx	a,@dptr
      0000BA F5 F0            [ 8]  245 	mov	b,a
      0000BC D0 93            [ 8]  246 	pop	dpx
      0000BE D0 83            [ 8]  247 	pop	dph
      0000C0 D0 82            [ 8]  248 	pop	dpl
      0000C2 EE               [ 4]  249 	mov	a,r6
      0000C3 12s00r00r00      [16]  250 	lcall	__gptrput
                                    251 ;	wctomb.c:44: s[1] = (wc >> 0) & 0x3f | 0x80;
      0000C7 90s00r00r04      [12]  252 	mov	dptr,#_wctomb_s_65536_36
      0000CB E0               [ 8]  253 	movx	a,@dptr
      0000CC 24 01            [ 8]  254 	add	a,#0x01
      0000CE FA               [ 4]  255 	mov	r2,a
      0000CF A3               [12]  256 	inc	dptr
      0000D0 E0               [ 8]  257 	movx	a,@dptr
      0000D1 34 00            [ 8]  258 	addc	a,#0x00
      0000D3 FB               [ 4]  259 	mov	r3,a
      0000D4 A3               [12]  260 	inc	dptr
      0000D5 E0               [ 8]  261 	movx	a,@dptr
      0000D6 34 00            [ 8]  262 	addc	a,#0x00
      0000D8 FC               [ 4]  263 	mov	r4,a
      0000D9 A3               [12]  264 	inc	dptr
      0000DA E0               [ 8]  265 	movx	a,@dptr
      0000DB FD               [ 4]  266 	mov	r5,a
      0000DC 90s00r00r00      [12]  267 	mov	dptr,#_wctomb_PARM_2
      0000E0 E0               [ 8]  268 	movx	a,@dptr
      0000E1 FE               [ 4]  269 	mov	r6,a
      0000E2 53 06 3F         [12]  270 	anl	ar6,#0x3f
      0000E5 43 06 80         [12]  271 	orl	ar6,#0x80
      0000E8 8A 82            [ 8]  272 	mov	dpl,r2
      0000EA 8B 83            [ 8]  273 	mov	dph,r3
      0000EC 8C 93            [ 8]  274 	mov	dpx,r4
      0000EE 8D F0            [ 8]  275 	mov	b,r5
      0000F0 EE               [ 4]  276 	mov	a,r6
      0000F1 12s00r00r00      [16]  277 	lcall	__gptrput
                                    278 ;	wctomb.c:45: return(2);
      0000F5 90 00 00 02      [12]  279 	mov  dptr,#0x0002
      0000F9 02s00r03r25      [16]  280 	ljmp	00119$
      0000FD                        281 00114$:
                                    282 ;	wctomb.c:47: else if(wc >= 0xd800 && wc < 0xe000) // Unpaired surrogate
      0000FD 90s00r00r00      [12]  283 	mov	dptr,#_wctomb_PARM_2
      000101 C3               [ 4]  284 	clr	c
      000102 E0               [ 8]  285 	movx	a,@dptr
      000103 94 00            [ 8]  286 	subb	a,#0x00
      000105 A3               [12]  287 	inc	dptr
      000106 E0               [ 8]  288 	movx	a,@dptr
      000107 94 D8            [ 8]  289 	subb	a,#0xd8
      000109 A3               [12]  290 	inc	dptr
      00010A E0               [ 8]  291 	movx	a,@dptr
      00010B 94 00            [ 8]  292 	subb	a,#0x00
      00010D A3               [12]  293 	inc	dptr
      00010E E0               [ 8]  294 	movx	a,@dptr
      00010F 94 00            [ 8]  295 	subb	a,#0x00
      000111 40 1E            [12]  296 	jc   00110$
      000113                        297 00152$:
      000113 90s00r00r00      [12]  298 	mov	dptr,#_wctomb_PARM_2
      000117 C3               [ 4]  299 	clr	c
      000118 E0               [ 8]  300 	movx	a,@dptr
      000119 94 00            [ 8]  301 	subb	a,#0x00
      00011B A3               [12]  302 	inc	dptr
      00011C E0               [ 8]  303 	movx	a,@dptr
      00011D 94 E0            [ 8]  304 	subb	a,#0xe0
      00011F A3               [12]  305 	inc	dptr
      000120 E0               [ 8]  306 	movx	a,@dptr
      000121 94 00            [ 8]  307 	subb	a,#0x00
      000123 A3               [12]  308 	inc	dptr
      000124 E0               [ 8]  309 	movx	a,@dptr
      000125 94 00            [ 8]  310 	subb	a,#0x00
      000127 50 08            [12]  311 	jnc  00110$
      000129                        312 00153$:
                                    313 ;	wctomb.c:48: return(-1);
      000129 90 00 FF FF      [12]  314 	mov  dptr,#0xffff
      00012D 02s00r03r25      [16]  315 	ljmp	00119$
      000131                        316 00110$:
                                    317 ;	wctomb.c:49: else if(wc < 0x10000)
      000131 90s00r00r00      [12]  318 	mov	dptr,#_wctomb_PARM_2
      000135 C3               [ 4]  319 	clr	c
      000136 E0               [ 8]  320 	movx	a,@dptr
      000137 94 00            [ 8]  321 	subb	a,#0x00
      000139 A3               [12]  322 	inc	dptr
      00013A E0               [ 8]  323 	movx	a,@dptr
      00013B 94 00            [ 8]  324 	subb	a,#0x00
      00013D A3               [12]  325 	inc	dptr
      00013E E0               [ 8]  326 	movx	a,@dptr
      00013F 94 01            [ 8]  327 	subb	a,#0x01
      000141 A3               [12]  328 	inc	dptr
      000142 E0               [ 8]  329 	movx	a,@dptr
      000143 94 00            [ 8]  330 	subb	a,#0x00
      000145 40 04            [12]  331 	jc	00154$
      000147 02s00r02r0A      [16]  332 	ljmp	00107$
      00014B                        333 00154$:
                                    334 ;	wctomb.c:51: s[0] = (wc >> 12) & 0x0f | 0xe0;
      00014B 90s00r00r00      [12]  335 	mov	dptr,#_wctomb_PARM_2
      00014F A3               [12]  336 	inc	dptr
      000150 E0               [ 8]  337 	movx	a,@dptr
      000151 FE               [ 4]  338 	mov	r6,a
      000152 A3               [12]  339 	inc	dptr
      000153 E0               [ 8]  340 	movx	a,@dptr
      000154 C4               [ 4]  341 	swap	a
      000155 CE               [ 4]  342 	xch	a,r6
      000156 C4               [ 4]  343 	swap	a
      000157 54 0F            [ 8]  344 	anl	a,#0x0f
      000159 6E               [ 4]  345 	xrl	a,r6
      00015A CE               [ 4]  346 	xch	a,r6
      00015B 54 0F            [ 8]  347 	anl	a,#0x0f
      00015D CE               [ 4]  348 	xch	a,r6
      00015E 6E               [ 4]  349 	xrl	a,r6
      00015F CE               [ 4]  350 	xch	a,r6
      000160 FF               [ 4]  351 	mov	r7,a
      000161 A3               [12]  352 	inc	dptr
      000162 E0               [ 8]  353 	movx	a,@dptr
      000163 C4               [ 4]  354 	swap	a
      000164 54 F0            [ 8]  355 	anl	a,#0xf0
      000166 4F               [ 4]  356 	orl	a,r7
      000167 FF               [ 4]  357 	mov	r7,a
      000168 E0               [ 8]  358 	movx	a,@dptr
      000169 C4               [ 4]  359 	swap	a
      00016A 54 0F            [ 8]  360 	anl	a,#0x0f
      00016C F8               [ 4]  361 	mov	r0,a
      00016D 79 00            [ 8]  362 	mov	r1,#0x00
      00016F 53 06 0F         [12]  363 	anl	ar6,#0x0f
      000172 43 06 E0         [12]  364 	orl	ar6,#0xe0
      000175 90s00r00r04      [12]  365 	mov	dptr,#_wctomb_s_65536_36
      000179 E0               [ 8]  366 	movx	a,@dptr
      00017A C0 E0            [ 8]  367 	push	acc
      00017C A3               [12]  368 	inc	dptr
      00017D E0               [ 8]  369 	movx	a,@dptr
      00017E C0 E0            [ 8]  370 	push	acc
      000180 A3               [12]  371 	inc	dptr
      000181 E0               [ 8]  372 	movx	a,@dptr
      000182 C0 E0            [ 8]  373 	push	acc
      000184 A3               [12]  374 	inc	dptr
      000185 E0               [ 8]  375 	movx	a,@dptr
      000186 F5 F0            [ 8]  376 	mov	b,a
      000188 D0 93            [ 8]  377 	pop	dpx
      00018A D0 83            [ 8]  378 	pop	dph
      00018C D0 82            [ 8]  379 	pop	dpl
      00018E EE               [ 4]  380 	mov	a,r6
      00018F 12s00r00r00      [16]  381 	lcall	__gptrput
                                    382 ;	wctomb.c:52: s[1] = (wc >> 6) & 0x3f  | 0x80;
      000193 90s00r00r04      [12]  383 	mov	dptr,#_wctomb_s_65536_36
      000197 E0               [ 8]  384 	movx	a,@dptr
      000198 24 01            [ 8]  385 	add	a,#0x01
      00019A FE               [ 4]  386 	mov	r6,a
      00019B A3               [12]  387 	inc	dptr
      00019C E0               [ 8]  388 	movx	a,@dptr
      00019D 34 00            [ 8]  389 	addc	a,#0x00
      00019F FF               [ 4]  390 	mov	r7,a
      0001A0 A3               [12]  391 	inc	dptr
      0001A1 E0               [ 8]  392 	movx	a,@dptr
      0001A2 34 00            [ 8]  393 	addc	a,#0x00
      0001A4 F8               [ 4]  394 	mov	r0,a
      0001A5 A3               [12]  395 	inc	dptr
      0001A6 E0               [ 8]  396 	movx	a,@dptr
      0001A7 F9               [ 4]  397 	mov	r1,a
      0001A8 90s00r00r00      [12]  398 	mov	dptr,#_wctomb_PARM_2
      0001AC E0               [ 8]  399 	movx	a,@dptr
      0001AD FA               [ 4]  400 	mov	r2,a
      0001AE A3               [12]  401 	inc	dptr
      0001AF E0               [ 8]  402 	movx	a,@dptr
      0001B0 FB               [ 4]  403 	mov  r3,a
      0001B1 A2 E7            [ 8]  404 	mov	c,acc[7]
      0001B3 CA               [ 4]  405 	xch	a,r2
      0001B4 33               [ 4]  406 	rlc	a
      0001B5 CA               [ 4]  407 	xch	a,r2
      0001B6 33               [ 4]  408 	rlc	a
      0001B7 A2 E7            [ 8]  409 	mov	c,acc[7]
      0001B9 CA               [ 4]  410 	xch	a,r2
      0001BA 33               [ 4]  411 	rlc	a
      0001BB CA               [ 4]  412 	xch	a,r2
      0001BC 33               [ 4]  413 	rlc	a
      0001BD CA               [ 4]  414 	xch	a,r2
      0001BE 54 03            [ 8]  415 	anl	a,#0x03
      0001C0 FB               [ 4]  416 	mov	r3,a
      0001C1 53 02 3F         [12]  417 	anl	ar2,#0x3f
      0001C4 43 02 80         [12]  418 	orl	ar2,#0x80
      0001C7 8E 82            [ 8]  419 	mov	dpl,r6
      0001C9 8F 83            [ 8]  420 	mov	dph,r7
      0001CB 88 93            [ 8]  421 	mov	dpx,r0
      0001CD 89 F0            [ 8]  422 	mov	b,r1
      0001CF EA               [ 4]  423 	mov	a,r2
      0001D0 12s00r00r00      [16]  424 	lcall	__gptrput
                                    425 ;	wctomb.c:53: s[2] = (wc >> 0) & 0x3f  | 0x80;
      0001D4 90s00r00r04      [12]  426 	mov	dptr,#_wctomb_s_65536_36
      0001D8 E0               [ 8]  427 	movx	a,@dptr
      0001D9 24 02            [ 8]  428 	add	a,#0x02
      0001DB FA               [ 4]  429 	mov	r2,a
      0001DC A3               [12]  430 	inc	dptr
      0001DD E0               [ 8]  431 	movx	a,@dptr
      0001DE 34 00            [ 8]  432 	addc	a,#0x00
      0001E0 FB               [ 4]  433 	mov	r3,a
      0001E1 A3               [12]  434 	inc	dptr
      0001E2 E0               [ 8]  435 	movx	a,@dptr
      0001E3 34 00            [ 8]  436 	addc	a,#0x00
      0001E5 FC               [ 4]  437 	mov	r4,a
      0001E6 A3               [12]  438 	inc	dptr
      0001E7 E0               [ 8]  439 	movx	a,@dptr
      0001E8 FD               [ 4]  440 	mov	r5,a
      0001E9 90s00r00r00      [12]  441 	mov	dptr,#_wctomb_PARM_2
      0001ED E0               [ 8]  442 	movx	a,@dptr
      0001EE FE               [ 4]  443 	mov	r6,a
      0001EF 53 06 3F         [12]  444 	anl	ar6,#0x3f
      0001F2 43 06 80         [12]  445 	orl	ar6,#0x80
      0001F5 8A 82            [ 8]  446 	mov	dpl,r2
      0001F7 8B 83            [ 8]  447 	mov	dph,r3
      0001F9 8C 93            [ 8]  448 	mov	dpx,r4
      0001FB 8D F0            [ 8]  449 	mov	b,r5
      0001FD EE               [ 4]  450 	mov	a,r6
      0001FE 12s00r00r00      [16]  451 	lcall	__gptrput
                                    452 ;	wctomb.c:54: return(3);
      000202 90 00 00 03      [12]  453 	mov  dptr,#0x0003
      000206 02s00r03r25      [16]  454 	ljmp	00119$
      00020A                        455 00107$:
                                    456 ;	wctomb.c:56: else if(wc < 0x110000)
      00020A 90s00r00r00      [12]  457 	mov	dptr,#_wctomb_PARM_2
      00020E C3               [ 4]  458 	clr	c
      00020F E0               [ 8]  459 	movx	a,@dptr
      000210 94 00            [ 8]  460 	subb	a,#0x00
      000212 A3               [12]  461 	inc	dptr
      000213 E0               [ 8]  462 	movx	a,@dptr
      000214 94 00            [ 8]  463 	subb	a,#0x00
      000216 A3               [12]  464 	inc	dptr
      000217 E0               [ 8]  465 	movx	a,@dptr
      000218 94 11            [ 8]  466 	subb	a,#0x11
      00021A A3               [12]  467 	inc	dptr
      00021B E0               [ 8]  468 	movx	a,@dptr
      00021C 94 00            [ 8]  469 	subb	a,#0x00
      00021E 40 04            [12]  470 	jc	00155$
      000220 02s00r03r21      [16]  471 	ljmp	00104$
      000224                        472 00155$:
                                    473 ;	wctomb.c:58: s[0] = (wc >> 18) & 0x07 | 0xf0;
      000224 90s00r00r00      [12]  474 	mov	dptr,#_wctomb_PARM_2
      000228 A3               [12]  475 	inc	dptr
      000229 A3               [12]  476 	inc	dptr
      00022A E0               [ 8]  477 	movx	a,@dptr
      00022B FA               [ 4]  478 	mov	r2,a
      00022C A3               [12]  479 	inc	dptr
      00022D E0               [ 8]  480 	movx	a,@dptr
      00022E C3               [ 4]  481 	clr	c
      00022F 13               [ 4]  482 	rrc	a
      000230 CA               [ 4]  483 	xch	a,r2
      000231 13               [ 4]  484 	rrc	a
      000232 CA               [ 4]  485 	xch	a,r2
      000233 C3               [ 4]  486 	clr	c
      000234 13               [ 4]  487 	rrc	a
      000235 CA               [ 4]  488 	xch	a,r2
      000236 13               [ 4]  489 	rrc	a
      000237 CA               [ 4]  490 	xch	a,r2
      000238 FB               [ 4]  491 	mov	r3,a
      000239 7C 00            [ 8]  492 	mov	r4,#0x00
      00023B 7D 00            [ 8]  493 	mov	r5,#0x00
      00023D 53 02 07         [12]  494 	anl	ar2,#0x07
      000240 43 02 F0         [12]  495 	orl	ar2,#0xf0
      000243 90s00r00r04      [12]  496 	mov	dptr,#_wctomb_s_65536_36
      000247 E0               [ 8]  497 	movx	a,@dptr
      000248 C0 E0            [ 8]  498 	push	acc
      00024A A3               [12]  499 	inc	dptr
      00024B E0               [ 8]  500 	movx	a,@dptr
      00024C C0 E0            [ 8]  501 	push	acc
      00024E A3               [12]  502 	inc	dptr
      00024F E0               [ 8]  503 	movx	a,@dptr
      000250 C0 E0            [ 8]  504 	push	acc
      000252 A3               [12]  505 	inc	dptr
      000253 E0               [ 8]  506 	movx	a,@dptr
      000254 F5 F0            [ 8]  507 	mov	b,a
      000256 D0 93            [ 8]  508 	pop	dpx
      000258 D0 83            [ 8]  509 	pop	dph
      00025A D0 82            [ 8]  510 	pop	dpl
      00025C EA               [ 4]  511 	mov	a,r2
      00025D 12s00r00r00      [16]  512 	lcall	__gptrput
                                    513 ;	wctomb.c:59: s[1] = (wc >> 12) & 0x3f | 0x80;
      000261 90s00r00r04      [12]  514 	mov	dptr,#_wctomb_s_65536_36
      000265 E0               [ 8]  515 	movx	a,@dptr
      000266 24 01            [ 8]  516 	add	a,#0x01
      000268 FA               [ 4]  517 	mov	r2,a
      000269 A3               [12]  518 	inc	dptr
      00026A E0               [ 8]  519 	movx	a,@dptr
      00026B 34 00            [ 8]  520 	addc	a,#0x00
      00026D FB               [ 4]  521 	mov	r3,a
      00026E A3               [12]  522 	inc	dptr
      00026F E0               [ 8]  523 	movx	a,@dptr
      000270 34 00            [ 8]  524 	addc	a,#0x00
      000272 FC               [ 4]  525 	mov	r4,a
      000273 A3               [12]  526 	inc	dptr
      000274 E0               [ 8]  527 	movx	a,@dptr
      000275 FD               [ 4]  528 	mov	r5,a
      000276 90s00r00r00      [12]  529 	mov	dptr,#_wctomb_PARM_2
      00027A A3               [12]  530 	inc	dptr
      00027B E0               [ 8]  531 	movx	a,@dptr
      00027C FE               [ 4]  532 	mov	r6,a
      00027D A3               [12]  533 	inc	dptr
      00027E E0               [ 8]  534 	movx	a,@dptr
      00027F C4               [ 4]  535 	swap	a
      000280 CE               [ 4]  536 	xch	a,r6
      000281 C4               [ 4]  537 	swap	a
      000282 54 0F            [ 8]  538 	anl	a,#0x0f
      000284 6E               [ 4]  539 	xrl	a,r6
      000285 CE               [ 4]  540 	xch	a,r6
      000286 54 0F            [ 8]  541 	anl	a,#0x0f
      000288 CE               [ 4]  542 	xch	a,r6
      000289 6E               [ 4]  543 	xrl	a,r6
      00028A CE               [ 4]  544 	xch	a,r6
      00028B FF               [ 4]  545 	mov	r7,a
      00028C A3               [12]  546 	inc	dptr
      00028D E0               [ 8]  547 	movx	a,@dptr
      00028E C4               [ 4]  548 	swap	a
      00028F 54 F0            [ 8]  549 	anl	a,#0xf0
      000291 4F               [ 4]  550 	orl	a,r7
      000292 FF               [ 4]  551 	mov	r7,a
      000293 E0               [ 8]  552 	movx	a,@dptr
      000294 C4               [ 4]  553 	swap	a
      000295 54 0F            [ 8]  554 	anl	a,#0x0f
      000297 F8               [ 4]  555 	mov	r0,a
      000298 79 00            [ 8]  556 	mov	r1,#0x00
      00029A 53 06 3F         [12]  557 	anl	ar6,#0x3f
      00029D 43 06 80         [12]  558 	orl	ar6,#0x80
      0002A0 8A 82            [ 8]  559 	mov	dpl,r2
      0002A2 8B 83            [ 8]  560 	mov	dph,r3
      0002A4 8C 93            [ 8]  561 	mov	dpx,r4
      0002A6 8D F0            [ 8]  562 	mov	b,r5
      0002A8 EE               [ 4]  563 	mov	a,r6
      0002A9 12s00r00r00      [16]  564 	lcall	__gptrput
                                    565 ;	wctomb.c:60: s[2] = (wc >> 6) & 0x3f  | 0x80;
      0002AD 90s00r00r04      [12]  566 	mov	dptr,#_wctomb_s_65536_36
      0002B1 E0               [ 8]  567 	movx	a,@dptr
      0002B2 24 02            [ 8]  568 	add	a,#0x02
      0002B4 FA               [ 4]  569 	mov	r2,a
      0002B5 A3               [12]  570 	inc	dptr
      0002B6 E0               [ 8]  571 	movx	a,@dptr
      0002B7 34 00            [ 8]  572 	addc	a,#0x00
      0002B9 FB               [ 4]  573 	mov	r3,a
      0002BA A3               [12]  574 	inc	dptr
      0002BB E0               [ 8]  575 	movx	a,@dptr
      0002BC 34 00            [ 8]  576 	addc	a,#0x00
      0002BE FC               [ 4]  577 	mov	r4,a
      0002BF A3               [12]  578 	inc	dptr
      0002C0 E0               [ 8]  579 	movx	a,@dptr
      0002C1 FD               [ 4]  580 	mov	r5,a
      0002C2 90s00r00r00      [12]  581 	mov	dptr,#_wctomb_PARM_2
      0002C6 E0               [ 8]  582 	movx	a,@dptr
      0002C7 FE               [ 4]  583 	mov	r6,a
      0002C8 A3               [12]  584 	inc	dptr
      0002C9 E0               [ 8]  585 	movx	a,@dptr
      0002CA FF               [ 4]  586 	mov  r7,a
      0002CB A2 E7            [ 8]  587 	mov	c,acc[7]
      0002CD CE               [ 4]  588 	xch	a,r6
      0002CE 33               [ 4]  589 	rlc	a
      0002CF CE               [ 4]  590 	xch	a,r6
      0002D0 33               [ 4]  591 	rlc	a
      0002D1 A2 E7            [ 8]  592 	mov	c,acc[7]
      0002D3 CE               [ 4]  593 	xch	a,r6
      0002D4 33               [ 4]  594 	rlc	a
      0002D5 CE               [ 4]  595 	xch	a,r6
      0002D6 33               [ 4]  596 	rlc	a
      0002D7 CE               [ 4]  597 	xch	a,r6
      0002D8 54 03            [ 8]  598 	anl	a,#0x03
      0002DA FF               [ 4]  599 	mov	r7,a
      0002DB 53 06 3F         [12]  600 	anl	ar6,#0x3f
      0002DE 43 06 80         [12]  601 	orl	ar6,#0x80
      0002E1 8A 82            [ 8]  602 	mov	dpl,r2
      0002E3 8B 83            [ 8]  603 	mov	dph,r3
      0002E5 8C 93            [ 8]  604 	mov	dpx,r4
      0002E7 8D F0            [ 8]  605 	mov	b,r5
      0002E9 EE               [ 4]  606 	mov	a,r6
      0002EA 12s00r00r00      [16]  607 	lcall	__gptrput
                                    608 ;	wctomb.c:61: s[3] = (wc >> 0) & 0x3f  | 0x80;
      0002EE 90s00r00r04      [12]  609 	mov	dptr,#_wctomb_s_65536_36
      0002F2 E0               [ 8]  610 	movx	a,@dptr
      0002F3 24 03            [ 8]  611 	add	a,#0x03
      0002F5 FA               [ 4]  612 	mov	r2,a
      0002F6 A3               [12]  613 	inc	dptr
      0002F7 E0               [ 8]  614 	movx	a,@dptr
      0002F8 34 00            [ 8]  615 	addc	a,#0x00
      0002FA FB               [ 4]  616 	mov	r3,a
      0002FB A3               [12]  617 	inc	dptr
      0002FC E0               [ 8]  618 	movx	a,@dptr
      0002FD 34 00            [ 8]  619 	addc	a,#0x00
      0002FF FC               [ 4]  620 	mov	r4,a
      000300 A3               [12]  621 	inc	dptr
      000301 E0               [ 8]  622 	movx	a,@dptr
      000302 FD               [ 4]  623 	mov	r5,a
      000303 90s00r00r00      [12]  624 	mov	dptr,#_wctomb_PARM_2
      000307 E0               [ 8]  625 	movx	a,@dptr
      000308 FE               [ 4]  626 	mov	r6,a
      000309 53 06 3F         [12]  627 	anl	ar6,#0x3f
      00030C 43 06 80         [12]  628 	orl	ar6,#0x80
      00030F 8A 82            [ 8]  629 	mov	dpl,r2
      000311 8B 83            [ 8]  630 	mov	dph,r3
      000313 8C 93            [ 8]  631 	mov	dpx,r4
      000315 8D F0            [ 8]  632 	mov	b,r5
      000317 EE               [ 4]  633 	mov	a,r6
      000318 12s00r00r00      [16]  634 	lcall	__gptrput
                                    635 ;	wctomb.c:62: return(4);
      00031C 90 00 00 04      [12]  636 	mov  dptr,#0x0004
                                    637 ;	wctomb.c:65: return(-1);
                                    638 ;	wctomb.c:66: }
      000320 22               [16]  639 	ret
      000321                        640 00104$:
      000321 90 00 FF FF      [12]  641 	mov     dptr,#0xffff
      000325                        642 00119$:
      000325 22               [16]  643 	ret
                                    644 	.area CSEG    (CODE)
                                    645 	.area CONST   (CODE)
                                    646 	.area XINIT   (CODE)
                                    647 	.area CABS    (ABS,CODE)
