                              1 ;--------------------------------------------------------
                              2 ; File Created by SDCC : free open source ISO C Compiler 
                              3 ; Version 4.2.14 #0 (Linux)
                              4 ;--------------------------------------------------------
                              5 	.module atan2f
                              6 	.optsdcc -mhc08
                              7 	
                              8 	.area HOME    (CODE)
                              9 	.area GSINIT0 (CODE)
                             10 	.area GSINIT  (CODE)
                             11 	.area GSFINAL (CODE)
                             12 	.area CSEG    (CODE)
                             13 	.area XINIT   (CODE)
                             14 	.area CONST   (CODE)
                             15 	.area DSEG    (PAG)
                             16 	.area OSEG    (PAG, OVR)
                             17 	.area XSEG
                             18 	.area XISEG
                             19 ;--------------------------------------------------------
                             20 ; Public variables in this module
                             21 ;--------------------------------------------------------
                             22 	.globl _fabsf
                             23 	.globl _atanf
                             24 	.globl _atan2f_PARM_2
                             25 	.globl _atan2f_PARM_1
                             26 	.globl _atan2f
                             27 ;--------------------------------------------------------
                             28 ; ram data
                             29 ;--------------------------------------------------------
                             30 	.area DSEG    (PAG)
   0000                      31 _atan2f_sloc0_1_0:
   0000                      32 	.ds 4
   0004                      33 _atan2f_sloc1_1_0:
   0004                      34 	.ds 4
   0008                      35 _atan2f_sloc2_1_0:
   0008                      36 	.ds 1
                             37 ;--------------------------------------------------------
                             38 ; overlayable items in ram
                             39 ;--------------------------------------------------------
                             40 ;--------------------------------------------------------
                             41 ; absolute ram data
                             42 ;--------------------------------------------------------
                             43 	.area IABS    (ABS)
                             44 	.area IABS    (ABS)
                             45 ;--------------------------------------------------------
                             46 ; absolute external ram data
                             47 ;--------------------------------------------------------
                             48 	.area XABS    (ABS)
                             49 ;--------------------------------------------------------
                             50 ; initialized external ram data
                             51 ;--------------------------------------------------------
                             52 	.area XISEG
                             53 ;--------------------------------------------------------
                             54 ; extended address mode data
                             55 ;--------------------------------------------------------
                             56 	.area XSEG
   0000                      57 _atan2f_PARM_1:
   0000                      58 	.ds 4
   0004                      59 _atan2f_PARM_2:
   0004                      60 	.ds 4
   0008                      61 _atan2f_r_65536_26:
   0008                      62 	.ds 4
                             63 ;--------------------------------------------------------
                             64 ; global & static initialisations
                             65 ;--------------------------------------------------------
                             66 	.area HOME    (CODE)
                             67 	.area GSINIT  (CODE)
                             68 	.area GSFINAL (CODE)
                             69 	.area GSINIT  (CODE)
                             70 ;--------------------------------------------------------
                             71 ; Home
                             72 ;--------------------------------------------------------
                             73 	.area HOME    (CODE)
                             74 	.area HOME    (CODE)
                             75 ;--------------------------------------------------------
                             76 ; code
                             77 ;--------------------------------------------------------
                             78 	.area CSEG    (CODE)
                             79 ;------------------------------------------------------------
                             80 ;Allocation info for local variables in function 'atan2f'
                             81 ;------------------------------------------------------------
                             82 ;sloc0                     Allocated with name '_atan2f_sloc0_1_0'
                             83 ;sloc1                     Allocated with name '_atan2f_sloc1_1_0'
                             84 ;sloc2                     Allocated with name '_atan2f_sloc2_1_0'
                             85 ;x                         Allocated with name '_atan2f_PARM_1'
                             86 ;y                         Allocated with name '_atan2f_PARM_2'
                             87 ;r                         Allocated with name '_atan2f_r_65536_26'
                             88 ;------------------------------------------------------------
                             89 ;../atan2f.c:34: float atan2f(float x, float y)
                             90 ;	-----------------------------------------
                             91 ;	 function atan2f
                             92 ;	-----------------------------------------
                             93 ;	Register assignment is optimal.
                             94 ;	Stack space usage: 0 bytes.
   0000                      95 _atan2f:
                             96 ;../atan2f.c:38: if ((x==0.0) && (y==0.0))
   0000 C6r00r00      [ 4]   97 	lda	_atan2f_PARM_1
   0003 A4 7F         [ 2]   98 	and	#0x7F
   0005 CAr00r01      [ 4]   99 	ora	(_atan2f_PARM_1 + 1)
   0008 CAr00r02      [ 4]  100 	ora	(_atan2f_PARM_1 + 2)
   000B CAr00r03      [ 4]  101 	ora	(_atan2f_PARM_1 + 3)
   000E 26 20         [ 3]  102 	bne	00102$
   0010 C6r00r04      [ 4]  103 	lda	_atan2f_PARM_2
   0013 A4 7F         [ 2]  104 	and	#0x7F
   0015 CAr00r05      [ 4]  105 	ora	(_atan2f_PARM_2 + 1)
   0018 CAr00r06      [ 4]  106 	ora	(_atan2f_PARM_2 + 2)
   001B CAr00r07      [ 4]  107 	ora	(_atan2f_PARM_2 + 3)
   001E 26 10         [ 3]  108 	bne	00102$
                            109 ;../atan2f.c:40: errno=EDOM;
   0020 4F            [ 1]  110 	clra
   0021 C7r00r00      [ 4]  111 	sta	_errno
   0024 A6 21         [ 2]  112 	lda	#0x21
   0026 C7r00r01      [ 4]  113 	sta	(_errno + 1)
                            114 ;../atan2f.c:41: return 0.0;
   0029 4F            [ 1]  115 	clra
   002A 97            [ 1]  116 	tax
   002B B7*00         [ 3]  117 	sta	*___SDCC_hc08_ret2
   002D B7*00         [ 3]  118 	sta	*___SDCC_hc08_ret3
   002F 81            [ 4]  119 	rts
   0030                     120 00102$:
                            121 ;../atan2f.c:44: if(fabsf(y)>=fabsf(x))
   0030 C6r00r07      [ 4]  122 	lda	(_atan2f_PARM_2 + 3)
   0033 87            [ 2]  123 	psha
   0034 C6r00r06      [ 4]  124 	lda	(_atan2f_PARM_2 + 2)
   0037 87            [ 2]  125 	psha
   0038 C6r00r05      [ 4]  126 	lda	(_atan2f_PARM_2 + 1)
   003B 87            [ 2]  127 	psha
   003C C6r00r04      [ 4]  128 	lda	_atan2f_PARM_2
   003F 87            [ 2]  129 	psha
   0040 CDr00r00      [ 5]  130 	jsr	_fabsf
   0043 B7*03         [ 3]  131 	sta	*(_atan2f_sloc0_1_0 + 3)
   0045 BF*02         [ 3]  132 	stx	*(_atan2f_sloc0_1_0 + 2)
   0047 4E*00*01      [ 5]  133 	mov	*___SDCC_hc08_ret2,*(_atan2f_sloc0_1_0 + 1)
   004A 4E*00*00      [ 5]  134 	mov	*___SDCC_hc08_ret3,*_atan2f_sloc0_1_0
   004D A7 04         [ 2]  135 	ais	#4
   004F C6r00r03      [ 4]  136 	lda	(_atan2f_PARM_1 + 3)
   0052 87            [ 2]  137 	psha
   0053 C6r00r02      [ 4]  138 	lda	(_atan2f_PARM_1 + 2)
   0056 87            [ 2]  139 	psha
   0057 C6r00r01      [ 4]  140 	lda	(_atan2f_PARM_1 + 1)
   005A 87            [ 2]  141 	psha
   005B C6r00r00      [ 4]  142 	lda	_atan2f_PARM_1
   005E 87            [ 2]  143 	psha
   005F CDr00r00      [ 5]  144 	jsr	_fabsf
   0062 B7*07         [ 3]  145 	sta	*(_atan2f_sloc1_1_0 + 3)
   0064 BF*06         [ 3]  146 	stx	*(_atan2f_sloc1_1_0 + 2)
   0066 4E*00*05      [ 5]  147 	mov	*___SDCC_hc08_ret2,*(_atan2f_sloc1_1_0 + 1)
   0069 4E*00*04      [ 5]  148 	mov	*___SDCC_hc08_ret3,*_atan2f_sloc1_1_0
   006C A7 04         [ 2]  149 	ais	#4
                            150 ;../atan2f.c:47: if(y<0.0) r+=(x>=0?PI:-PI);
   006E 45r00r00      [ 3]  151 	ldhx	#___fslt_PARM_1
   0071 C6r00r00      [ 4]  152 	lda	_atan2f_PARM_1
   0074 F7            [ 2]  153 	sta	,x
   0075 C6r00r01      [ 4]  154 	lda	(_atan2f_PARM_1 + 1)
   0078 E7 01         [ 3]  155 	sta	1,x
   007A C6r00r02      [ 4]  156 	lda	(_atan2f_PARM_1 + 2)
   007D E7 02         [ 3]  157 	sta	2,x
   007F C6r00r03      [ 4]  158 	lda	(_atan2f_PARM_1 + 3)
   0082 E7 03         [ 3]  159 	sta	3,x
   0084 45r00r00      [ 3]  160 	ldhx	#___fslt_PARM_2
   0087 4F            [ 1]  161 	clra
   0088 F7            [ 2]  162 	sta	,x
   0089 E7 01         [ 3]  163 	sta	1,x
   008B E7 02         [ 3]  164 	sta	2,x
   008D E7 03         [ 3]  165 	sta	3,x
                            166 ;../atan2f.c:44: if(fabsf(y)>=fabsf(x))
   008F CDr00r00      [ 5]  167 	jsr	___fslt
   0092 B7*08         [ 3]  168 	sta	*_atan2f_sloc2_1_0
   0094 45r00r00      [ 3]  169 	ldhx	#___fslt_PARM_1
   0097 5E*00         [ 4]  170 	mov	*_atan2f_sloc0_1_0,x+
   0099 5E*01         [ 4]  171 	mov	*(_atan2f_sloc0_1_0 + 1),x+
   009B 5E*02         [ 4]  172 	mov	*(_atan2f_sloc0_1_0 + 2),x+
   009D 5E*03         [ 4]  173 	mov	*(_atan2f_sloc0_1_0 + 3),x+
   009F 45r00r00      [ 3]  174 	ldhx	#___fslt_PARM_2
   00A2 5E*04         [ 4]  175 	mov	*_atan2f_sloc1_1_0,x+
   00A4 5E*05         [ 4]  176 	mov	*(_atan2f_sloc1_1_0 + 1),x+
   00A6 5E*06         [ 4]  177 	mov	*(_atan2f_sloc1_1_0 + 2),x+
   00A8 5E*07         [ 4]  178 	mov	*(_atan2f_sloc1_1_0 + 3),x+
   00AA CDr00r00      [ 5]  179 	jsr	___fslt
   00AD 4D            [ 1]  180 	tsta
   00AE 27 03         [ 3]  181 	beq	00147$
   00B0 CCr01r82      [ 3]  182 	jmp	00107$
   00B3                     183 00147$:
                            184 ;../atan2f.c:46: r=atanf(x/y);
   00B3 45r00r00      [ 3]  185 	ldhx	#___fsdiv_PARM_1
   00B6 C6r00r00      [ 4]  186 	lda	_atan2f_PARM_1
   00B9 F7            [ 2]  187 	sta	,x
   00BA C6r00r01      [ 4]  188 	lda	(_atan2f_PARM_1 + 1)
   00BD E7 01         [ 3]  189 	sta	1,x
   00BF C6r00r02      [ 4]  190 	lda	(_atan2f_PARM_1 + 2)
   00C2 E7 02         [ 3]  191 	sta	2,x
   00C4 C6r00r03      [ 4]  192 	lda	(_atan2f_PARM_1 + 3)
   00C7 E7 03         [ 3]  193 	sta	3,x
   00C9 45r00r00      [ 3]  194 	ldhx	#___fsdiv_PARM_2
   00CC C6r00r04      [ 4]  195 	lda	_atan2f_PARM_2
   00CF F7            [ 2]  196 	sta	,x
   00D0 C6r00r05      [ 4]  197 	lda	(_atan2f_PARM_2 + 1)
   00D3 E7 01         [ 3]  198 	sta	1,x
   00D5 C6r00r06      [ 4]  199 	lda	(_atan2f_PARM_2 + 2)
   00D8 E7 02         [ 3]  200 	sta	2,x
   00DA C6r00r07      [ 4]  201 	lda	(_atan2f_PARM_2 + 3)
   00DD E7 03         [ 3]  202 	sta	3,x
   00DF CDr00r00      [ 5]  203 	jsr	___fsdiv
   00E2 B7*07         [ 3]  204 	sta	*(_atan2f_sloc1_1_0 + 3)
   00E4 BF*06         [ 3]  205 	stx	*(_atan2f_sloc1_1_0 + 2)
   00E6 4E*00*05      [ 5]  206 	mov	*___SDCC_hc08_ret2,*(_atan2f_sloc1_1_0 + 1)
   00E9 4E*00*04      [ 5]  207 	mov	*___SDCC_hc08_ret3,*_atan2f_sloc1_1_0
   00EC B6*07         [ 3]  208 	lda	*(_atan2f_sloc1_1_0 + 3)
   00EE 87            [ 2]  209 	psha
   00EF B6*06         [ 3]  210 	lda	*(_atan2f_sloc1_1_0 + 2)
   00F1 87            [ 2]  211 	psha
   00F2 B6*05         [ 3]  212 	lda	*(_atan2f_sloc1_1_0 + 1)
   00F4 87            [ 2]  213 	psha
   00F5 B6*04         [ 3]  214 	lda	*_atan2f_sloc1_1_0
   00F7 87            [ 2]  215 	psha
   00F8 CDr00r00      [ 5]  216 	jsr	_atanf
   00FB B7*07         [ 3]  217 	sta	*(_atan2f_sloc1_1_0 + 3)
   00FD BF*06         [ 3]  218 	stx	*(_atan2f_sloc1_1_0 + 2)
   00FF 4E*00*05      [ 5]  219 	mov	*___SDCC_hc08_ret2,*(_atan2f_sloc1_1_0 + 1)
   0102 4E*00*04      [ 5]  220 	mov	*___SDCC_hc08_ret3,*_atan2f_sloc1_1_0
   0105 A7 04         [ 2]  221 	ais	#4
   0107 45r00r08      [ 3]  222 	ldhx	#_atan2f_r_65536_26
   010A 5E*04         [ 4]  223 	mov	*_atan2f_sloc1_1_0,x+
   010C 5E*05         [ 4]  224 	mov	*(_atan2f_sloc1_1_0 + 1),x+
   010E 5E*06         [ 4]  225 	mov	*(_atan2f_sloc1_1_0 + 2),x+
   0110 5E*07         [ 4]  226 	mov	*(_atan2f_sloc1_1_0 + 3),x+
                            227 ;../atan2f.c:47: if(y<0.0) r+=(x>=0?PI:-PI);
   0112 45r00r00      [ 3]  228 	ldhx	#___fslt_PARM_1
   0115 C6r00r04      [ 4]  229 	lda	_atan2f_PARM_2
   0118 F7            [ 2]  230 	sta	,x
   0119 C6r00r05      [ 4]  231 	lda	(_atan2f_PARM_2 + 1)
   011C E7 01         [ 3]  232 	sta	1,x
   011E C6r00r06      [ 4]  233 	lda	(_atan2f_PARM_2 + 2)
   0121 E7 02         [ 3]  234 	sta	2,x
   0123 C6r00r07      [ 4]  235 	lda	(_atan2f_PARM_2 + 3)
   0126 E7 03         [ 3]  236 	sta	3,x
   0128 45r00r00      [ 3]  237 	ldhx	#___fslt_PARM_2
   012B 4F            [ 1]  238 	clra
   012C F7            [ 2]  239 	sta	,x
   012D E7 01         [ 3]  240 	sta	1,x
   012F E7 02         [ 3]  241 	sta	2,x
   0131 E7 03         [ 3]  242 	sta	3,x
   0133 CDr00r00      [ 5]  243 	jsr	___fslt
   0136 4D            [ 1]  244 	tsta
   0137 26 03         [ 3]  245 	bne	00148$
   0139 CCr02r1F      [ 3]  246 	jmp	00108$
   013C                     247 00148$:
   013C 3D*08         [ 3]  248 	tst	*_atan2f_sloc2_1_0
   013E 26 0C         [ 3]  249 	bne	00111$
   0140 45 40 49      [ 3]  250 	ldhx	#0x4049
   0143 35*00         [ 4]  251 	sthx	*_atan2f_sloc0_1_0
   0145 45 0F DB      [ 3]  252 	ldhx	#0x0fdb
   0148 35*02         [ 4]  253 	sthx	*(_atan2f_sloc0_1_0 + 2)
   014A 20 0A         [ 3]  254 	bra	00112$
   014C                     255 00111$:
   014C 45 C0 49      [ 3]  256 	ldhx	#0xc049
   014F 35*00         [ 4]  257 	sthx	*_atan2f_sloc0_1_0
   0151 45 0F DB      [ 3]  258 	ldhx	#0x0fdb
   0154 35*02         [ 4]  259 	sthx	*(_atan2f_sloc0_1_0 + 2)
   0156                     260 00112$:
   0156 45r00r00      [ 3]  261 	ldhx	#___fsadd_PARM_1
   0159 5E*04         [ 4]  262 	mov	*_atan2f_sloc1_1_0,x+
   015B 5E*05         [ 4]  263 	mov	*(_atan2f_sloc1_1_0 + 1),x+
   015D 5E*06         [ 4]  264 	mov	*(_atan2f_sloc1_1_0 + 2),x+
   015F 5E*07         [ 4]  265 	mov	*(_atan2f_sloc1_1_0 + 3),x+
   0161 45r00r00      [ 3]  266 	ldhx	#___fsadd_PARM_2
   0164 5E*00         [ 4]  267 	mov	*_atan2f_sloc0_1_0,x+
   0166 5E*01         [ 4]  268 	mov	*(_atan2f_sloc0_1_0 + 1),x+
   0168 5E*02         [ 4]  269 	mov	*(_atan2f_sloc0_1_0 + 2),x+
   016A 5E*03         [ 4]  270 	mov	*(_atan2f_sloc0_1_0 + 3),x+
   016C CDr00r00      [ 5]  271 	jsr	___fsadd
   016F C7r00r0B      [ 4]  272 	sta	(_atan2f_r_65536_26 + 3)
   0172 CFr00r0A      [ 4]  273 	stx	(_atan2f_r_65536_26 + 2)
   0175 B6*00         [ 3]  274 	lda	*___SDCC_hc08_ret2
   0177 C7r00r09      [ 4]  275 	sta	(_atan2f_r_65536_26 + 1)
   017A B6*00         [ 3]  276 	lda	*___SDCC_hc08_ret3
   017C C7r00r08      [ 4]  277 	sta	_atan2f_r_65536_26
   017F CCr02r1F      [ 3]  278 	jmp	00108$
   0182                     279 00107$:
                            280 ;../atan2f.c:51: r=-atanf(y/x);
   0182 45r00r00      [ 3]  281 	ldhx	#___fsdiv_PARM_1
   0185 C6r00r04      [ 4]  282 	lda	_atan2f_PARM_2
   0188 F7            [ 2]  283 	sta	,x
   0189 C6r00r05      [ 4]  284 	lda	(_atan2f_PARM_2 + 1)
   018C E7 01         [ 3]  285 	sta	1,x
   018E C6r00r06      [ 4]  286 	lda	(_atan2f_PARM_2 + 2)
   0191 E7 02         [ 3]  287 	sta	2,x
   0193 C6r00r07      [ 4]  288 	lda	(_atan2f_PARM_2 + 3)
   0196 E7 03         [ 3]  289 	sta	3,x
   0198 45r00r00      [ 3]  290 	ldhx	#___fsdiv_PARM_2
   019B C6r00r00      [ 4]  291 	lda	_atan2f_PARM_1
   019E F7            [ 2]  292 	sta	,x
   019F C6r00r01      [ 4]  293 	lda	(_atan2f_PARM_1 + 1)
   01A2 E7 01         [ 3]  294 	sta	1,x
   01A4 C6r00r02      [ 4]  295 	lda	(_atan2f_PARM_1 + 2)
   01A7 E7 02         [ 3]  296 	sta	2,x
   01A9 C6r00r03      [ 4]  297 	lda	(_atan2f_PARM_1 + 3)
   01AC E7 03         [ 3]  298 	sta	3,x
   01AE CDr00r00      [ 5]  299 	jsr	___fsdiv
   01B1 B7*07         [ 3]  300 	sta	*(_atan2f_sloc1_1_0 + 3)
   01B3 BF*06         [ 3]  301 	stx	*(_atan2f_sloc1_1_0 + 2)
   01B5 4E*00*05      [ 5]  302 	mov	*___SDCC_hc08_ret2,*(_atan2f_sloc1_1_0 + 1)
   01B8 4E*00*04      [ 5]  303 	mov	*___SDCC_hc08_ret3,*_atan2f_sloc1_1_0
   01BB B6*07         [ 3]  304 	lda	*(_atan2f_sloc1_1_0 + 3)
   01BD 87            [ 2]  305 	psha
   01BE B6*06         [ 3]  306 	lda	*(_atan2f_sloc1_1_0 + 2)
   01C0 87            [ 2]  307 	psha
   01C1 B6*05         [ 3]  308 	lda	*(_atan2f_sloc1_1_0 + 1)
   01C3 87            [ 2]  309 	psha
   01C4 B6*04         [ 3]  310 	lda	*_atan2f_sloc1_1_0
   01C6 87            [ 2]  311 	psha
   01C7 CDr00r00      [ 5]  312 	jsr	_atanf
   01CA B7*07         [ 3]  313 	sta	*(_atan2f_sloc1_1_0 + 3)
   01CC BF*06         [ 3]  314 	stx	*(_atan2f_sloc1_1_0 + 2)
   01CE 4E*00*05      [ 5]  315 	mov	*___SDCC_hc08_ret2,*(_atan2f_sloc1_1_0 + 1)
   01D1 4E*00*04      [ 5]  316 	mov	*___SDCC_hc08_ret3,*_atan2f_sloc1_1_0
   01D4 A7 04         [ 2]  317 	ais	#4
   01D6 B6*04         [ 3]  318 	lda	*_atan2f_sloc1_1_0
   01D8 A8 80         [ 2]  319 	eor	#0x80
   01DA B7*04         [ 3]  320 	sta	*_atan2f_sloc1_1_0
                            321 ;../atan2f.c:52: r+=(x<0.0?-HALF_PI:HALF_PI);
   01DC B6*08         [ 3]  322 	lda	*_atan2f_sloc2_1_0
   01DE 27 0C         [ 3]  323 	beq	00113$
   01E0 45 BF C9      [ 3]  324 	ldhx	#0xbfc9
   01E3 35*00         [ 4]  325 	sthx	*_atan2f_sloc0_1_0
   01E5 45 0F DB      [ 3]  326 	ldhx	#0x0fdb
   01E8 35*02         [ 4]  327 	sthx	*(_atan2f_sloc0_1_0 + 2)
   01EA 20 0A         [ 3]  328 	bra	00114$
   01EC                     329 00113$:
   01EC 45 3F C9      [ 3]  330 	ldhx	#0x3fc9
   01EF 35*00         [ 4]  331 	sthx	*_atan2f_sloc0_1_0
   01F1 45 0F DB      [ 3]  332 	ldhx	#0x0fdb
   01F4 35*02         [ 4]  333 	sthx	*(_atan2f_sloc0_1_0 + 2)
   01F6                     334 00114$:
   01F6 45r00r00      [ 3]  335 	ldhx	#___fsadd_PARM_1
   01F9 5E*04         [ 4]  336 	mov	*_atan2f_sloc1_1_0,x+
   01FB 5E*05         [ 4]  337 	mov	*(_atan2f_sloc1_1_0 + 1),x+
   01FD 5E*06         [ 4]  338 	mov	*(_atan2f_sloc1_1_0 + 2),x+
   01FF 5E*07         [ 4]  339 	mov	*(_atan2f_sloc1_1_0 + 3),x+
   0201 45r00r00      [ 3]  340 	ldhx	#___fsadd_PARM_2
   0204 5E*00         [ 4]  341 	mov	*_atan2f_sloc0_1_0,x+
   0206 5E*01         [ 4]  342 	mov	*(_atan2f_sloc0_1_0 + 1),x+
   0208 5E*02         [ 4]  343 	mov	*(_atan2f_sloc0_1_0 + 2),x+
   020A 5E*03         [ 4]  344 	mov	*(_atan2f_sloc0_1_0 + 3),x+
   020C CDr00r00      [ 5]  345 	jsr	___fsadd
   020F C7r00r0B      [ 4]  346 	sta	(_atan2f_r_65536_26 + 3)
   0212 CFr00r0A      [ 4]  347 	stx	(_atan2f_r_65536_26 + 2)
   0215 B6*00         [ 3]  348 	lda	*___SDCC_hc08_ret2
   0217 C7r00r09      [ 4]  349 	sta	(_atan2f_r_65536_26 + 1)
   021A B6*00         [ 3]  350 	lda	*___SDCC_hc08_ret3
   021C C7r00r08      [ 4]  351 	sta	_atan2f_r_65536_26
   021F                     352 00108$:
                            353 ;../atan2f.c:54: return r;
   021F C6r00r08      [ 4]  354 	lda	_atan2f_r_65536_26
   0222 B7*00         [ 3]  355 	sta	*___SDCC_hc08_ret3
   0224 C6r00r09      [ 4]  356 	lda	(_atan2f_r_65536_26 + 1)
   0227 B7*00         [ 3]  357 	sta	*___SDCC_hc08_ret2
   0229 CEr00r0A      [ 4]  358 	ldx	(_atan2f_r_65536_26 + 2)
   022C C6r00r0B      [ 4]  359 	lda	(_atan2f_r_65536_26 + 3)
                            360 ;../atan2f.c:55: }
   022F 81            [ 4]  361 	rts
                            362 	.area CSEG    (CODE)
                            363 	.area CONST   (CODE)
                            364 	.area XINIT   (CODE)
                            365 	.area CABS    (ABS,CODE)
