                              1 ;--------------------------------------------------------
                              2 ; File Created by SDCC : free open source ISO C Compiler 
                              3 ; Version 4.2.14 #0 (Linux)
                              4 ;--------------------------------------------------------
                              5 	.module sincosf
                              6 	.optsdcc -mhc08
                              7 	
                              8 	.area HOME    (CODE)
                              9 	.area GSINIT0 (CODE)
                             10 	.area GSINIT  (CODE)
                             11 	.area GSFINAL (CODE)
                             12 	.area CSEG    (CODE)
                             13 	.area XINIT   (CODE)
                             14 	.area CONST   (CODE)
                             15 	.area DSEG    (PAG)
                             16 	.area OSEG    (PAG, OVR)
                             17 	.area XSEG
                             18 	.area XISEG
                             19 ;--------------------------------------------------------
                             20 ; Public variables in this module
                             21 ;--------------------------------------------------------
                             22 	.globl _sincosf
                             23 	.globl _fabsf
                             24 	.globl _sincosf_PARM_2
                             25 	.globl _sincosf_PARM_1
                             26 ;--------------------------------------------------------
                             27 ; ram data
                             28 ;--------------------------------------------------------
                             29 	.area DSEG    (PAG)
   0000                      30 _sincosf_sloc0_1_0:
   0000                      31 	.ds 4
   0004                      32 _sincosf_sloc1_1_0:
   0004                      33 	.ds 4
                             34 ;--------------------------------------------------------
                             35 ; overlayable items in ram
                             36 ;--------------------------------------------------------
                             37 ;--------------------------------------------------------
                             38 ; absolute ram data
                             39 ;--------------------------------------------------------
                             40 	.area IABS    (ABS)
                             41 	.area IABS    (ABS)
                             42 ;--------------------------------------------------------
                             43 ; absolute external ram data
                             44 ;--------------------------------------------------------
                             45 	.area XABS    (ABS)
                             46 ;--------------------------------------------------------
                             47 ; initialized external ram data
                             48 ;--------------------------------------------------------
                             49 	.area XISEG
                             50 ;--------------------------------------------------------
                             51 ; extended address mode data
                             52 ;--------------------------------------------------------
                             53 	.area XSEG
   0000                      54 _sincosf_PARM_1:
   0000                      55 	.ds 4
   0004                      56 _sincosf_PARM_2:
   0004                      57 	.ds 1
   0005                      58 _sincosf_y_65536_26:
   0005                      59 	.ds 4
   0009                      60 _sincosf_f_65536_26:
   0009                      61 	.ds 4
   000D                      62 _sincosf_XN_65536_26:
   000D                      63 	.ds 4
   0011                      64 _sincosf_sign_65536_26:
   0011                      65 	.ds 1
                             66 ;--------------------------------------------------------
                             67 ; global & static initialisations
                             68 ;--------------------------------------------------------
                             69 	.area HOME    (CODE)
                             70 	.area GSINIT  (CODE)
                             71 	.area GSFINAL (CODE)
                             72 	.area GSINIT  (CODE)
                             73 ;--------------------------------------------------------
                             74 ; Home
                             75 ;--------------------------------------------------------
                             76 	.area HOME    (CODE)
                             77 	.area HOME    (CODE)
                             78 ;--------------------------------------------------------
                             79 ; code
                             80 ;--------------------------------------------------------
                             81 	.area CSEG    (CODE)
                             82 ;------------------------------------------------------------
                             83 ;Allocation info for local variables in function 'sincosf'
                             84 ;------------------------------------------------------------
                             85 ;sloc0                     Allocated with name '_sincosf_sloc0_1_0'
                             86 ;sloc1                     Allocated with name '_sincosf_sloc1_1_0'
                             87 ;x                         Allocated with name '_sincosf_PARM_1'
                             88 ;iscos                     Allocated with name '_sincosf_PARM_2'
                             89 ;y                         Allocated with name '_sincosf_y_65536_26'
                             90 ;f                         Allocated with name '_sincosf_f_65536_26'
                             91 ;r                         Allocated with name '_sincosf_r_65536_26'
                             92 ;g                         Allocated with name '_sincosf_g_65536_26'
                             93 ;XN                        Allocated with name '_sincosf_XN_65536_26'
                             94 ;N                         Allocated to registers a x 
                             95 ;sign                      Allocated with name '_sincosf_sign_65536_26'
                             96 ;------------------------------------------------------------
                             97 ;../sincosf.c:50: float sincosf(float x, bool iscos)
                             98 ;	-----------------------------------------
                             99 ;	 function sincosf
                            100 ;	-----------------------------------------
                            101 ;	Register assignment is optimal.
                            102 ;	Stack space usage: 0 bytes.
   0000                     103 _sincosf:
                            104 ;../sincosf.c:56: if(iscos)
   0000 C6r00r04      [ 4]  105 	lda	_sincosf_PARM_2
   0003 27 50         [ 3]  106 	beq	00105$
                            107 ;../sincosf.c:58: y=fabsf(x)+HALF_PI;
   0005 C6r00r03      [ 4]  108 	lda	(_sincosf_PARM_1 + 3)
   0008 87            [ 2]  109 	psha
   0009 C6r00r02      [ 4]  110 	lda	(_sincosf_PARM_1 + 2)
   000C 87            [ 2]  111 	psha
   000D C6r00r01      [ 4]  112 	lda	(_sincosf_PARM_1 + 1)
   0010 87            [ 2]  113 	psha
   0011 C6r00r00      [ 4]  114 	lda	_sincosf_PARM_1
   0014 87            [ 2]  115 	psha
   0015 CDr00r00      [ 5]  116 	jsr	_fabsf
   0018 C7r00r03      [ 4]  117 	sta	(___fsadd_PARM_1 + 3)
   001B CFr00r02      [ 4]  118 	stx	(___fsadd_PARM_1 + 2)
   001E B6*00         [ 3]  119 	lda	*___SDCC_hc08_ret2
   0020 C7r00r01      [ 4]  120 	sta	(___fsadd_PARM_1 + 1)
   0023 B6*00         [ 3]  121 	lda	*___SDCC_hc08_ret3
   0025 C7r00r00      [ 4]  122 	sta	___fsadd_PARM_1
   0028 A7 04         [ 2]  123 	ais	#4
   002A 45r00r00      [ 3]  124 	ldhx	#___fsadd_PARM_2
   002D A6 3F         [ 2]  125 	lda	#0x3f
   002F F7            [ 2]  126 	sta	,x
   0030 A6 C9         [ 2]  127 	lda	#0xc9
   0032 E7 01         [ 3]  128 	sta	1,x
   0034 A6 0F         [ 2]  129 	lda	#0x0f
   0036 E7 02         [ 3]  130 	sta	2,x
   0038 A6 DB         [ 2]  131 	lda	#0xdb
   003A E7 03         [ 3]  132 	sta	3,x
   003C CDr00r00      [ 5]  133 	jsr	___fsadd
   003F C7r00r08      [ 4]  134 	sta	(_sincosf_y_65536_26 + 3)
   0042 CFr00r07      [ 4]  135 	stx	(_sincosf_y_65536_26 + 2)
   0045 B6*00         [ 3]  136 	lda	*___SDCC_hc08_ret2
   0047 C7r00r06      [ 4]  137 	sta	(_sincosf_y_65536_26 + 1)
   004A B6*00         [ 3]  138 	lda	*___SDCC_hc08_ret3
   004C C7r00r05      [ 4]  139 	sta	_sincosf_y_65536_26
                            140 ;../sincosf.c:59: sign=0;
   004F 4F            [ 1]  141 	clra
   0050 C7r00r11      [ 4]  142 	sta	_sincosf_sign_65536_26
   0053 20 62         [ 3]  143 	bra	00106$
   0055                     144 00105$:
                            145 ;../sincosf.c:63: if(x<0.0)
   0055 45r00r00      [ 3]  146 	ldhx	#___fslt_PARM_1
   0058 C6r00r00      [ 4]  147 	lda	_sincosf_PARM_1
   005B F7            [ 2]  148 	sta	,x
   005C C6r00r01      [ 4]  149 	lda	(_sincosf_PARM_1 + 1)
   005F E7 01         [ 3]  150 	sta	1,x
   0061 C6r00r02      [ 4]  151 	lda	(_sincosf_PARM_1 + 2)
   0064 E7 02         [ 3]  152 	sta	2,x
   0066 C6r00r03      [ 4]  153 	lda	(_sincosf_PARM_1 + 3)
   0069 E7 03         [ 3]  154 	sta	3,x
   006B 45r00r00      [ 3]  155 	ldhx	#___fslt_PARM_2
   006E 4F            [ 1]  156 	clra
   006F F7            [ 2]  157 	sta	,x
   0070 E7 01         [ 3]  158 	sta	1,x
   0072 E7 02         [ 3]  159 	sta	2,x
   0074 E7 03         [ 3]  160 	sta	3,x
   0076 CDr00r00      [ 5]  161 	jsr	___fslt
   0079 4D            [ 1]  162 	tsta
   007A 27 21         [ 3]  163 	beq	00102$
                            164 ;../sincosf.c:64: { y=-x; sign=1; }
   007C C6r00r03      [ 4]  165 	lda	(_sincosf_PARM_1 + 3)
   007F C7r00r08      [ 4]  166 	sta	(_sincosf_y_65536_26 + 3)
   0082 C6r00r02      [ 4]  167 	lda	(_sincosf_PARM_1 + 2)
   0085 C7r00r07      [ 4]  168 	sta	(_sincosf_y_65536_26 + 2)
   0088 C6r00r01      [ 4]  169 	lda	(_sincosf_PARM_1 + 1)
   008B C7r00r06      [ 4]  170 	sta	(_sincosf_y_65536_26 + 1)
   008E C6r00r00      [ 4]  171 	lda	_sincosf_PARM_1
   0091 A8 80         [ 2]  172 	eor	#0x80
   0093 C7r00r05      [ 4]  173 	sta	_sincosf_y_65536_26
   0096 A6 01         [ 2]  174 	lda	#0x01
   0098 C7r00r11      [ 4]  175 	sta	_sincosf_sign_65536_26
   009B 20 1A         [ 3]  176 	bra	00106$
   009D                     177 00102$:
                            178 ;../sincosf.c:66: { y=x; sign=0; }
   009D 45r00r05      [ 3]  179 	ldhx	#_sincosf_y_65536_26
   00A0 C6r00r00      [ 4]  180 	lda	_sincosf_PARM_1
   00A3 F7            [ 2]  181 	sta	,x
   00A4 C6r00r01      [ 4]  182 	lda	(_sincosf_PARM_1 + 1)
   00A7 E7 01         [ 3]  183 	sta	1,x
   00A9 C6r00r02      [ 4]  184 	lda	(_sincosf_PARM_1 + 2)
   00AC E7 02         [ 3]  185 	sta	2,x
   00AE C6r00r03      [ 4]  186 	lda	(_sincosf_PARM_1 + 3)
   00B1 E7 03         [ 3]  187 	sta	3,x
   00B3 4F            [ 1]  188 	clra
   00B4 C7r00r11      [ 4]  189 	sta	_sincosf_sign_65536_26
   00B7                     190 00106$:
                            191 ;../sincosf.c:69: if(y>YMAX)
   00B7 45r00r00      [ 3]  192 	ldhx	#___fslt_PARM_1
   00BA A6 46         [ 2]  193 	lda	#0x46
   00BC F7            [ 2]  194 	sta	,x
   00BD A6 49         [ 2]  195 	lda	#0x49
   00BF E7 01         [ 3]  196 	sta	1,x
   00C1 A6 0C         [ 2]  197 	lda	#0x0c
   00C3 E7 02         [ 3]  198 	sta	2,x
   00C5 4F            [ 1]  199 	clra
   00C6 E7 03         [ 3]  200 	sta	3,x
   00C8 45r00r00      [ 3]  201 	ldhx	#___fslt_PARM_2
   00CB C6r00r05      [ 4]  202 	lda	_sincosf_y_65536_26
   00CE F7            [ 2]  203 	sta	,x
   00CF C6r00r06      [ 4]  204 	lda	(_sincosf_y_65536_26 + 1)
   00D2 E7 01         [ 3]  205 	sta	1,x
   00D4 C6r00r07      [ 4]  206 	lda	(_sincosf_y_65536_26 + 2)
   00D7 E7 02         [ 3]  207 	sta	2,x
   00D9 C6r00r08      [ 4]  208 	lda	(_sincosf_y_65536_26 + 3)
   00DC E7 03         [ 3]  209 	sta	3,x
   00DE CDr00r00      [ 5]  210 	jsr	___fslt
   00E1 4D            [ 1]  211 	tsta
   00E2 27 10         [ 3]  212 	beq	00108$
                            213 ;../sincosf.c:71: errno=ERANGE;
   00E4 4F            [ 1]  214 	clra
   00E5 C7r00r00      [ 4]  215 	sta	_errno
   00E8 A6 22         [ 2]  216 	lda	#0x22
   00EA C7r00r01      [ 4]  217 	sta	(_errno + 1)
                            218 ;../sincosf.c:72: return 0.0;
   00ED 4F            [ 1]  219 	clra
   00EE 97            [ 1]  220 	tax
   00EF B7*00         [ 3]  221 	sta	*___SDCC_hc08_ret2
   00F1 B7*00         [ 3]  222 	sta	*___SDCC_hc08_ret3
   00F3 81            [ 4]  223 	rts
   00F4                     224 00108$:
                            225 ;../sincosf.c:76: N=((y*iPI)+0.5); /*y is positive*/
   00F4 45r00r00      [ 3]  226 	ldhx	#___fsmul_PARM_1
   00F7 A6 3E         [ 2]  227 	lda	#0x3e
   00F9 F7            [ 2]  228 	sta	,x
   00FA A6 A2         [ 2]  229 	lda	#0xa2
   00FC E7 01         [ 3]  230 	sta	1,x
   00FE A6 F9         [ 2]  231 	lda	#0xf9
   0100 E7 02         [ 3]  232 	sta	2,x
   0102 A6 83         [ 2]  233 	lda	#0x83
   0104 E7 03         [ 3]  234 	sta	3,x
   0106 45r00r00      [ 3]  235 	ldhx	#___fsmul_PARM_2
   0109 C6r00r05      [ 4]  236 	lda	_sincosf_y_65536_26
   010C F7            [ 2]  237 	sta	,x
   010D C6r00r06      [ 4]  238 	lda	(_sincosf_y_65536_26 + 1)
   0110 E7 01         [ 3]  239 	sta	1,x
   0112 C6r00r07      [ 4]  240 	lda	(_sincosf_y_65536_26 + 2)
   0115 E7 02         [ 3]  241 	sta	2,x
   0117 C6r00r08      [ 4]  242 	lda	(_sincosf_y_65536_26 + 3)
   011A E7 03         [ 3]  243 	sta	3,x
   011C CDr00r00      [ 5]  244 	jsr	___fsmul
   011F C7r00r03      [ 4]  245 	sta	(___fsadd_PARM_1 + 3)
   0122 CFr00r02      [ 4]  246 	stx	(___fsadd_PARM_1 + 2)
   0125 B6*00         [ 3]  247 	lda	*___SDCC_hc08_ret2
   0127 C7r00r01      [ 4]  248 	sta	(___fsadd_PARM_1 + 1)
   012A B6*00         [ 3]  249 	lda	*___SDCC_hc08_ret3
   012C C7r00r00      [ 4]  250 	sta	___fsadd_PARM_1
   012F 45r00r00      [ 3]  251 	ldhx	#___fsadd_PARM_2
   0132 4F            [ 1]  252 	clra
   0133 E7 01         [ 3]  253 	sta	1,x
   0135 E7 02         [ 3]  254 	sta	2,x
   0137 E7 03         [ 3]  255 	sta	3,x
   0139 A6 3F         [ 2]  256 	lda	#0x3f
   013B F7            [ 2]  257 	sta	,x
   013C CDr00r00      [ 5]  258 	jsr	___fsadd
   013F C7r00r03      [ 4]  259 	sta	(___fs2sint_PARM_1 + 3)
   0142 CFr00r02      [ 4]  260 	stx	(___fs2sint_PARM_1 + 2)
   0145 B6*00         [ 3]  261 	lda	*___SDCC_hc08_ret2
   0147 C7r00r01      [ 4]  262 	sta	(___fs2sint_PARM_1 + 1)
   014A B6*00         [ 3]  263 	lda	*___SDCC_hc08_ret3
   014C C7r00r00      [ 4]  264 	sta	___fs2sint_PARM_1
   014F CDr00r00      [ 5]  265 	jsr	___fs2sint
                            266 ;../sincosf.c:79: if(N&1) sign=!sign;
   0152 87            [ 2]  267 	psha
   0153 A5 01         [ 2]  268 	bit	#0x01
   0155 86            [ 2]  269 	pula
   0156 27 0A         [ 3]  270 	beq	00110$
   0158 87            [ 2]  271 	psha
   0159 C6r00r11      [ 4]  272 	lda	_sincosf_sign_65536_26
   015C A8 01         [ 2]  273 	eor	#0x01
   015E C7r00r11      [ 4]  274 	sta	_sincosf_sign_65536_26
   0161 86            [ 2]  275 	pula
   0162                     276 00110$:
                            277 ;../sincosf.c:81: XN=N;
   0162 CDr00r00      [ 5]  278 	jsr	___sint2fs
   0165 B7*03         [ 3]  279 	sta	*(_sincosf_sloc0_1_0 + 3)
   0167 BF*02         [ 3]  280 	stx	*(_sincosf_sloc0_1_0 + 2)
   0169 4E*00*01      [ 5]  281 	mov	*___SDCC_hc08_ret2,*(_sincosf_sloc0_1_0 + 1)
   016C 4E*00*00      [ 5]  282 	mov	*___SDCC_hc08_ret3,*_sincosf_sloc0_1_0
   016F 45r00r0D      [ 3]  283 	ldhx	#_sincosf_XN_65536_26
   0172 5E*00         [ 4]  284 	mov	*_sincosf_sloc0_1_0,x+
   0174 5E*01         [ 4]  285 	mov	*(_sincosf_sloc0_1_0 + 1),x+
   0176 5E*02         [ 4]  286 	mov	*(_sincosf_sloc0_1_0 + 2),x+
   0178 5E*03         [ 4]  287 	mov	*(_sincosf_sloc0_1_0 + 3),x+
                            288 ;../sincosf.c:83: if(iscos) XN-=0.5;
   017A C6r00r04      [ 4]  289 	lda	_sincosf_PARM_2
   017D 27 2B         [ 3]  290 	beq	00112$
   017F 45r00r00      [ 3]  291 	ldhx	#___fssub_PARM_1
   0182 5E*00         [ 4]  292 	mov	*_sincosf_sloc0_1_0,x+
   0184 5E*01         [ 4]  293 	mov	*(_sincosf_sloc0_1_0 + 1),x+
   0186 5E*02         [ 4]  294 	mov	*(_sincosf_sloc0_1_0 + 2),x+
   0188 5E*03         [ 4]  295 	mov	*(_sincosf_sloc0_1_0 + 3),x+
   018A 45r00r00      [ 3]  296 	ldhx	#___fssub_PARM_2
   018D 4F            [ 1]  297 	clra
   018E E7 01         [ 3]  298 	sta	1,x
   0190 E7 02         [ 3]  299 	sta	2,x
   0192 E7 03         [ 3]  300 	sta	3,x
   0194 A6 3F         [ 2]  301 	lda	#0x3f
   0196 F7            [ 2]  302 	sta	,x
   0197 CDr00r00      [ 5]  303 	jsr	___fssub
   019A C7r00r10      [ 4]  304 	sta	(_sincosf_XN_65536_26 + 3)
   019D CFr00r0F      [ 4]  305 	stx	(_sincosf_XN_65536_26 + 2)
   01A0 B6*00         [ 3]  306 	lda	*___SDCC_hc08_ret2
   01A2 C7r00r0E      [ 4]  307 	sta	(_sincosf_XN_65536_26 + 1)
   01A5 B6*00         [ 3]  308 	lda	*___SDCC_hc08_ret3
   01A7 C7r00r0D      [ 4]  309 	sta	_sincosf_XN_65536_26
   01AA                     310 00112$:
                            311 ;../sincosf.c:85: y=fabsf(x);
   01AA C6r00r03      [ 4]  312 	lda	(_sincosf_PARM_1 + 3)
   01AD 87            [ 2]  313 	psha
   01AE C6r00r02      [ 4]  314 	lda	(_sincosf_PARM_1 + 2)
   01B1 87            [ 2]  315 	psha
   01B2 C6r00r01      [ 4]  316 	lda	(_sincosf_PARM_1 + 1)
   01B5 87            [ 2]  317 	psha
   01B6 C6r00r00      [ 4]  318 	lda	_sincosf_PARM_1
   01B9 87            [ 2]  319 	psha
   01BA CDr00r00      [ 5]  320 	jsr	_fabsf
   01BD B7*03         [ 3]  321 	sta	*(_sincosf_sloc0_1_0 + 3)
   01BF BF*02         [ 3]  322 	stx	*(_sincosf_sloc0_1_0 + 2)
   01C1 4E*00*01      [ 5]  323 	mov	*___SDCC_hc08_ret2,*(_sincosf_sloc0_1_0 + 1)
   01C4 4E*00*00      [ 5]  324 	mov	*___SDCC_hc08_ret3,*_sincosf_sloc0_1_0
   01C7 A7 04         [ 2]  325 	ais	#4
                            326 ;../sincosf.c:86: r=(int)y;
   01C9 45r00r00      [ 3]  327 	ldhx	#___fs2sint_PARM_1
   01CC 5E*00         [ 4]  328 	mov	*_sincosf_sloc0_1_0,x+
   01CE 5E*01         [ 4]  329 	mov	*(_sincosf_sloc0_1_0 + 1),x+
   01D0 5E*02         [ 4]  330 	mov	*(_sincosf_sloc0_1_0 + 2),x+
   01D2 5E*03         [ 4]  331 	mov	*(_sincosf_sloc0_1_0 + 3),x+
   01D4 CDr00r00      [ 5]  332 	jsr	___fs2sint
   01D7 CDr00r00      [ 5]  333 	jsr	___sint2fs
   01DA B7*07         [ 3]  334 	sta	*(_sincosf_sloc1_1_0 + 3)
   01DC BF*06         [ 3]  335 	stx	*(_sincosf_sloc1_1_0 + 2)
   01DE 4E*00*05      [ 5]  336 	mov	*___SDCC_hc08_ret2,*(_sincosf_sloc1_1_0 + 1)
   01E1 4E*00*04      [ 5]  337 	mov	*___SDCC_hc08_ret3,*_sincosf_sloc1_1_0
                            338 ;../sincosf.c:87: g=y-r;
   01E4 45r00r00      [ 3]  339 	ldhx	#___fssub_PARM_1
   01E7 5E*00         [ 4]  340 	mov	*_sincosf_sloc0_1_0,x+
   01E9 5E*01         [ 4]  341 	mov	*(_sincosf_sloc0_1_0 + 1),x+
   01EB 5E*02         [ 4]  342 	mov	*(_sincosf_sloc0_1_0 + 2),x+
   01ED 5E*03         [ 4]  343 	mov	*(_sincosf_sloc0_1_0 + 3),x+
   01EF 45r00r00      [ 3]  344 	ldhx	#___fssub_PARM_2
   01F2 5E*04         [ 4]  345 	mov	*_sincosf_sloc1_1_0,x+
   01F4 5E*05         [ 4]  346 	mov	*(_sincosf_sloc1_1_0 + 1),x+
   01F6 5E*06         [ 4]  347 	mov	*(_sincosf_sloc1_1_0 + 2),x+
   01F8 5E*07         [ 4]  348 	mov	*(_sincosf_sloc1_1_0 + 3),x+
                            349 ;../sincosf.c:88: f=((r-XN*C1)+g)-XN*C2;
   01FA CDr00r00      [ 5]  350 	jsr	___fssub
   01FD B7*03         [ 3]  351 	sta	*(_sincosf_sloc0_1_0 + 3)
   01FF BF*02         [ 3]  352 	stx	*(_sincosf_sloc0_1_0 + 2)
   0201 4E*00*01      [ 5]  353 	mov	*___SDCC_hc08_ret2,*(_sincosf_sloc0_1_0 + 1)
   0204 4E*00*00      [ 5]  354 	mov	*___SDCC_hc08_ret3,*_sincosf_sloc0_1_0
   0207 45r00r00      [ 3]  355 	ldhx	#___fsmul_PARM_1
   020A A6 40         [ 2]  356 	lda	#0x40
   020C F7            [ 2]  357 	sta	,x
   020D A6 49         [ 2]  358 	lda	#0x49
   020F E7 01         [ 3]  359 	sta	1,x
   0211 4F            [ 1]  360 	clra
   0212 E7 02         [ 3]  361 	sta	2,x
   0214 E7 03         [ 3]  362 	sta	3,x
   0216 45r00r00      [ 3]  363 	ldhx	#___fsmul_PARM_2
   0219 C6r00r0D      [ 4]  364 	lda	_sincosf_XN_65536_26
   021C F7            [ 2]  365 	sta	,x
   021D C6r00r0E      [ 4]  366 	lda	(_sincosf_XN_65536_26 + 1)
   0220 E7 01         [ 3]  367 	sta	1,x
   0222 C6r00r0F      [ 4]  368 	lda	(_sincosf_XN_65536_26 + 2)
   0225 E7 02         [ 3]  369 	sta	2,x
   0227 C6r00r10      [ 4]  370 	lda	(_sincosf_XN_65536_26 + 3)
   022A E7 03         [ 3]  371 	sta	3,x
   022C CDr00r00      [ 5]  372 	jsr	___fsmul
   022F C7r00r03      [ 4]  373 	sta	(___fssub_PARM_2 + 3)
   0232 CFr00r02      [ 4]  374 	stx	(___fssub_PARM_2 + 2)
   0235 B6*00         [ 3]  375 	lda	*___SDCC_hc08_ret2
   0237 C7r00r01      [ 4]  376 	sta	(___fssub_PARM_2 + 1)
   023A B6*00         [ 3]  377 	lda	*___SDCC_hc08_ret3
   023C C7r00r00      [ 4]  378 	sta	___fssub_PARM_2
   023F 45r00r00      [ 3]  379 	ldhx	#___fssub_PARM_1
   0242 5E*04         [ 4]  380 	mov	*_sincosf_sloc1_1_0,x+
   0244 5E*05         [ 4]  381 	mov	*(_sincosf_sloc1_1_0 + 1),x+
   0246 5E*06         [ 4]  382 	mov	*(_sincosf_sloc1_1_0 + 2),x+
   0248 5E*07         [ 4]  383 	mov	*(_sincosf_sloc1_1_0 + 3),x+
   024A CDr00r00      [ 5]  384 	jsr	___fssub
   024D C7r00r03      [ 4]  385 	sta	(___fsadd_PARM_1 + 3)
   0250 CFr00r02      [ 4]  386 	stx	(___fsadd_PARM_1 + 2)
   0253 B6*00         [ 3]  387 	lda	*___SDCC_hc08_ret2
   0255 C7r00r01      [ 4]  388 	sta	(___fsadd_PARM_1 + 1)
   0258 B6*00         [ 3]  389 	lda	*___SDCC_hc08_ret3
   025A C7r00r00      [ 4]  390 	sta	___fsadd_PARM_1
   025D 45r00r00      [ 3]  391 	ldhx	#___fsadd_PARM_2
   0260 5E*00         [ 4]  392 	mov	*_sincosf_sloc0_1_0,x+
   0262 5E*01         [ 4]  393 	mov	*(_sincosf_sloc0_1_0 + 1),x+
   0264 5E*02         [ 4]  394 	mov	*(_sincosf_sloc0_1_0 + 2),x+
   0266 5E*03         [ 4]  395 	mov	*(_sincosf_sloc0_1_0 + 3),x+
   0268 CDr00r00      [ 5]  396 	jsr	___fsadd
   026B B7*07         [ 3]  397 	sta	*(_sincosf_sloc1_1_0 + 3)
   026D BF*06         [ 3]  398 	stx	*(_sincosf_sloc1_1_0 + 2)
   026F 4E*00*05      [ 5]  399 	mov	*___SDCC_hc08_ret2,*(_sincosf_sloc1_1_0 + 1)
   0272 4E*00*04      [ 5]  400 	mov	*___SDCC_hc08_ret3,*_sincosf_sloc1_1_0
   0275 45r00r00      [ 3]  401 	ldhx	#___fsmul_PARM_1
   0278 A6 3A         [ 2]  402 	lda	#0x3a
   027A F7            [ 2]  403 	sta	,x
   027B A6 7D         [ 2]  404 	lda	#0x7d
   027D E7 01         [ 3]  405 	sta	1,x
   027F A6 AA         [ 2]  406 	lda	#0xaa
   0281 E7 02         [ 3]  407 	sta	2,x
   0283 A6 22         [ 2]  408 	lda	#0x22
   0285 E7 03         [ 3]  409 	sta	3,x
   0287 45r00r00      [ 3]  410 	ldhx	#___fsmul_PARM_2
   028A C6r00r0D      [ 4]  411 	lda	_sincosf_XN_65536_26
   028D F7            [ 2]  412 	sta	,x
   028E C6r00r0E      [ 4]  413 	lda	(_sincosf_XN_65536_26 + 1)
   0291 E7 01         [ 3]  414 	sta	1,x
   0293 C6r00r0F      [ 4]  415 	lda	(_sincosf_XN_65536_26 + 2)
   0296 E7 02         [ 3]  416 	sta	2,x
   0298 C6r00r10      [ 4]  417 	lda	(_sincosf_XN_65536_26 + 3)
   029B E7 03         [ 3]  418 	sta	3,x
   029D CDr00r00      [ 5]  419 	jsr	___fsmul
   02A0 C7r00r03      [ 4]  420 	sta	(___fssub_PARM_2 + 3)
   02A3 CFr00r02      [ 4]  421 	stx	(___fssub_PARM_2 + 2)
   02A6 B6*00         [ 3]  422 	lda	*___SDCC_hc08_ret2
   02A8 C7r00r01      [ 4]  423 	sta	(___fssub_PARM_2 + 1)
   02AB B6*00         [ 3]  424 	lda	*___SDCC_hc08_ret3
   02AD C7r00r00      [ 4]  425 	sta	___fssub_PARM_2
   02B0 45r00r00      [ 3]  426 	ldhx	#___fssub_PARM_1
   02B3 5E*04         [ 4]  427 	mov	*_sincosf_sloc1_1_0,x+
   02B5 5E*05         [ 4]  428 	mov	*(_sincosf_sloc1_1_0 + 1),x+
   02B7 5E*06         [ 4]  429 	mov	*(_sincosf_sloc1_1_0 + 2),x+
   02B9 5E*07         [ 4]  430 	mov	*(_sincosf_sloc1_1_0 + 3),x+
   02BB CDr00r00      [ 5]  431 	jsr	___fssub
   02BE B7*07         [ 3]  432 	sta	*(_sincosf_sloc1_1_0 + 3)
   02C0 BF*06         [ 3]  433 	stx	*(_sincosf_sloc1_1_0 + 2)
   02C2 4E*00*05      [ 5]  434 	mov	*___SDCC_hc08_ret2,*(_sincosf_sloc1_1_0 + 1)
   02C5 4E*00*04      [ 5]  435 	mov	*___SDCC_hc08_ret3,*_sincosf_sloc1_1_0
   02C8 45r00r09      [ 3]  436 	ldhx	#_sincosf_f_65536_26
   02CB 5E*04         [ 4]  437 	mov	*_sincosf_sloc1_1_0,x+
   02CD 5E*05         [ 4]  438 	mov	*(_sincosf_sloc1_1_0 + 1),x+
   02CF 5E*06         [ 4]  439 	mov	*(_sincosf_sloc1_1_0 + 2),x+
   02D1 5E*07         [ 4]  440 	mov	*(_sincosf_sloc1_1_0 + 3),x+
                            441 ;../sincosf.c:90: g=f*f;
   02D3 45r00r00      [ 3]  442 	ldhx	#___fsmul_PARM_1
   02D6 5E*04         [ 4]  443 	mov	*_sincosf_sloc1_1_0,x+
   02D8 5E*05         [ 4]  444 	mov	*(_sincosf_sloc1_1_0 + 1),x+
   02DA 5E*06         [ 4]  445 	mov	*(_sincosf_sloc1_1_0 + 2),x+
   02DC 5E*07         [ 4]  446 	mov	*(_sincosf_sloc1_1_0 + 3),x+
   02DE 45r00r00      [ 3]  447 	ldhx	#___fsmul_PARM_2
   02E1 5E*04         [ 4]  448 	mov	*_sincosf_sloc1_1_0,x+
   02E3 5E*05         [ 4]  449 	mov	*(_sincosf_sloc1_1_0 + 1),x+
   02E5 5E*06         [ 4]  450 	mov	*(_sincosf_sloc1_1_0 + 2),x+
   02E7 5E*07         [ 4]  451 	mov	*(_sincosf_sloc1_1_0 + 3),x+
                            452 ;../sincosf.c:91: if(g>EPS2) //Used to be if(fabsf(f)>EPS)
   02E9 CDr00r00      [ 5]  453 	jsr	___fsmul
   02EC B7*03         [ 3]  454 	sta	*(_sincosf_sloc0_1_0 + 3)
   02EE BF*02         [ 3]  455 	stx	*(_sincosf_sloc0_1_0 + 2)
   02F0 4E*00*01      [ 5]  456 	mov	*___SDCC_hc08_ret2,*(_sincosf_sloc0_1_0 + 1)
   02F3 4E*00*00      [ 5]  457 	mov	*___SDCC_hc08_ret3,*_sincosf_sloc0_1_0
   02F6 45r00r00      [ 3]  458 	ldhx	#___fslt_PARM_1
   02F9 A6 33         [ 2]  459 	lda	#0x33
   02FB F7            [ 2]  460 	sta	,x
   02FC A6 7F         [ 2]  461 	lda	#0x7f
   02FE E7 01         [ 3]  462 	sta	1,x
   0300 A6 FF         [ 2]  463 	lda	#0xff
   0302 E7 02         [ 3]  464 	sta	2,x
   0304 A6 F3         [ 2]  465 	lda	#0xf3
   0306 E7 03         [ 3]  466 	sta	3,x
   0308 45r00r00      [ 3]  467 	ldhx	#___fslt_PARM_2
   030B 5E*00         [ 4]  468 	mov	*_sincosf_sloc0_1_0,x+
   030D 5E*01         [ 4]  469 	mov	*(_sincosf_sloc0_1_0 + 1),x+
   030F 5E*02         [ 4]  470 	mov	*(_sincosf_sloc0_1_0 + 2),x+
   0311 5E*03         [ 4]  471 	mov	*(_sincosf_sloc0_1_0 + 3),x+
   0313 CDr00r00      [ 5]  472 	jsr	___fslt
   0316 4D            [ 1]  473 	tsta
   0317 26 03         [ 3]  474 	bne	00160$
   0319 CCr04r51      [ 3]  475 	jmp	00114$
   031C                     476 00160$:
                            477 ;../sincosf.c:93: r=(((r4*g+r3)*g+r2)*g+r1)*g;
   031C 45r00r00      [ 3]  478 	ldhx	#___fsmul_PARM_1
   031F A6 36         [ 2]  479 	lda	#0x36
   0321 F7            [ 2]  480 	sta	,x
   0322 A6 2E         [ 2]  481 	lda	#0x2e
   0324 E7 01         [ 3]  482 	sta	1,x
   0326 A6 9C         [ 2]  483 	lda	#0x9c
   0328 E7 02         [ 3]  484 	sta	2,x
   032A A6 5B         [ 2]  485 	lda	#0x5b
   032C E7 03         [ 3]  486 	sta	3,x
   032E 45r00r00      [ 3]  487 	ldhx	#___fsmul_PARM_2
   0331 5E*00         [ 4]  488 	mov	*_sincosf_sloc0_1_0,x+
   0333 5E*01         [ 4]  489 	mov	*(_sincosf_sloc0_1_0 + 1),x+
   0335 5E*02         [ 4]  490 	mov	*(_sincosf_sloc0_1_0 + 2),x+
   0337 5E*03         [ 4]  491 	mov	*(_sincosf_sloc0_1_0 + 3),x+
   0339 CDr00r00      [ 5]  492 	jsr	___fsmul
   033C C7r00r03      [ 4]  493 	sta	(___fsadd_PARM_1 + 3)
   033F CFr00r02      [ 4]  494 	stx	(___fsadd_PARM_1 + 2)
   0342 B6*00         [ 3]  495 	lda	*___SDCC_hc08_ret2
   0344 C7r00r01      [ 4]  496 	sta	(___fsadd_PARM_1 + 1)
   0347 B6*00         [ 3]  497 	lda	*___SDCC_hc08_ret3
   0349 C7r00r00      [ 4]  498 	sta	___fsadd_PARM_1
   034C 45r00r00      [ 3]  499 	ldhx	#___fsadd_PARM_2
   034F A6 B9         [ 2]  500 	lda	#0xb9
   0351 F7            [ 2]  501 	sta	,x
   0352 A6 4F         [ 2]  502 	lda	#0x4f
   0354 E7 01         [ 3]  503 	sta	1,x
   0356 A6 B2         [ 2]  504 	lda	#0xb2
   0358 E7 02         [ 3]  505 	sta	2,x
   035A A6 22         [ 2]  506 	lda	#0x22
   035C E7 03         [ 3]  507 	sta	3,x
   035E CDr00r00      [ 5]  508 	jsr	___fsadd
   0361 C7r00r03      [ 4]  509 	sta	(___fsmul_PARM_1 + 3)
   0364 CFr00r02      [ 4]  510 	stx	(___fsmul_PARM_1 + 2)
   0367 B6*00         [ 3]  511 	lda	*___SDCC_hc08_ret2
   0369 C7r00r01      [ 4]  512 	sta	(___fsmul_PARM_1 + 1)
   036C B6*00         [ 3]  513 	lda	*___SDCC_hc08_ret3
   036E C7r00r00      [ 4]  514 	sta	___fsmul_PARM_1
   0371 45r00r00      [ 3]  515 	ldhx	#___fsmul_PARM_2
   0374 5E*00         [ 4]  516 	mov	*_sincosf_sloc0_1_0,x+
   0376 5E*01         [ 4]  517 	mov	*(_sincosf_sloc0_1_0 + 1),x+
   0378 5E*02         [ 4]  518 	mov	*(_sincosf_sloc0_1_0 + 2),x+
   037A 5E*03         [ 4]  519 	mov	*(_sincosf_sloc0_1_0 + 3),x+
   037C CDr00r00      [ 5]  520 	jsr	___fsmul
   037F C7r00r03      [ 4]  521 	sta	(___fsadd_PARM_1 + 3)
   0382 CFr00r02      [ 4]  522 	stx	(___fsadd_PARM_1 + 2)
   0385 B6*00         [ 3]  523 	lda	*___SDCC_hc08_ret2
   0387 C7r00r01      [ 4]  524 	sta	(___fsadd_PARM_1 + 1)
   038A B6*00         [ 3]  525 	lda	*___SDCC_hc08_ret3
   038C C7r00r00      [ 4]  526 	sta	___fsadd_PARM_1
   038F 45r00r00      [ 3]  527 	ldhx	#___fsadd_PARM_2
   0392 A6 3C         [ 2]  528 	lda	#0x3c
   0394 F7            [ 2]  529 	sta	,x
   0395 A6 08         [ 2]  530 	lda	#0x08
   0397 E7 01         [ 3]  531 	sta	1,x
   0399 A6 87         [ 2]  532 	lda	#0x87
   039B E7 02         [ 3]  533 	sta	2,x
   039D A6 3E         [ 2]  534 	lda	#0x3e
   039F E7 03         [ 3]  535 	sta	3,x
   03A1 CDr00r00      [ 5]  536 	jsr	___fsadd
   03A4 C7r00r03      [ 4]  537 	sta	(___fsmul_PARM_1 + 3)
   03A7 CFr00r02      [ 4]  538 	stx	(___fsmul_PARM_1 + 2)
   03AA B6*00         [ 3]  539 	lda	*___SDCC_hc08_ret2
   03AC C7r00r01      [ 4]  540 	sta	(___fsmul_PARM_1 + 1)
   03AF B6*00         [ 3]  541 	lda	*___SDCC_hc08_ret3
   03B1 C7r00r00      [ 4]  542 	sta	___fsmul_PARM_1
   03B4 45r00r00      [ 3]  543 	ldhx	#___fsmul_PARM_2
   03B7 5E*00         [ 4]  544 	mov	*_sincosf_sloc0_1_0,x+
   03B9 5E*01         [ 4]  545 	mov	*(_sincosf_sloc0_1_0 + 1),x+
   03BB 5E*02         [ 4]  546 	mov	*(_sincosf_sloc0_1_0 + 2),x+
   03BD 5E*03         [ 4]  547 	mov	*(_sincosf_sloc0_1_0 + 3),x+
   03BF CDr00r00      [ 5]  548 	jsr	___fsmul
   03C2 C7r00r03      [ 4]  549 	sta	(___fsadd_PARM_1 + 3)
   03C5 CFr00r02      [ 4]  550 	stx	(___fsadd_PARM_1 + 2)
   03C8 B6*00         [ 3]  551 	lda	*___SDCC_hc08_ret2
   03CA C7r00r01      [ 4]  552 	sta	(___fsadd_PARM_1 + 1)
   03CD B6*00         [ 3]  553 	lda	*___SDCC_hc08_ret3
   03CF C7r00r00      [ 4]  554 	sta	___fsadd_PARM_1
   03D2 45r00r00      [ 3]  555 	ldhx	#___fsadd_PARM_2
   03D5 A6 BE         [ 2]  556 	lda	#0xbe
   03D7 F7            [ 2]  557 	sta	,x
   03D8 A6 2A         [ 2]  558 	lda	#0x2a
   03DA E7 01         [ 3]  559 	sta	1,x
   03DC A6 AA         [ 2]  560 	lda	#0xaa
   03DE E7 02         [ 3]  561 	sta	2,x
   03E0 A6 A4         [ 2]  562 	lda	#0xa4
   03E2 E7 03         [ 3]  563 	sta	3,x
   03E4 CDr00r00      [ 5]  564 	jsr	___fsadd
   03E7 C7r00r03      [ 4]  565 	sta	(___fsmul_PARM_1 + 3)
   03EA CFr00r02      [ 4]  566 	stx	(___fsmul_PARM_1 + 2)
   03ED B6*00         [ 3]  567 	lda	*___SDCC_hc08_ret2
   03EF C7r00r01      [ 4]  568 	sta	(___fsmul_PARM_1 + 1)
   03F2 B6*00         [ 3]  569 	lda	*___SDCC_hc08_ret3
   03F4 C7r00r00      [ 4]  570 	sta	___fsmul_PARM_1
   03F7 45r00r00      [ 3]  571 	ldhx	#___fsmul_PARM_2
   03FA 5E*00         [ 4]  572 	mov	*_sincosf_sloc0_1_0,x+
   03FC 5E*01         [ 4]  573 	mov	*(_sincosf_sloc0_1_0 + 1),x+
   03FE 5E*02         [ 4]  574 	mov	*(_sincosf_sloc0_1_0 + 2),x+
   0400 5E*03         [ 4]  575 	mov	*(_sincosf_sloc0_1_0 + 3),x+
                            576 ;../sincosf.c:94: f+=f*r;
   0402 CDr00r00      [ 5]  577 	jsr	___fsmul
   0405 C7r00r03      [ 4]  578 	sta	(___fsmul_PARM_2 + 3)
   0408 CFr00r02      [ 4]  579 	stx	(___fsmul_PARM_2 + 2)
   040B B6*00         [ 3]  580 	lda	*___SDCC_hc08_ret2
   040D C7r00r01      [ 4]  581 	sta	(___fsmul_PARM_2 + 1)
   0410 B6*00         [ 3]  582 	lda	*___SDCC_hc08_ret3
   0412 C7r00r00      [ 4]  583 	sta	___fsmul_PARM_2
   0415 45r00r00      [ 3]  584 	ldhx	#___fsmul_PARM_1
   0418 5E*04         [ 4]  585 	mov	*_sincosf_sloc1_1_0,x+
   041A 5E*05         [ 4]  586 	mov	*(_sincosf_sloc1_1_0 + 1),x+
   041C 5E*06         [ 4]  587 	mov	*(_sincosf_sloc1_1_0 + 2),x+
   041E 5E*07         [ 4]  588 	mov	*(_sincosf_sloc1_1_0 + 3),x+
   0420 CDr00r00      [ 5]  589 	jsr	___fsmul
   0423 C7r00r03      [ 4]  590 	sta	(___fsadd_PARM_2 + 3)
   0426 CFr00r02      [ 4]  591 	stx	(___fsadd_PARM_2 + 2)
   0429 B6*00         [ 3]  592 	lda	*___SDCC_hc08_ret2
   042B C7r00r01      [ 4]  593 	sta	(___fsadd_PARM_2 + 1)
   042E B6*00         [ 3]  594 	lda	*___SDCC_hc08_ret3
   0430 C7r00r00      [ 4]  595 	sta	___fsadd_PARM_2
   0433 45r00r00      [ 3]  596 	ldhx	#___fsadd_PARM_1
   0436 5E*04         [ 4]  597 	mov	*_sincosf_sloc1_1_0,x+
   0438 5E*05         [ 4]  598 	mov	*(_sincosf_sloc1_1_0 + 1),x+
   043A 5E*06         [ 4]  599 	mov	*(_sincosf_sloc1_1_0 + 2),x+
   043C 5E*07         [ 4]  600 	mov	*(_sincosf_sloc1_1_0 + 3),x+
   043E CDr00r00      [ 5]  601 	jsr	___fsadd
   0441 C7r00r0C      [ 4]  602 	sta	(_sincosf_f_65536_26 + 3)
   0444 CFr00r0B      [ 4]  603 	stx	(_sincosf_f_65536_26 + 2)
   0447 B6*00         [ 3]  604 	lda	*___SDCC_hc08_ret2
   0449 C7r00r0A      [ 4]  605 	sta	(_sincosf_f_65536_26 + 1)
   044C B6*00         [ 3]  606 	lda	*___SDCC_hc08_ret3
   044E C7r00r09      [ 4]  607 	sta	_sincosf_f_65536_26
   0451                     608 00114$:
                            609 ;../sincosf.c:96: return (sign?-f:f);
   0451 C6r00r11      [ 4]  610 	lda	_sincosf_sign_65536_26
   0454 27 18         [ 3]  611 	beq	00117$
   0456 C6r00r0C      [ 4]  612 	lda	(_sincosf_f_65536_26 + 3)
   0459 B7*07         [ 3]  613 	sta	*(_sincosf_sloc1_1_0 + 3)
   045B C6r00r0B      [ 4]  614 	lda	(_sincosf_f_65536_26 + 2)
   045E B7*06         [ 3]  615 	sta	*(_sincosf_sloc1_1_0 + 2)
   0460 C6r00r0A      [ 4]  616 	lda	(_sincosf_f_65536_26 + 1)
   0463 B7*05         [ 3]  617 	sta	*(_sincosf_sloc1_1_0 + 1)
   0465 C6r00r09      [ 4]  618 	lda	_sincosf_f_65536_26
   0468 A8 80         [ 2]  619 	eor	#0x80
   046A B7*04         [ 3]  620 	sta	*_sincosf_sloc1_1_0
   046C 20 0B         [ 3]  621 	bra	00118$
   046E                     622 00117$:
   046E 45r00r09      [ 3]  623 	ldhx	#_sincosf_f_65536_26
   0471 7E*04         [ 4]  624 	mov	,x+,*_sincosf_sloc1_1_0
   0473 7E*05         [ 4]  625 	mov	,x+,*(_sincosf_sloc1_1_0 + 1)
   0475 7E*06         [ 4]  626 	mov	,x+,*(_sincosf_sloc1_1_0 + 2)
   0477 7E*07         [ 4]  627 	mov	,x+,*(_sincosf_sloc1_1_0 + 3)
   0479                     628 00118$:
   0479 4E*04*00      [ 5]  629 	mov	*_sincosf_sloc1_1_0,*___SDCC_hc08_ret3
   047C 4E*05*00      [ 5]  630 	mov	*(_sincosf_sloc1_1_0 + 1),*___SDCC_hc08_ret2
   047F BE*06         [ 3]  631 	ldx	*(_sincosf_sloc1_1_0 + 2)
   0481 B6*07         [ 3]  632 	lda	*(_sincosf_sloc1_1_0 + 3)
                            633 ;../sincosf.c:97: }
   0483 81            [ 4]  634 	rts
                            635 	.area CSEG    (CODE)
                            636 	.area CONST   (CODE)
                            637 	.area XINIT   (CODE)
                            638 	.area CABS    (ABS,CODE)
