                              1 ;--------------------------------------------------------
                              2 ; File Created by SDCC : free open source ISO C Compiler 
                              3 ; Version 4.2.14 #0 (Linux)
                              4 ;--------------------------------------------------------
                              5 	.module sqrtf
                              6 	.optsdcc -mhc08
                              7 	
                              8 	.area HOME    (CODE)
                              9 	.area GSINIT0 (CODE)
                             10 	.area GSINIT  (CODE)
                             11 	.area GSFINAL (CODE)
                             12 	.area CSEG    (CODE)
                             13 	.area XINIT   (CODE)
                             14 	.area CONST   (CODE)
                             15 	.area DSEG    (PAG)
                             16 	.area OSEG    (PAG, OVR)
                             17 	.area XSEG
                             18 	.area XISEG
                             19 ;--------------------------------------------------------
                             20 ; Public variables in this module
                             21 ;--------------------------------------------------------
                             22 	.globl _ldexpf
                             23 	.globl _frexpf
                             24 	.globl _sqrtf
                             25 ;--------------------------------------------------------
                             26 ; ram data
                             27 ;--------------------------------------------------------
                             28 	.area DSEG    (PAG)
                             29 ;--------------------------------------------------------
                             30 ; overlayable items in ram
                             31 ;--------------------------------------------------------
                             32 ;--------------------------------------------------------
                             33 ; absolute ram data
                             34 ;--------------------------------------------------------
                             35 	.area IABS    (ABS)
                             36 	.area IABS    (ABS)
                             37 ;--------------------------------------------------------
                             38 ; absolute external ram data
                             39 ;--------------------------------------------------------
                             40 	.area XABS    (ABS)
                             41 ;--------------------------------------------------------
                             42 ; initialized external ram data
                             43 ;--------------------------------------------------------
                             44 	.area XISEG
                             45 ;--------------------------------------------------------
                             46 ; extended address mode data
                             47 ;--------------------------------------------------------
                             48 	.area XSEG
                             49 ;--------------------------------------------------------
                             50 ; global & static initialisations
                             51 ;--------------------------------------------------------
                             52 	.area HOME    (CODE)
                             53 	.area GSINIT  (CODE)
                             54 	.area GSFINAL (CODE)
                             55 	.area GSINIT  (CODE)
                             56 ;--------------------------------------------------------
                             57 ; Home
                             58 ;--------------------------------------------------------
                             59 	.area HOME    (CODE)
                             60 	.area HOME    (CODE)
                             61 ;--------------------------------------------------------
                             62 ; code
                             63 ;--------------------------------------------------------
                             64 	.area CSEG    (CODE)
                             65 ;------------------------------------------------------------
                             66 ;Allocation info for local variables in function 'sqrtf'
                             67 ;------------------------------------------------------------
                             68 ;x                         Allocated to stack - sp +21
                             69 ;f                         Allocated to stack - sp +15
                             70 ;y                         Allocated to stack - sp +3
                             71 ;n                         Allocated to stack - sp +1
                             72 ;sloc0                     Allocated to stack - sp +15
                             73 ;sloc1                     Allocated to stack - sp +11
                             74 ;sloc2                     Allocated to stack - sp +7
                             75 ;------------------------------------------------------------
                             76 ;../sqrtf.c:37: float sqrtf(float x) _FLOAT_FUNC_REENTRANT
                             77 ;	-----------------------------------------
                             78 ;	 function sqrtf
                             79 ;	-----------------------------------------
                             80 ;	Register assignment is optimal.
                             81 ;	Stack space usage: 18 bytes.
   0000                      82 _sqrtf:
   0000 A7 EE         [ 2]   83 	ais	#-18
                             84 ;../sqrtf.c:42: if (x==0.0) return x;
   0002 95            [ 2]   85 	tsx
   0003 E6 14         [ 3]   86 	lda	20,x
   0005 A4 7F         [ 2]   87 	and	#0x7F
   0007 EA 15         [ 3]   88 	ora	21,x
   0009 EA 16         [ 3]   89 	ora	22,x
   000B EA 17         [ 3]   90 	ora	23,x
   000D 26 10         [ 3]   91 	bne	00107$
   000F E6 14         [ 3]   92 	lda	20,x
   0011 B7*00         [ 3]   93 	sta	*___SDCC_hc08_ret3
   0013 E6 15         [ 3]   94 	lda	21,x
   0015 B7*00         [ 3]   95 	sta	*___SDCC_hc08_ret2
   0017 EE 16         [ 3]   96 	ldx	22,x
   0019 9E E6 18      [ 4]   97 	lda	24,s
   001C CCr02rD6      [ 3]   98 	jmp	00111$
   001F                      99 00107$:
                            100 ;../sqrtf.c:43: else if (x==1.0) return 1.0;
   001F 95            [ 2]  101 	tsx
   0020 45r00r00      [ 3]  102 	ldhx	#___fseq_PARM_1
   0023 9E E6 15      [ 4]  103 	lda	21,s
   0026 F7            [ 2]  104 	sta	,x
   0027 9E E6 16      [ 4]  105 	lda	22,s
   002A E7 01         [ 3]  106 	sta	1,x
   002C 9E E6 17      [ 4]  107 	lda	23,s
   002F E7 02         [ 3]  108 	sta	2,x
   0031 9E E6 18      [ 4]  109 	lda	24,s
   0034 E7 03         [ 3]  110 	sta	3,x
   0036 45r00r00      [ 3]  111 	ldhx	#___fseq_PARM_2
   0039 A6 3F         [ 2]  112 	lda	#0x3f
   003B F7            [ 2]  113 	sta	,x
   003C A6 80         [ 2]  114 	lda	#0x80
   003E E7 01         [ 3]  115 	sta	1,x
   0040 4F            [ 1]  116 	clra
   0041 E7 02         [ 3]  117 	sta	2,x
   0043 E7 03         [ 3]  118 	sta	3,x
   0045 CDr00r00      [ 5]  119 	jsr	___fseq
   0048 4D            [ 1]  120 	tsta
   0049 27 0B         [ 3]  121 	beq	00104$
   004B 4F            [ 1]  122 	clra
   004C 97            [ 1]  123 	tax
   004D 6E 80*00      [ 4]  124 	mov	#0x80,*___SDCC_hc08_ret2
   0050 6E 3F*00      [ 4]  125 	mov	#0x3f,*___SDCC_hc08_ret3
   0053 CCr02rD6      [ 3]  126 	jmp	00111$
   0056                     127 00104$:
                            128 ;../sqrtf.c:44: else if (x<0.0)
   0056 95            [ 2]  129 	tsx
   0057 45r00r00      [ 3]  130 	ldhx	#___fslt_PARM_1
   005A 9E E6 15      [ 4]  131 	lda	21,s
   005D F7            [ 2]  132 	sta	,x
   005E 9E E6 16      [ 4]  133 	lda	22,s
   0061 E7 01         [ 3]  134 	sta	1,x
   0063 9E E6 17      [ 4]  135 	lda	23,s
   0066 E7 02         [ 3]  136 	sta	2,x
   0068 9E E6 18      [ 4]  137 	lda	24,s
   006B E7 03         [ 3]  138 	sta	3,x
   006D 45r00r00      [ 3]  139 	ldhx	#___fslt_PARM_2
   0070 4F            [ 1]  140 	clra
   0071 F7            [ 2]  141 	sta	,x
   0072 E7 01         [ 3]  142 	sta	1,x
   0074 E7 02         [ 3]  143 	sta	2,x
   0076 E7 03         [ 3]  144 	sta	3,x
   0078 CDr00r00      [ 5]  145 	jsr	___fslt
   007B 4D            [ 1]  146 	tsta
   007C 27 12         [ 3]  147 	beq	00108$
                            148 ;../sqrtf.c:46: errno=EDOM;
   007E 4F            [ 1]  149 	clra
   007F C7r00r00      [ 4]  150 	sta	_errno
   0082 A6 21         [ 2]  151 	lda	#0x21
   0084 C7r00r01      [ 4]  152 	sta	(_errno + 1)
                            153 ;../sqrtf.c:47: return 0.0;
   0087 4F            [ 1]  154 	clra
   0088 97            [ 1]  155 	tax
   0089 B7*00         [ 3]  156 	sta	*___SDCC_hc08_ret2
   008B B7*00         [ 3]  157 	sta	*___SDCC_hc08_ret3
   008D CCr02rD6      [ 3]  158 	jmp	00111$
   0090                     159 00108$:
                            160 ;../sqrtf.c:49: f=frexpf(x, &n);
   0090 95            [ 2]  161 	tsx
   0091 CFr00r01      [ 4]  162 	stx	(_frexpf_PARM_2 + 1)
   0094 8B            [ 2]  163 	pshh
   0095 86            [ 2]  164 	pula
   0096 C7r00r00      [ 4]  165 	sta	_frexpf_PARM_2
   0099 95            [ 2]  166 	tsx
   009A 45r00r00      [ 3]  167 	ldhx	#_frexpf_PARM_1
   009D 9E E6 15      [ 4]  168 	lda	21,s
   00A0 F7            [ 2]  169 	sta	,x
   00A1 9E E6 16      [ 4]  170 	lda	22,s
   00A4 E7 01         [ 3]  171 	sta	1,x
   00A6 9E E6 17      [ 4]  172 	lda	23,s
   00A9 E7 02         [ 3]  173 	sta	2,x
   00AB 9E E6 18      [ 4]  174 	lda	24,s
   00AE E7 03         [ 3]  175 	sta	3,x
   00B0 CDr00r00      [ 5]  176 	jsr	_frexpf
   00B3 9E E7 12      [ 4]  177 	sta	18,s
   00B6 9E EF 11      [ 4]  178 	stx	17,s
   00B9 B6*00         [ 3]  179 	lda	*___SDCC_hc08_ret2
   00BB 9E E7 10      [ 4]  180 	sta	16,s
   00BE B6*00         [ 3]  181 	lda	*___SDCC_hc08_ret3
   00C0 9E E7 0F      [ 4]  182 	sta	15,s
                            183 ;../sqrtf.c:50: y=0.41731+0.59016*f; /*Educated guess*/
   00C3 45r00r00      [ 3]  184 	ldhx	#___fsmul_PARM_1
   00C6 A6 3F         [ 2]  185 	lda	#0x3f
   00C8 F7            [ 2]  186 	sta	,x
   00C9 A6 17         [ 2]  187 	lda	#0x17
   00CB E7 01         [ 3]  188 	sta	1,x
   00CD A6 14         [ 2]  189 	lda	#0x14
   00CF E7 02         [ 3]  190 	sta	2,x
   00D1 A6 BA         [ 2]  191 	lda	#0xba
   00D3 E7 03         [ 3]  192 	sta	3,x
   00D5 95            [ 2]  193 	tsx
   00D6 45r00r00      [ 3]  194 	ldhx	#___fsmul_PARM_2
   00D9 9E E6 0F      [ 4]  195 	lda	15,s
   00DC F7            [ 2]  196 	sta	,x
   00DD 9E E6 10      [ 4]  197 	lda	16,s
   00E0 E7 01         [ 3]  198 	sta	1,x
   00E2 9E E6 11      [ 4]  199 	lda	17,s
   00E5 E7 02         [ 3]  200 	sta	2,x
   00E7 9E E6 12      [ 4]  201 	lda	18,s
   00EA E7 03         [ 3]  202 	sta	3,x
   00EC CDr00r00      [ 5]  203 	jsr	___fsmul
   00EF C7r00r03      [ 4]  204 	sta	(___fsadd_PARM_1 + 3)
   00F2 CFr00r02      [ 4]  205 	stx	(___fsadd_PARM_1 + 2)
   00F5 B6*00         [ 3]  206 	lda	*___SDCC_hc08_ret2
   00F7 C7r00r01      [ 4]  207 	sta	(___fsadd_PARM_1 + 1)
   00FA B6*00         [ 3]  208 	lda	*___SDCC_hc08_ret3
   00FC C7r00r00      [ 4]  209 	sta	___fsadd_PARM_1
   00FF 45r00r00      [ 3]  210 	ldhx	#___fsadd_PARM_2
   0102 A6 3E         [ 2]  211 	lda	#0x3e
   0104 F7            [ 2]  212 	sta	,x
   0105 A6 D5         [ 2]  213 	lda	#0xd5
   0107 E7 01         [ 3]  214 	sta	1,x
   0109 A6 A9         [ 2]  215 	lda	#0xa9
   010B E7 02         [ 3]  216 	sta	2,x
   010D 4A            [ 1]  217 	deca
   010E E7 03         [ 3]  218 	sta	3,x
                            219 ;../sqrtf.c:52: y+=f/y;
   0110 CDr00r00      [ 5]  220 	jsr	___fsadd
   0113 9E E7 0E      [ 4]  221 	sta	14,s
   0116 9E EF 0D      [ 4]  222 	stx	13,s
   0119 B6*00         [ 3]  223 	lda	*___SDCC_hc08_ret2
   011B 9E E7 0C      [ 4]  224 	sta	12,s
   011E B6*00         [ 3]  225 	lda	*___SDCC_hc08_ret3
   0120 9E E7 0B      [ 4]  226 	sta	11,s
   0123 95            [ 2]  227 	tsx
   0124 45r00r00      [ 3]  228 	ldhx	#___fsdiv_PARM_1
   0127 9E E6 0F      [ 4]  229 	lda	15,s
   012A F7            [ 2]  230 	sta	,x
   012B 9E E6 10      [ 4]  231 	lda	16,s
   012E E7 01         [ 3]  232 	sta	1,x
   0130 9E E6 11      [ 4]  233 	lda	17,s
   0133 E7 02         [ 3]  234 	sta	2,x
   0135 9E E6 12      [ 4]  235 	lda	18,s
   0138 E7 03         [ 3]  236 	sta	3,x
   013A 95            [ 2]  237 	tsx
   013B 45r00r00      [ 3]  238 	ldhx	#___fsdiv_PARM_2
   013E 9E E6 0B      [ 4]  239 	lda	11,s
   0141 F7            [ 2]  240 	sta	,x
   0142 9E E6 0C      [ 4]  241 	lda	12,s
   0145 E7 01         [ 3]  242 	sta	1,x
   0147 9E E6 0D      [ 4]  243 	lda	13,s
   014A E7 02         [ 3]  244 	sta	2,x
   014C 9E E6 0E      [ 4]  245 	lda	14,s
   014F E7 03         [ 3]  246 	sta	3,x
   0151 CDr00r00      [ 5]  247 	jsr	___fsdiv
   0154 C7r00r03      [ 4]  248 	sta	(___fsadd_PARM_2 + 3)
   0157 CFr00r02      [ 4]  249 	stx	(___fsadd_PARM_2 + 2)
   015A B6*00         [ 3]  250 	lda	*___SDCC_hc08_ret2
   015C C7r00r01      [ 4]  251 	sta	(___fsadd_PARM_2 + 1)
   015F B6*00         [ 3]  252 	lda	*___SDCC_hc08_ret3
   0161 C7r00r00      [ 4]  253 	sta	___fsadd_PARM_2
   0164 95            [ 2]  254 	tsx
   0165 45r00r00      [ 3]  255 	ldhx	#___fsadd_PARM_1
   0168 9E E6 0B      [ 4]  256 	lda	11,s
   016B F7            [ 2]  257 	sta	,x
   016C 9E E6 0C      [ 4]  258 	lda	12,s
   016F E7 01         [ 3]  259 	sta	1,x
   0171 9E E6 0D      [ 4]  260 	lda	13,s
   0174 E7 02         [ 3]  261 	sta	2,x
   0176 9E E6 0E      [ 4]  262 	lda	14,s
   0179 E7 03         [ 3]  263 	sta	3,x
                            264 ;../sqrtf.c:53: y=ldexpf(y, -2) + f/y; /*Faster version of 0.25 * y + f/y*/
   017B CDr00r00      [ 5]  265 	jsr	___fsadd
   017E 9E E7 0E      [ 4]  266 	sta	14,s
   0181 9E EF 0D      [ 4]  267 	stx	13,s
   0184 B6*00         [ 3]  268 	lda	*___SDCC_hc08_ret2
   0186 9E E7 0C      [ 4]  269 	sta	12,s
   0189 B6*00         [ 3]  270 	lda	*___SDCC_hc08_ret3
   018B 9E E7 0B      [ 4]  271 	sta	11,s
   018E 95            [ 2]  272 	tsx
   018F 45r00r00      [ 3]  273 	ldhx	#_ldexpf_PARM_1
   0192 9E E6 0B      [ 4]  274 	lda	11,s
   0195 F7            [ 2]  275 	sta	,x
   0196 9E E6 0C      [ 4]  276 	lda	12,s
   0199 E7 01         [ 3]  277 	sta	1,x
   019B 9E E6 0D      [ 4]  278 	lda	13,s
   019E E7 02         [ 3]  279 	sta	2,x
   01A0 9E E6 0E      [ 4]  280 	lda	14,s
   01A3 E7 03         [ 3]  281 	sta	3,x
   01A5 A6 FF         [ 2]  282 	lda	#0xff
   01A7 C7r00r00      [ 4]  283 	sta	_ldexpf_PARM_2
   01AA 4A            [ 1]  284 	deca
   01AB C7r00r01      [ 4]  285 	sta	(_ldexpf_PARM_2 + 1)
   01AE CDr00r00      [ 5]  286 	jsr	_ldexpf
   01B1 9E E7 0A      [ 4]  287 	sta	10,s
   01B4 9E EF 09      [ 4]  288 	stx	9,s
   01B7 B6*00         [ 3]  289 	lda	*___SDCC_hc08_ret2
   01B9 9E E7 08      [ 4]  290 	sta	8,s
   01BC B6*00         [ 3]  291 	lda	*___SDCC_hc08_ret3
   01BE 9E E7 07      [ 4]  292 	sta	7,s
   01C1 95            [ 2]  293 	tsx
   01C2 45r00r00      [ 3]  294 	ldhx	#___fsdiv_PARM_1
   01C5 9E E6 0F      [ 4]  295 	lda	15,s
   01C8 F7            [ 2]  296 	sta	,x
   01C9 9E E6 10      [ 4]  297 	lda	16,s
   01CC E7 01         [ 3]  298 	sta	1,x
   01CE 9E E6 11      [ 4]  299 	lda	17,s
   01D1 E7 02         [ 3]  300 	sta	2,x
   01D3 9E E6 12      [ 4]  301 	lda	18,s
   01D6 E7 03         [ 3]  302 	sta	3,x
   01D8 95            [ 2]  303 	tsx
   01D9 45r00r00      [ 3]  304 	ldhx	#___fsdiv_PARM_2
   01DC 9E E6 0B      [ 4]  305 	lda	11,s
   01DF F7            [ 2]  306 	sta	,x
   01E0 9E E6 0C      [ 4]  307 	lda	12,s
   01E3 E7 01         [ 3]  308 	sta	1,x
   01E5 9E E6 0D      [ 4]  309 	lda	13,s
   01E8 E7 02         [ 3]  310 	sta	2,x
   01EA 9E E6 0E      [ 4]  311 	lda	14,s
   01ED E7 03         [ 3]  312 	sta	3,x
   01EF CDr00r00      [ 5]  313 	jsr	___fsdiv
   01F2 C7r00r03      [ 4]  314 	sta	(___fsadd_PARM_2 + 3)
   01F5 CFr00r02      [ 4]  315 	stx	(___fsadd_PARM_2 + 2)
   01F8 B6*00         [ 3]  316 	lda	*___SDCC_hc08_ret2
   01FA C7r00r01      [ 4]  317 	sta	(___fsadd_PARM_2 + 1)
   01FD B6*00         [ 3]  318 	lda	*___SDCC_hc08_ret3
   01FF C7r00r00      [ 4]  319 	sta	___fsadd_PARM_2
   0202 95            [ 2]  320 	tsx
   0203 45r00r00      [ 3]  321 	ldhx	#___fsadd_PARM_1
   0206 9E E6 07      [ 4]  322 	lda	7,s
   0209 F7            [ 2]  323 	sta	,x
   020A 9E E6 08      [ 4]  324 	lda	8,s
   020D E7 01         [ 3]  325 	sta	1,x
   020F 9E E6 09      [ 4]  326 	lda	9,s
   0212 E7 02         [ 3]  327 	sta	2,x
   0214 9E E6 0A      [ 4]  328 	lda	10,s
   0217 E7 03         [ 3]  329 	sta	3,x
   0219 CDr00r00      [ 5]  330 	jsr	___fsadd
   021C 9E E7 0A      [ 4]  331 	sta	10,s
   021F 9E EF 09      [ 4]  332 	stx	9,s
   0222 B6*00         [ 3]  333 	lda	*___SDCC_hc08_ret2
   0224 9E E7 08      [ 4]  334 	sta	8,s
   0227 B6*00         [ 3]  335 	lda	*___SDCC_hc08_ret3
   0229 9E E7 07      [ 4]  336 	sta	7,s
   022C 95            [ 2]  337 	tsx
   022D E6 06         [ 3]  338 	lda	6,x
   022F E7 02         [ 3]  339 	sta	2,x
   0231 E6 07         [ 3]  340 	lda	7,x
   0233 E7 03         [ 3]  341 	sta	3,x
   0235 E6 08         [ 3]  342 	lda	8,x
   0237 E7 04         [ 3]  343 	sta	4,x
   0239 E6 09         [ 3]  344 	lda	9,x
   023B E7 05         [ 3]  345 	sta	5,x
                            346 ;../sqrtf.c:55: if (n&1)
   023D E6 01         [ 3]  347 	lda	1,x
   023F A5 01         [ 2]  348 	bit	#0x01
   0241 27 42         [ 3]  349 	beq	00110$
                            350 ;../sqrtf.c:57: y*=0.7071067812;
   0243 45r00r00      [ 3]  351 	ldhx	#___fsmul_PARM_1
   0246 A6 3F         [ 2]  352 	lda	#0x3f
   0248 F7            [ 2]  353 	sta	,x
   0249 A6 35         [ 2]  354 	lda	#0x35
   024B E7 01         [ 3]  355 	sta	1,x
   024D A6 04         [ 2]  356 	lda	#0x04
   024F E7 02         [ 3]  357 	sta	2,x
   0251 A6 F3         [ 2]  358 	lda	#0xf3
   0253 E7 03         [ 3]  359 	sta	3,x
   0255 95            [ 2]  360 	tsx
   0256 45r00r00      [ 3]  361 	ldhx	#___fsmul_PARM_2
   0259 9E E6 07      [ 4]  362 	lda	7,s
   025C F7            [ 2]  363 	sta	,x
   025D 9E E6 08      [ 4]  364 	lda	8,s
   0260 E7 01         [ 3]  365 	sta	1,x
   0262 9E E6 09      [ 4]  366 	lda	9,s
   0265 E7 02         [ 3]  367 	sta	2,x
   0267 9E E6 0A      [ 4]  368 	lda	10,s
   026A E7 03         [ 3]  369 	sta	3,x
   026C CDr00r00      [ 5]  370 	jsr	___fsmul
   026F 9E E7 06      [ 4]  371 	sta	6,s
   0272 9E EF 05      [ 4]  372 	stx	5,s
   0275 B6*00         [ 3]  373 	lda	*___SDCC_hc08_ret2
   0277 9E E7 04      [ 4]  374 	sta	4,s
   027A B6*00         [ 3]  375 	lda	*___SDCC_hc08_ret3
   027C 9E E7 03      [ 4]  376 	sta	3,s
                            377 ;../sqrtf.c:58: ++n;
   027F 95            [ 2]  378 	tsx
   0280 6C 01         [ 4]  379 	inc	1,x
   0282 26 01         [ 3]  380 	bne	00144$
   0284 7C            [ 3]  381 	inc	,x
   0285                     382 00144$:
   0285                     383 00110$:
                            384 ;../sqrtf.c:60: return ldexpf(y, n/2);
   0285 9E EE 01      [ 4]  385 	ldx	1,s
   0288 9E E6 02      [ 4]  386 	lda	2,s
   028B 87            [ 2]  387 	psha
   028C 9F            [ 1]  388 	txa
   028D A0 00         [ 2]  389 	sub	#0x00
   028F 86            [ 2]  390 	pula
   0290 90 04         [ 3]  391 	bge	00113$
   0292 4C            [ 1]  392 	inca
   0293 26 01         [ 3]  393 	bne	00146$
   0295 5C            [ 1]  394 	incx
   0296                     395 00146$:
   0296                     396 00113$:
   0296 57            [ 1]  397 	asrx
   0297 46            [ 1]  398 	rora
   0298 C7r00r01      [ 4]  399 	sta	(_ldexpf_PARM_2 + 1)
   029B CFr00r00      [ 4]  400 	stx	_ldexpf_PARM_2
   029E 95            [ 2]  401 	tsx
   029F 45r00r00      [ 3]  402 	ldhx	#_ldexpf_PARM_1
   02A2 9E E6 03      [ 4]  403 	lda	3,s
   02A5 F7            [ 2]  404 	sta	,x
   02A6 9E E6 04      [ 4]  405 	lda	4,s
   02A9 E7 01         [ 3]  406 	sta	1,x
   02AB 9E E6 05      [ 4]  407 	lda	5,s
   02AE E7 02         [ 3]  408 	sta	2,x
   02B0 9E E6 06      [ 4]  409 	lda	6,s
   02B3 E7 03         [ 3]  410 	sta	3,x
   02B5 CDr00r00      [ 5]  411 	jsr	_ldexpf
   02B8 9E E7 0A      [ 4]  412 	sta	10,s
   02BB 9E EF 09      [ 4]  413 	stx	9,s
   02BE B6*00         [ 3]  414 	lda	*___SDCC_hc08_ret2
   02C0 9E E7 08      [ 4]  415 	sta	8,s
   02C3 B6*00         [ 3]  416 	lda	*___SDCC_hc08_ret3
   02C5 9E E7 07      [ 4]  417 	sta	7,s
   02C8 95            [ 2]  418 	tsx
   02C9 E6 06         [ 3]  419 	lda	6,x
   02CB B7*00         [ 3]  420 	sta	*___SDCC_hc08_ret3
   02CD E6 07         [ 3]  421 	lda	7,x
   02CF B7*00         [ 3]  422 	sta	*___SDCC_hc08_ret2
   02D1 EE 08         [ 3]  423 	ldx	8,x
   02D3 9E E6 0A      [ 4]  424 	lda	10,s
   02D6                     425 00111$:
                            426 ;../sqrtf.c:61: }
   02D6 A7 12         [ 2]  427 	ais	#18
   02D8 81            [ 4]  428 	rts
                            429 	.area CSEG    (CODE)
                            430 	.area CONST   (CODE)
                            431 	.area XINIT   (CODE)
                            432 	.area CABS    (ABS,CODE)
