                              1 ;--------------------------------------------------------
                              2 ; File Created by SDCC : free open source ISO C Compiler 
                              3 ; Version 4.2.14 #0 (Linux)
                              4 ;--------------------------------------------------------
                              5 	.module __stdc_count_trailing_onesull
                              6 	.optsdcc -mmos6502
                              7 	
                              8 ;--------------------------------------------------------
                              9 ; Public variables in this module
                             10 ;--------------------------------------------------------
                             11 	.globl ___stdc_count_trailing_onesull_PARM_1
                             12 	.globl ___stdc_count_trailing_onesull
                             13 ;--------------------------------------------------------
                             14 ; ZP ram data
                             15 ;--------------------------------------------------------
                             16 	.area ZP      (PAG)
   0000                      17 ___stdc_count_trailing_onesull_sloc0_1_0:
   0000                      18 	.ds 8
                             19 ;--------------------------------------------------------
                             20 ; overlayable items in ram
                             21 ;--------------------------------------------------------
                             22 ;--------------------------------------------------------
                             23 ; uninitialized external ram data
                             24 ;--------------------------------------------------------
                             25 	.area BSS
   0000                      26 ___stdc_count_trailing_onesull_PARM_1:
   0000                      27 	.ds 8
                             28 ;--------------------------------------------------------
                             29 ; absolute external ram data
                             30 ;--------------------------------------------------------
                             31 	.area DABS    (ABS)
                             32 ;--------------------------------------------------------
                             33 ; initialized external ram data
                             34 ;--------------------------------------------------------
                             35 	.area DATA
                             36 ;--------------------------------------------------------
                             37 ; global & static initialisations
                             38 ;--------------------------------------------------------
                             39 	.area _CODE
                             40 	.area GSINIT
                             41 	.area GSFINAL
                             42 	.area GSINIT
                             43 ;--------------------------------------------------------
                             44 ; Home
                             45 ;--------------------------------------------------------
                             46 	.area _CODE
                             47 	.area _CODE
                             48 ;--------------------------------------------------------
                             49 ; code
                             50 ;--------------------------------------------------------
                             51 	.area CODE
                             52 ;------------------------------------------------------------
                             53 ;Allocation info for local variables in function '__stdc_count_trailing_onesull'
                             54 ;------------------------------------------------------------
                             55 ;sloc0                     Allocated with name '___stdc_count_trailing_onesull_sloc0_1_0'
                             56 ;value                     Allocated with name '___stdc_count_trailing_onesull_PARM_1'
                             57 ;count                     Allocated to registers 
                             58 ;i                         Allocated to registers 
                             59 ;------------------------------------------------------------
                             60 ;	../__stdc_count_trailing_onesull.c: 37: int_fast8_t __stdc_count_trailing_onesull(unsigned long long value)
                             61 ;	-----------------------------------------
                             62 ;	 function __stdc_count_trailing_onesull
                             63 ;	-----------------------------------------
                             64 ;	Register assignment is optimal.
                             65 ;	Stack space usage: 0 bytes.
   0000                      66 ___stdc_count_trailing_onesull:
                             67 ;	../__stdc_count_trailing_onesull.c: 40: for(uint_fast8_t i = 0; i < ULLONG_WIDTH; i++)
   0000 A2 00         [ 2]   68 	ldx	#0x00
   0002 A0 00         [ 2]   69 	ldy	#0x00
   0004                      70 00106$:
   0004 C0 40         [ 2]   71 	cpy	#0x40
   0006 90 03         [ 4]   72 	bcc	00123$
   0008 4Cr94r00      [ 3]   73 	jmp	00104$
   000B                      74 00123$:
                             75 ;	../__stdc_count_trailing_onesull.c: 41: if(value & (1ull << i))
   000B A9 01         [ 2]   76 	lda	#0x01
   000D 8Dr00r00      [ 4]   77 	sta	__rlulonglong_PARM_1
   0010 A9 00         [ 2]   78 	lda	#0x00
   0012 8Dr01r00      [ 4]   79 	sta	(__rlulonglong_PARM_1 + 1)
   0015 8Dr02r00      [ 4]   80 	sta	(__rlulonglong_PARM_1 + 2)
   0018 8Dr03r00      [ 4]   81 	sta	(__rlulonglong_PARM_1 + 3)
   001B 8Dr04r00      [ 4]   82 	sta	(__rlulonglong_PARM_1 + 4)
   001E 8Dr05r00      [ 4]   83 	sta	(__rlulonglong_PARM_1 + 5)
   0021 8Dr06r00      [ 4]   84 	sta	(__rlulonglong_PARM_1 + 6)
   0024 8Dr07r00      [ 4]   85 	sta	(__rlulonglong_PARM_1 + 7)
   0027 8Cr00r00      [ 4]   86 	sty	__rlulonglong_PARM_2
   002A 85*00         [ 3]   87 	sta	*(__TEMP+0)
   002C 8A            [ 2]   88 	txa
   002D 48            [ 3]   89 	pha
   002E 98            [ 2]   90 	tya
   002F 48            [ 3]   91 	pha
   0030 A9 00         [ 2]   92 	lda	#0x00
   0032 20r00r00      [ 6]   93 	jsr	__rlulonglong
   0035 85*00         [ 3]   94 	sta	*___stdc_count_trailing_onesull_sloc0_1_0
   0037 86*01         [ 3]   95 	stx	*(___stdc_count_trailing_onesull_sloc0_1_0 + 1)
   0039 A5*00         [ 3]   96 	lda	*___SDCC_m6502_ret2
   003B 85*02         [ 3]   97 	sta	*(___stdc_count_trailing_onesull_sloc0_1_0 + 2)
   003D A5*00         [ 3]   98 	lda	*___SDCC_m6502_ret3
   003F 85*03         [ 3]   99 	sta	*(___stdc_count_trailing_onesull_sloc0_1_0 + 3)
   0041 A5*00         [ 3]  100 	lda	*___SDCC_m6502_ret4
   0043 85*04         [ 3]  101 	sta	*(___stdc_count_trailing_onesull_sloc0_1_0 + 4)
   0045 A5*00         [ 3]  102 	lda	*___SDCC_m6502_ret5
   0047 85*05         [ 3]  103 	sta	*(___stdc_count_trailing_onesull_sloc0_1_0 + 5)
   0049 A5*00         [ 3]  104 	lda	*___SDCC_m6502_ret6
   004B 85*06         [ 3]  105 	sta	*(___stdc_count_trailing_onesull_sloc0_1_0 + 6)
   004D A5*00         [ 3]  106 	lda	*___SDCC_m6502_ret7
   004F 85*07         [ 3]  107 	sta	*(___stdc_count_trailing_onesull_sloc0_1_0 + 7)
   0051 85*00         [ 3]  108 	sta	*(__TEMP+0)
   0053 68            [ 4]  109 	pla
   0054 A8            [ 2]  110 	tay
   0055 68            [ 4]  111 	pla
   0056 AA            [ 2]  112 	tax
   0057 A5*00         [ 3]  113 	lda	*___stdc_count_trailing_onesull_sloc0_1_0
   0059 2Dr00r00      [ 4]  114 	and	___stdc_count_trailing_onesull_PARM_1
   005C D0 2F         [ 4]  115 	bne	00124$
   005E A5*01         [ 3]  116 	lda	*(___stdc_count_trailing_onesull_sloc0_1_0 + 1)
   0060 2Dr01r00      [ 4]  117 	and	(___stdc_count_trailing_onesull_PARM_1 + 1)
   0063 D0 28         [ 4]  118 	bne	00124$
   0065 A5*02         [ 3]  119 	lda	*(___stdc_count_trailing_onesull_sloc0_1_0 + 2)
   0067 2Dr02r00      [ 4]  120 	and	(___stdc_count_trailing_onesull_PARM_1 + 2)
   006A D0 21         [ 4]  121 	bne	00124$
   006C A5*03         [ 3]  122 	lda	*(___stdc_count_trailing_onesull_sloc0_1_0 + 3)
   006E 2Dr03r00      [ 4]  123 	and	(___stdc_count_trailing_onesull_PARM_1 + 3)
   0071 D0 1A         [ 4]  124 	bne	00124$
   0073 A5*04         [ 3]  125 	lda	*(___stdc_count_trailing_onesull_sloc0_1_0 + 4)
   0075 2Dr04r00      [ 4]  126 	and	(___stdc_count_trailing_onesull_PARM_1 + 4)
   0078 D0 13         [ 4]  127 	bne	00124$
   007A A5*05         [ 3]  128 	lda	*(___stdc_count_trailing_onesull_sloc0_1_0 + 5)
   007C 2Dr05r00      [ 4]  129 	and	(___stdc_count_trailing_onesull_PARM_1 + 5)
   007F D0 0C         [ 4]  130 	bne	00124$
   0081 A5*06         [ 3]  131 	lda	*(___stdc_count_trailing_onesull_sloc0_1_0 + 6)
   0083 2Dr06r00      [ 4]  132 	and	(___stdc_count_trailing_onesull_PARM_1 + 6)
   0086 D0 05         [ 4]  133 	bne	00124$
   0088 A5*07         [ 3]  134 	lda	*(___stdc_count_trailing_onesull_sloc0_1_0 + 7)
   008A 2Dr07r00      [ 4]  135 	and	(___stdc_count_trailing_onesull_PARM_1 + 7)
   008D                     136 00124$:
   008D F0 05         [ 4]  137 	beq	00104$
                            138 ;	../__stdc_count_trailing_onesull.c: 42: count++;
   008F E8            [ 2]  139 	inx
                            140 ;	../__stdc_count_trailing_onesull.c: 40: for(uint_fast8_t i = 0; i < ULLONG_WIDTH; i++)
   0090 C8            [ 2]  141 	iny
   0091 4Cr04r00      [ 3]  142 	jmp	00106$
   0094                     143 00104$:
                            144 ;	../__stdc_count_trailing_onesull.c: 45: return count;
   0094 8A            [ 2]  145 	txa
                            146 ;	../__stdc_count_trailing_onesull.c: 46: }
   0095 60            [ 6]  147 	rts
                            148 	.area CODE
                            149 	.area RODATA
                            150 	.area XINIT
                            151 	.area CABS    (ABS)
