                              1 ;--------------------------------------------------------
                              2 ; File Created by SDCC : free open source ISO C Compiler 
                              3 ; Version 4.2.14 #0 (Linux)
                              4 ;--------------------------------------------------------
                              5 	.module _divslonglong
                              6 	.optsdcc -mmos6502
                              7 	
                              8 ;--------------------------------------------------------
                              9 ; Public variables in this module
                             10 ;--------------------------------------------------------
                             11 	.globl __divslonglong_PARM_2
                             12 	.globl __divslonglong_PARM_1
                             13 	.globl __divslonglong
                             14 ;--------------------------------------------------------
                             15 ; ZP ram data
                             16 ;--------------------------------------------------------
                             17 	.area ZP      (PAG)
   0000                      18 __divslonglong_sloc0_1_0:
   0000                      19 	.ds 8
   0008                      20 __divslonglong_sloc1_1_0:
   0008                      21 	.ds 1
   0009                      22 __divslonglong_sloc2_1_0:
   0009                      23 	.ds 8
                             24 ;--------------------------------------------------------
                             25 ; overlayable items in ram
                             26 ;--------------------------------------------------------
                             27 ;--------------------------------------------------------
                             28 ; uninitialized external ram data
                             29 ;--------------------------------------------------------
                             30 	.area BSS
   0000                      31 __divslonglong_PARM_1:
   0000                      32 	.ds 8
   0008                      33 __divslonglong_PARM_2:
   0008                      34 	.ds 8
   0010                      35 __divslonglong_numeratorneg_65536_2:
   0010                      36 	.ds 1
   0011                      37 __divslonglong_denominatorneg_65536_2:
   0011                      38 	.ds 1
                             39 ;--------------------------------------------------------
                             40 ; absolute external ram data
                             41 ;--------------------------------------------------------
                             42 	.area DABS    (ABS)
                             43 ;--------------------------------------------------------
                             44 ; initialized external ram data
                             45 ;--------------------------------------------------------
                             46 	.area DATA
                             47 ;--------------------------------------------------------
                             48 ; global & static initialisations
                             49 ;--------------------------------------------------------
                             50 	.area _CODE
                             51 	.area GSINIT
                             52 	.area GSFINAL
                             53 	.area GSINIT
                             54 ;--------------------------------------------------------
                             55 ; Home
                             56 ;--------------------------------------------------------
                             57 	.area _CODE
                             58 	.area _CODE
                             59 ;--------------------------------------------------------
                             60 ; code
                             61 ;--------------------------------------------------------
                             62 	.area CODE
                             63 ;------------------------------------------------------------
                             64 ;Allocation info for local variables in function '_divslonglong'
                             65 ;------------------------------------------------------------
                             66 ;sloc0                     Allocated with name '__divslonglong_sloc0_1_0'
                             67 ;sloc1                     Allocated with name '__divslonglong_sloc1_1_0'
                             68 ;sloc2                     Allocated with name '__divslonglong_sloc2_1_0'
                             69 ;numerator                 Allocated with name '__divslonglong_PARM_1'
                             70 ;denominator               Allocated with name '__divslonglong_PARM_2'
                             71 ;numeratorneg              Allocated with name '__divslonglong_numeratorneg_65536_2'
                             72 ;denominatorneg            Allocated with name '__divslonglong_denominatorneg_65536_2'
                             73 ;d                         Allocated with name '__divslonglong_d_65536_2'
                             74 ;------------------------------------------------------------
                             75 ;	../_divslonglong.c: 40: _divslonglong (long long numerator, long long denominator) __SDCC_NONBANKED
                             76 ;	-----------------------------------------
                             77 ;	 function _divslonglong
                             78 ;	-----------------------------------------
                             79 ;	Register assignment is optimal.
                             80 ;	Stack space usage: 0 bytes.
   0000                      81 __divslonglong:
                             82 ;	../_divslonglong.c: 42: bool numeratorneg = (numerator < 0);
   0000 ADr07r00      [ 4]   83 	lda	(__divslonglong_PARM_1 + 7)
   0003 38            [ 2]   84 	sec
   0004 E9 00         [ 2]   85 	sbc	#0x00
   0006 50 04         [ 4]   86 	bvc	00123$
   0008 10 09         [ 4]   87 	bpl	00121$
   000A 30 02         [ 4]   88 	bmi	00124$
   000C                      89 00123$:
   000C 30 05         [ 4]   90 	bmi	00121$
   000E                      91 00124$:
   000E A9 00         [ 2]   92 	lda	#0x00
   0010 4Cr15r00      [ 3]   93 	jmp	00122$
   0013                      94 00121$:
   0013 A9 01         [ 2]   95 	lda	#0x01
   0015                      96 00122$:
   0015 8Dr10r00      [ 4]   97 	sta	__divslonglong_numeratorneg_65536_2
                             98 ;	../_divslonglong.c: 43: bool denominatorneg = (denominator < 0);
   0018 ADr0Fr00      [ 4]   99 	lda	(__divslonglong_PARM_2 + 7)
   001B 38            [ 2]  100 	sec
   001C E9 00         [ 2]  101 	sbc	#0x00
   001E 50 04         [ 4]  102 	bvc	00127$
   0020 10 09         [ 4]  103 	bpl	00125$
   0022 30 02         [ 4]  104 	bmi	00128$
   0024                     105 00127$:
   0024 30 05         [ 4]  106 	bmi	00125$
   0026                     107 00128$:
   0026 A9 00         [ 2]  108 	lda	#0x00
   0028 4Cr2Dr00      [ 3]  109 	jmp	00126$
   002B                     110 00125$:
   002B A9 01         [ 2]  111 	lda	#0x01
   002D                     112 00126$:
   002D 8Dr11r00      [ 4]  113 	sta	__divslonglong_denominatorneg_65536_2
                            114 ;	../_divslonglong.c: 46: if (numeratorneg)
   0030 ADr10r00      [ 4]  115 	lda	__divslonglong_numeratorneg_65536_2
   0033 F0 41         [ 4]  116 	beq	00102$
                            117 ;	../_divslonglong.c: 47: numerator = -numerator;
   0035 A9 00         [ 2]  118 	lda	#0x00
   0037 38            [ 2]  119 	sec
   0038 EDr00r00      [ 4]  120 	sbc	__divslonglong_PARM_1
   003B 8Dr00r00      [ 4]  121 	sta	__divslonglong_PARM_1
   003E A9 00         [ 2]  122 	lda	#0x00
   0040 EDr01r00      [ 4]  123 	sbc	(__divslonglong_PARM_1 + 1)
   0043 8Dr01r00      [ 4]  124 	sta	(__divslonglong_PARM_1 + 1)
   0046 A9 00         [ 2]  125 	lda	#0x00
   0048 EDr02r00      [ 4]  126 	sbc	(__divslonglong_PARM_1 + 2)
   004B 8Dr02r00      [ 4]  127 	sta	(__divslonglong_PARM_1 + 2)
   004E A9 00         [ 2]  128 	lda	#0x00
   0050 EDr03r00      [ 4]  129 	sbc	(__divslonglong_PARM_1 + 3)
   0053 8Dr03r00      [ 4]  130 	sta	(__divslonglong_PARM_1 + 3)
   0056 A9 00         [ 2]  131 	lda	#0x00
   0058 EDr04r00      [ 4]  132 	sbc	(__divslonglong_PARM_1 + 4)
   005B 8Dr04r00      [ 4]  133 	sta	(__divslonglong_PARM_1 + 4)
   005E A9 00         [ 2]  134 	lda	#0x00
   0060 EDr05r00      [ 4]  135 	sbc	(__divslonglong_PARM_1 + 5)
   0063 8Dr05r00      [ 4]  136 	sta	(__divslonglong_PARM_1 + 5)
   0066 A9 00         [ 2]  137 	lda	#0x00
   0068 EDr06r00      [ 4]  138 	sbc	(__divslonglong_PARM_1 + 6)
   006B 8Dr06r00      [ 4]  139 	sta	(__divslonglong_PARM_1 + 6)
   006E A9 00         [ 2]  140 	lda	#0x00
   0070 EDr07r00      [ 4]  141 	sbc	(__divslonglong_PARM_1 + 7)
   0073 8Dr07r00      [ 4]  142 	sta	(__divslonglong_PARM_1 + 7)
   0076                     143 00102$:
                            144 ;	../_divslonglong.c: 48: if (denominatorneg)
   0076 ADr11r00      [ 4]  145 	lda	__divslonglong_denominatorneg_65536_2
   0079 F0 41         [ 4]  146 	beq	00104$
                            147 ;	../_divslonglong.c: 49: denominator = -denominator;
   007B A9 00         [ 2]  148 	lda	#0x00
   007D 38            [ 2]  149 	sec
   007E EDr08r00      [ 4]  150 	sbc	__divslonglong_PARM_2
   0081 8Dr08r00      [ 4]  151 	sta	__divslonglong_PARM_2
   0084 A9 00         [ 2]  152 	lda	#0x00
   0086 EDr09r00      [ 4]  153 	sbc	(__divslonglong_PARM_2 + 1)
   0089 8Dr09r00      [ 4]  154 	sta	(__divslonglong_PARM_2 + 1)
   008C A9 00         [ 2]  155 	lda	#0x00
   008E EDr0Ar00      [ 4]  156 	sbc	(__divslonglong_PARM_2 + 2)
   0091 8Dr0Ar00      [ 4]  157 	sta	(__divslonglong_PARM_2 + 2)
   0094 A9 00         [ 2]  158 	lda	#0x00
   0096 EDr0Br00      [ 4]  159 	sbc	(__divslonglong_PARM_2 + 3)
   0099 8Dr0Br00      [ 4]  160 	sta	(__divslonglong_PARM_2 + 3)
   009C A9 00         [ 2]  161 	lda	#0x00
   009E EDr0Cr00      [ 4]  162 	sbc	(__divslonglong_PARM_2 + 4)
   00A1 8Dr0Cr00      [ 4]  163 	sta	(__divslonglong_PARM_2 + 4)
   00A4 A9 00         [ 2]  164 	lda	#0x00
   00A6 EDr0Dr00      [ 4]  165 	sbc	(__divslonglong_PARM_2 + 5)
   00A9 8Dr0Dr00      [ 4]  166 	sta	(__divslonglong_PARM_2 + 5)
   00AC A9 00         [ 2]  167 	lda	#0x00
   00AE EDr0Er00      [ 4]  168 	sbc	(__divslonglong_PARM_2 + 6)
   00B1 8Dr0Er00      [ 4]  169 	sta	(__divslonglong_PARM_2 + 6)
   00B4 A9 00         [ 2]  170 	lda	#0x00
   00B6 EDr0Fr00      [ 4]  171 	sbc	(__divslonglong_PARM_2 + 7)
   00B9 8Dr0Fr00      [ 4]  172 	sta	(__divslonglong_PARM_2 + 7)
   00BC                     173 00104$:
                            174 ;	../_divslonglong.c: 51: d = (unsigned long long)numerator / (unsigned long long)denominator;
   00BC ADr00r00      [ 4]  175 	lda	__divslonglong_PARM_1
   00BF 8Dr00r00      [ 4]  176 	sta	__divulonglong_PARM_1
   00C2 ADr01r00      [ 4]  177 	lda	(__divslonglong_PARM_1 + 1)
   00C5 8Dr01r00      [ 4]  178 	sta	(__divulonglong_PARM_1 + 1)
   00C8 ADr02r00      [ 4]  179 	lda	(__divslonglong_PARM_1 + 2)
   00CB 8Dr02r00      [ 4]  180 	sta	(__divulonglong_PARM_1 + 2)
   00CE ADr03r00      [ 4]  181 	lda	(__divslonglong_PARM_1 + 3)
   00D1 8Dr03r00      [ 4]  182 	sta	(__divulonglong_PARM_1 + 3)
   00D4 ADr04r00      [ 4]  183 	lda	(__divslonglong_PARM_1 + 4)
   00D7 8Dr04r00      [ 4]  184 	sta	(__divulonglong_PARM_1 + 4)
   00DA ADr05r00      [ 4]  185 	lda	(__divslonglong_PARM_1 + 5)
   00DD 8Dr05r00      [ 4]  186 	sta	(__divulonglong_PARM_1 + 5)
   00E0 ADr06r00      [ 4]  187 	lda	(__divslonglong_PARM_1 + 6)
   00E3 8Dr06r00      [ 4]  188 	sta	(__divulonglong_PARM_1 + 6)
   00E6 ADr07r00      [ 4]  189 	lda	(__divslonglong_PARM_1 + 7)
   00E9 8Dr07r00      [ 4]  190 	sta	(__divulonglong_PARM_1 + 7)
   00EC ADr08r00      [ 4]  191 	lda	__divslonglong_PARM_2
   00EF 8Dr00r00      [ 4]  192 	sta	__divulonglong_PARM_2
   00F2 ADr09r00      [ 4]  193 	lda	(__divslonglong_PARM_2 + 1)
   00F5 8Dr01r00      [ 4]  194 	sta	(__divulonglong_PARM_2 + 1)
   00F8 ADr0Ar00      [ 4]  195 	lda	(__divslonglong_PARM_2 + 2)
   00FB 8Dr02r00      [ 4]  196 	sta	(__divulonglong_PARM_2 + 2)
   00FE ADr0Br00      [ 4]  197 	lda	(__divslonglong_PARM_2 + 3)
   0101 8Dr03r00      [ 4]  198 	sta	(__divulonglong_PARM_2 + 3)
   0104 ADr0Cr00      [ 4]  199 	lda	(__divslonglong_PARM_2 + 4)
   0107 8Dr04r00      [ 4]  200 	sta	(__divulonglong_PARM_2 + 4)
   010A ADr0Dr00      [ 4]  201 	lda	(__divslonglong_PARM_2 + 5)
   010D 8Dr05r00      [ 4]  202 	sta	(__divulonglong_PARM_2 + 5)
   0110 ADr0Er00      [ 4]  203 	lda	(__divslonglong_PARM_2 + 6)
   0113 8Dr06r00      [ 4]  204 	sta	(__divulonglong_PARM_2 + 6)
   0116 ADr0Fr00      [ 4]  205 	lda	(__divslonglong_PARM_2 + 7)
   0119 8Dr07r00      [ 4]  206 	sta	(__divulonglong_PARM_2 + 7)
                            207 ;	../_divslonglong.c: 53: return ((numeratorneg ^ denominatorneg) ? -d : d);
   011C 20r00r00      [ 6]  208 	jsr	__divulonglong
   011F 85*00         [ 3]  209 	sta	*__divslonglong_sloc0_1_0
   0121 86*01         [ 3]  210 	stx	*(__divslonglong_sloc0_1_0 + 1)
   0123 A5*00         [ 3]  211 	lda	*___SDCC_m6502_ret2
   0125 85*02         [ 3]  212 	sta	*(__divslonglong_sloc0_1_0 + 2)
   0127 A5*00         [ 3]  213 	lda	*___SDCC_m6502_ret3
   0129 85*03         [ 3]  214 	sta	*(__divslonglong_sloc0_1_0 + 3)
   012B A5*00         [ 3]  215 	lda	*___SDCC_m6502_ret4
   012D 85*04         [ 3]  216 	sta	*(__divslonglong_sloc0_1_0 + 4)
   012F A5*00         [ 3]  217 	lda	*___SDCC_m6502_ret5
   0131 85*05         [ 3]  218 	sta	*(__divslonglong_sloc0_1_0 + 5)
   0133 A5*00         [ 3]  219 	lda	*___SDCC_m6502_ret6
   0135 85*06         [ 3]  220 	sta	*(__divslonglong_sloc0_1_0 + 6)
   0137 A5*00         [ 3]  221 	lda	*___SDCC_m6502_ret7
   0139 85*07         [ 3]  222 	sta	*(__divslonglong_sloc0_1_0 + 7)
   013B ADr10r00      [ 4]  223 	lda	__divslonglong_numeratorneg_65536_2
   013E 4Dr11r00      [ 4]  224 	eor	__divslonglong_denominatorneg_65536_2
   0141 F0 34         [ 4]  225 	beq	00107$
   0143 A9 00         [ 2]  226 	lda	#0x00
   0145 38            [ 2]  227 	sec
   0146 E5*00         [ 3]  228 	sbc	*__divslonglong_sloc0_1_0
   0148 85*09         [ 3]  229 	sta	*__divslonglong_sloc2_1_0
   014A A9 00         [ 2]  230 	lda	#0x00
   014C E5*01         [ 3]  231 	sbc	*(__divslonglong_sloc0_1_0 + 1)
   014E 85*0A         [ 3]  232 	sta	*(__divslonglong_sloc2_1_0 + 1)
   0150 A9 00         [ 2]  233 	lda	#0x00
   0152 E5*02         [ 3]  234 	sbc	*(__divslonglong_sloc0_1_0 + 2)
   0154 85*0B         [ 3]  235 	sta	*(__divslonglong_sloc2_1_0 + 2)
   0156 A9 00         [ 2]  236 	lda	#0x00
   0158 E5*03         [ 3]  237 	sbc	*(__divslonglong_sloc0_1_0 + 3)
   015A 85*0C         [ 3]  238 	sta	*(__divslonglong_sloc2_1_0 + 3)
   015C A9 00         [ 2]  239 	lda	#0x00
   015E E5*04         [ 3]  240 	sbc	*(__divslonglong_sloc0_1_0 + 4)
   0160 85*0D         [ 3]  241 	sta	*(__divslonglong_sloc2_1_0 + 4)
   0162 A9 00         [ 2]  242 	lda	#0x00
   0164 E5*05         [ 3]  243 	sbc	*(__divslonglong_sloc0_1_0 + 5)
   0166 85*0E         [ 3]  244 	sta	*(__divslonglong_sloc2_1_0 + 5)
   0168 A9 00         [ 2]  245 	lda	#0x00
   016A E5*06         [ 3]  246 	sbc	*(__divslonglong_sloc0_1_0 + 6)
   016C 85*0F         [ 3]  247 	sta	*(__divslonglong_sloc2_1_0 + 6)
   016E A9 00         [ 2]  248 	lda	#0x00
   0170 E5*07         [ 3]  249 	sbc	*(__divslonglong_sloc0_1_0 + 7)
   0172 85*10         [ 3]  250 	sta	*(__divslonglong_sloc2_1_0 + 7)
   0174 4Cr97r01      [ 3]  251 	jmp	00108$
   0177                     252 00107$:
   0177 A5*00         [ 3]  253 	lda	*__divslonglong_sloc0_1_0
   0179 85*09         [ 3]  254 	sta	*__divslonglong_sloc2_1_0
   017B A5*01         [ 3]  255 	lda	*(__divslonglong_sloc0_1_0 + 1)
   017D 85*0A         [ 3]  256 	sta	*(__divslonglong_sloc2_1_0 + 1)
   017F A5*02         [ 3]  257 	lda	*(__divslonglong_sloc0_1_0 + 2)
   0181 85*0B         [ 3]  258 	sta	*(__divslonglong_sloc2_1_0 + 2)
   0183 A5*03         [ 3]  259 	lda	*(__divslonglong_sloc0_1_0 + 3)
   0185 85*0C         [ 3]  260 	sta	*(__divslonglong_sloc2_1_0 + 3)
   0187 A5*04         [ 3]  261 	lda	*(__divslonglong_sloc0_1_0 + 4)
   0189 85*0D         [ 3]  262 	sta	*(__divslonglong_sloc2_1_0 + 4)
   018B A5*05         [ 3]  263 	lda	*(__divslonglong_sloc0_1_0 + 5)
   018D 85*0E         [ 3]  264 	sta	*(__divslonglong_sloc2_1_0 + 5)
   018F A5*06         [ 3]  265 	lda	*(__divslonglong_sloc0_1_0 + 6)
   0191 85*0F         [ 3]  266 	sta	*(__divslonglong_sloc2_1_0 + 6)
   0193 A5*07         [ 3]  267 	lda	*(__divslonglong_sloc0_1_0 + 7)
   0195 85*10         [ 3]  268 	sta	*(__divslonglong_sloc2_1_0 + 7)
   0197                     269 00108$:
   0197 A5*10         [ 3]  270 	lda	*(__divslonglong_sloc2_1_0 + 7)
   0199 85*00         [ 3]  271 	sta	*___SDCC_m6502_ret7
   019B A5*0F         [ 3]  272 	lda	*(__divslonglong_sloc2_1_0 + 6)
   019D 85*00         [ 3]  273 	sta	*___SDCC_m6502_ret6
   019F A5*0E         [ 3]  274 	lda	*(__divslonglong_sloc2_1_0 + 5)
   01A1 85*00         [ 3]  275 	sta	*___SDCC_m6502_ret5
   01A3 A5*0D         [ 3]  276 	lda	*(__divslonglong_sloc2_1_0 + 4)
   01A5 85*00         [ 3]  277 	sta	*___SDCC_m6502_ret4
   01A7 A5*0C         [ 3]  278 	lda	*(__divslonglong_sloc2_1_0 + 3)
   01A9 85*00         [ 3]  279 	sta	*___SDCC_m6502_ret3
   01AB A5*0B         [ 3]  280 	lda	*(__divslonglong_sloc2_1_0 + 2)
   01AD 85*00         [ 3]  281 	sta	*___SDCC_m6502_ret2
   01AF A6*0A         [ 3]  282 	ldx	*(__divslonglong_sloc2_1_0 + 1)
   01B1 A5*09         [ 3]  283 	lda	*__divslonglong_sloc2_1_0
                            284 ;	../_divslonglong.c: 54: }
   01B3 60            [ 6]  285 	rts
                            286 	.area CODE
                            287 	.area RODATA
                            288 	.area XINIT
                            289 	.area CABS    (ABS)
