                              1 ;--------------------------------------------------------
                              2 ; File Created by SDCC : free open source ISO C Compiler 
                              3 ; Version 4.2.14 #0 (Linux)
                              4 ;--------------------------------------------------------
                              5 	.module _fsdiv
                              6 	.optsdcc -mmos6502
                              7 	
                              8 ;--------------------------------------------------------
                              9 ; Public variables in this module
                             10 ;--------------------------------------------------------
                             11 	.globl ___fsdiv_PARM_2
                             12 	.globl ___fsdiv_PARM_1
                             13 	.globl ___fsdiv
                             14 ;--------------------------------------------------------
                             15 ; ZP ram data
                             16 ;--------------------------------------------------------
                             17 	.area ZP      (PAG)
   0000                      18 ___fsdiv_sloc0_1_0:
   0000                      19 	.ds 4
                             20 ;--------------------------------------------------------
                             21 ; overlayable items in ram
                             22 ;--------------------------------------------------------
                             23 	.area	OSEG    (PAG, OVR)
   0000                      24 ___fsdiv_org_sloc0_1_0:
   0000                      25 	.ds 4
   0004                      26 ___fsdiv_org_sloc1_1_0:
   0004                      27 	.ds 4
   0008                      28 ___fsdiv_org_sloc2_1_0:
   0008                      29 	.ds 4
                             30 ;--------------------------------------------------------
                             31 ; uninitialized external ram data
                             32 ;--------------------------------------------------------
                             33 	.area BSS
   0000                      34 ___fsdiv_org_PARM_1:
   0000                      35 	.ds 4
   0004                      36 ___fsdiv_org_PARM_2:
   0004                      37 	.ds 4
   0008                      38 ___fsdiv_org_fl1_65536_21:
   0008                      39 	.ds 4
   000C                      40 ___fsdiv_org_fl2_65536_21:
   000C                      41 	.ds 4
   0010                      42 ___fsdiv_org_result_65536_21:
   0010                      43 	.ds 4
   0014                      44 ___fsdiv_org_mask_65536_21:
   0014                      45 	.ds 4
   0018                      46 ___fsdiv_org_mant1_65536_21:
   0018                      47 	.ds 4
   001C                      48 ___fsdiv_org_mant2_65536_21:
   001C                      49 	.ds 4
   0020                      50 ___fsdiv_org_diff_196608_26:
   0020                      51 	.ds 4
   0024                      52 ___fsdiv_PARM_1:
   0024                      53 	.ds 4
   0028                      54 ___fsdiv_PARM_2:
   0028                      55 	.ds 4
   002C                      56 ___fsdiv_f_131072_30:
   002C                      57 	.ds 4
                             58 ;--------------------------------------------------------
                             59 ; absolute external ram data
                             60 ;--------------------------------------------------------
                             61 	.area DABS    (ABS)
                             62 ;--------------------------------------------------------
                             63 ; initialized external ram data
                             64 ;--------------------------------------------------------
                             65 	.area DATA
                             66 ;--------------------------------------------------------
                             67 ; global & static initialisations
                             68 ;--------------------------------------------------------
                             69 	.area _CODE
                             70 	.area GSINIT
                             71 	.area GSFINAL
                             72 	.area GSINIT
                             73 ;--------------------------------------------------------
                             74 ; Home
                             75 ;--------------------------------------------------------
                             76 	.area _CODE
                             77 	.area _CODE
                             78 ;--------------------------------------------------------
                             79 ; code
                             80 ;--------------------------------------------------------
                             81 	.area CODE
                             82 ;------------------------------------------------------------
                             83 ;Allocation info for local variables in function '__fsdiv_org'
                             84 ;------------------------------------------------------------
                             85 ;a1                        Allocated with name '___fsdiv_org_PARM_1'
                             86 ;a2                        Allocated with name '___fsdiv_org_PARM_2'
                             87 ;fl1                       Allocated with name '___fsdiv_org_fl1_65536_21'
                             88 ;fl2                       Allocated with name '___fsdiv_org_fl2_65536_21'
                             89 ;result                    Allocated with name '___fsdiv_org_result_65536_21'
                             90 ;mask                      Allocated with name '___fsdiv_org_mask_65536_21'
                             91 ;mant1                     Allocated with name '___fsdiv_org_mant1_65536_21'
                             92 ;mant2                     Allocated with name '___fsdiv_org_mant2_65536_21'
                             93 ;exp                       Allocated to registers a x 
                             94 ;sign                      Allocated to registers x 
                             95 ;diff                      Allocated with name '___fsdiv_org_diff_196608_26'
                             96 ;sloc0                     Allocated with name '___fsdiv_org_sloc0_1_0'
                             97 ;sloc1                     Allocated with name '___fsdiv_org_sloc1_1_0'
                             98 ;sloc2                     Allocated with name '___fsdiv_org_sloc2_1_0'
                             99 ;------------------------------------------------------------
                            100 ;	../_fsdiv.c: 274: static float __fsdiv_org (float a1, float a2)
                            101 ;	-----------------------------------------
                            102 ;	 function __fsdiv_org
                            103 ;	-----------------------------------------
                            104 ;	Register assignment might be sub-optimal.
                            105 ;	Stack space usage: 0 bytes.
   0000                     106 ___fsdiv_org:
                            107 ;	../_fsdiv.c: 283: fl1.f = a1;
   0000 ADr03r00      [ 4]  108 	lda	(___fsdiv_org_PARM_1 + 3)
   0003 8Dr0Br00      [ 4]  109 	sta	(___fsdiv_org_fl1_65536_21 + 3)
   0006 ADr02r00      [ 4]  110 	lda	(___fsdiv_org_PARM_1 + 2)
   0009 8Dr0Ar00      [ 4]  111 	sta	(___fsdiv_org_fl1_65536_21 + 2)
   000C ADr01r00      [ 4]  112 	lda	(___fsdiv_org_PARM_1 + 1)
   000F 8Dr09r00      [ 4]  113 	sta	(___fsdiv_org_fl1_65536_21 + 1)
   0012 ADr00r00      [ 4]  114 	lda	___fsdiv_org_PARM_1
   0015 8Dr08r00      [ 4]  115 	sta	___fsdiv_org_fl1_65536_21
                            116 ;	../_fsdiv.c: 285: exp = EXP (fl1.l);
   0018 ADr0Br00      [ 4]  117 	lda	(___fsdiv_org_fl1_65536_21 + 3)
   001B 85*03         [ 3]  118 	sta	*(___fsdiv_org_sloc0_1_0 + 3)
   001D ADr0Ar00      [ 4]  119 	lda	(___fsdiv_org_fl1_65536_21 + 2)
   0020 85*02         [ 3]  120 	sta	*(___fsdiv_org_sloc0_1_0 + 2)
   0022 ADr09r00      [ 4]  121 	lda	(___fsdiv_org_fl1_65536_21 + 1)
   0025 85*01         [ 3]  122 	sta	*(___fsdiv_org_sloc0_1_0 + 1)
   0027 ADr08r00      [ 4]  123 	lda	___fsdiv_org_fl1_65536_21
   002A 85*00         [ 3]  124 	sta	*___fsdiv_org_sloc0_1_0
   002C A5*02         [ 3]  125 	lda	*(___fsdiv_org_sloc0_1_0 + 2)
   002E A6*03         [ 3]  126 	ldx	*(___fsdiv_org_sloc0_1_0 + 3)
   0030 86*00         [ 3]  127 	stx	*(__TEMP+0)
   0032 2A            [ 2]  128 	rol	a
   0033 26*00         [ 5]  129 	rol	*(__TEMP+0)
   0035 A9 00         [ 2]  130 	lda	#0x00
   0037 2A            [ 2]  131 	rol	a
   0038 AA            [ 2]  132 	tax
   0039 A5*00         [ 3]  133 	lda	*(__TEMP+0)
   003B 85*00         [ 3]  134 	sta	*___fsdiv_org_sloc0_1_0
   003D 86*01         [ 3]  135 	stx	*(___fsdiv_org_sloc0_1_0 + 1)
   003F A0 00         [ 2]  136 	ldy	#0x00
   0041 84*02         [ 3]  137 	sty	*(___fsdiv_org_sloc0_1_0 + 2)
   0043 84*03         [ 3]  138 	sty	*(___fsdiv_org_sloc0_1_0 + 3)
   0045 A5*00         [ 3]  139 	lda	*___fsdiv_org_sloc0_1_0
   0047 A6*01         [ 3]  140 	ldx	*(___fsdiv_org_sloc0_1_0 + 1)
   0049 85*00         [ 3]  141 	sta	*___fsdiv_org_sloc0_1_0
   004B 84*01         [ 3]  142 	sty	*(___fsdiv_org_sloc0_1_0 + 1)
                            143 ;	../_fsdiv.c: 287: if (!exp)
   004D A5*01         [ 3]  144 	lda	*(___fsdiv_org_sloc0_1_0 + 1)
   004F 05*00         [ 3]  145 	ora	*___fsdiv_org_sloc0_1_0
   0051 D0 07         [ 4]  146 	bne	00102$
                            147 ;	../_fsdiv.c: 288: return (0);
   0053 98            [ 2]  148 	tya
   0054 AA            [ 2]  149 	tax
   0055 85*00         [ 3]  150 	sta	*___SDCC_m6502_ret2
   0057 85*00         [ 3]  151 	sta	*___SDCC_m6502_ret3
   0059 60            [ 6]  152 	rts
   005A                     153 00102$:
                            154 ;	../_fsdiv.c: 290: fl2.f = a2;
   005A ADr07r00      [ 4]  155 	lda	(___fsdiv_org_PARM_2 + 3)
   005D 8Dr0Fr00      [ 4]  156 	sta	(___fsdiv_org_fl2_65536_21 + 3)
   0060 ADr06r00      [ 4]  157 	lda	(___fsdiv_org_PARM_2 + 2)
   0063 8Dr0Er00      [ 4]  158 	sta	(___fsdiv_org_fl2_65536_21 + 2)
   0066 ADr05r00      [ 4]  159 	lda	(___fsdiv_org_PARM_2 + 1)
   0069 8Dr0Dr00      [ 4]  160 	sta	(___fsdiv_org_fl2_65536_21 + 1)
   006C ADr04r00      [ 4]  161 	lda	___fsdiv_org_PARM_2
   006F 8Dr0Cr00      [ 4]  162 	sta	___fsdiv_org_fl2_65536_21
                            163 ;	../_fsdiv.c: 292: exp -= EXP (fl2.l);
   0072 ADr0Fr00      [ 4]  164 	lda	(___fsdiv_org_fl2_65536_21 + 3)
   0075 85*07         [ 3]  165 	sta	*(___fsdiv_org_sloc1_1_0 + 3)
   0077 ADr0Er00      [ 4]  166 	lda	(___fsdiv_org_fl2_65536_21 + 2)
   007A 85*06         [ 3]  167 	sta	*(___fsdiv_org_sloc1_1_0 + 2)
   007C ADr0Dr00      [ 4]  168 	lda	(___fsdiv_org_fl2_65536_21 + 1)
   007F 85*05         [ 3]  169 	sta	*(___fsdiv_org_sloc1_1_0 + 1)
   0081 ADr0Cr00      [ 4]  170 	lda	___fsdiv_org_fl2_65536_21
   0084 85*04         [ 3]  171 	sta	*___fsdiv_org_sloc1_1_0
   0086 A5*06         [ 3]  172 	lda	*(___fsdiv_org_sloc1_1_0 + 2)
   0088 A6*07         [ 3]  173 	ldx	*(___fsdiv_org_sloc1_1_0 + 3)
   008A 86*00         [ 3]  174 	stx	*(__TEMP+0)
   008C 2A            [ 2]  175 	rol	a
   008D 26*00         [ 5]  176 	rol	*(__TEMP+0)
   008F A9 00         [ 2]  177 	lda	#0x00
   0091 2A            [ 2]  178 	rol	a
   0092 AA            [ 2]  179 	tax
   0093 A5*00         [ 3]  180 	lda	*(__TEMP+0)
   0095 85*04         [ 3]  181 	sta	*___fsdiv_org_sloc1_1_0
   0097 86*05         [ 3]  182 	stx	*(___fsdiv_org_sloc1_1_0 + 1)
   0099 A0 00         [ 2]  183 	ldy	#0x00
   009B 84*06         [ 3]  184 	sty	*(___fsdiv_org_sloc1_1_0 + 2)
   009D 84*07         [ 3]  185 	sty	*(___fsdiv_org_sloc1_1_0 + 3)
   009F A5*04         [ 3]  186 	lda	*___fsdiv_org_sloc1_1_0
   00A1 A2 00         [ 2]  187 	ldx	#0x00
   00A3 85*00         [ 3]  188 	sta	*(__TEMP+0)
   00A5 A5*00         [ 3]  189 	lda	*___fsdiv_org_sloc0_1_0
   00A7 38            [ 2]  190 	sec
   00A8 E5*00         [ 3]  191 	sbc	*(__TEMP+0)
   00AA 48            [ 3]  192 	pha
   00AB A5*01         [ 3]  193 	lda	*(___fsdiv_org_sloc0_1_0 + 1)
   00AD 86*00         [ 3]  194 	stx	*(__TEMP+0)
   00AF E5*00         [ 3]  195 	sbc	*(__TEMP+0)
   00B1 AA            [ 2]  196 	tax
   00B2 68            [ 4]  197 	pla
                            198 ;	../_fsdiv.c: 293: exp += EXCESS;
   00B3 18            [ 2]  199 	clc
   00B4 69 7E         [ 2]  200 	adc	#0x7e
   00B6 85*04         [ 3]  201 	sta	*___fsdiv_org_sloc1_1_0
   00B8 8A            [ 2]  202 	txa
   00B9 69 00         [ 2]  203 	adc	#0x00
   00BB 85*05         [ 3]  204 	sta	*(___fsdiv_org_sloc1_1_0 + 1)
                            205 ;	../_fsdiv.c: 296: sign = SIGN (fl1.l) ^ SIGN (fl2.l);
   00BD ADr0Br00      [ 4]  206 	lda	(___fsdiv_org_fl1_65536_21 + 3)
   00C0 85*03         [ 3]  207 	sta	*(___fsdiv_org_sloc0_1_0 + 3)
   00C2 ADr0Ar00      [ 4]  208 	lda	(___fsdiv_org_fl1_65536_21 + 2)
   00C5 85*02         [ 3]  209 	sta	*(___fsdiv_org_sloc0_1_0 + 2)
   00C7 ADr09r00      [ 4]  210 	lda	(___fsdiv_org_fl1_65536_21 + 1)
   00CA 85*01         [ 3]  211 	sta	*(___fsdiv_org_sloc0_1_0 + 1)
   00CC ADr08r00      [ 4]  212 	lda	___fsdiv_org_fl1_65536_21
   00CF 85*00         [ 3]  213 	sta	*___fsdiv_org_sloc0_1_0
   00D1 A5*03         [ 3]  214 	lda	*(___fsdiv_org_sloc0_1_0 + 3)
   00D3 2A            [ 2]  215 	rol	a
   00D4 98            [ 2]  216 	tya
   00D5 2A            [ 2]  217 	rol	a
   00D6 85*00         [ 3]  218 	sta	*___fsdiv_org_sloc0_1_0
   00D8 84*01         [ 3]  219 	sty	*(___fsdiv_org_sloc0_1_0 + 1)
   00DA 84*02         [ 3]  220 	sty	*(___fsdiv_org_sloc0_1_0 + 2)
   00DC 84*03         [ 3]  221 	sty	*(___fsdiv_org_sloc0_1_0 + 3)
   00DE A5*00         [ 3]  222 	lda	*___fsdiv_org_sloc0_1_0
   00E0 29 01         [ 2]  223 	and	#0x01
   00E2 85*00         [ 3]  224 	sta	*___fsdiv_org_sloc0_1_0
   00E4 ADr0Fr00      [ 4]  225 	lda	(___fsdiv_org_fl2_65536_21 + 3)
   00E7 85*0B         [ 3]  226 	sta	*(___fsdiv_org_sloc2_1_0 + 3)
   00E9 ADr0Er00      [ 4]  227 	lda	(___fsdiv_org_fl2_65536_21 + 2)
   00EC 85*0A         [ 3]  228 	sta	*(___fsdiv_org_sloc2_1_0 + 2)
   00EE ADr0Dr00      [ 4]  229 	lda	(___fsdiv_org_fl2_65536_21 + 1)
   00F1 85*09         [ 3]  230 	sta	*(___fsdiv_org_sloc2_1_0 + 1)
   00F3 ADr0Cr00      [ 4]  231 	lda	___fsdiv_org_fl2_65536_21
   00F6 85*08         [ 3]  232 	sta	*___fsdiv_org_sloc2_1_0
   00F8 A5*0B         [ 3]  233 	lda	*(___fsdiv_org_sloc2_1_0 + 3)
   00FA 2A            [ 2]  234 	rol	a
   00FB 98            [ 2]  235 	tya
   00FC 2A            [ 2]  236 	rol	a
   00FD 85*08         [ 3]  237 	sta	*___fsdiv_org_sloc2_1_0
   00FF 84*09         [ 3]  238 	sty	*(___fsdiv_org_sloc2_1_0 + 1)
   0101 84*0A         [ 3]  239 	sty	*(___fsdiv_org_sloc2_1_0 + 2)
   0103 84*0B         [ 3]  240 	sty	*(___fsdiv_org_sloc2_1_0 + 3)
   0105 A5*08         [ 3]  241 	lda	*___fsdiv_org_sloc2_1_0
   0107 29 01         [ 2]  242 	and	#0x01
   0109 45*00         [ 3]  243 	eor	*___fsdiv_org_sloc0_1_0
   010B AA            [ 2]  244 	tax
                            245 ;	../_fsdiv.c: 299: mant1 = MANT (fl1.l);
   010C ADr0Br00      [ 4]  246 	lda	(___fsdiv_org_fl1_65536_21 + 3)
   010F 85*0B         [ 3]  247 	sta	*(___fsdiv_org_sloc2_1_0 + 3)
   0111 ADr0Ar00      [ 4]  248 	lda	(___fsdiv_org_fl1_65536_21 + 2)
   0114 85*0A         [ 3]  249 	sta	*(___fsdiv_org_sloc2_1_0 + 2)
   0116 ADr09r00      [ 4]  250 	lda	(___fsdiv_org_fl1_65536_21 + 1)
   0119 85*09         [ 3]  251 	sta	*(___fsdiv_org_sloc2_1_0 + 1)
   011B ADr08r00      [ 4]  252 	lda	___fsdiv_org_fl1_65536_21
   011E 85*08         [ 3]  253 	sta	*___fsdiv_org_sloc2_1_0
   0120 84*0B         [ 3]  254 	sty	*(___fsdiv_org_sloc2_1_0 + 3)
   0122 A5*08         [ 3]  255 	lda	*___fsdiv_org_sloc2_1_0
   0124 8Dr18r00      [ 4]  256 	sta	___fsdiv_org_mant1_65536_21
   0127 A5*09         [ 3]  257 	lda	*(___fsdiv_org_sloc2_1_0 + 1)
   0129 8Dr19r00      [ 4]  258 	sta	(___fsdiv_org_mant1_65536_21 + 1)
   012C A5*0A         [ 3]  259 	lda	*(___fsdiv_org_sloc2_1_0 + 2)
   012E 09 80         [ 2]  260 	ora	#0x80
   0130 8Dr1Ar00      [ 4]  261 	sta	(___fsdiv_org_mant1_65536_21 + 2)
   0133 A4*0B         [ 3]  262 	ldy	*(___fsdiv_org_sloc2_1_0 + 3)
   0135 8Cr1Br00      [ 4]  263 	sty	(___fsdiv_org_mant1_65536_21 + 3)
                            264 ;	../_fsdiv.c: 300: mant2 = MANT (fl2.l);
   0138 ADr0Fr00      [ 4]  265 	lda	(___fsdiv_org_fl2_65536_21 + 3)
   013B 85*0B         [ 3]  266 	sta	*(___fsdiv_org_sloc2_1_0 + 3)
   013D ADr0Er00      [ 4]  267 	lda	(___fsdiv_org_fl2_65536_21 + 2)
   0140 85*0A         [ 3]  268 	sta	*(___fsdiv_org_sloc2_1_0 + 2)
   0142 ADr0Dr00      [ 4]  269 	lda	(___fsdiv_org_fl2_65536_21 + 1)
   0145 85*09         [ 3]  270 	sta	*(___fsdiv_org_sloc2_1_0 + 1)
   0147 ADr0Cr00      [ 4]  271 	lda	___fsdiv_org_fl2_65536_21
   014A 85*08         [ 3]  272 	sta	*___fsdiv_org_sloc2_1_0
   014C A0 00         [ 2]  273 	ldy	#0x00
   014E 84*0B         [ 3]  274 	sty	*(___fsdiv_org_sloc2_1_0 + 3)
   0150 A5*0A         [ 3]  275 	lda	*(___fsdiv_org_sloc2_1_0 + 2)
   0152 09 80         [ 2]  276 	ora	#0x80
   0154 85*0A         [ 3]  277 	sta	*(___fsdiv_org_sloc2_1_0 + 2)
   0156 A5*08         [ 3]  278 	lda	*___fsdiv_org_sloc2_1_0
   0158 8Dr1Cr00      [ 4]  279 	sta	___fsdiv_org_mant2_65536_21
   015B A5*09         [ 3]  280 	lda	*(___fsdiv_org_sloc2_1_0 + 1)
   015D 8Dr1Dr00      [ 4]  281 	sta	(___fsdiv_org_mant2_65536_21 + 1)
   0160 A5*0A         [ 3]  282 	lda	*(___fsdiv_org_sloc2_1_0 + 2)
   0162 8Dr1Er00      [ 4]  283 	sta	(___fsdiv_org_mant2_65536_21 + 2)
   0165 A5*0B         [ 3]  284 	lda	*(___fsdiv_org_sloc2_1_0 + 3)
   0167 8Dr1Fr00      [ 4]  285 	sta	(___fsdiv_org_mant2_65536_21 + 3)
                            286 ;	../_fsdiv.c: 303: if (mant1 < mant2)
   016A ADr18r00      [ 4]  287 	lda	___fsdiv_org_mant1_65536_21
   016D 38            [ 2]  288 	sec
   016E EDr1Cr00      [ 4]  289 	sbc	___fsdiv_org_mant2_65536_21
   0171 ADr19r00      [ 4]  290 	lda	(___fsdiv_org_mant1_65536_21 + 1)
   0174 EDr1Dr00      [ 4]  291 	sbc	(___fsdiv_org_mant2_65536_21 + 1)
   0177 ADr1Ar00      [ 4]  292 	lda	(___fsdiv_org_mant1_65536_21 + 2)
   017A EDr1Er00      [ 4]  293 	sbc	(___fsdiv_org_mant2_65536_21 + 2)
   017D ADr1Br00      [ 4]  294 	lda	(___fsdiv_org_mant1_65536_21 + 3)
   0180 EDr1Fr00      [ 4]  295 	sbc	(___fsdiv_org_mant2_65536_21 + 3)
   0183 B0 10         [ 4]  296 	bcs	00104$
                            297 ;	../_fsdiv.c: 305: mask = 0x1000000;
   0185 8Cr14r00      [ 4]  298 	sty	___fsdiv_org_mask_65536_21
   0188 8Cr15r00      [ 4]  299 	sty	(___fsdiv_org_mask_65536_21 + 1)
   018B 8Cr16r00      [ 4]  300 	sty	(___fsdiv_org_mask_65536_21 + 2)
   018E C8            [ 2]  301 	iny
   018F 8Cr17r00      [ 4]  302 	sty	(___fsdiv_org_mask_65536_21 + 3)
   0192 4CrABr01      [ 3]  303 	jmp	00105$
   0195                     304 00104$:
                            305 ;	../_fsdiv.c: 309: mask = 0x0800000;
   0195 A0 00         [ 2]  306 	ldy	#0x00
   0197 8Cr14r00      [ 4]  307 	sty	___fsdiv_org_mask_65536_21
   019A 8Cr15r00      [ 4]  308 	sty	(___fsdiv_org_mask_65536_21 + 1)
   019D 8Cr17r00      [ 4]  309 	sty	(___fsdiv_org_mask_65536_21 + 3)
   01A0 A0 80         [ 2]  310 	ldy	#0x80
   01A2 8Cr16r00      [ 4]  311 	sty	(___fsdiv_org_mask_65536_21 + 2)
                            312 ;	../_fsdiv.c: 310: exp++;
   01A5 E6*04         [ 5]  313 	inc	*___fsdiv_org_sloc1_1_0
   01A7 D0 02         [ 4]  314 	bne	00176$
   01A9 E6*05         [ 5]  315 	inc	*(___fsdiv_org_sloc1_1_0 + 1)
   01AB                     316 00176$:
   01AB                     317 00105$:
                            318 ;	../_fsdiv.c: 313: if (exp < 1) /* denormal */
   01AB A5*04         [ 3]  319 	lda	*___fsdiv_org_sloc1_1_0
   01AD 38            [ 2]  320 	sec
   01AE E9 01         [ 2]  321 	sbc	#0x01
   01B0 A5*05         [ 3]  322 	lda	*(___fsdiv_org_sloc1_1_0 + 1)
   01B2 E9 00         [ 2]  323 	sbc	#0x00
   01B4 50 04         [ 4]  324 	bvc	00178$
   01B6 10 04         [ 4]  325 	bpl	00177$
   01B8 30 0A         [ 4]  326 	bmi	00107$
   01BA                     327 00178$:
   01BA 10 08         [ 4]  328 	bpl	00107$
   01BC                     329 00177$:
                            330 ;	../_fsdiv.c: 314: return (0);
   01BC A9 00         [ 2]  331 	lda	#0x00
   01BE AA            [ 2]  332 	tax
   01BF 85*00         [ 3]  333 	sta	*___SDCC_m6502_ret2
   01C1 85*00         [ 3]  334 	sta	*___SDCC_m6502_ret3
   01C3 60            [ 6]  335 	rts
   01C4                     336 00107$:
                            337 ;	../_fsdiv.c: 316: if (exp >= 255)
   01C4 A5*04         [ 3]  338 	lda	*___fsdiv_org_sloc1_1_0
   01C6 38            [ 2]  339 	sec
   01C7 E9 FF         [ 2]  340 	sbc	#0xff
   01C9 A5*05         [ 3]  341 	lda	*(___fsdiv_org_sloc1_1_0 + 1)
   01CB E9 00         [ 2]  342 	sbc	#0x00
   01CD 70 04         [ 4]  343 	bvs	00181$
   01CF 10 04         [ 4]  344 	bpl	00180$
   01D1 30 3B         [ 4]  345 	bmi	00116$
   01D3                     346 00181$:
   01D3 10 39         [ 4]  347 	bpl	00116$
   01D5                     348 00180$:
                            349 ;	../_fsdiv.c: 318: fl1.l = sign ? SIGNBIT | __INFINITY : __INFINITY;
   01D5 E0 00         [ 2]  350 	cpx	#0x00
   01D7 F0 11         [ 4]  351 	beq	00120$
   01D9 A2 00         [ 2]  352 	ldx	#0x00
   01DB 86*00         [ 3]  353 	stx	*___fsdiv_org_sloc0_1_0
   01DD 86*01         [ 3]  354 	stx	*(___fsdiv_org_sloc0_1_0 + 1)
   01DF A2 80         [ 2]  355 	ldx	#0x80
   01E1 86*02         [ 3]  356 	stx	*(___fsdiv_org_sloc0_1_0 + 2)
   01E3 A2 FF         [ 2]  357 	ldx	#0xff
   01E5 86*03         [ 3]  358 	stx	*(___fsdiv_org_sloc0_1_0 + 3)
   01E7 4CrF7r01      [ 3]  359 	jmp	00121$
   01EA                     360 00120$:
   01EA A2 00         [ 2]  361 	ldx	#0x00
   01EC 86*00         [ 3]  362 	stx	*___fsdiv_org_sloc0_1_0
   01EE 86*01         [ 3]  363 	stx	*(___fsdiv_org_sloc0_1_0 + 1)
   01F0 A2 80         [ 2]  364 	ldx	#0x80
   01F2 86*02         [ 3]  365 	stx	*(___fsdiv_org_sloc0_1_0 + 2)
   01F4 CA            [ 2]  366 	dex
   01F5 86*03         [ 3]  367 	stx	*(___fsdiv_org_sloc0_1_0 + 3)
   01F7                     368 00121$:
   01F7 A5*03         [ 3]  369 	lda	*(___fsdiv_org_sloc0_1_0 + 3)
   01F9 8Dr0Br00      [ 4]  370 	sta	(___fsdiv_org_fl1_65536_21 + 3)
   01FC A5*02         [ 3]  371 	lda	*(___fsdiv_org_sloc0_1_0 + 2)
   01FE 8Dr0Ar00      [ 4]  372 	sta	(___fsdiv_org_fl1_65536_21 + 2)
   0201 A5*01         [ 3]  373 	lda	*(___fsdiv_org_sloc0_1_0 + 1)
   0203 8Dr09r00      [ 4]  374 	sta	(___fsdiv_org_fl1_65536_21 + 1)
   0206 A5*00         [ 3]  375 	lda	*___fsdiv_org_sloc0_1_0
   0208 8Dr08r00      [ 4]  376 	sta	___fsdiv_org_fl1_65536_21
   020B 4Cr7Ar03      [ 3]  377 	jmp	00117$
   020E                     378 00116$:
                            379 ;	../_fsdiv.c: 323: result = 0;
   020E A0 00         [ 2]  380 	ldy	#0x00
   0210 8Cr10r00      [ 4]  381 	sty	___fsdiv_org_result_65536_21
   0213 8Cr11r00      [ 4]  382 	sty	(___fsdiv_org_result_65536_21 + 1)
   0216 8Cr12r00      [ 4]  383 	sty	(___fsdiv_org_result_65536_21 + 2)
   0219 8Cr13r00      [ 4]  384 	sty	(___fsdiv_org_result_65536_21 + 3)
                            385 ;	../_fsdiv.c: 324: do
   021C                     386 00110$:
                            387 ;	../_fsdiv.c: 326: long diff = mant1 - mant2;
   021C ADr18r00      [ 4]  388 	lda	___fsdiv_org_mant1_65536_21
   021F 38            [ 2]  389 	sec
   0220 E5*08         [ 3]  390 	sbc	*___fsdiv_org_sloc2_1_0
   0222 85*00         [ 3]  391 	sta	*___fsdiv_org_sloc0_1_0
   0224 ADr19r00      [ 4]  392 	lda	(___fsdiv_org_mant1_65536_21 + 1)
   0227 E5*09         [ 3]  393 	sbc	*(___fsdiv_org_sloc2_1_0 + 1)
   0229 85*01         [ 3]  394 	sta	*(___fsdiv_org_sloc0_1_0 + 1)
   022B ADr1Ar00      [ 4]  395 	lda	(___fsdiv_org_mant1_65536_21 + 2)
   022E E5*0A         [ 3]  396 	sbc	*(___fsdiv_org_sloc2_1_0 + 2)
   0230 85*02         [ 3]  397 	sta	*(___fsdiv_org_sloc0_1_0 + 2)
   0232 ADr1Br00      [ 4]  398 	lda	(___fsdiv_org_mant1_65536_21 + 3)
   0235 E5*0B         [ 3]  399 	sbc	*(___fsdiv_org_sloc2_1_0 + 3)
   0237 85*03         [ 3]  400 	sta	*(___fsdiv_org_sloc0_1_0 + 3)
   0239 A5*00         [ 3]  401 	lda	*___fsdiv_org_sloc0_1_0
   023B 8Dr20r00      [ 4]  402 	sta	___fsdiv_org_diff_196608_26
   023E A5*01         [ 3]  403 	lda	*(___fsdiv_org_sloc0_1_0 + 1)
   0240 8Dr21r00      [ 4]  404 	sta	(___fsdiv_org_diff_196608_26 + 1)
   0243 A5*02         [ 3]  405 	lda	*(___fsdiv_org_sloc0_1_0 + 2)
   0245 8Dr22r00      [ 4]  406 	sta	(___fsdiv_org_diff_196608_26 + 2)
   0248 A5*03         [ 3]  407 	lda	*(___fsdiv_org_sloc0_1_0 + 3)
                            408 ;	../_fsdiv.c: 327: if (diff >= 0)
   024A 8Dr23r00      [ 4]  409 	sta	(___fsdiv_org_diff_196608_26 + 3)
   024D 38            [ 2]  410 	sec
   024E E9 00         [ 2]  411 	sbc	#0x00
   0250 70 04         [ 4]  412 	bvs	00185$
   0252 10 04         [ 4]  413 	bpl	00184$
   0254 30 3A         [ 4]  414 	bmi	00109$
   0256                     415 00185$:
   0256 10 38         [ 4]  416 	bpl	00109$
   0258                     417 00184$:
                            418 ;	../_fsdiv.c: 329: mant1 = diff;
   0258 A5*00         [ 3]  419 	lda	*___fsdiv_org_sloc0_1_0
   025A 8Dr18r00      [ 4]  420 	sta	___fsdiv_org_mant1_65536_21
   025D A5*01         [ 3]  421 	lda	*(___fsdiv_org_sloc0_1_0 + 1)
   025F 8Dr19r00      [ 4]  422 	sta	(___fsdiv_org_mant1_65536_21 + 1)
   0262 A5*02         [ 3]  423 	lda	*(___fsdiv_org_sloc0_1_0 + 2)
   0264 8Dr1Ar00      [ 4]  424 	sta	(___fsdiv_org_mant1_65536_21 + 2)
   0267 A5*03         [ 3]  425 	lda	*(___fsdiv_org_sloc0_1_0 + 3)
   0269 8Dr1Br00      [ 4]  426 	sta	(___fsdiv_org_mant1_65536_21 + 3)
                            427 ;	../_fsdiv.c: 330: result |= mask;
   026C ADr10r00      [ 4]  428 	lda	___fsdiv_org_result_65536_21
   026F 0Dr14r00      [ 4]  429 	ora	___fsdiv_org_mask_65536_21
   0272 8Dr10r00      [ 4]  430 	sta	___fsdiv_org_result_65536_21
   0275 ADr11r00      [ 4]  431 	lda	(___fsdiv_org_result_65536_21 + 1)
   0278 0Dr15r00      [ 4]  432 	ora	(___fsdiv_org_mask_65536_21 + 1)
   027B 8Dr11r00      [ 4]  433 	sta	(___fsdiv_org_result_65536_21 + 1)
   027E ADr12r00      [ 4]  434 	lda	(___fsdiv_org_result_65536_21 + 2)
   0281 0Dr16r00      [ 4]  435 	ora	(___fsdiv_org_mask_65536_21 + 2)
   0284 8Dr12r00      [ 4]  436 	sta	(___fsdiv_org_result_65536_21 + 2)
   0287 ADr13r00      [ 4]  437 	lda	(___fsdiv_org_result_65536_21 + 3)
   028A 0Dr17r00      [ 4]  438 	ora	(___fsdiv_org_mask_65536_21 + 3)
   028D 8Dr13r00      [ 4]  439 	sta	(___fsdiv_org_result_65536_21 + 3)
   0290                     440 00109$:
                            441 ;	../_fsdiv.c: 332: mant1 <<= 1;
   0290 0Er18r00      [ 6]  442 	asl	___fsdiv_org_mant1_65536_21
   0293 2Er19r00      [ 6]  443 	rol	(___fsdiv_org_mant1_65536_21 + 1)
   0296 2Er1Ar00      [ 6]  444 	rol	(___fsdiv_org_mant1_65536_21 + 2)
                            445 ;	../_fsdiv.c: 333: mask >>= 1;
   0299 2Er1Br00      [ 6]  446 	rol	(___fsdiv_org_mant1_65536_21 + 3)
   029C ADr17r00      [ 4]  447 	lda	(___fsdiv_org_mask_65536_21 + 3)
   029F 4A            [ 2]  448 	lsr	a
   02A0 8Dr17r00      [ 4]  449 	sta	(___fsdiv_org_mask_65536_21 + 3)
   02A3 6Er16r00      [ 6]  450 	ror	(___fsdiv_org_mask_65536_21 + 2)
   02A6 6Er15r00      [ 6]  451 	ror	(___fsdiv_org_mask_65536_21 + 1)
                            452 ;	../_fsdiv.c: 335: while (mask);
   02A9 6Er14r00      [ 6]  453 	ror	___fsdiv_org_mask_65536_21
   02AC ADr17r00      [ 4]  454 	lda	(___fsdiv_org_mask_65536_21 + 3)
   02AF 0Dr16r00      [ 4]  455 	ora	(___fsdiv_org_mask_65536_21 + 2)
   02B2 0Dr15r00      [ 4]  456 	ora	(___fsdiv_org_mask_65536_21 + 1)
   02B5 0Dr14r00      [ 4]  457 	ora	___fsdiv_org_mask_65536_21
   02B8 F0 03         [ 4]  458 	beq	00187$
   02BA 4Cr1Cr02      [ 3]  459 	jmp	00110$
   02BD                     460 00187$:
                            461 ;	../_fsdiv.c: 338: if (mant1 >= mant2)
   02BD ADr18r00      [ 4]  462 	lda	___fsdiv_org_mant1_65536_21
   02C0 38            [ 2]  463 	sec
   02C1 EDr1Cr00      [ 4]  464 	sbc	___fsdiv_org_mant2_65536_21
   02C4 ADr19r00      [ 4]  465 	lda	(___fsdiv_org_mant1_65536_21 + 1)
   02C7 EDr1Dr00      [ 4]  466 	sbc	(___fsdiv_org_mant2_65536_21 + 1)
   02CA ADr1Ar00      [ 4]  467 	lda	(___fsdiv_org_mant1_65536_21 + 2)
   02CD EDr1Er00      [ 4]  468 	sbc	(___fsdiv_org_mant2_65536_21 + 2)
   02D0 ADr1Br00      [ 4]  469 	lda	(___fsdiv_org_mant1_65536_21 + 3)
   02D3 EDr1Fr00      [ 4]  470 	sbc	(___fsdiv_org_mant2_65536_21 + 3)
   02D6 90 12         [ 4]  471 	bcc	00114$
                            472 ;	../_fsdiv.c: 339: result += 1;
   02D8 EEr10r00      [ 6]  473 	inc	___fsdiv_org_result_65536_21
   02DB D0 0D         [ 4]  474 	bne	00189$
   02DD EEr11r00      [ 6]  475 	inc	(___fsdiv_org_result_65536_21 + 1)
   02E0 D0 08         [ 4]  476 	bne	00189$
   02E2 EEr12r00      [ 6]  477 	inc	(___fsdiv_org_result_65536_21 + 2)
   02E5 D0 03         [ 4]  478 	bne	00189$
   02E7 EEr13r00      [ 6]  479 	inc	(___fsdiv_org_result_65536_21 + 3)
   02EA                     480 00189$:
   02EA                     481 00114$:
                            482 ;	../_fsdiv.c: 341: result &= ~HIDDEN;
   02EA ADr12r00      [ 4]  483 	lda	(___fsdiv_org_result_65536_21 + 2)
   02ED 29 7F         [ 2]  484 	and	#0x7f
   02EF 8Dr12r00      [ 4]  485 	sta	(___fsdiv_org_result_65536_21 + 2)
                            486 ;	../_fsdiv.c: 344: fl1.l = PACK (sign ? SIGNBIT : 0 , exp, result);
   02F2 E0 00         [ 2]  487 	cpx	#0x00
   02F4 F0 0F         [ 4]  488 	beq	00122$
   02F6 A2 00         [ 2]  489 	ldx	#0x00
   02F8 86*08         [ 3]  490 	stx	*___fsdiv_org_sloc2_1_0
   02FA 86*09         [ 3]  491 	stx	*(___fsdiv_org_sloc2_1_0 + 1)
   02FC 86*0A         [ 3]  492 	stx	*(___fsdiv_org_sloc2_1_0 + 2)
   02FE A2 80         [ 2]  493 	ldx	#0x80
   0300 86*0B         [ 3]  494 	stx	*(___fsdiv_org_sloc2_1_0 + 3)
   0302 4Cr0Fr03      [ 3]  495 	jmp	00123$
   0305                     496 00122$:
   0305 A2 00         [ 2]  497 	ldx	#0x00
   0307 86*08         [ 3]  498 	stx	*___fsdiv_org_sloc2_1_0
   0309 86*09         [ 3]  499 	stx	*(___fsdiv_org_sloc2_1_0 + 1)
   030B 86*0A         [ 3]  500 	stx	*(___fsdiv_org_sloc2_1_0 + 2)
   030D 86*0B         [ 3]  501 	stx	*(___fsdiv_org_sloc2_1_0 + 3)
   030F                     502 00123$:
   030F A5*05         [ 3]  503 	lda	*(___fsdiv_org_sloc1_1_0 + 1)
   0311 0A            [ 2]  504 	asl	a
   0312 A9 00         [ 2]  505 	lda	#0x00
   0314 69 FF         [ 2]  506 	adc	#0xff
   0316 49 FF         [ 2]  507 	eor	#0xff
   0318 85*06         [ 3]  508 	sta	*(___fsdiv_org_sloc1_1_0 + 2)
   031A 85*07         [ 3]  509 	sta	*(___fsdiv_org_sloc1_1_0 + 3)
   031C A5*04         [ 3]  510 	lda	*___fsdiv_org_sloc1_1_0
   031E A6*05         [ 3]  511 	ldx	*(___fsdiv_org_sloc1_1_0 + 1)
   0320 48            [ 3]  512 	pha
   0321 8A            [ 2]  513 	txa
   0322 4A            [ 2]  514 	lsr	a
   0323 AA            [ 2]  515 	tax
   0324 68            [ 4]  516 	pla
   0325 6A            [ 2]  517 	ror	a
   0326 AA            [ 2]  518 	tax
   0327 A9 00         [ 2]  519 	lda	#0x00
   0329 6A            [ 2]  520 	ror	a
   032A 85*06         [ 3]  521 	sta	*(___fsdiv_org_sloc1_1_0 + 2)
   032C 86*07         [ 3]  522 	stx	*(___fsdiv_org_sloc1_1_0 + 3)
   032E A2 00         [ 2]  523 	ldx	#0x00
   0330 86*04         [ 3]  524 	stx	*___fsdiv_org_sloc1_1_0
   0332 86*05         [ 3]  525 	stx	*(___fsdiv_org_sloc1_1_0 + 1)
   0334 A5*08         [ 3]  526 	lda	*___fsdiv_org_sloc2_1_0
   0336 05*04         [ 3]  527 	ora	*___fsdiv_org_sloc1_1_0
   0338 85*08         [ 3]  528 	sta	*___fsdiv_org_sloc2_1_0
   033A A5*09         [ 3]  529 	lda	*(___fsdiv_org_sloc2_1_0 + 1)
   033C 05*05         [ 3]  530 	ora	*(___fsdiv_org_sloc1_1_0 + 1)
   033E 85*09         [ 3]  531 	sta	*(___fsdiv_org_sloc2_1_0 + 1)
   0340 A5*0A         [ 3]  532 	lda	*(___fsdiv_org_sloc2_1_0 + 2)
   0342 05*06         [ 3]  533 	ora	*(___fsdiv_org_sloc1_1_0 + 2)
   0344 85*0A         [ 3]  534 	sta	*(___fsdiv_org_sloc2_1_0 + 2)
   0346 A5*0B         [ 3]  535 	lda	*(___fsdiv_org_sloc2_1_0 + 3)
   0348 05*07         [ 3]  536 	ora	*(___fsdiv_org_sloc1_1_0 + 3)
   034A 85*0B         [ 3]  537 	sta	*(___fsdiv_org_sloc2_1_0 + 3)
   034C A5*08         [ 3]  538 	lda	*___fsdiv_org_sloc2_1_0
   034E 0Dr10r00      [ 4]  539 	ora	___fsdiv_org_result_65536_21
   0351 85*08         [ 3]  540 	sta	*___fsdiv_org_sloc2_1_0
   0353 A5*09         [ 3]  541 	lda	*(___fsdiv_org_sloc2_1_0 + 1)
   0355 0Dr11r00      [ 4]  542 	ora	(___fsdiv_org_result_65536_21 + 1)
   0358 85*09         [ 3]  543 	sta	*(___fsdiv_org_sloc2_1_0 + 1)
   035A A5*0A         [ 3]  544 	lda	*(___fsdiv_org_sloc2_1_0 + 2)
   035C 0Dr12r00      [ 4]  545 	ora	(___fsdiv_org_result_65536_21 + 2)
   035F 85*0A         [ 3]  546 	sta	*(___fsdiv_org_sloc2_1_0 + 2)
   0361 A5*0B         [ 3]  547 	lda	*(___fsdiv_org_sloc2_1_0 + 3)
   0363 0Dr13r00      [ 4]  548 	ora	(___fsdiv_org_result_65536_21 + 3)
   0366 85*0B         [ 3]  549 	sta	*(___fsdiv_org_sloc2_1_0 + 3)
   0368 8Dr0Br00      [ 4]  550 	sta	(___fsdiv_org_fl1_65536_21 + 3)
   036B A5*0A         [ 3]  551 	lda	*(___fsdiv_org_sloc2_1_0 + 2)
   036D 8Dr0Ar00      [ 4]  552 	sta	(___fsdiv_org_fl1_65536_21 + 2)
   0370 A5*09         [ 3]  553 	lda	*(___fsdiv_org_sloc2_1_0 + 1)
   0372 8Dr09r00      [ 4]  554 	sta	(___fsdiv_org_fl1_65536_21 + 1)
   0375 A5*08         [ 3]  555 	lda	*___fsdiv_org_sloc2_1_0
   0377 8Dr08r00      [ 4]  556 	sta	___fsdiv_org_fl1_65536_21
   037A                     557 00117$:
                            558 ;	../_fsdiv.c: 346: return (fl1.f);
   037A ADr0Br00      [ 4]  559 	lda	(___fsdiv_org_fl1_65536_21 + 3)
   037D 85*0B         [ 3]  560 	sta	*(___fsdiv_org_sloc2_1_0 + 3)
   037F ADr0Ar00      [ 4]  561 	lda	(___fsdiv_org_fl1_65536_21 + 2)
   0382 85*0A         [ 3]  562 	sta	*(___fsdiv_org_sloc2_1_0 + 2)
   0384 ADr09r00      [ 4]  563 	lda	(___fsdiv_org_fl1_65536_21 + 1)
   0387 85*09         [ 3]  564 	sta	*(___fsdiv_org_sloc2_1_0 + 1)
   0389 ADr08r00      [ 4]  565 	lda	___fsdiv_org_fl1_65536_21
   038C 85*08         [ 3]  566 	sta	*___fsdiv_org_sloc2_1_0
   038E A5*0B         [ 3]  567 	lda	*(___fsdiv_org_sloc2_1_0 + 3)
   0390 85*00         [ 3]  568 	sta	*___SDCC_m6502_ret3
   0392 A5*0A         [ 3]  569 	lda	*(___fsdiv_org_sloc2_1_0 + 2)
   0394 85*00         [ 3]  570 	sta	*___SDCC_m6502_ret2
   0396 A6*09         [ 3]  571 	ldx	*(___fsdiv_org_sloc2_1_0 + 1)
   0398 A5*08         [ 3]  572 	lda	*___fsdiv_org_sloc2_1_0
                            573 ;	../_fsdiv.c: 347: }
   039A 60            [ 6]  574 	rts
                            575 ;------------------------------------------------------------
                            576 ;Allocation info for local variables in function '__fsdiv'
                            577 ;------------------------------------------------------------
                            578 ;sloc0                     Allocated with name '___fsdiv_sloc0_1_0'
                            579 ;a1                        Allocated with name '___fsdiv_PARM_1'
                            580 ;a2                        Allocated with name '___fsdiv_PARM_2'
                            581 ;p2                        Allocated to registers 
                            582 ;f                         Allocated with name '___fsdiv_f_131072_30'
                            583 ;p                         Allocated to registers 
                            584 ;------------------------------------------------------------
                            585 ;	../_fsdiv.c: 349: float __fsdiv (float a1, float a2)
                            586 ;	-----------------------------------------
                            587 ;	 function __fsdiv
                            588 ;	-----------------------------------------
                            589 ;	Register assignment is optimal.
                            590 ;	Stack space usage: 0 bytes.
   039B                     591 ___fsdiv:
                            592 ;	../_fsdiv.c: 351: unsigned long _AUTOMEM *p2 = (unsigned long *) &a2;
                            593 ;	../_fsdiv.c: 353: if (EXP (*p2) == 0) // a2 is denormal or zero, treat as zero
   039B ADr2Br00      [ 4]  594 	lda	(___fsdiv_PARM_2 + 3)
   039E 85*03         [ 3]  595 	sta	*(___fsdiv_sloc0_1_0 + 3)
   03A0 ADr2Ar00      [ 4]  596 	lda	(___fsdiv_PARM_2 + 2)
   03A3 85*02         [ 3]  597 	sta	*(___fsdiv_sloc0_1_0 + 2)
   03A5 ADr29r00      [ 4]  598 	lda	(___fsdiv_PARM_2 + 1)
   03A8 85*01         [ 3]  599 	sta	*(___fsdiv_sloc0_1_0 + 1)
   03AA ADr28r00      [ 4]  600 	lda	___fsdiv_PARM_2
   03AD 85*00         [ 3]  601 	sta	*___fsdiv_sloc0_1_0
   03AF A5*02         [ 3]  602 	lda	*(___fsdiv_sloc0_1_0 + 2)
   03B1 A6*03         [ 3]  603 	ldx	*(___fsdiv_sloc0_1_0 + 3)
   03B3 86*00         [ 3]  604 	stx	*(__TEMP+0)
   03B5 2A            [ 2]  605 	rol	a
   03B6 26*00         [ 5]  606 	rol	*(__TEMP+0)
   03B8 A9 00         [ 2]  607 	lda	#0x00
   03BA 2A            [ 2]  608 	rol	a
   03BB AA            [ 2]  609 	tax
   03BC A5*00         [ 3]  610 	lda	*(__TEMP+0)
   03BE 85*00         [ 3]  611 	sta	*___fsdiv_sloc0_1_0
   03C0 86*01         [ 3]  612 	stx	*(___fsdiv_sloc0_1_0 + 1)
   03C2 A0 00         [ 2]  613 	ldy	#0x00
   03C4 84*02         [ 3]  614 	sty	*(___fsdiv_sloc0_1_0 + 2)
   03C6 84*03         [ 3]  615 	sty	*(___fsdiv_sloc0_1_0 + 3)
   03C8 A5*00         [ 3]  616 	lda	*___fsdiv_sloc0_1_0
   03CA F0 03         [ 4]  617 	beq	00124$
   03CC 4Cr73r04      [ 3]  618 	jmp	00108$
   03CF                     619 00124$:
                            620 ;	../_fsdiv.c: 356: unsigned long _AUTOMEM *p = (unsigned long *) &f;
                            621 ;	../_fsdiv.c: 357: if (a1 > 0.0f)
   03CF 8Cr00r00      [ 4]  622 	sty	___fslt_PARM_1
   03D2 8Cr01r00      [ 4]  623 	sty	(___fslt_PARM_1 + 1)
   03D5 8Cr02r00      [ 4]  624 	sty	(___fslt_PARM_1 + 2)
   03D8 8Cr03r00      [ 4]  625 	sty	(___fslt_PARM_1 + 3)
   03DB ADr24r00      [ 4]  626 	lda	___fsdiv_PARM_1
   03DE 8Dr00r00      [ 4]  627 	sta	___fslt_PARM_2
   03E1 ADr25r00      [ 4]  628 	lda	(___fsdiv_PARM_1 + 1)
   03E4 8Dr01r00      [ 4]  629 	sta	(___fslt_PARM_2 + 1)
   03E7 ADr26r00      [ 4]  630 	lda	(___fsdiv_PARM_1 + 2)
   03EA 8Dr02r00      [ 4]  631 	sta	(___fslt_PARM_2 + 2)
   03ED ADr27r00      [ 4]  632 	lda	(___fsdiv_PARM_1 + 3)
   03F0 8Dr03r00      [ 4]  633 	sta	(___fslt_PARM_2 + 3)
   03F3 20r00r00      [ 6]  634 	jsr	___fslt
   03F6 C9 00         [ 2]  635 	cmp	#0x00
   03F8 F0 14         [ 4]  636 	beq	00105$
                            637 ;	../_fsdiv.c: 358: *p = __INFINITY;           // +inf
   03FA A2 7F         [ 2]  638 	ldx	#0x7f
   03FC 8Er2Fr00      [ 4]  639 	stx	(___fsdiv_f_131072_30 + 3)
   03FF E8            [ 2]  640 	inx
   0400 8Er2Er00      [ 4]  641 	stx	(___fsdiv_f_131072_30 + 2)
   0403 A2 00         [ 2]  642 	ldx	#0x00
   0405 8Er2Dr00      [ 4]  643 	stx	(___fsdiv_f_131072_30 + 1)
   0408 8Er2Cr00      [ 4]  644 	stx	___fsdiv_f_131072_30
   040B 4Cr62r04      [ 3]  645 	jmp	00106$
   040E                     646 00105$:
                            647 ;	../_fsdiv.c: 359: else if (a1 < 0.0f)
   040E ADr24r00      [ 4]  648 	lda	___fsdiv_PARM_1
   0411 8Dr00r00      [ 4]  649 	sta	___fslt_PARM_1
   0414 ADr25r00      [ 4]  650 	lda	(___fsdiv_PARM_1 + 1)
   0417 8Dr01r00      [ 4]  651 	sta	(___fslt_PARM_1 + 1)
   041A ADr26r00      [ 4]  652 	lda	(___fsdiv_PARM_1 + 2)
   041D 8Dr02r00      [ 4]  653 	sta	(___fslt_PARM_1 + 2)
   0420 ADr27r00      [ 4]  654 	lda	(___fsdiv_PARM_1 + 3)
   0423 8Dr03r00      [ 4]  655 	sta	(___fslt_PARM_1 + 3)
   0426 A2 00         [ 2]  656 	ldx	#0x00
   0428 8Er00r00      [ 4]  657 	stx	___fslt_PARM_2
   042B 8Er01r00      [ 4]  658 	stx	(___fslt_PARM_2 + 1)
   042E 8Er02r00      [ 4]  659 	stx	(___fslt_PARM_2 + 2)
   0431 8Er03r00      [ 4]  660 	stx	(___fslt_PARM_2 + 3)
   0434 20r00r00      [ 6]  661 	jsr	___fslt
   0437 C9 00         [ 2]  662 	cmp	#0x00
   0439 F0 15         [ 4]  663 	beq	00102$
                            664 ;	../_fsdiv.c: 360: *p = SIGNBIT | __INFINITY; // -inf
   043B A2 FF         [ 2]  665 	ldx	#0xff
   043D 8Er2Fr00      [ 4]  666 	stx	(___fsdiv_f_131072_30 + 3)
   0440 A2 80         [ 2]  667 	ldx	#0x80
   0442 8Er2Er00      [ 4]  668 	stx	(___fsdiv_f_131072_30 + 2)
   0445 A2 00         [ 2]  669 	ldx	#0x00
   0447 8Er2Dr00      [ 4]  670 	stx	(___fsdiv_f_131072_30 + 1)
   044A 8Er2Cr00      [ 4]  671 	stx	___fsdiv_f_131072_30
   044D 4Cr62r04      [ 3]  672 	jmp	00106$
   0450                     673 00102$:
                            674 ;	../_fsdiv.c: 362: *p = __NAN;                // nan
   0450 A2 FF         [ 2]  675 	ldx	#0xff
   0452 8Er2Fr00      [ 4]  676 	stx	(___fsdiv_f_131072_30 + 3)
   0455 A2 C0         [ 2]  677 	ldx	#0xc0
   0457 8Er2Er00      [ 4]  678 	stx	(___fsdiv_f_131072_30 + 2)
   045A A2 00         [ 2]  679 	ldx	#0x00
   045C 8Er2Dr00      [ 4]  680 	stx	(___fsdiv_f_131072_30 + 1)
   045F 8Er2Cr00      [ 4]  681 	stx	___fsdiv_f_131072_30
   0462                     682 00106$:
                            683 ;	../_fsdiv.c: 363: return f;
   0462 ADr2Fr00      [ 4]  684 	lda	(___fsdiv_f_131072_30 + 3)
   0465 85*00         [ 3]  685 	sta	*___SDCC_m6502_ret3
   0467 ADr2Er00      [ 4]  686 	lda	(___fsdiv_f_131072_30 + 2)
   046A 85*00         [ 3]  687 	sta	*___SDCC_m6502_ret2
   046C AEr2Dr00      [ 4]  688 	ldx	(___fsdiv_f_131072_30 + 1)
   046F ADr2Cr00      [ 4]  689 	lda	___fsdiv_f_131072_30
   0472 60            [ 6]  690 	rts
   0473                     691 00108$:
                            692 ;	../_fsdiv.c: 365: return __fsdiv_org (a1, a2);
   0473 ADr24r00      [ 4]  693 	lda	___fsdiv_PARM_1
   0476 8Dr00r00      [ 4]  694 	sta	___fsdiv_org_PARM_1
   0479 ADr25r00      [ 4]  695 	lda	(___fsdiv_PARM_1 + 1)
   047C 8Dr01r00      [ 4]  696 	sta	(___fsdiv_org_PARM_1 + 1)
   047F ADr26r00      [ 4]  697 	lda	(___fsdiv_PARM_1 + 2)
   0482 8Dr02r00      [ 4]  698 	sta	(___fsdiv_org_PARM_1 + 2)
   0485 ADr27r00      [ 4]  699 	lda	(___fsdiv_PARM_1 + 3)
   0488 8Dr03r00      [ 4]  700 	sta	(___fsdiv_org_PARM_1 + 3)
   048B ADr28r00      [ 4]  701 	lda	___fsdiv_PARM_2
   048E 8Dr04r00      [ 4]  702 	sta	___fsdiv_org_PARM_2
   0491 ADr29r00      [ 4]  703 	lda	(___fsdiv_PARM_2 + 1)
   0494 8Dr05r00      [ 4]  704 	sta	(___fsdiv_org_PARM_2 + 1)
   0497 ADr2Ar00      [ 4]  705 	lda	(___fsdiv_PARM_2 + 2)
   049A 8Dr06r00      [ 4]  706 	sta	(___fsdiv_org_PARM_2 + 2)
   049D ADr2Br00      [ 4]  707 	lda	(___fsdiv_PARM_2 + 3)
   04A0 8Dr07r00      [ 4]  708 	sta	(___fsdiv_org_PARM_2 + 3)
   04A3 20r00r00      [ 6]  709 	jsr	___fsdiv_org
   04A6 85*00         [ 3]  710 	sta	*___fsdiv_sloc0_1_0
   04A8 86*01         [ 3]  711 	stx	*(___fsdiv_sloc0_1_0 + 1)
   04AA A5*00         [ 3]  712 	lda	*___SDCC_m6502_ret2
   04AC 85*02         [ 3]  713 	sta	*(___fsdiv_sloc0_1_0 + 2)
   04AE A5*00         [ 3]  714 	lda	*___SDCC_m6502_ret3
   04B0 85*03         [ 3]  715 	sta	*(___fsdiv_sloc0_1_0 + 3)
   04B2 85*00         [ 3]  716 	sta	*___SDCC_m6502_ret3
   04B4 A5*02         [ 3]  717 	lda	*(___fsdiv_sloc0_1_0 + 2)
   04B6 85*00         [ 3]  718 	sta	*___SDCC_m6502_ret2
   04B8 A6*01         [ 3]  719 	ldx	*(___fsdiv_sloc0_1_0 + 1)
   04BA A5*00         [ 3]  720 	lda	*___fsdiv_sloc0_1_0
                            721 ;	../_fsdiv.c: 366: }
   04BC 60            [ 6]  722 	rts
                            723 	.area CODE
                            724 	.area RODATA
                            725 	.area XINIT
                            726 	.area CABS    (ABS)
