                              1 ;--------------------------------------------------------
                              2 ; File Created by SDCC : free open source ISO C Compiler 
                              3 ; Version 4.2.14 #0 (Linux)
                              4 ;--------------------------------------------------------
                              5 	.module atanf
                              6 	.optsdcc -mmos6502
                              7 	
                              8 ;--------------------------------------------------------
                              9 ; Public variables in this module
                             10 ;--------------------------------------------------------
                             11 	.globl _fabsf
                             12 	.globl _atanf
                             13 ;--------------------------------------------------------
                             14 ; ZP ram data
                             15 ;--------------------------------------------------------
                             16 	.area ZP      (PAG)
                             17 ;--------------------------------------------------------
                             18 ; overlayable items in ram
                             19 ;--------------------------------------------------------
                             20 ;--------------------------------------------------------
                             21 ; uninitialized external ram data
                             22 ;--------------------------------------------------------
                             23 	.area BSS
                             24 ;--------------------------------------------------------
                             25 ; absolute external ram data
                             26 ;--------------------------------------------------------
                             27 	.area DABS    (ABS)
                             28 ;--------------------------------------------------------
                             29 ; initialized external ram data
                             30 ;--------------------------------------------------------
                             31 	.area DATA
                             32 ;--------------------------------------------------------
                             33 ; global & static initialisations
                             34 ;--------------------------------------------------------
                             35 	.area _CODE
                             36 	.area GSINIT
                             37 	.area GSFINAL
                             38 	.area GSINIT
                             39 ;--------------------------------------------------------
                             40 ; Home
                             41 ;--------------------------------------------------------
                             42 	.area _CODE
                             43 	.area _CODE
                             44 ;--------------------------------------------------------
                             45 ; code
                             46 ;--------------------------------------------------------
                             47 	.area CODE
                             48 ;------------------------------------------------------------
                             49 ;Allocation info for local variables in function 'atanf'
                             50 ;------------------------------------------------------------
                             51 ;x                         Allocated to stack - sp +21
                             52 ;f                         Allocated to stack - sp +5
                             53 ;r                         Allocated to stack - sp +1
                             54 ;g                         Allocated to stack - sp +7
                             55 ;n                         Allocated to stack - sp +17
                             56 ;sloc0                     Allocated to stack - sp +13
                             57 ;sloc1                     Allocated to stack - sp +9
                             58 ;------------------------------------------------------------
                             59 ;	../atanf.c: 55: float atanf(float x) _FLOAT_FUNC_REENTRANT
                             60 ;	-----------------------------------------
                             61 ;	 function atanf
                             62 ;	-----------------------------------------
                             63 ;	Register assignment is optimal.
                             64 ;	Stack space usage: 18 bytes.
   0000                      65 _atanf:
   0000 85*00         [ 3]   66 	sta	*(__TEMP+0)
   0002 86*01         [ 3]   67 	stx	*(__TEMP+1)
   0004 BA            [ 2]   68 	tsx
   0005 8A            [ 2]   69 	txa
   0006 18            [ 2]   70 	clc
   0007 69 EE         [ 2]   71 	adc	#0xee
   0009 AA            [ 2]   72 	tax
   000A 9A            [ 2]   73 	txs
                             74 ;	../atanf.c: 58: int n=0;
   000B BA            [ 2]   75 	tsx
   000C A9 00         [ 2]   76 	lda	#0x00
   000E 9D 11 01      [ 5]   77 	sta	0x111,x
   0011 9D 12 01      [ 5]   78 	sta	0x112,x
                             79 ;	../atanf.c: 61: f=fabsf(x);
   0014 BD 18 01      [ 5]   80 	lda	0x118,x
   0017 48            [ 3]   81 	pha
   0018 BD 17 01      [ 5]   82 	lda	0x117,x
   001B 48            [ 3]   83 	pha
   001C BD 16 01      [ 5]   84 	lda	0x116,x
   001F 48            [ 3]   85 	pha
   0020 BD 15 01      [ 5]   86 	lda	0x115,x
   0023 48            [ 3]   87 	pha
   0024 20r00r00      [ 6]   88 	jsr	_fabsf
   0027 86*00         [ 3]   89 	stx	*(__TEMP+0)
   0029 BA            [ 2]   90 	tsx
   002A 9D 11 01      [ 5]   91 	sta	0x111,x
   002D A6*00         [ 3]   92 	ldx	*(__TEMP+0)
   002F 8A            [ 2]   93 	txa
   0030 BA            [ 2]   94 	tsx
   0031 9D 12 01      [ 5]   95 	sta	0x112,x
   0034 A6*00         [ 3]   96 	ldx	*(__TEMP+0)
   0036 A5*00         [ 3]   97 	lda	*___SDCC_m6502_ret2
   0038 BA            [ 2]   98 	tsx
   0039 9D 13 01      [ 5]   99 	sta	0x113,x
   003C A5*00         [ 3]  100 	lda	*___SDCC_m6502_ret3
   003E 9D 14 01      [ 5]  101 	sta	0x114,x
   0041 85*00         [ 3]  102 	sta	*(__TEMP+0)
   0043 68            [ 4]  103 	pla
   0044 68            [ 4]  104 	pla
   0045 68            [ 4]  105 	pla
   0046 68            [ 4]  106 	pla
   0047 BD 11 01      [ 5]  107 	lda	0x111, x
   004A 9D 09 01      [ 5]  108 	sta	0x109,x
   004D BD 12 01      [ 5]  109 	lda	0x112,x
   0050 9D 0A 01      [ 5]  110 	sta	0x10a,x
   0053 BD 13 01      [ 5]  111 	lda	0x113,x
   0056 9D 0B 01      [ 5]  112 	sta	0x10b,x
   0059 BD 14 01      [ 5]  113 	lda	0x114,x
   005C 9D 0C 01      [ 5]  114 	sta	0x10c,x
                            115 ;	../atanf.c: 62: if(f>1.0)
   005F A2 00         [ 2]  116 	ldx	#0x00
   0061 8Er00r00      [ 4]  117 	stx	___fslt_PARM_1
   0064 8Er01r00      [ 4]  118 	stx	(___fslt_PARM_1 + 1)
   0067 A2 80         [ 2]  119 	ldx	#0x80
   0069 8Er02r00      [ 4]  120 	stx	(___fslt_PARM_1 + 2)
   006C A2 3F         [ 2]  121 	ldx	#0x3f
   006E 8Er03r00      [ 4]  122 	stx	(___fslt_PARM_1 + 3)
   0071 BA            [ 2]  123 	tsx
   0072 BD 0D 01      [ 5]  124 	lda	0x10d,x
   0075 8Dr00r00      [ 4]  125 	sta	___fslt_PARM_2
   0078 BD 0E 01      [ 5]  126 	lda	0x10e,x
   007B 8Dr01r00      [ 4]  127 	sta	(___fslt_PARM_2 + 1)
   007E BD 0F 01      [ 5]  128 	lda	0x10f,x
   0081 8Dr02r00      [ 4]  129 	sta	(___fslt_PARM_2 + 2)
   0084 BD 10 01      [ 5]  130 	lda	0x110,x
   0087 8Dr03r00      [ 4]  131 	sta	(___fslt_PARM_2 + 3)
   008A 20r00r00      [ 6]  132 	jsr	___fslt
   008D C9 00         [ 2]  133 	cmp	#0x00
   008F F0 52         [ 4]  134 	beq	00102$
                            135 ;	../atanf.c: 64: f=1.0/f;
   0091 A2 00         [ 2]  136 	ldx	#0x00
   0093 8Er00r00      [ 4]  137 	stx	___fsdiv_PARM_1
   0096 8Er01r00      [ 4]  138 	stx	(___fsdiv_PARM_1 + 1)
   0099 A2 80         [ 2]  139 	ldx	#0x80
   009B 8Er02r00      [ 4]  140 	stx	(___fsdiv_PARM_1 + 2)
   009E A2 3F         [ 2]  141 	ldx	#0x3f
   00A0 8Er03r00      [ 4]  142 	stx	(___fsdiv_PARM_1 + 3)
   00A3 BA            [ 2]  143 	tsx
   00A4 BD 0D 01      [ 5]  144 	lda	0x10d,x
   00A7 8Dr00r00      [ 4]  145 	sta	___fsdiv_PARM_2
   00AA BD 0E 01      [ 5]  146 	lda	0x10e,x
   00AD 8Dr01r00      [ 4]  147 	sta	(___fsdiv_PARM_2 + 1)
   00B0 BD 0F 01      [ 5]  148 	lda	0x10f,x
   00B3 8Dr02r00      [ 4]  149 	sta	(___fsdiv_PARM_2 + 2)
   00B6 BD 10 01      [ 5]  150 	lda	0x110,x
   00B9 8Dr03r00      [ 4]  151 	sta	(___fsdiv_PARM_2 + 3)
   00BC 20r00r00      [ 6]  152 	jsr	___fsdiv
   00BF 86*00         [ 3]  153 	stx	*(__TEMP+0)
   00C1 BA            [ 2]  154 	tsx
   00C2 9D 05 01      [ 5]  155 	sta	0x105,x
   00C5 A6*00         [ 3]  156 	ldx	*(__TEMP+0)
   00C7 8A            [ 2]  157 	txa
   00C8 BA            [ 2]  158 	tsx
   00C9 9D 06 01      [ 5]  159 	sta	0x106,x
   00CC A6*00         [ 3]  160 	ldx	*(__TEMP+0)
   00CE A5*00         [ 3]  161 	lda	*___SDCC_m6502_ret2
   00D0 BA            [ 2]  162 	tsx
   00D1 9D 07 01      [ 5]  163 	sta	0x107,x
   00D4 A5*00         [ 3]  164 	lda	*___SDCC_m6502_ret3
   00D6 9D 08 01      [ 5]  165 	sta	0x108,x
                            166 ;	../atanf.c: 65: n=2;
   00D9 A9 02         [ 2]  167 	lda	#0x02
   00DB 9D 11 01      [ 5]  168 	sta	0x111,x
   00DE A9 00         [ 2]  169 	lda	#0x00
   00E0 9D 12 01      [ 5]  170 	sta	0x112,x
   00E3                     171 00102$:
                            172 ;	../atanf.c: 67: if(f>K1)
   00E3 A2 A3         [ 2]  173 	ldx	#0xa3
   00E5 8Er00r00      [ 4]  174 	stx	___fslt_PARM_1
   00E8 A2 30         [ 2]  175 	ldx	#0x30
   00EA 8Er01r00      [ 4]  176 	stx	(___fslt_PARM_1 + 1)
   00ED A2 89         [ 2]  177 	ldx	#0x89
   00EF 8Er02r00      [ 4]  178 	stx	(___fslt_PARM_1 + 2)
   00F2 A2 3E         [ 2]  179 	ldx	#0x3e
   00F4 8Er03r00      [ 4]  180 	stx	(___fslt_PARM_1 + 3)
   00F7 BA            [ 2]  181 	tsx
   00F8 BD 05 01      [ 5]  182 	lda	0x105,x
   00FB 8Dr00r00      [ 4]  183 	sta	___fslt_PARM_2
   00FE BD 06 01      [ 5]  184 	lda	0x106,x
   0101 8Dr01r00      [ 4]  185 	sta	(___fslt_PARM_2 + 1)
   0104 BD 07 01      [ 5]  186 	lda	0x107,x
   0107 8Dr02r00      [ 4]  187 	sta	(___fslt_PARM_2 + 2)
   010A BD 08 01      [ 5]  188 	lda	0x108,x
   010D 8Dr03r00      [ 4]  189 	sta	(___fslt_PARM_2 + 3)
   0110 20r00r00      [ 6]  190 	jsr	___fslt
   0113 C9 00         [ 2]  191 	cmp	#0x00
   0115 D0 03         [ 4]  192 	bne	00135$
   0117 4Cr3Br02      [ 3]  193 	jmp	00104$
   011A                     194 00135$:
                            195 ;	../atanf.c: 69: f=((K2*f-1.0)+f)/(K3+f);
   011A A2 AF         [ 2]  196 	ldx	#0xaf
   011C 8Er00r00      [ 4]  197 	stx	___fsmul_PARM_1
   011F A2 67         [ 2]  198 	ldx	#0x67
   0121 8Er01r00      [ 4]  199 	stx	(___fsmul_PARM_1 + 1)
   0124 A2 3B         [ 2]  200 	ldx	#0x3b
   0126 8Er02r00      [ 4]  201 	stx	(___fsmul_PARM_1 + 2)
   0129 A2 3F         [ 2]  202 	ldx	#0x3f
   012B 8Er03r00      [ 4]  203 	stx	(___fsmul_PARM_1 + 3)
   012E BA            [ 2]  204 	tsx
   012F BD 05 01      [ 5]  205 	lda	0x105,x
   0132 8Dr00r00      [ 4]  206 	sta	___fsmul_PARM_2
   0135 BD 06 01      [ 5]  207 	lda	0x106,x
   0138 8Dr01r00      [ 4]  208 	sta	(___fsmul_PARM_2 + 1)
   013B BD 07 01      [ 5]  209 	lda	0x107,x
   013E 8Dr02r00      [ 4]  210 	sta	(___fsmul_PARM_2 + 2)
   0141 BD 08 01      [ 5]  211 	lda	0x108,x
   0144 8Dr03r00      [ 4]  212 	sta	(___fsmul_PARM_2 + 3)
   0147 20r00r00      [ 6]  213 	jsr	___fsmul
   014A 8Dr00r00      [ 4]  214 	sta	___fssub_PARM_1
   014D 8Er01r00      [ 4]  215 	stx	(___fssub_PARM_1 + 1)
   0150 A5*00         [ 3]  216 	lda	*___SDCC_m6502_ret2
   0152 8Dr02r00      [ 4]  217 	sta	(___fssub_PARM_1 + 2)
   0155 A5*00         [ 3]  218 	lda	*___SDCC_m6502_ret3
   0157 8Dr03r00      [ 4]  219 	sta	(___fssub_PARM_1 + 3)
   015A A2 00         [ 2]  220 	ldx	#0x00
   015C 8Er00r00      [ 4]  221 	stx	___fssub_PARM_2
   015F 8Er01r00      [ 4]  222 	stx	(___fssub_PARM_2 + 1)
   0162 A2 80         [ 2]  223 	ldx	#0x80
   0164 8Er02r00      [ 4]  224 	stx	(___fssub_PARM_2 + 2)
   0167 A2 3F         [ 2]  225 	ldx	#0x3f
   0169 8Er03r00      [ 4]  226 	stx	(___fssub_PARM_2 + 3)
   016C 20r00r00      [ 6]  227 	jsr	___fssub
   016F 8Dr00r00      [ 4]  228 	sta	___fsadd_PARM_1
   0172 8Er01r00      [ 4]  229 	stx	(___fsadd_PARM_1 + 1)
   0175 A5*00         [ 3]  230 	lda	*___SDCC_m6502_ret2
   0177 8Dr02r00      [ 4]  231 	sta	(___fsadd_PARM_1 + 2)
   017A A5*00         [ 3]  232 	lda	*___SDCC_m6502_ret3
   017C 8Dr03r00      [ 4]  233 	sta	(___fsadd_PARM_1 + 3)
   017F BA            [ 2]  234 	tsx
   0180 BD 05 01      [ 5]  235 	lda	0x105,x
   0183 8Dr00r00      [ 4]  236 	sta	___fsadd_PARM_2
   0186 BD 06 01      [ 5]  237 	lda	0x106,x
   0189 8Dr01r00      [ 4]  238 	sta	(___fsadd_PARM_2 + 1)
   018C BD 07 01      [ 5]  239 	lda	0x107,x
   018F 8Dr02r00      [ 4]  240 	sta	(___fsadd_PARM_2 + 2)
   0192 BD 08 01      [ 5]  241 	lda	0x108,x
   0195 8Dr03r00      [ 4]  242 	sta	(___fsadd_PARM_2 + 3)
   0198 20r00r00      [ 6]  243 	jsr	___fsadd
   019B 86*00         [ 3]  244 	stx	*(__TEMP+0)
   019D BA            [ 2]  245 	tsx
   019E 9D 0D 01      [ 5]  246 	sta	0x10d,x
   01A1 A6*00         [ 3]  247 	ldx	*(__TEMP+0)
   01A3 8A            [ 2]  248 	txa
   01A4 BA            [ 2]  249 	tsx
   01A5 9D 0E 01      [ 5]  250 	sta	0x10e,x
   01A8 A6*00         [ 3]  251 	ldx	*(__TEMP+0)
   01AA A5*00         [ 3]  252 	lda	*___SDCC_m6502_ret2
   01AC BA            [ 2]  253 	tsx
   01AD 9D 0F 01      [ 5]  254 	sta	0x10f,x
   01B0 A5*00         [ 3]  255 	lda	*___SDCC_m6502_ret3
   01B2 9D 10 01      [ 5]  256 	sta	0x110,x
   01B5 BD 05 01      [ 5]  257 	lda	0x105,x
   01B8 8Dr00r00      [ 4]  258 	sta	___fsadd_PARM_1
   01BB BD 06 01      [ 5]  259 	lda	0x106,x
   01BE 8Dr01r00      [ 4]  260 	sta	(___fsadd_PARM_1 + 1)
   01C1 BD 07 01      [ 5]  261 	lda	0x107,x
   01C4 8Dr02r00      [ 4]  262 	sta	(___fsadd_PARM_1 + 2)
   01C7 BD 08 01      [ 5]  263 	lda	0x108,x
   01CA 8Dr03r00      [ 4]  264 	sta	(___fsadd_PARM_1 + 3)
   01CD A2 D7         [ 2]  265 	ldx	#0xd7
   01CF 8Er00r00      [ 4]  266 	stx	___fsadd_PARM_2
   01D2 A2 B3         [ 2]  267 	ldx	#0xb3
   01D4 8Er01r00      [ 4]  268 	stx	(___fsadd_PARM_2 + 1)
   01D7 A2 DD         [ 2]  269 	ldx	#0xdd
   01D9 8Er02r00      [ 4]  270 	stx	(___fsadd_PARM_2 + 2)
   01DC A2 3F         [ 2]  271 	ldx	#0x3f
   01DE 8Er03r00      [ 4]  272 	stx	(___fsadd_PARM_2 + 3)
   01E1 20r00r00      [ 6]  273 	jsr	___fsadd
   01E4 8Dr00r00      [ 4]  274 	sta	___fsdiv_PARM_2
   01E7 8Er01r00      [ 4]  275 	stx	(___fsdiv_PARM_2 + 1)
   01EA A5*00         [ 3]  276 	lda	*___SDCC_m6502_ret2
   01EC 8Dr02r00      [ 4]  277 	sta	(___fsdiv_PARM_2 + 2)
   01EF A5*00         [ 3]  278 	lda	*___SDCC_m6502_ret3
   01F1 8Dr03r00      [ 4]  279 	sta	(___fsdiv_PARM_2 + 3)
   01F4 BA            [ 2]  280 	tsx
   01F5 BD 0D 01      [ 5]  281 	lda	0x10d,x
   01F8 8Dr00r00      [ 4]  282 	sta	___fsdiv_PARM_1
   01FB BD 0E 01      [ 5]  283 	lda	0x10e,x
   01FE 8Dr01r00      [ 4]  284 	sta	(___fsdiv_PARM_1 + 1)
   0201 BD 0F 01      [ 5]  285 	lda	0x10f,x
   0204 8Dr02r00      [ 4]  286 	sta	(___fsdiv_PARM_1 + 2)
   0207 BD 10 01      [ 5]  287 	lda	0x110,x
   020A 8Dr03r00      [ 4]  288 	sta	(___fsdiv_PARM_1 + 3)
   020D 20r00r00      [ 6]  289 	jsr	___fsdiv
   0210 86*00         [ 3]  290 	stx	*(__TEMP+0)
   0212 BA            [ 2]  291 	tsx
   0213 9D 05 01      [ 5]  292 	sta	0x105,x
   0216 A6*00         [ 3]  293 	ldx	*(__TEMP+0)
   0218 8A            [ 2]  294 	txa
   0219 BA            [ 2]  295 	tsx
   021A 9D 06 01      [ 5]  296 	sta	0x106,x
   021D A6*00         [ 3]  297 	ldx	*(__TEMP+0)
   021F A5*00         [ 3]  298 	lda	*___SDCC_m6502_ret2
   0221 BA            [ 2]  299 	tsx
   0222 9D 07 01      [ 5]  300 	sta	0x107,x
   0225 A5*00         [ 3]  301 	lda	*___SDCC_m6502_ret3
   0227 9D 08 01      [ 5]  302 	sta	0x108,x
                            303 ;	../atanf.c: 73: n++;
   022A BD 11 01      [ 5]  304 	lda	0x111,x
   022D 18            [ 2]  305 	clc
   022E 69 01         [ 2]  306 	adc	#0x01
   0230 9D 11 01      [ 5]  307 	sta	0x111,x
   0233 BD 12 01      [ 5]  308 	lda	0x112,x
   0236 69 00         [ 2]  309 	adc	#0x00
   0238 9D 12 01      [ 5]  310 	sta	0x112,x
   023B                     311 00104$:
                            312 ;	../atanf.c: 75: if(fabsf(f)<EPS) r=f;
   023B BA            [ 2]  313 	tsx
   023C BD 08 01      [ 5]  314 	lda	0x108,x
   023F 48            [ 3]  315 	pha
   0240 BD 07 01      [ 5]  316 	lda	0x107,x
   0243 48            [ 3]  317 	pha
   0244 BD 06 01      [ 5]  318 	lda	0x106,x
   0247 48            [ 3]  319 	pha
   0248 BD 05 01      [ 5]  320 	lda	0x105,x
   024B 48            [ 3]  321 	pha
   024C 20r00r00      [ 6]  322 	jsr	_fabsf
   024F 8Dr00r00      [ 4]  323 	sta	___fslt_PARM_1
   0252 8Er01r00      [ 4]  324 	stx	(___fslt_PARM_1 + 1)
   0255 A5*00         [ 3]  325 	lda	*___SDCC_m6502_ret2
   0257 8Dr02r00      [ 4]  326 	sta	(___fslt_PARM_1 + 2)
   025A A5*00         [ 3]  327 	lda	*___SDCC_m6502_ret3
   025C 8Dr03r00      [ 4]  328 	sta	(___fslt_PARM_1 + 3)
   025F 85*00         [ 3]  329 	sta	*(__TEMP+0)
   0261 68            [ 4]  330 	pla
   0262 68            [ 4]  331 	pla
   0263 68            [ 4]  332 	pla
   0264 68            [ 4]  333 	pla
   0265 A5*00         [ 3]  334 	lda	*(__TEMP+0)
   0267 A2 00         [ 2]  335 	ldx	#0x00
   0269 8Er00r00      [ 4]  336 	stx	___fslt_PARM_2
   026C 8Er01r00      [ 4]  337 	stx	(___fslt_PARM_2 + 1)
   026F A2 80         [ 2]  338 	ldx	#0x80
   0271 8Er02r00      [ 4]  339 	stx	(___fslt_PARM_2 + 2)
   0274 A2 39         [ 2]  340 	ldx	#0x39
   0276 8Er03r00      [ 4]  341 	stx	(___fslt_PARM_2 + 3)
   0279 20r00r00      [ 6]  342 	jsr	___fslt
   027C C9 00         [ 2]  343 	cmp	#0x00
   027E F0 1C         [ 4]  344 	beq	00106$
   0280 BA            [ 2]  345 	tsx
   0281 BD 05 01      [ 5]  346 	lda	0x105,x
   0284 9D 01 01      [ 5]  347 	sta	0x101,x
   0287 BD 06 01      [ 5]  348 	lda	0x106,x
   028A 9D 02 01      [ 5]  349 	sta	0x102,x
   028D BD 07 01      [ 5]  350 	lda	0x107,x
   0290 9D 03 01      [ 5]  351 	sta	0x103,x
   0293 BD 08 01      [ 5]  352 	lda	0x108,x
   0296 9D 04 01      [ 5]  353 	sta	0x104,x
   0299 4Cr54r04      [ 3]  354 	jmp	00107$
   029C                     355 00106$:
                            356 ;	../atanf.c: 78: g=f*f;
   029C BA            [ 2]  357 	tsx
   029D BD 05 01      [ 5]  358 	lda	0x105,x
   02A0 8Dr00r00      [ 4]  359 	sta	___fsmul_PARM_1
   02A3 BD 06 01      [ 5]  360 	lda	0x106,x
   02A6 8Dr01r00      [ 4]  361 	sta	(___fsmul_PARM_1 + 1)
   02A9 BD 07 01      [ 5]  362 	lda	0x107,x
   02AC 8Dr02r00      [ 4]  363 	sta	(___fsmul_PARM_1 + 2)
   02AF BD 08 01      [ 5]  364 	lda	0x108,x
   02B2 8Dr03r00      [ 4]  365 	sta	(___fsmul_PARM_1 + 3)
   02B5 BD 05 01      [ 5]  366 	lda	0x105,x
   02B8 8Dr00r00      [ 4]  367 	sta	___fsmul_PARM_2
   02BB BD 06 01      [ 5]  368 	lda	0x106,x
   02BE 8Dr01r00      [ 4]  369 	sta	(___fsmul_PARM_2 + 1)
   02C1 BD 07 01      [ 5]  370 	lda	0x107,x
   02C4 8Dr02r00      [ 4]  371 	sta	(___fsmul_PARM_2 + 2)
   02C7 BD 08 01      [ 5]  372 	lda	0x108,x
   02CA 8Dr03r00      [ 4]  373 	sta	(___fsmul_PARM_2 + 3)
                            374 ;	../atanf.c: 79: r=f+P(g,f)/Q(g);
   02CD 20r00r00      [ 6]  375 	jsr	___fsmul
   02D0 86*00         [ 3]  376 	stx	*(__TEMP+0)
   02D2 BA            [ 2]  377 	tsx
   02D3 9D 0D 01      [ 5]  378 	sta	0x10d,x
   02D6 A6*00         [ 3]  379 	ldx	*(__TEMP+0)
   02D8 8A            [ 2]  380 	txa
   02D9 BA            [ 2]  381 	tsx
   02DA 9D 0E 01      [ 5]  382 	sta	0x10e,x
   02DD A6*00         [ 3]  383 	ldx	*(__TEMP+0)
   02DF A5*00         [ 3]  384 	lda	*___SDCC_m6502_ret2
   02E1 BA            [ 2]  385 	tsx
   02E2 9D 0F 01      [ 5]  386 	sta	0x10f,x
   02E5 A5*00         [ 3]  387 	lda	*___SDCC_m6502_ret3
   02E7 9D 10 01      [ 5]  388 	sta	0x110,x
   02EA A2 91         [ 2]  389 	ldx	#0x91
   02EC 8Er00r00      [ 4]  390 	stx	___fsmul_PARM_1
   02EF A2 86         [ 2]  391 	ldx	#0x86
   02F1 8Er01r00      [ 4]  392 	stx	(___fsmul_PARM_1 + 1)
   02F4 A2 50         [ 2]  393 	ldx	#0x50
   02F6 8Er02r00      [ 4]  394 	stx	(___fsmul_PARM_1 + 2)
   02F9 A2 BD         [ 2]  395 	ldx	#0xbd
   02FB 8Er03r00      [ 4]  396 	stx	(___fsmul_PARM_1 + 3)
   02FE BA            [ 2]  397 	tsx
   02FF BD 0D 01      [ 5]  398 	lda	0x10d,x
   0302 8Dr00r00      [ 4]  399 	sta	___fsmul_PARM_2
   0305 BD 0E 01      [ 5]  400 	lda	0x10e,x
   0308 8Dr01r00      [ 4]  401 	sta	(___fsmul_PARM_2 + 1)
   030B BD 0F 01      [ 5]  402 	lda	0x10f,x
   030E 8Dr02r00      [ 4]  403 	sta	(___fsmul_PARM_2 + 2)
   0311 BD 10 01      [ 5]  404 	lda	0x110,x
   0314 8Dr03r00      [ 4]  405 	sta	(___fsmul_PARM_2 + 3)
   0317 20r00r00      [ 6]  406 	jsr	___fsmul
   031A 8Dr00r00      [ 4]  407 	sta	___fsadd_PARM_1
   031D 8Er01r00      [ 4]  408 	stx	(___fsadd_PARM_1 + 1)
   0320 A5*00         [ 3]  409 	lda	*___SDCC_m6502_ret2
   0322 8Dr02r00      [ 4]  410 	sta	(___fsadd_PARM_1 + 2)
   0325 A5*00         [ 3]  411 	lda	*___SDCC_m6502_ret3
   0327 8Dr03r00      [ 4]  412 	sta	(___fsadd_PARM_1 + 3)
   032A A2 F6         [ 2]  413 	ldx	#0xf6
   032C 8Er00r00      [ 4]  414 	stx	___fsadd_PARM_2
   032F A2 10         [ 2]  415 	ldx	#0x10
   0331 8Er01r00      [ 4]  416 	stx	(___fsadd_PARM_2 + 1)
   0334 A2 F1         [ 2]  417 	ldx	#0xf1
   0336 8Er02r00      [ 4]  418 	stx	(___fsadd_PARM_2 + 2)
   0339 A2 BE         [ 2]  419 	ldx	#0xbe
   033B 8Er03r00      [ 4]  420 	stx	(___fsadd_PARM_2 + 3)
   033E 20r00r00      [ 6]  421 	jsr	___fsadd
   0341 8Dr00r00      [ 4]  422 	sta	___fsmul_PARM_1
   0344 8Er01r00      [ 4]  423 	stx	(___fsmul_PARM_1 + 1)
   0347 A5*00         [ 3]  424 	lda	*___SDCC_m6502_ret2
   0349 8Dr02r00      [ 4]  425 	sta	(___fsmul_PARM_1 + 2)
   034C A5*00         [ 3]  426 	lda	*___SDCC_m6502_ret3
   034E 8Dr03r00      [ 4]  427 	sta	(___fsmul_PARM_1 + 3)
   0351 BA            [ 2]  428 	tsx
   0352 BD 0D 01      [ 5]  429 	lda	0x10d,x
   0355 8Dr00r00      [ 4]  430 	sta	___fsmul_PARM_2
   0358 BD 0E 01      [ 5]  431 	lda	0x10e,x
   035B 8Dr01r00      [ 4]  432 	sta	(___fsmul_PARM_2 + 1)
   035E BD 0F 01      [ 5]  433 	lda	0x10f,x
   0361 8Dr02r00      [ 4]  434 	sta	(___fsmul_PARM_2 + 2)
   0364 BD 10 01      [ 5]  435 	lda	0x110,x
   0367 8Dr03r00      [ 4]  436 	sta	(___fsmul_PARM_2 + 3)
   036A 20r00r00      [ 6]  437 	jsr	___fsmul
   036D 8Dr00r00      [ 4]  438 	sta	___fsmul_PARM_1
   0370 8Er01r00      [ 4]  439 	stx	(___fsmul_PARM_1 + 1)
   0373 A5*00         [ 3]  440 	lda	*___SDCC_m6502_ret2
   0375 8Dr02r00      [ 4]  441 	sta	(___fsmul_PARM_1 + 2)
   0378 A5*00         [ 3]  442 	lda	*___SDCC_m6502_ret3
   037A 8Dr03r00      [ 4]  443 	sta	(___fsmul_PARM_1 + 3)
   037D BA            [ 2]  444 	tsx
   037E BD 05 01      [ 5]  445 	lda	0x105,x
   0381 8Dr00r00      [ 4]  446 	sta	___fsmul_PARM_2
   0384 BD 06 01      [ 5]  447 	lda	0x106,x
   0387 8Dr01r00      [ 4]  448 	sta	(___fsmul_PARM_2 + 1)
   038A BD 07 01      [ 5]  449 	lda	0x107,x
   038D 8Dr02r00      [ 4]  450 	sta	(___fsmul_PARM_2 + 2)
   0390 BD 08 01      [ 5]  451 	lda	0x108,x
   0393 8Dr03r00      [ 4]  452 	sta	(___fsmul_PARM_2 + 3)
   0396 20r00r00      [ 6]  453 	jsr	___fsmul
   0399 86*00         [ 3]  454 	stx	*(__TEMP+0)
   039B BA            [ 2]  455 	tsx
   039C 9D 09 01      [ 5]  456 	sta	0x109,x
   039F A6*00         [ 3]  457 	ldx	*(__TEMP+0)
   03A1 8A            [ 2]  458 	txa
   03A2 BA            [ 2]  459 	tsx
   03A3 9D 0A 01      [ 5]  460 	sta	0x10a,x
   03A6 A6*00         [ 3]  461 	ldx	*(__TEMP+0)
   03A8 A5*00         [ 3]  462 	lda	*___SDCC_m6502_ret2
   03AA BA            [ 2]  463 	tsx
   03AB 9D 0B 01      [ 5]  464 	sta	0x10b,x
   03AE A5*00         [ 3]  465 	lda	*___SDCC_m6502_ret3
   03B0 9D 0C 01      [ 5]  466 	sta	0x10c,x
   03B3 BD 0D 01      [ 5]  467 	lda	0x10d,x
   03B6 8Dr00r00      [ 4]  468 	sta	___fsadd_PARM_1
   03B9 BD 0E 01      [ 5]  469 	lda	0x10e,x
   03BC 8Dr01r00      [ 4]  470 	sta	(___fsadd_PARM_1 + 1)
   03BF BD 0F 01      [ 5]  471 	lda	0x10f,x
   03C2 8Dr02r00      [ 4]  472 	sta	(___fsadd_PARM_1 + 2)
   03C5 BD 10 01      [ 5]  473 	lda	0x110,x
   03C8 8Dr03r00      [ 4]  474 	sta	(___fsadd_PARM_1 + 3)
   03CB A2 D3         [ 2]  475 	ldx	#0xd3
   03CD 8Er00r00      [ 4]  476 	stx	___fsadd_PARM_2
   03D0 A2 CC         [ 2]  477 	ldx	#0xcc
   03D2 8Er01r00      [ 4]  478 	stx	(___fsadd_PARM_2 + 1)
   03D5 A2 B4         [ 2]  479 	ldx	#0xb4
   03D7 8Er02r00      [ 4]  480 	stx	(___fsadd_PARM_2 + 2)
   03DA A2 3F         [ 2]  481 	ldx	#0x3f
   03DC 8Er03r00      [ 4]  482 	stx	(___fsadd_PARM_2 + 3)
   03DF 20r00r00      [ 6]  483 	jsr	___fsadd
   03E2 8Dr00r00      [ 4]  484 	sta	___fsdiv_PARM_2
   03E5 8Er01r00      [ 4]  485 	stx	(___fsdiv_PARM_2 + 1)
   03E8 A5*00         [ 3]  486 	lda	*___SDCC_m6502_ret2
   03EA 8Dr02r00      [ 4]  487 	sta	(___fsdiv_PARM_2 + 2)
   03ED A5*00         [ 3]  488 	lda	*___SDCC_m6502_ret3
   03EF 8Dr03r00      [ 4]  489 	sta	(___fsdiv_PARM_2 + 3)
   03F2 BA            [ 2]  490 	tsx
   03F3 BD 09 01      [ 5]  491 	lda	0x109,x
   03F6 8Dr00r00      [ 4]  492 	sta	___fsdiv_PARM_1
   03F9 BD 0A 01      [ 5]  493 	lda	0x10a,x
   03FC 8Dr01r00      [ 4]  494 	sta	(___fsdiv_PARM_1 + 1)
   03FF BD 0B 01      [ 5]  495 	lda	0x10b,x
   0402 8Dr02r00      [ 4]  496 	sta	(___fsdiv_PARM_1 + 2)
   0405 BD 0C 01      [ 5]  497 	lda	0x10c,x
   0408 8Dr03r00      [ 4]  498 	sta	(___fsdiv_PARM_1 + 3)
   040B 20r00r00      [ 6]  499 	jsr	___fsdiv
   040E 8Dr00r00      [ 4]  500 	sta	___fsadd_PARM_2
   0411 8Er01r00      [ 4]  501 	stx	(___fsadd_PARM_2 + 1)
   0414 A5*00         [ 3]  502 	lda	*___SDCC_m6502_ret2
   0416 8Dr02r00      [ 4]  503 	sta	(___fsadd_PARM_2 + 2)
   0419 A5*00         [ 3]  504 	lda	*___SDCC_m6502_ret3
   041B 8Dr03r00      [ 4]  505 	sta	(___fsadd_PARM_2 + 3)
   041E BA            [ 2]  506 	tsx
   041F BD 05 01      [ 5]  507 	lda	0x105,x
   0422 8Dr00r00      [ 4]  508 	sta	___fsadd_PARM_1
   0425 BD 06 01      [ 5]  509 	lda	0x106,x
   0428 8Dr01r00      [ 4]  510 	sta	(___fsadd_PARM_1 + 1)
   042B BD 07 01      [ 5]  511 	lda	0x107,x
   042E 8Dr02r00      [ 4]  512 	sta	(___fsadd_PARM_1 + 2)
   0431 BD 08 01      [ 5]  513 	lda	0x108,x
   0434 8Dr03r00      [ 4]  514 	sta	(___fsadd_PARM_1 + 3)
   0437 20r00r00      [ 6]  515 	jsr	___fsadd
   043A 86*00         [ 3]  516 	stx	*(__TEMP+0)
   043C BA            [ 2]  517 	tsx
   043D 9D 01 01      [ 5]  518 	sta	0x101,x
   0440 A6*00         [ 3]  519 	ldx	*(__TEMP+0)
   0442 8A            [ 2]  520 	txa
   0443 BA            [ 2]  521 	tsx
   0444 9D 02 01      [ 5]  522 	sta	0x102,x
   0447 A6*00         [ 3]  523 	ldx	*(__TEMP+0)
   0449 A5*00         [ 3]  524 	lda	*___SDCC_m6502_ret2
   044B BA            [ 2]  525 	tsx
   044C 9D 03 01      [ 5]  526 	sta	0x103,x
   044F A5*00         [ 3]  527 	lda	*___SDCC_m6502_ret3
   0451 9D 04 01      [ 5]  528 	sta	0x104,x
   0454                     529 00107$:
                            530 ;	../atanf.c: 81: if(n>1) r=-r;
   0454 BA            [ 2]  531 	tsx
   0455 A9 01         [ 2]  532 	lda	#0x01
   0457 38            [ 2]  533 	sec
   0458 FD 11 01      [ 5]  534 	sbc	0x111,x
   045B A9 00         [ 2]  535 	lda	#0x00
   045D FD 12 01      [ 5]  536 	sbc	0x112,x
   0460 50 04         [ 4]  537 	bvc	00138$
   0462 10 04         [ 4]  538 	bpl	00137$
   0464 30 0A         [ 4]  539 	bmi	00109$
   0466                     540 00138$:
   0466 10 08         [ 4]  541 	bpl	00109$
   0468                     542 00137$:
   0468 BD 04 01      [ 5]  543 	lda	0x104,x
   046B 49 80         [ 2]  544 	eor	#0x80
   046D 9D 04 01      [ 5]  545 	sta	0x104,x
   0470                     546 00109$:
                            547 ;	../atanf.c: 82: r+=a[n];
   0470 BA            [ 2]  548 	tsx
   0471 BD 11 01      [ 5]  549 	lda	0x111,x
   0474 85*00         [ 3]  550 	sta	*(__TEMP+0)
   0476 BD 12 01      [ 5]  551 	lda	0x112,x
   0479 AA            [ 2]  552 	tax
   047A A5*00         [ 3]  553 	lda	*(__TEMP+0)
   047C 86*00         [ 3]  554 	stx	*(__TEMP+0)
   047E 0A            [ 2]  555 	asl	a
   047F 26*00         [ 5]  556 	rol	*(__TEMP+0)
   0481 0A            [ 2]  557 	asl	a
   0482 26*00         [ 5]  558 	rol	*(__TEMP+0)
   0484 A6*00         [ 3]  559 	ldx	*(__TEMP+0)
   0486 18            [ 2]  560 	clc
   0487 69r00         [ 2]  561 	adc	#<(_atanf_a_65536_26+0)
   0489 85*00         [ 3]  562 	sta	*(__DPTR+0)
   048B 8A            [ 2]  563 	txa
   048C 69s00         [ 2]  564 	adc	#>(_atanf_a_65536_26+0)
   048E 85*01         [ 3]  565 	sta	*(__DPTR+1)
   0490 A0 00         [ 2]  566 	ldy	#0x00
   0492 B1*00         [ 6]  567 	lda	[__DPTR],y
   0494 8Dr00r00      [ 4]  568 	sta	___fsadd_PARM_2
   0497 C8            [ 2]  569 	iny
   0498 B1*00         [ 6]  570 	lda	[__DPTR],y
   049A 8Dr01r00      [ 4]  571 	sta	(___fsadd_PARM_2 + 1)
   049D C8            [ 2]  572 	iny
   049E B1*00         [ 6]  573 	lda	[__DPTR],y
   04A0 8Dr02r00      [ 4]  574 	sta	(___fsadd_PARM_2 + 2)
   04A3 C8            [ 2]  575 	iny
   04A4 B1*00         [ 6]  576 	lda	[__DPTR],y
   04A6 8Dr03r00      [ 4]  577 	sta	(___fsadd_PARM_2 + 3)
   04A9 BA            [ 2]  578 	tsx
   04AA BD 01 01      [ 5]  579 	lda	0x101,x
   04AD 8Dr00r00      [ 4]  580 	sta	___fsadd_PARM_1
   04B0 BD 02 01      [ 5]  581 	lda	0x102,x
   04B3 8Dr01r00      [ 4]  582 	sta	(___fsadd_PARM_1 + 1)
   04B6 BD 03 01      [ 5]  583 	lda	0x103,x
   04B9 8Dr02r00      [ 4]  584 	sta	(___fsadd_PARM_1 + 2)
   04BC BD 04 01      [ 5]  585 	lda	0x104,x
   04BF 8Dr03r00      [ 4]  586 	sta	(___fsadd_PARM_1 + 3)
   04C2 20r00r00      [ 6]  587 	jsr	___fsadd
   04C5 86*00         [ 3]  588 	stx	*(__TEMP+0)
   04C7 BA            [ 2]  589 	tsx
   04C8 9D 01 01      [ 5]  590 	sta	0x101,x
   04CB A6*00         [ 3]  591 	ldx	*(__TEMP+0)
   04CD 8A            [ 2]  592 	txa
   04CE BA            [ 2]  593 	tsx
   04CF 9D 02 01      [ 5]  594 	sta	0x102,x
   04D2 A6*00         [ 3]  595 	ldx	*(__TEMP+0)
   04D4 A5*00         [ 3]  596 	lda	*___SDCC_m6502_ret2
   04D6 BA            [ 2]  597 	tsx
   04D7 9D 03 01      [ 5]  598 	sta	0x103,x
   04DA A5*00         [ 3]  599 	lda	*___SDCC_m6502_ret3
   04DC 9D 04 01      [ 5]  600 	sta	0x104,x
                            601 ;	../atanf.c: 83: if(x<0.0) r=-r;
   04DF BD 15 01      [ 5]  602 	lda	0x115,x
   04E2 8Dr00r00      [ 4]  603 	sta	___fslt_PARM_1
   04E5 BD 16 01      [ 5]  604 	lda	0x116,x
   04E8 8Dr01r00      [ 4]  605 	sta	(___fslt_PARM_1 + 1)
   04EB BD 17 01      [ 5]  606 	lda	0x117,x
   04EE 8Dr02r00      [ 4]  607 	sta	(___fslt_PARM_1 + 2)
   04F1 BD 18 01      [ 5]  608 	lda	0x118,x
   04F4 8Dr03r00      [ 4]  609 	sta	(___fslt_PARM_1 + 3)
   04F7 A2 00         [ 2]  610 	ldx	#0x00
   04F9 8Er00r00      [ 4]  611 	stx	___fslt_PARM_2
   04FC 8Er01r00      [ 4]  612 	stx	(___fslt_PARM_2 + 1)
   04FF 8Er02r00      [ 4]  613 	stx	(___fslt_PARM_2 + 2)
   0502 8Er03r00      [ 4]  614 	stx	(___fslt_PARM_2 + 3)
   0505 20r00r00      [ 6]  615 	jsr	___fslt
   0508 C9 00         [ 2]  616 	cmp	#0x00
   050A F0 09         [ 4]  617 	beq	00111$
   050C BA            [ 2]  618 	tsx
   050D BD 04 01      [ 5]  619 	lda	0x104,x
   0510 49 80         [ 2]  620 	eor	#0x80
   0512 9D 04 01      [ 5]  621 	sta	0x104,x
   0515                     622 00111$:
                            623 ;	../atanf.c: 84: return r;
   0515 BA            [ 2]  624 	tsx
   0516 BD 04 01      [ 5]  625 	lda	0x104,x
   0519 85*00         [ 3]  626 	sta	*___SDCC_m6502_ret3
   051B BD 03 01      [ 5]  627 	lda	0x103,x
   051E 85*00         [ 3]  628 	sta	*___SDCC_m6502_ret2
   0520 BD 02 01      [ 5]  629 	lda	0x102,x
   0523 AA            [ 2]  630 	tax
   0524 86*00         [ 3]  631 	stx	*(__TEMP+0)
   0526 BA            [ 2]  632 	tsx
   0527 BD 01 01      [ 5]  633 	lda	0x101,x
   052A 08            [ 3]  634 	php
   052B A6*00         [ 3]  635 	ldx	*(__TEMP+0)
   052D 28            [ 4]  636 	plp
                            637 ;	../atanf.c: 85: }
   052E 85*00         [ 3]  638 	sta	*(__TEMP+0)
   0530 86*01         [ 3]  639 	stx	*(__TEMP+1)
   0532 BA            [ 2]  640 	tsx
   0533 8A            [ 2]  641 	txa
   0534 18            [ 2]  642 	clc
   0535 69 12         [ 2]  643 	adc	#0x12
   0537 AA            [ 2]  644 	tax
   0538 9A            [ 2]  645 	txs
   0539 A6*01         [ 3]  646 	ldx	*(__TEMP+1)
   053B A5*00         [ 3]  647 	lda	*(__TEMP+0)
   053D 60            [ 6]  648 	rts
                            649 	.area CODE
                            650 	.area RODATA
   0000                     651 _atanf_a_65536_26:
   0000 00 00 00 00         652 	.byte #0x00, #0x00, #0x00, #0x00	;  0.000000e+00
   0004 92 0A 06 3F         653 	.byte #0x92, #0x0a, #0x06, #0x3f	;  5.235988e-01
   0008 DB 0F C9 3F         654 	.byte #0xdb, #0x0f, #0xc9, #0x3f	;  1.570796e+00
   000C 92 0A 86 3F         655 	.byte #0x92, #0x0a, #0x86, #0x3f	;  1.047198e+00
                            656 	.area XINIT
                            657 	.area CABS    (ABS)
