                              1 ;--------------------------------------------------------
                              2 ; File Created by SDCC : free open source ISO C Compiler 
                              3 ; Version 4.2.14 #0 (Linux)
                              4 ;--------------------------------------------------------
                              5 	.module tanhf
                              6 	.optsdcc -mmos6502
                              7 	
                              8 ;--------------------------------------------------------
                              9 ; Public variables in this module
                             10 ;--------------------------------------------------------
                             11 	.globl _fabsf
                             12 	.globl _expf
                             13 	.globl _tanhf
                             14 ;--------------------------------------------------------
                             15 ; ZP ram data
                             16 ;--------------------------------------------------------
                             17 	.area ZP      (PAG)
                             18 ;--------------------------------------------------------
                             19 ; overlayable items in ram
                             20 ;--------------------------------------------------------
                             21 ;--------------------------------------------------------
                             22 ; uninitialized external ram data
                             23 ;--------------------------------------------------------
                             24 	.area BSS
                             25 ;--------------------------------------------------------
                             26 ; absolute external ram data
                             27 ;--------------------------------------------------------
                             28 	.area DABS    (ABS)
                             29 ;--------------------------------------------------------
                             30 ; initialized external ram data
                             31 ;--------------------------------------------------------
                             32 	.area DATA
                             33 ;--------------------------------------------------------
                             34 ; global & static initialisations
                             35 ;--------------------------------------------------------
                             36 	.area _CODE
                             37 	.area GSINIT
                             38 	.area GSFINAL
                             39 	.area GSINIT
                             40 ;--------------------------------------------------------
                             41 ; Home
                             42 ;--------------------------------------------------------
                             43 	.area _CODE
                             44 	.area _CODE
                             45 ;--------------------------------------------------------
                             46 ; code
                             47 ;--------------------------------------------------------
                             48 	.area CODE
                             49 ;------------------------------------------------------------
                             50 ;Allocation info for local variables in function 'tanhf'
                             51 ;------------------------------------------------------------
                             52 ;x                         Allocated to stack - sp +19
                             53 ;f                         Allocated to stack - sp +13
                             54 ;g                         Allocated to stack - sp +9
                             55 ;r                         Allocated to stack - sp +1
                             56 ;sloc0                     Allocated to stack - sp +13
                             57 ;sloc1                     Allocated to stack - sp +9
                             58 ;sloc2                     Allocated to stack - sp +5
                             59 ;------------------------------------------------------------
                             60 ;	../tanhf.c: 50: float tanhf(float x) _FLOAT_FUNC_REENTRANT
                             61 ;	-----------------------------------------
                             62 ;	 function tanhf
                             63 ;	-----------------------------------------
                             64 ;	Register assignment is optimal.
                             65 ;	Stack space usage: 16 bytes.
   0000                      66 _tanhf:
   0000 85*00         [ 3]   67 	sta	*(__TEMP+0)
   0002 86*01         [ 3]   68 	stx	*(__TEMP+1)
   0004 BA            [ 2]   69 	tsx
   0005 8A            [ 2]   70 	txa
   0006 18            [ 2]   71 	clc
   0007 69 F0         [ 2]   72 	adc	#0xf0
   0009 AA            [ 2]   73 	tax
   000A 9A            [ 2]   74 	txs
   000B A6*01         [ 3]   75 	ldx	*(__TEMP+1)
   000D A5*00         [ 3]   76 	lda	*(__TEMP+0)
                             77 ;	../tanhf.c: 54: f=fabsf(x);
   000F BA            [ 2]   78 	tsx
   0010 BD 16 01      [ 5]   79 	lda	0x116,x
   0013 48            [ 3]   80 	pha
   0014 BD 15 01      [ 5]   81 	lda	0x115,x
   0017 48            [ 3]   82 	pha
   0018 BD 14 01      [ 5]   83 	lda	0x114,x
   001B 48            [ 3]   84 	pha
   001C BD 13 01      [ 5]   85 	lda	0x113,x
   001F 48            [ 3]   86 	pha
   0020 20r00r00      [ 6]   87 	jsr	_fabsf
   0023 86*00         [ 3]   88 	stx	*(__TEMP+0)
   0025 BA            [ 2]   89 	tsx
   0026 9D 11 01      [ 5]   90 	sta	0x111,x
   0029 A6*00         [ 3]   91 	ldx	*(__TEMP+0)
   002B 8A            [ 2]   92 	txa
   002C BA            [ 2]   93 	tsx
   002D 9D 12 01      [ 5]   94 	sta	0x112,x
   0030 A6*00         [ 3]   95 	ldx	*(__TEMP+0)
   0032 A5*00         [ 3]   96 	lda	*___SDCC_m6502_ret2
   0034 BA            [ 2]   97 	tsx
   0035 9D 13 01      [ 5]   98 	sta	0x113,x
   0038 A5*00         [ 3]   99 	lda	*___SDCC_m6502_ret3
   003A 9D 14 01      [ 5]  100 	sta	0x114,x
   003D 85*00         [ 3]  101 	sta	*(__TEMP+0)
   003F 68            [ 4]  102 	pla
   0040 68            [ 4]  103 	pla
   0041 68            [ 4]  104 	pla
   0042 68            [ 4]  105 	pla
   0043 A5*00         [ 3]  106 	lda	*(__TEMP+0)
                            107 ;	../tanhf.c: 55: if(f>SBIG) r=1.0;
   0045 A2 B0         [ 2]  108 	ldx	#0xb0
   0047 8Er00r00      [ 4]  109 	stx	___fslt_PARM_1
   004A A2 2C         [ 2]  110 	ldx	#0x2c
   004C 8Er01r00      [ 4]  111 	stx	(___fslt_PARM_1 + 1)
   004F A2 10         [ 2]  112 	ldx	#0x10
   0051 8Er02r00      [ 4]  113 	stx	(___fslt_PARM_1 + 2)
   0054 A2 41         [ 2]  114 	ldx	#0x41
   0056 8Er03r00      [ 4]  115 	stx	(___fslt_PARM_1 + 3)
   0059 BA            [ 2]  116 	tsx
   005A BD 0D 01      [ 5]  117 	lda	0x10d,x
   005D 8Dr00r00      [ 4]  118 	sta	___fslt_PARM_2
   0060 BD 0E 01      [ 5]  119 	lda	0x10e,x
   0063 8Dr01r00      [ 4]  120 	sta	(___fslt_PARM_2 + 1)
   0066 BD 0F 01      [ 5]  121 	lda	0x10f,x
   0069 8Dr02r00      [ 4]  122 	sta	(___fslt_PARM_2 + 2)
   006C BD 10 01      [ 5]  123 	lda	0x110,x
   006F 8Dr03r00      [ 4]  124 	sta	(___fslt_PARM_2 + 3)
   0072 20r00r00      [ 6]  125 	jsr	___fslt
   0075 C9 00         [ 2]  126 	cmp	#0x00
   0077 F0 16         [ 4]  127 	beq	00108$
   0079 BA            [ 2]  128 	tsx
   007A A9 00         [ 2]  129 	lda	#0x00
   007C 9D 01 01      [ 5]  130 	sta	0x101,x
   007F 9D 02 01      [ 5]  131 	sta	0x102,x
   0082 A9 80         [ 2]  132 	lda	#0x80
   0084 9D 03 01      [ 5]  133 	sta	0x103,x
   0087 A9 3F         [ 2]  134 	lda	#0x3f
   0089 9D 04 01      [ 5]  135 	sta	0x104,x
   008C 4Cr09r04      [ 3]  136 	jmp	00109$
   008F                     137 00108$:
                            138 ;	../tanhf.c: 56: else if(f>K1)
   008F A2 54         [ 2]  139 	ldx	#0x54
   0091 8Er00r00      [ 4]  140 	stx	___fslt_PARM_1
   0094 A2 9F         [ 2]  141 	ldx	#0x9f
   0096 8Er01r00      [ 4]  142 	stx	(___fslt_PARM_1 + 1)
   0099 A2 0C         [ 2]  143 	ldx	#0x0c
   009B 8Er02r00      [ 4]  144 	stx	(___fslt_PARM_1 + 2)
   009E A2 3F         [ 2]  145 	ldx	#0x3f
   00A0 8Er03r00      [ 4]  146 	stx	(___fslt_PARM_1 + 3)
   00A3 BA            [ 2]  147 	tsx
   00A4 BD 0D 01      [ 5]  148 	lda	0x10d,x
   00A7 8Dr00r00      [ 4]  149 	sta	___fslt_PARM_2
   00AA BD 0E 01      [ 5]  150 	lda	0x10e,x
   00AD 8Dr01r00      [ 4]  151 	sta	(___fslt_PARM_2 + 1)
   00B0 BD 0F 01      [ 5]  152 	lda	0x10f,x
   00B3 8Dr02r00      [ 4]  153 	sta	(___fslt_PARM_2 + 2)
   00B6 BD 10 01      [ 5]  154 	lda	0x110,x
   00B9 8Dr03r00      [ 4]  155 	sta	(___fslt_PARM_2 + 3)
   00BC 20r00r00      [ 6]  156 	jsr	___fslt
   00BF C9 00         [ 2]  157 	cmp	#0x00
   00C1 D0 03         [ 4]  158 	bne	00131$
   00C3 4Cr03r02      [ 3]  159 	jmp	00105$
   00C6                     160 00131$:
                            161 ;	../tanhf.c: 58: r=0.5-1.0/(expf(f+f)+1.0);
   00C6 BA            [ 2]  162 	tsx
   00C7 BD 0D 01      [ 5]  163 	lda	0x10d,x
   00CA 8Dr00r00      [ 4]  164 	sta	___fsadd_PARM_1
   00CD BD 0E 01      [ 5]  165 	lda	0x10e,x
   00D0 8Dr01r00      [ 4]  166 	sta	(___fsadd_PARM_1 + 1)
   00D3 BD 0F 01      [ 5]  167 	lda	0x10f,x
   00D6 8Dr02r00      [ 4]  168 	sta	(___fsadd_PARM_1 + 2)
   00D9 BD 10 01      [ 5]  169 	lda	0x110,x
   00DC 8Dr03r00      [ 4]  170 	sta	(___fsadd_PARM_1 + 3)
   00DF BD 0D 01      [ 5]  171 	lda	0x10d,x
   00E2 8Dr00r00      [ 4]  172 	sta	___fsadd_PARM_2
   00E5 BD 0E 01      [ 5]  173 	lda	0x10e,x
   00E8 8Dr01r00      [ 4]  174 	sta	(___fsadd_PARM_2 + 1)
   00EB BD 0F 01      [ 5]  175 	lda	0x10f,x
   00EE 8Dr02r00      [ 4]  176 	sta	(___fsadd_PARM_2 + 2)
   00F1 BD 10 01      [ 5]  177 	lda	0x110,x
   00F4 8Dr03r00      [ 4]  178 	sta	(___fsadd_PARM_2 + 3)
   00F7 20r00r00      [ 6]  179 	jsr	___fsadd
   00FA 86*00         [ 3]  180 	stx	*(__TEMP+0)
   00FC BA            [ 2]  181 	tsx
   00FD 9D 09 01      [ 5]  182 	sta	0x109,x
   0100 A6*00         [ 3]  183 	ldx	*(__TEMP+0)
   0102 8A            [ 2]  184 	txa
   0103 BA            [ 2]  185 	tsx
   0104 9D 0A 01      [ 5]  186 	sta	0x10a,x
   0107 A6*00         [ 3]  187 	ldx	*(__TEMP+0)
   0109 A5*00         [ 3]  188 	lda	*___SDCC_m6502_ret2
   010B BA            [ 2]  189 	tsx
   010C 9D 0B 01      [ 5]  190 	sta	0x10b,x
   010F A5*00         [ 3]  191 	lda	*___SDCC_m6502_ret3
   0111 9D 0C 01      [ 5]  192 	sta	0x10c, x
   0114 48            [ 3]  193 	pha
   0115 BD 0B 01      [ 5]  194 	lda	0x10b,x
   0118 48            [ 3]  195 	pha
   0119 BD 0A 01      [ 5]  196 	lda	0x10a,x
   011C 48            [ 3]  197 	pha
   011D BD 09 01      [ 5]  198 	lda	0x109,x
   0120 48            [ 3]  199 	pha
   0121 20r00r00      [ 6]  200 	jsr	_expf
   0124 8Dr00r00      [ 4]  201 	sta	___fsadd_PARM_1
   0127 8Er01r00      [ 4]  202 	stx	(___fsadd_PARM_1 + 1)
   012A A5*00         [ 3]  203 	lda	*___SDCC_m6502_ret2
   012C 8Dr02r00      [ 4]  204 	sta	(___fsadd_PARM_1 + 2)
   012F A5*00         [ 3]  205 	lda	*___SDCC_m6502_ret3
   0131 8Dr03r00      [ 4]  206 	sta	(___fsadd_PARM_1 + 3)
   0134 85*00         [ 3]  207 	sta	*(__TEMP+0)
   0136 68            [ 4]  208 	pla
   0137 68            [ 4]  209 	pla
   0138 68            [ 4]  210 	pla
   0139 68            [ 4]  211 	pla
   013A A5*00         [ 3]  212 	lda	*(__TEMP+0)
   013C A2 00         [ 2]  213 	ldx	#0x00
   013E 8Er00r00      [ 4]  214 	stx	___fsadd_PARM_2
   0141 8Er01r00      [ 4]  215 	stx	(___fsadd_PARM_2 + 1)
   0144 A2 80         [ 2]  216 	ldx	#0x80
   0146 8Er02r00      [ 4]  217 	stx	(___fsadd_PARM_2 + 2)
   0149 A2 3F         [ 2]  218 	ldx	#0x3f
   014B 8Er03r00      [ 4]  219 	stx	(___fsadd_PARM_2 + 3)
   014E 20r00r00      [ 6]  220 	jsr	___fsadd
   0151 8Dr00r00      [ 4]  221 	sta	___fsdiv_PARM_2
   0154 8Er01r00      [ 4]  222 	stx	(___fsdiv_PARM_2 + 1)
   0157 A5*00         [ 3]  223 	lda	*___SDCC_m6502_ret2
   0159 8Dr02r00      [ 4]  224 	sta	(___fsdiv_PARM_2 + 2)
   015C A5*00         [ 3]  225 	lda	*___SDCC_m6502_ret3
   015E 8Dr03r00      [ 4]  226 	sta	(___fsdiv_PARM_2 + 3)
   0161 A2 00         [ 2]  227 	ldx	#0x00
   0163 8Er00r00      [ 4]  228 	stx	___fsdiv_PARM_1
   0166 8Er01r00      [ 4]  229 	stx	(___fsdiv_PARM_1 + 1)
   0169 A2 80         [ 2]  230 	ldx	#0x80
   016B 8Er02r00      [ 4]  231 	stx	(___fsdiv_PARM_1 + 2)
   016E A2 3F         [ 2]  232 	ldx	#0x3f
   0170 8Er03r00      [ 4]  233 	stx	(___fsdiv_PARM_1 + 3)
   0173 20r00r00      [ 6]  234 	jsr	___fsdiv
   0176 8Dr00r00      [ 4]  235 	sta	___fssub_PARM_2
   0179 8Er01r00      [ 4]  236 	stx	(___fssub_PARM_2 + 1)
   017C A5*00         [ 3]  237 	lda	*___SDCC_m6502_ret2
   017E 8Dr02r00      [ 4]  238 	sta	(___fssub_PARM_2 + 2)
   0181 A5*00         [ 3]  239 	lda	*___SDCC_m6502_ret3
   0183 8Dr03r00      [ 4]  240 	sta	(___fssub_PARM_2 + 3)
   0186 A2 00         [ 2]  241 	ldx	#0x00
   0188 8Er00r00      [ 4]  242 	stx	___fssub_PARM_1
   018B 8Er01r00      [ 4]  243 	stx	(___fssub_PARM_1 + 1)
   018E 8Er02r00      [ 4]  244 	stx	(___fssub_PARM_1 + 2)
   0191 A2 3F         [ 2]  245 	ldx	#0x3f
   0193 8Er03r00      [ 4]  246 	stx	(___fssub_PARM_1 + 3)
                            247 ;	../tanhf.c: 59: r+=r;
   0196 20r00r00      [ 6]  248 	jsr	___fssub
   0199 86*00         [ 3]  249 	stx	*(__TEMP+0)
   019B BA            [ 2]  250 	tsx
   019C 9D 09 01      [ 5]  251 	sta	0x109,x
   019F A6*00         [ 3]  252 	ldx	*(__TEMP+0)
   01A1 8A            [ 2]  253 	txa
   01A2 BA            [ 2]  254 	tsx
   01A3 9D 0A 01      [ 5]  255 	sta	0x10a,x
   01A6 A6*00         [ 3]  256 	ldx	*(__TEMP+0)
   01A8 A5*00         [ 3]  257 	lda	*___SDCC_m6502_ret2
   01AA BA            [ 2]  258 	tsx
   01AB 9D 0B 01      [ 5]  259 	sta	0x10b,x
   01AE A5*00         [ 3]  260 	lda	*___SDCC_m6502_ret3
   01B0 9D 0C 01      [ 5]  261 	sta	0x10c,x
   01B3 BD 09 01      [ 5]  262 	lda	0x109,x
   01B6 8Dr00r00      [ 4]  263 	sta	___fsadd_PARM_1
   01B9 BD 0A 01      [ 5]  264 	lda	0x10a,x
   01BC 8Dr01r00      [ 4]  265 	sta	(___fsadd_PARM_1 + 1)
   01BF BD 0B 01      [ 5]  266 	lda	0x10b,x
   01C2 8Dr02r00      [ 4]  267 	sta	(___fsadd_PARM_1 + 2)
   01C5 BD 0C 01      [ 5]  268 	lda	0x10c,x
   01C8 8Dr03r00      [ 4]  269 	sta	(___fsadd_PARM_1 + 3)
   01CB BD 09 01      [ 5]  270 	lda	0x109,x
   01CE 8Dr00r00      [ 4]  271 	sta	___fsadd_PARM_2
   01D1 BD 0A 01      [ 5]  272 	lda	0x10a,x
   01D4 8Dr01r00      [ 4]  273 	sta	(___fsadd_PARM_2 + 1)
   01D7 BD 0B 01      [ 5]  274 	lda	0x10b,x
   01DA 8Dr02r00      [ 4]  275 	sta	(___fsadd_PARM_2 + 2)
   01DD BD 0C 01      [ 5]  276 	lda	0x10c,x
   01E0 8Dr03r00      [ 4]  277 	sta	(___fsadd_PARM_2 + 3)
   01E3 20r00r00      [ 6]  278 	jsr	___fsadd
   01E6 86*00         [ 3]  279 	stx	*(__TEMP+0)
   01E8 BA            [ 2]  280 	tsx
   01E9 9D 01 01      [ 5]  281 	sta	0x101,x
   01EC A6*00         [ 3]  282 	ldx	*(__TEMP+0)
   01EE 8A            [ 2]  283 	txa
   01EF BA            [ 2]  284 	tsx
   01F0 9D 02 01      [ 5]  285 	sta	0x102,x
   01F3 A6*00         [ 3]  286 	ldx	*(__TEMP+0)
   01F5 A5*00         [ 3]  287 	lda	*___SDCC_m6502_ret2
   01F7 BA            [ 2]  288 	tsx
   01F8 9D 03 01      [ 5]  289 	sta	0x103,x
   01FB A5*00         [ 3]  290 	lda	*___SDCC_m6502_ret3
   01FD 9D 04 01      [ 5]  291 	sta	0x104,x
   0200 4Cr09r04      [ 3]  292 	jmp	00109$
   0203                     293 00105$:
                            294 ;	../tanhf.c: 61: else if(f<EPS) r=f;
   0203 BA            [ 2]  295 	tsx
   0204 BD 0D 01      [ 5]  296 	lda	0x10d,x
   0207 8Dr00r00      [ 4]  297 	sta	___fslt_PARM_1
   020A BD 0E 01      [ 5]  298 	lda	0x10e,x
   020D 8Dr01r00      [ 4]  299 	sta	(___fslt_PARM_1 + 1)
   0210 BD 0F 01      [ 5]  300 	lda	0x10f,x
   0213 8Dr02r00      [ 4]  301 	sta	(___fslt_PARM_1 + 2)
   0216 BD 10 01      [ 5]  302 	lda	0x110,x
   0219 8Dr03r00      [ 4]  303 	sta	(___fslt_PARM_1 + 3)
   021C A2 00         [ 2]  304 	ldx	#0x00
   021E 8Er00r00      [ 4]  305 	stx	___fslt_PARM_2
   0221 8Er01r00      [ 4]  306 	stx	(___fslt_PARM_2 + 1)
   0224 A2 80         [ 2]  307 	ldx	#0x80
   0226 8Er02r00      [ 4]  308 	stx	(___fslt_PARM_2 + 2)
   0229 A2 39         [ 2]  309 	ldx	#0x39
   022B 8Er03r00      [ 4]  310 	stx	(___fslt_PARM_2 + 3)
   022E 20r00r00      [ 6]  311 	jsr	___fslt
   0231 C9 00         [ 2]  312 	cmp	#0x00
   0233 F0 1C         [ 4]  313 	beq	00102$
   0235 BA            [ 2]  314 	tsx
   0236 BD 0D 01      [ 5]  315 	lda	0x10d,x
   0239 9D 01 01      [ 5]  316 	sta	0x101,x
   023C BD 0E 01      [ 5]  317 	lda	0x10e,x
   023F 9D 02 01      [ 5]  318 	sta	0x102,x
   0242 BD 0F 01      [ 5]  319 	lda	0x10f,x
   0245 9D 03 01      [ 5]  320 	sta	0x103,x
   0248 BD 10 01      [ 5]  321 	lda	0x110,x
   024B 9D 04 01      [ 5]  322 	sta	0x104,x
   024E 4Cr09r04      [ 3]  323 	jmp	00109$
   0251                     324 00102$:
                            325 ;	../tanhf.c: 64: g=f*f;
   0251 BA            [ 2]  326 	tsx
   0252 BD 0D 01      [ 5]  327 	lda	0x10d,x
   0255 8Dr00r00      [ 4]  328 	sta	___fsmul_PARM_1
   0258 BD 0E 01      [ 5]  329 	lda	0x10e,x
   025B 8Dr01r00      [ 4]  330 	sta	(___fsmul_PARM_1 + 1)
   025E BD 0F 01      [ 5]  331 	lda	0x10f,x
   0261 8Dr02r00      [ 4]  332 	sta	(___fsmul_PARM_1 + 2)
   0264 BD 10 01      [ 5]  333 	lda	0x110,x
   0267 8Dr03r00      [ 4]  334 	sta	(___fsmul_PARM_1 + 3)
   026A BD 0D 01      [ 5]  335 	lda	0x10d,x
   026D 8Dr00r00      [ 4]  336 	sta	___fsmul_PARM_2
   0270 BD 0E 01      [ 5]  337 	lda	0x10e,x
   0273 8Dr01r00      [ 4]  338 	sta	(___fsmul_PARM_2 + 1)
   0276 BD 0F 01      [ 5]  339 	lda	0x10f,x
   0279 8Dr02r00      [ 4]  340 	sta	(___fsmul_PARM_2 + 2)
   027C BD 10 01      [ 5]  341 	lda	0x110,x
   027F 8Dr03r00      [ 4]  342 	sta	(___fsmul_PARM_2 + 3)
                            343 ;	../tanhf.c: 65: r=f+f*(P(g)/Q(g));
   0282 20r00r00      [ 6]  344 	jsr	___fsmul
   0285 86*00         [ 3]  345 	stx	*(__TEMP+0)
   0287 BA            [ 2]  346 	tsx
   0288 9D 09 01      [ 5]  347 	sta	0x109,x
   028B A6*00         [ 3]  348 	ldx	*(__TEMP+0)
   028D 8A            [ 2]  349 	txa
   028E BA            [ 2]  350 	tsx
   028F 9D 0A 01      [ 5]  351 	sta	0x10a,x
   0292 A6*00         [ 3]  352 	ldx	*(__TEMP+0)
   0294 A5*00         [ 3]  353 	lda	*___SDCC_m6502_ret2
   0296 BA            [ 2]  354 	tsx
   0297 9D 0B 01      [ 5]  355 	sta	0x10b,x
   029A A5*00         [ 3]  356 	lda	*___SDCC_m6502_ret3
   029C 9D 0C 01      [ 5]  357 	sta	0x10c,x
   029F A2 B2         [ 2]  358 	ldx	#0xb2
   02A1 8Er00r00      [ 4]  359 	stx	___fsmul_PARM_1
   02A4 A2 11         [ 2]  360 	ldx	#0x11
   02A6 8Er01r00      [ 4]  361 	stx	(___fsmul_PARM_1 + 1)
   02A9 A2 7B         [ 2]  362 	ldx	#0x7b
   02AB 8Er02r00      [ 4]  363 	stx	(___fsmul_PARM_1 + 2)
   02AE A2 BB         [ 2]  364 	ldx	#0xbb
   02B0 8Er03r00      [ 4]  365 	stx	(___fsmul_PARM_1 + 3)
   02B3 BA            [ 2]  366 	tsx
   02B4 BD 09 01      [ 5]  367 	lda	0x109,x
   02B7 8Dr00r00      [ 4]  368 	sta	___fsmul_PARM_2
   02BA BD 0A 01      [ 5]  369 	lda	0x10a,x
   02BD 8Dr01r00      [ 4]  370 	sta	(___fsmul_PARM_2 + 1)
   02C0 BD 0B 01      [ 5]  371 	lda	0x10b,x
   02C3 8Dr02r00      [ 4]  372 	sta	(___fsmul_PARM_2 + 2)
   02C6 BD 0C 01      [ 5]  373 	lda	0x10c,x
   02C9 8Dr03r00      [ 4]  374 	sta	(___fsmul_PARM_2 + 3)
   02CC 20r00r00      [ 6]  375 	jsr	___fsmul
   02CF 8Dr00r00      [ 4]  376 	sta	___fsadd_PARM_1
   02D2 8Er01r00      [ 4]  377 	stx	(___fsadd_PARM_1 + 1)
   02D5 A5*00         [ 3]  378 	lda	*___SDCC_m6502_ret2
   02D7 8Dr02r00      [ 4]  379 	sta	(___fsadd_PARM_1 + 2)
   02DA A5*00         [ 3]  380 	lda	*___SDCC_m6502_ret3
   02DC 8Dr03r00      [ 4]  381 	sta	(___fsadd_PARM_1 + 3)
   02DF A2 C6         [ 2]  382 	ldx	#0xc6
   02E1 8Er00r00      [ 4]  383 	stx	___fsadd_PARM_2
   02E4 A2 E2         [ 2]  384 	ldx	#0xe2
   02E6 8Er01r00      [ 4]  385 	stx	(___fsadd_PARM_2 + 1)
   02E9 A2 52         [ 2]  386 	ldx	#0x52
   02EB 8Er02r00      [ 4]  387 	stx	(___fsadd_PARM_2 + 2)
   02EE A2 BF         [ 2]  388 	ldx	#0xbf
   02F0 8Er03r00      [ 4]  389 	stx	(___fsadd_PARM_2 + 3)
   02F3 20r00r00      [ 6]  390 	jsr	___fsadd
   02F6 8Dr00r00      [ 4]  391 	sta	___fsmul_PARM_1
   02F9 8Er01r00      [ 4]  392 	stx	(___fsmul_PARM_1 + 1)
   02FC A5*00         [ 3]  393 	lda	*___SDCC_m6502_ret2
   02FE 8Dr02r00      [ 4]  394 	sta	(___fsmul_PARM_1 + 2)
   0301 A5*00         [ 3]  395 	lda	*___SDCC_m6502_ret3
   0303 8Dr03r00      [ 4]  396 	sta	(___fsmul_PARM_1 + 3)
   0306 BA            [ 2]  397 	tsx
   0307 BD 09 01      [ 5]  398 	lda	0x109,x
   030A 8Dr00r00      [ 4]  399 	sta	___fsmul_PARM_2
   030D BD 0A 01      [ 5]  400 	lda	0x10a,x
   0310 8Dr01r00      [ 4]  401 	sta	(___fsmul_PARM_2 + 1)
   0313 BD 0B 01      [ 5]  402 	lda	0x10b,x
   0316 8Dr02r00      [ 4]  403 	sta	(___fsmul_PARM_2 + 2)
   0319 BD 0C 01      [ 5]  404 	lda	0x10c,x
   031C 8Dr03r00      [ 4]  405 	sta	(___fsmul_PARM_2 + 3)
   031F 20r00r00      [ 6]  406 	jsr	___fsmul
   0322 86*00         [ 3]  407 	stx	*(__TEMP+0)
   0324 BA            [ 2]  408 	tsx
   0325 9D 05 01      [ 5]  409 	sta	0x105,x
   0328 A6*00         [ 3]  410 	ldx	*(__TEMP+0)
   032A 8A            [ 2]  411 	txa
   032B BA            [ 2]  412 	tsx
   032C 9D 06 01      [ 5]  413 	sta	0x106,x
   032F A6*00         [ 3]  414 	ldx	*(__TEMP+0)
   0331 A5*00         [ 3]  415 	lda	*___SDCC_m6502_ret2
   0333 BA            [ 2]  416 	tsx
   0334 9D 07 01      [ 5]  417 	sta	0x107,x
   0337 A5*00         [ 3]  418 	lda	*___SDCC_m6502_ret3
   0339 9D 08 01      [ 5]  419 	sta	0x108,x
   033C BD 09 01      [ 5]  420 	lda	0x109,x
   033F 8Dr00r00      [ 4]  421 	sta	___fsadd_PARM_1
   0342 BD 0A 01      [ 5]  422 	lda	0x10a,x
   0345 8Dr01r00      [ 4]  423 	sta	(___fsadd_PARM_1 + 1)
   0348 BD 0B 01      [ 5]  424 	lda	0x10b,x
   034B 8Dr02r00      [ 4]  425 	sta	(___fsadd_PARM_1 + 2)
   034E BD 0C 01      [ 5]  426 	lda	0x10c,x
   0351 8Dr03r00      [ 4]  427 	sta	(___fsadd_PARM_1 + 3)
   0354 A2 1A         [ 2]  428 	ldx	#0x1a
   0356 8Er00r00      [ 4]  429 	stx	___fsadd_PARM_2
   0359 A2 2A         [ 2]  430 	ldx	#0x2a
   035B 8Er01r00      [ 4]  431 	stx	(___fsadd_PARM_2 + 1)
   035E A2 1E         [ 2]  432 	ldx	#0x1e
   0360 8Er02r00      [ 4]  433 	stx	(___fsadd_PARM_2 + 2)
   0363 A2 40         [ 2]  434 	ldx	#0x40
   0365 8Er03r00      [ 4]  435 	stx	(___fsadd_PARM_2 + 3)
   0368 20r00r00      [ 6]  436 	jsr	___fsadd
   036B 8Dr00r00      [ 4]  437 	sta	___fsdiv_PARM_2
   036E 8Er01r00      [ 4]  438 	stx	(___fsdiv_PARM_2 + 1)
   0371 A5*00         [ 3]  439 	lda	*___SDCC_m6502_ret2
   0373 8Dr02r00      [ 4]  440 	sta	(___fsdiv_PARM_2 + 2)
   0376 A5*00         [ 3]  441 	lda	*___SDCC_m6502_ret3
   0378 8Dr03r00      [ 4]  442 	sta	(___fsdiv_PARM_2 + 3)
   037B BA            [ 2]  443 	tsx
   037C BD 05 01      [ 5]  444 	lda	0x105,x
   037F 8Dr00r00      [ 4]  445 	sta	___fsdiv_PARM_1
   0382 BD 06 01      [ 5]  446 	lda	0x106,x
   0385 8Dr01r00      [ 4]  447 	sta	(___fsdiv_PARM_1 + 1)
   0388 BD 07 01      [ 5]  448 	lda	0x107,x
   038B 8Dr02r00      [ 4]  449 	sta	(___fsdiv_PARM_1 + 2)
   038E BD 08 01      [ 5]  450 	lda	0x108,x
   0391 8Dr03r00      [ 4]  451 	sta	(___fsdiv_PARM_1 + 3)
   0394 20r00r00      [ 6]  452 	jsr	___fsdiv
   0397 8Dr00r00      [ 4]  453 	sta	___fsmul_PARM_2
   039A 8Er01r00      [ 4]  454 	stx	(___fsmul_PARM_2 + 1)
   039D A5*00         [ 3]  455 	lda	*___SDCC_m6502_ret2
   039F 8Dr02r00      [ 4]  456 	sta	(___fsmul_PARM_2 + 2)
   03A2 A5*00         [ 3]  457 	lda	*___SDCC_m6502_ret3
   03A4 8Dr03r00      [ 4]  458 	sta	(___fsmul_PARM_2 + 3)
   03A7 BA            [ 2]  459 	tsx
   03A8 BD 0D 01      [ 5]  460 	lda	0x10d,x
   03AB 8Dr00r00      [ 4]  461 	sta	___fsmul_PARM_1
   03AE BD 0E 01      [ 5]  462 	lda	0x10e,x
   03B1 8Dr01r00      [ 4]  463 	sta	(___fsmul_PARM_1 + 1)
   03B4 BD 0F 01      [ 5]  464 	lda	0x10f,x
   03B7 8Dr02r00      [ 4]  465 	sta	(___fsmul_PARM_1 + 2)
   03BA BD 10 01      [ 5]  466 	lda	0x110,x
   03BD 8Dr03r00      [ 4]  467 	sta	(___fsmul_PARM_1 + 3)
   03C0 20r00r00      [ 6]  468 	jsr	___fsmul
   03C3 8Dr00r00      [ 4]  469 	sta	___fsadd_PARM_2
   03C6 8Er01r00      [ 4]  470 	stx	(___fsadd_PARM_2 + 1)
   03C9 A5*00         [ 3]  471 	lda	*___SDCC_m6502_ret2
   03CB 8Dr02r00      [ 4]  472 	sta	(___fsadd_PARM_2 + 2)
   03CE A5*00         [ 3]  473 	lda	*___SDCC_m6502_ret3
   03D0 8Dr03r00      [ 4]  474 	sta	(___fsadd_PARM_2 + 3)
   03D3 BA            [ 2]  475 	tsx
   03D4 BD 0D 01      [ 5]  476 	lda	0x10d,x
   03D7 8Dr00r00      [ 4]  477 	sta	___fsadd_PARM_1
   03DA BD 0E 01      [ 5]  478 	lda	0x10e,x
   03DD 8Dr01r00      [ 4]  479 	sta	(___fsadd_PARM_1 + 1)
   03E0 BD 0F 01      [ 5]  480 	lda	0x10f,x
   03E3 8Dr02r00      [ 4]  481 	sta	(___fsadd_PARM_1 + 2)
   03E6 BD 10 01      [ 5]  482 	lda	0x110,x
   03E9 8Dr03r00      [ 4]  483 	sta	(___fsadd_PARM_1 + 3)
   03EC 20r00r00      [ 6]  484 	jsr	___fsadd
   03EF 86*00         [ 3]  485 	stx	*(__TEMP+0)
   03F1 BA            [ 2]  486 	tsx
   03F2 9D 01 01      [ 5]  487 	sta	0x101,x
   03F5 A6*00         [ 3]  488 	ldx	*(__TEMP+0)
   03F7 8A            [ 2]  489 	txa
   03F8 BA            [ 2]  490 	tsx
   03F9 9D 02 01      [ 5]  491 	sta	0x102,x
   03FC A6*00         [ 3]  492 	ldx	*(__TEMP+0)
   03FE A5*00         [ 3]  493 	lda	*___SDCC_m6502_ret2
   0400 BA            [ 2]  494 	tsx
   0401 9D 03 01      [ 5]  495 	sta	0x103,x
   0404 A5*00         [ 3]  496 	lda	*___SDCC_m6502_ret3
   0406 9D 04 01      [ 5]  497 	sta	0x104,x
   0409                     498 00109$:
                            499 ;	../tanhf.c: 67: if(x<0.0) r=-r;
   0409 BA            [ 2]  500 	tsx
   040A BD 13 01      [ 5]  501 	lda	0x113,x
   040D 8Dr00r00      [ 4]  502 	sta	___fslt_PARM_1
   0410 BD 14 01      [ 5]  503 	lda	0x114,x
   0413 8Dr01r00      [ 4]  504 	sta	(___fslt_PARM_1 + 1)
   0416 BD 15 01      [ 5]  505 	lda	0x115,x
   0419 8Dr02r00      [ 4]  506 	sta	(___fslt_PARM_1 + 2)
   041C BD 16 01      [ 5]  507 	lda	0x116,x
   041F 8Dr03r00      [ 4]  508 	sta	(___fslt_PARM_1 + 3)
   0422 A2 00         [ 2]  509 	ldx	#0x00
   0424 8Er00r00      [ 4]  510 	stx	___fslt_PARM_2
   0427 8Er01r00      [ 4]  511 	stx	(___fslt_PARM_2 + 1)
   042A 8Er02r00      [ 4]  512 	stx	(___fslt_PARM_2 + 2)
   042D 8Er03r00      [ 4]  513 	stx	(___fslt_PARM_2 + 3)
   0430 20r00r00      [ 6]  514 	jsr	___fslt
   0433 C9 00         [ 2]  515 	cmp	#0x00
   0435 F0 09         [ 4]  516 	beq	00111$
   0437 BA            [ 2]  517 	tsx
   0438 BD 04 01      [ 5]  518 	lda	0x104,x
   043B 49 80         [ 2]  519 	eor	#0x80
   043D 9D 04 01      [ 5]  520 	sta	0x104,x
   0440                     521 00111$:
                            522 ;	../tanhf.c: 68: return r;
   0440 BA            [ 2]  523 	tsx
   0441 BD 04 01      [ 5]  524 	lda	0x104,x
   0444 85*00         [ 3]  525 	sta	*___SDCC_m6502_ret3
   0446 BD 03 01      [ 5]  526 	lda	0x103,x
   0449 85*00         [ 3]  527 	sta	*___SDCC_m6502_ret2
   044B BD 02 01      [ 5]  528 	lda	0x102,x
   044E AA            [ 2]  529 	tax
   044F 86*00         [ 3]  530 	stx	*(__TEMP+0)
   0451 BA            [ 2]  531 	tsx
   0452 BD 01 01      [ 5]  532 	lda	0x101,x
   0455 08            [ 3]  533 	php
   0456 A6*00         [ 3]  534 	ldx	*(__TEMP+0)
   0458 28            [ 4]  535 	plp
                            536 ;	../tanhf.c: 69: }
   0459 85*00         [ 3]  537 	sta	*(__TEMP+0)
   045B 86*01         [ 3]  538 	stx	*(__TEMP+1)
   045D BA            [ 2]  539 	tsx
   045E 8A            [ 2]  540 	txa
   045F 18            [ 2]  541 	clc
   0460 69 10         [ 2]  542 	adc	#0x10
   0462 AA            [ 2]  543 	tax
   0463 9A            [ 2]  544 	txs
   0464 A6*01         [ 3]  545 	ldx	*(__TEMP+1)
   0466 A5*00         [ 3]  546 	lda	*(__TEMP+0)
   0468 60            [ 6]  547 	rts
                            548 	.area CODE
                            549 	.area RODATA
                            550 	.area XINIT
                            551 	.area CABS    (ABS)
