                                      1 ;--------------------------------------------------------
                                      2 ; File Created by SDCC : free open source ISO C Compiler 
                                      3 ; Version 4.2.14 #0 (Linux)
                                      4 ;--------------------------------------------------------
                                      5 	.module ckd_sub
                                      6 	.optsdcc -mmcs51 --model-small
                                      7 	
                                      8 ;--------------------------------------------------------
                                      9 ; Public variables in this module
                                     10 ;--------------------------------------------------------
                                     11 	.globl ___ckd_sub_ulong_PARM_3
                                     12 	.globl ___ckd_sub_ulong_PARM_2
                                     13 	.globl ___ckd_sub_long_PARM_3
                                     14 	.globl ___ckd_sub_long_PARM_2
                                     15 	.globl ___ckd_sub_uint_PARM_3
                                     16 	.globl ___ckd_sub_uint_PARM_2
                                     17 	.globl ___ckd_sub_int_PARM_3
                                     18 	.globl ___ckd_sub_int_PARM_2
                                     19 	.globl ___ckd_sub_ushort_PARM_3
                                     20 	.globl ___ckd_sub_ushort_PARM_2
                                     21 	.globl ___ckd_sub_short_PARM_3
                                     22 	.globl ___ckd_sub_short_PARM_2
                                     23 	.globl ___ckd_sub_uchar_PARM_3
                                     24 	.globl ___ckd_sub_uchar_PARM_2
                                     25 	.globl ___ckd_sub_schar_PARM_3
                                     26 	.globl ___ckd_sub_schar_PARM_2
                                     27 	.globl ___ckd_sub_schar
                                     28 	.globl ___ckd_sub_uchar
                                     29 	.globl ___ckd_sub_short
                                     30 	.globl ___ckd_sub_ushort
                                     31 	.globl ___ckd_sub_int
                                     32 	.globl ___ckd_sub_uint
                                     33 	.globl ___ckd_sub_long
                                     34 	.globl ___ckd_sub_ulong
                                     35 ;--------------------------------------------------------
                                     36 ; special function registers
                                     37 ;--------------------------------------------------------
                                     38 	.area RSEG    (ABS,DATA)
      000000                         39 	.org 0x0000
                                     40 ;--------------------------------------------------------
                                     41 ; special function bits
                                     42 ;--------------------------------------------------------
                                     43 	.area RSEG    (ABS,DATA)
      000000                         44 	.org 0x0000
                                     45 ;--------------------------------------------------------
                                     46 ; overlayable register banks
                                     47 ;--------------------------------------------------------
                                     48 	.area REG_BANK_0	(REL,OVR,DATA)
      000000                         49 	.ds 8
                                     50 ;--------------------------------------------------------
                                     51 ; internal ram data
                                     52 ;--------------------------------------------------------
                                     53 	.area DSEG    (DATA)
                                     54 ;--------------------------------------------------------
                                     55 ; overlayable items in internal ram
                                     56 ;--------------------------------------------------------
                                     57 	.area	OSEG    (OVR,DATA)
      000000                         58 ___ckd_sub_schar_PARM_2:
      000000                         59 	.ds 8
      000008                         60 ___ckd_sub_schar_PARM_3:
      000008                         61 	.ds 8
      000010                         62 ___ckd_sub_schar_r_65536_25:
      000010                         63 	.ds 3
      000013                         64 ___ckd_sub_schar_result_65536_26:
      000013                         65 	.ds 8
                                     66 	.area	OSEG    (OVR,DATA)
      000000                         67 ___ckd_sub_uchar_PARM_2:
      000000                         68 	.ds 8
      000008                         69 ___ckd_sub_uchar_PARM_3:
      000008                         70 	.ds 8
      000010                         71 ___ckd_sub_uchar_r_65536_27:
      000010                         72 	.ds 3
      000013                         73 ___ckd_sub_uchar_result_65536_28:
      000013                         74 	.ds 8
                                     75 	.area	OSEG    (OVR,DATA)
      000000                         76 ___ckd_sub_short_PARM_2:
      000000                         77 	.ds 8
      000008                         78 ___ckd_sub_short_PARM_3:
      000008                         79 	.ds 8
      000010                         80 ___ckd_sub_short_r_65536_29:
      000010                         81 	.ds 3
      000013                         82 ___ckd_sub_short_result_65536_30:
      000013                         83 	.ds 8
                                     84 	.area	OSEG    (OVR,DATA)
      000000                         85 ___ckd_sub_ushort_PARM_2:
      000000                         86 	.ds 8
      000008                         87 ___ckd_sub_ushort_PARM_3:
      000008                         88 	.ds 8
      000010                         89 ___ckd_sub_ushort_r_65536_31:
      000010                         90 	.ds 3
      000013                         91 ___ckd_sub_ushort_result_65536_32:
      000013                         92 	.ds 8
                                     93 	.area	OSEG    (OVR,DATA)
      000000                         94 ___ckd_sub_int_PARM_2:
      000000                         95 	.ds 8
      000008                         96 ___ckd_sub_int_PARM_3:
      000008                         97 	.ds 8
      000010                         98 ___ckd_sub_int_r_65536_33:
      000010                         99 	.ds 3
      000013                        100 ___ckd_sub_int_result_65536_34:
      000013                        101 	.ds 8
                                    102 	.area	OSEG    (OVR,DATA)
      000000                        103 ___ckd_sub_uint_PARM_2:
      000000                        104 	.ds 8
      000008                        105 ___ckd_sub_uint_PARM_3:
      000008                        106 	.ds 8
      000010                        107 ___ckd_sub_uint_r_65536_35:
      000010                        108 	.ds 3
      000013                        109 ___ckd_sub_uint_result_65536_36:
      000013                        110 	.ds 8
                                    111 	.area	OSEG    (OVR,DATA)
      000000                        112 ___ckd_sub_long_PARM_2:
      000000                        113 	.ds 8
      000008                        114 ___ckd_sub_long_PARM_3:
      000008                        115 	.ds 8
      000010                        116 ___ckd_sub_long_r_65536_37:
      000010                        117 	.ds 3
      000013                        118 ___ckd_sub_long_result_65536_38:
      000013                        119 	.ds 8
                                    120 	.area	OSEG    (OVR,DATA)
      000000                        121 ___ckd_sub_ulong_PARM_2:
      000000                        122 	.ds 8
      000008                        123 ___ckd_sub_ulong_PARM_3:
      000008                        124 	.ds 8
      000010                        125 ___ckd_sub_ulong_r_65536_39:
      000010                        126 	.ds 3
      000013                        127 ___ckd_sub_ulong_result_65536_40:
      000013                        128 	.ds 8
                                    129 ;--------------------------------------------------------
                                    130 ; indirectly addressable internal ram data
                                    131 ;--------------------------------------------------------
                                    132 	.area ISEG    (DATA)
                                    133 ;--------------------------------------------------------
                                    134 ; absolute internal ram data
                                    135 ;--------------------------------------------------------
                                    136 	.area IABS    (ABS,DATA)
                                    137 	.area IABS    (ABS,DATA)
                                    138 ;--------------------------------------------------------
                                    139 ; bit data
                                    140 ;--------------------------------------------------------
                                    141 	.area BSEG    (BIT)
      000000                        142 ___ckd_sub_schar_sloc0_1_0:
      000000                        143 	.ds 1
      000001                        144 ___ckd_sub_uchar_sloc0_1_0:
      000001                        145 	.ds 1
      000002                        146 ___ckd_sub_short_sloc0_1_0:
      000002                        147 	.ds 1
      000003                        148 ___ckd_sub_ushort_sloc0_1_0:
      000003                        149 	.ds 1
      000004                        150 ___ckd_sub_int_sloc0_1_0:
      000004                        151 	.ds 1
      000005                        152 ___ckd_sub_uint_sloc0_1_0:
      000005                        153 	.ds 1
      000006                        154 ___ckd_sub_long_sloc0_1_0:
      000006                        155 	.ds 1
      000007                        156 ___ckd_sub_ulong_sloc0_1_0:
      000007                        157 	.ds 1
                                    158 ;--------------------------------------------------------
                                    159 ; paged external ram data
                                    160 ;--------------------------------------------------------
                                    161 	.area PSEG    (PAG,XDATA)
                                    162 ;--------------------------------------------------------
                                    163 ; uninitialized external ram data
                                    164 ;--------------------------------------------------------
                                    165 	.area XSEG    (XDATA)
                                    166 ;--------------------------------------------------------
                                    167 ; absolute external ram data
                                    168 ;--------------------------------------------------------
                                    169 	.area XABS    (ABS,XDATA)
                                    170 ;--------------------------------------------------------
                                    171 ; initialized external ram data
                                    172 ;--------------------------------------------------------
                                    173 	.area XISEG   (XDATA)
                                    174 	.area HOME    (CODE)
                                    175 	.area GSINIT0 (CODE)
                                    176 	.area GSINIT1 (CODE)
                                    177 	.area GSINIT2 (CODE)
                                    178 	.area GSINIT3 (CODE)
                                    179 	.area GSINIT4 (CODE)
                                    180 	.area GSINIT5 (CODE)
                                    181 	.area GSINIT  (CODE)
                                    182 	.area GSFINAL (CODE)
                                    183 	.area CSEG    (CODE)
                                    184 ;--------------------------------------------------------
                                    185 ; global & static initialisations
                                    186 ;--------------------------------------------------------
                                    187 	.area HOME    (CODE)
                                    188 	.area GSINIT  (CODE)
                                    189 	.area GSFINAL (CODE)
                                    190 	.area GSINIT  (CODE)
                                    191 ;--------------------------------------------------------
                                    192 ; Home
                                    193 ;--------------------------------------------------------
                                    194 	.area HOME    (CODE)
                                    195 	.area HOME    (CODE)
                                    196 ;--------------------------------------------------------
                                    197 ; code
                                    198 ;--------------------------------------------------------
                                    199 	.area CSEG    (CODE)
                                    200 ;------------------------------------------------------------
                                    201 ;Allocation info for local variables in function '__ckd_sub_schar'
                                    202 ;------------------------------------------------------------
                                    203 ;a                         Allocated with name '___ckd_sub_schar_PARM_2'
                                    204 ;b                         Allocated with name '___ckd_sub_schar_PARM_3'
                                    205 ;r                         Allocated with name '___ckd_sub_schar_r_65536_25'
                                    206 ;result                    Allocated with name '___ckd_sub_schar_result_65536_26'
                                    207 ;------------------------------------------------------------
                                    208 ;	../../device/include/stdckdint.h:60: inline _Bool __ckd_sub_schar __CKD_DEFAULT_IMPL(signed char, -)
                                    209 ;	-----------------------------------------
                                    210 ;	 function __ckd_sub_schar
                                    211 ;	-----------------------------------------
      000000                        212 ___ckd_sub_schar:
                           000007   213 	ar7 = 0x07
                           000006   214 	ar6 = 0x06
                           000005   215 	ar5 = 0x05
                           000004   216 	ar4 = 0x04
                           000003   217 	ar3 = 0x03
                           000002   218 	ar2 = 0x02
                           000001   219 	ar1 = 0x01
                           000000   220 	ar0 = 0x00
      000000 85 82*10         [24]  221 	mov	___ckd_sub_schar_r_65536_25,dpl
      000003 85 83*11         [24]  222 	mov	(___ckd_sub_schar_r_65536_25 + 1),dph
      000006 85 F0*12         [24]  223 	mov	(___ckd_sub_schar_r_65536_25 + 2),b
      000009 E5*00            [12]  224 	mov	a,___ckd_sub_schar_PARM_2
      00000B C3               [12]  225 	clr	c
      00000C 95*08            [12]  226 	subb	a,___ckd_sub_schar_PARM_3
      00000E F5*13            [12]  227 	mov	___ckd_sub_schar_result_65536_26,a
      000010 E5*01            [12]  228 	mov	a,(___ckd_sub_schar_PARM_2 + 1)
      000012 95*09            [12]  229 	subb	a,(___ckd_sub_schar_PARM_3 + 1)
      000014 F5*14            [12]  230 	mov	(___ckd_sub_schar_result_65536_26 + 1),a
      000016 E5*02            [12]  231 	mov	a,(___ckd_sub_schar_PARM_2 + 2)
      000018 95*0A            [12]  232 	subb	a,(___ckd_sub_schar_PARM_3 + 2)
      00001A F5*15            [12]  233 	mov	(___ckd_sub_schar_result_65536_26 + 2),a
      00001C E5*03            [12]  234 	mov	a,(___ckd_sub_schar_PARM_2 + 3)
      00001E 95*0B            [12]  235 	subb	a,(___ckd_sub_schar_PARM_3 + 3)
      000020 F5*16            [12]  236 	mov	(___ckd_sub_schar_result_65536_26 + 3),a
      000022 E5*04            [12]  237 	mov	a,(___ckd_sub_schar_PARM_2 + 4)
      000024 95*0C            [12]  238 	subb	a,(___ckd_sub_schar_PARM_3 + 4)
      000026 F5*17            [12]  239 	mov	(___ckd_sub_schar_result_65536_26 + 4),a
      000028 E5*05            [12]  240 	mov	a,(___ckd_sub_schar_PARM_2 + 5)
      00002A 95*0D            [12]  241 	subb	a,(___ckd_sub_schar_PARM_3 + 5)
      00002C F5*18            [12]  242 	mov	(___ckd_sub_schar_result_65536_26 + 5),a
      00002E E5*06            [12]  243 	mov	a,(___ckd_sub_schar_PARM_2 + 6)
      000030 95*0E            [12]  244 	subb	a,(___ckd_sub_schar_PARM_3 + 6)
      000032 F5*19            [12]  245 	mov	(___ckd_sub_schar_result_65536_26 + 6),a
      000034 E5*07            [12]  246 	mov	a,(___ckd_sub_schar_PARM_2 + 7)
      000036 95*0F            [12]  247 	subb	a,(___ckd_sub_schar_PARM_3 + 7)
      000038 F5*1A            [12]  248 	mov	(___ckd_sub_schar_result_65536_26 + 7),a
      00003A AF*13            [24]  249 	mov	r7,___ckd_sub_schar_result_65536_26
      00003C 85*10 82         [24]  250 	mov	dpl,___ckd_sub_schar_r_65536_25
      00003F 85*11 83         [24]  251 	mov	dph,(___ckd_sub_schar_r_65536_25 + 1)
      000042 85*12 F0         [24]  252 	mov	b,(___ckd_sub_schar_r_65536_25 + 2)
      000045 EF               [12]  253 	mov	a,r7
      000046 12r00r00         [24]  254 	lcall	__gptrput
      000049 F8               [12]  255 	mov	r0,a
      00004A 33               [12]  256 	rlc	a
      00004B 95 E0            [12]  257 	subb	a,acc
      00004D F9               [12]  258 	mov	r1,a
      00004E FA               [12]  259 	mov	r2,a
      00004F FB               [12]  260 	mov	r3,a
      000050 FC               [12]  261 	mov	r4,a
      000051 FD               [12]  262 	mov	r5,a
      000052 FE               [12]  263 	mov	r6,a
      000053 FF               [12]  264 	mov	r7,a
      000054 E8               [12]  265 	mov	a,r0
      000055 B5*13 1F         [24]  266 	cjne	a,___ckd_sub_schar_result_65536_26,00103$
      000058 E9               [12]  267 	mov	a,r1
      000059 B5*14 1B         [24]  268 	cjne	a,(___ckd_sub_schar_result_65536_26 + 1),00103$
      00005C EA               [12]  269 	mov	a,r2
      00005D B5*15 17         [24]  270 	cjne	a,(___ckd_sub_schar_result_65536_26 + 2),00103$
      000060 EB               [12]  271 	mov	a,r3
      000061 B5*16 13         [24]  272 	cjne	a,(___ckd_sub_schar_result_65536_26 + 3),00103$
      000064 EC               [12]  273 	mov	a,r4
      000065 B5*17 0F         [24]  274 	cjne	a,(___ckd_sub_schar_result_65536_26 + 4),00103$
      000068 ED               [12]  275 	mov	a,r5
      000069 B5*18 0B         [24]  276 	cjne	a,(___ckd_sub_schar_result_65536_26 + 5),00103$
      00006C EE               [12]  277 	mov	a,r6
      00006D B5*19 07         [24]  278 	cjne	a,(___ckd_sub_schar_result_65536_26 + 6),00103$
      000070 EF               [12]  279 	mov	a,r7
      000071 B5*1A 03         [24]  280 	cjne	a,(___ckd_sub_schar_result_65536_26 + 7),00103$
      000074 D3               [12]  281 	setb	c
      000075 80 01            [24]  282 	sjmp	00104$
      000077                        283 00103$:
      000077 C3               [12]  284 	clr	c
      000078                        285 00104$:
      000078 92*00            [24]  286 	mov  ___ckd_sub_schar_sloc0_1_0,c
      00007A B3               [12]  287 	cpl	c
      00007B E4               [12]  288 	clr	a
      00007C 33               [12]  289 	rlc	a
      00007D F5 82            [12]  290 	mov	dpl,a
      00007F 22               [24]  291 	ret
                                    292 ;------------------------------------------------------------
                                    293 ;Allocation info for local variables in function '__ckd_sub_uchar'
                                    294 ;------------------------------------------------------------
                                    295 ;a                         Allocated with name '___ckd_sub_uchar_PARM_2'
                                    296 ;b                         Allocated with name '___ckd_sub_uchar_PARM_3'
                                    297 ;r                         Allocated with name '___ckd_sub_uchar_r_65536_27'
                                    298 ;result                    Allocated with name '___ckd_sub_uchar_result_65536_28'
                                    299 ;------------------------------------------------------------
                                    300 ;	../../device/include/stdckdint.h:61: inline _Bool __ckd_sub_uchar __CKD_DEFAULT_IMPL(unsigned char, -)
                                    301 ;	-----------------------------------------
                                    302 ;	 function __ckd_sub_uchar
                                    303 ;	-----------------------------------------
      000080                        304 ___ckd_sub_uchar:
      000080 85 82*10         [24]  305 	mov	___ckd_sub_uchar_r_65536_27,dpl
      000083 85 83*11         [24]  306 	mov	(___ckd_sub_uchar_r_65536_27 + 1),dph
      000086 85 F0*12         [24]  307 	mov	(___ckd_sub_uchar_r_65536_27 + 2),b
      000089 E5*00            [12]  308 	mov	a,___ckd_sub_uchar_PARM_2
      00008B C3               [12]  309 	clr	c
      00008C 95*08            [12]  310 	subb	a,___ckd_sub_uchar_PARM_3
      00008E F5*13            [12]  311 	mov	___ckd_sub_uchar_result_65536_28,a
      000090 E5*01            [12]  312 	mov	a,(___ckd_sub_uchar_PARM_2 + 1)
      000092 95*09            [12]  313 	subb	a,(___ckd_sub_uchar_PARM_3 + 1)
      000094 F5*14            [12]  314 	mov	(___ckd_sub_uchar_result_65536_28 + 1),a
      000096 E5*02            [12]  315 	mov	a,(___ckd_sub_uchar_PARM_2 + 2)
      000098 95*0A            [12]  316 	subb	a,(___ckd_sub_uchar_PARM_3 + 2)
      00009A F5*15            [12]  317 	mov	(___ckd_sub_uchar_result_65536_28 + 2),a
      00009C E5*03            [12]  318 	mov	a,(___ckd_sub_uchar_PARM_2 + 3)
      00009E 95*0B            [12]  319 	subb	a,(___ckd_sub_uchar_PARM_3 + 3)
      0000A0 F5*16            [12]  320 	mov	(___ckd_sub_uchar_result_65536_28 + 3),a
      0000A2 E5*04            [12]  321 	mov	a,(___ckd_sub_uchar_PARM_2 + 4)
      0000A4 95*0C            [12]  322 	subb	a,(___ckd_sub_uchar_PARM_3 + 4)
      0000A6 F5*17            [12]  323 	mov	(___ckd_sub_uchar_result_65536_28 + 4),a
      0000A8 E5*05            [12]  324 	mov	a,(___ckd_sub_uchar_PARM_2 + 5)
      0000AA 95*0D            [12]  325 	subb	a,(___ckd_sub_uchar_PARM_3 + 5)
      0000AC F5*18            [12]  326 	mov	(___ckd_sub_uchar_result_65536_28 + 5),a
      0000AE E5*06            [12]  327 	mov	a,(___ckd_sub_uchar_PARM_2 + 6)
      0000B0 95*0E            [12]  328 	subb	a,(___ckd_sub_uchar_PARM_3 + 6)
      0000B2 F5*19            [12]  329 	mov	(___ckd_sub_uchar_result_65536_28 + 6),a
      0000B4 E5*07            [12]  330 	mov	a,(___ckd_sub_uchar_PARM_2 + 7)
      0000B6 95*0F            [12]  331 	subb	a,(___ckd_sub_uchar_PARM_3 + 7)
      0000B8 F5*1A            [12]  332 	mov	(___ckd_sub_uchar_result_65536_28 + 7),a
      0000BA AF*13            [24]  333 	mov	r7,___ckd_sub_uchar_result_65536_28
      0000BC 85*10 82         [24]  334 	mov	dpl,___ckd_sub_uchar_r_65536_27
      0000BF 85*11 83         [24]  335 	mov	dph,(___ckd_sub_uchar_r_65536_27 + 1)
      0000C2 85*12 F0         [24]  336 	mov	b,(___ckd_sub_uchar_r_65536_27 + 2)
      0000C5 EF               [12]  337 	mov	a,r7
      0000C6 12r00r00         [24]  338 	lcall	__gptrput
      0000C9 8F 00            [24]  339 	mov	ar0,r7
      0000CB E4               [12]  340 	clr	a
      0000CC F9               [12]  341 	mov	r1,a
      0000CD FA               [12]  342 	mov	r2,a
      0000CE FB               [12]  343 	mov	r3,a
      0000CF FC               [12]  344 	mov	r4,a
      0000D0 FD               [12]  345 	mov	r5,a
      0000D1 FE               [12]  346 	mov	r6,a
      0000D2 FF               [12]  347 	mov	r7,a
      0000D3 E8               [12]  348 	mov	a,r0
      0000D4 B5*13 1F         [24]  349 	cjne	a,___ckd_sub_uchar_result_65536_28,00103$
      0000D7 E9               [12]  350 	mov	a,r1
      0000D8 B5*14 1B         [24]  351 	cjne	a,(___ckd_sub_uchar_result_65536_28 + 1),00103$
      0000DB EA               [12]  352 	mov	a,r2
      0000DC B5*15 17         [24]  353 	cjne	a,(___ckd_sub_uchar_result_65536_28 + 2),00103$
      0000DF EB               [12]  354 	mov	a,r3
      0000E0 B5*16 13         [24]  355 	cjne	a,(___ckd_sub_uchar_result_65536_28 + 3),00103$
      0000E3 EC               [12]  356 	mov	a,r4
      0000E4 B5*17 0F         [24]  357 	cjne	a,(___ckd_sub_uchar_result_65536_28 + 4),00103$
      0000E7 ED               [12]  358 	mov	a,r5
      0000E8 B5*18 0B         [24]  359 	cjne	a,(___ckd_sub_uchar_result_65536_28 + 5),00103$
      0000EB EE               [12]  360 	mov	a,r6
      0000EC B5*19 07         [24]  361 	cjne	a,(___ckd_sub_uchar_result_65536_28 + 6),00103$
      0000EF EF               [12]  362 	mov	a,r7
      0000F0 B5*1A 03         [24]  363 	cjne	a,(___ckd_sub_uchar_result_65536_28 + 7),00103$
      0000F3 D3               [12]  364 	setb	c
      0000F4 80 01            [24]  365 	sjmp	00104$
      0000F6                        366 00103$:
      0000F6 C3               [12]  367 	clr	c
      0000F7                        368 00104$:
      0000F7 92*01            [24]  369 	mov  ___ckd_sub_uchar_sloc0_1_0,c
      0000F9 B3               [12]  370 	cpl	c
      0000FA E4               [12]  371 	clr	a
      0000FB 33               [12]  372 	rlc	a
      0000FC F5 82            [12]  373 	mov	dpl,a
      0000FE 22               [24]  374 	ret
                                    375 ;------------------------------------------------------------
                                    376 ;Allocation info for local variables in function '__ckd_sub_short'
                                    377 ;------------------------------------------------------------
                                    378 ;a                         Allocated with name '___ckd_sub_short_PARM_2'
                                    379 ;b                         Allocated with name '___ckd_sub_short_PARM_3'
                                    380 ;r                         Allocated with name '___ckd_sub_short_r_65536_29'
                                    381 ;result                    Allocated with name '___ckd_sub_short_result_65536_30'
                                    382 ;------------------------------------------------------------
                                    383 ;	../../device/include/stdckdint.h:62: inline _Bool __ckd_sub_short __CKD_DEFAULT_IMPL(short, -)
                                    384 ;	-----------------------------------------
                                    385 ;	 function __ckd_sub_short
                                    386 ;	-----------------------------------------
      0000FF                        387 ___ckd_sub_short:
      0000FF 85 82*10         [24]  388 	mov	___ckd_sub_short_r_65536_29,dpl
      000102 85 83*11         [24]  389 	mov	(___ckd_sub_short_r_65536_29 + 1),dph
      000105 85 F0*12         [24]  390 	mov	(___ckd_sub_short_r_65536_29 + 2),b
      000108 E5*00            [12]  391 	mov	a,___ckd_sub_short_PARM_2
      00010A C3               [12]  392 	clr	c
      00010B 95*08            [12]  393 	subb	a,___ckd_sub_short_PARM_3
      00010D F5*13            [12]  394 	mov	___ckd_sub_short_result_65536_30,a
      00010F E5*01            [12]  395 	mov	a,(___ckd_sub_short_PARM_2 + 1)
      000111 95*09            [12]  396 	subb	a,(___ckd_sub_short_PARM_3 + 1)
      000113 F5*14            [12]  397 	mov	(___ckd_sub_short_result_65536_30 + 1),a
      000115 E5*02            [12]  398 	mov	a,(___ckd_sub_short_PARM_2 + 2)
      000117 95*0A            [12]  399 	subb	a,(___ckd_sub_short_PARM_3 + 2)
      000119 F5*15            [12]  400 	mov	(___ckd_sub_short_result_65536_30 + 2),a
      00011B E5*03            [12]  401 	mov	a,(___ckd_sub_short_PARM_2 + 3)
      00011D 95*0B            [12]  402 	subb	a,(___ckd_sub_short_PARM_3 + 3)
      00011F F5*16            [12]  403 	mov	(___ckd_sub_short_result_65536_30 + 3),a
      000121 E5*04            [12]  404 	mov	a,(___ckd_sub_short_PARM_2 + 4)
      000123 95*0C            [12]  405 	subb	a,(___ckd_sub_short_PARM_3 + 4)
      000125 F5*17            [12]  406 	mov	(___ckd_sub_short_result_65536_30 + 4),a
      000127 E5*05            [12]  407 	mov	a,(___ckd_sub_short_PARM_2 + 5)
      000129 95*0D            [12]  408 	subb	a,(___ckd_sub_short_PARM_3 + 5)
      00012B F5*18            [12]  409 	mov	(___ckd_sub_short_result_65536_30 + 5),a
      00012D E5*06            [12]  410 	mov	a,(___ckd_sub_short_PARM_2 + 6)
      00012F 95*0E            [12]  411 	subb	a,(___ckd_sub_short_PARM_3 + 6)
      000131 F5*19            [12]  412 	mov	(___ckd_sub_short_result_65536_30 + 6),a
      000133 E5*07            [12]  413 	mov	a,(___ckd_sub_short_PARM_2 + 7)
      000135 95*0F            [12]  414 	subb	a,(___ckd_sub_short_PARM_3 + 7)
      000137 F5*1A            [12]  415 	mov	(___ckd_sub_short_result_65536_30 + 7),a
      000139 A9*13            [24]  416 	mov	r1,___ckd_sub_short_result_65536_30
      00013B AF*14            [24]  417 	mov	r7,(___ckd_sub_short_result_65536_30 + 1)
      00013D 85*10 82         [24]  418 	mov	dpl,___ckd_sub_short_r_65536_29
      000140 85*11 83         [24]  419 	mov	dph,(___ckd_sub_short_r_65536_29 + 1)
      000143 85*12 F0         [24]  420 	mov	b,(___ckd_sub_short_r_65536_29 + 2)
      000146 E9               [12]  421 	mov	a,r1
      000147 12r00r00         [24]  422 	lcall	__gptrput
      00014A A3               [24]  423 	inc	dptr
      00014B EF               [12]  424 	mov	a,r7
      00014C 12r00r00         [24]  425 	lcall	__gptrput
      00014F F8               [12]  426 	mov	r0,a
      000150 33               [12]  427 	rlc	a
      000151 95 E0            [12]  428 	subb	a,acc
      000153 FA               [12]  429 	mov	r2,a
      000154 FB               [12]  430 	mov	r3,a
      000155 FC               [12]  431 	mov	r4,a
      000156 FD               [12]  432 	mov	r5,a
      000157 FE               [12]  433 	mov	r6,a
      000158 FF               [12]  434 	mov	r7,a
      000159 E9               [12]  435 	mov	a,r1
      00015A B5*13 1F         [24]  436 	cjne	a,___ckd_sub_short_result_65536_30,00103$
      00015D E8               [12]  437 	mov	a,r0
      00015E B5*14 1B         [24]  438 	cjne	a,(___ckd_sub_short_result_65536_30 + 1),00103$
      000161 EA               [12]  439 	mov	a,r2
      000162 B5*15 17         [24]  440 	cjne	a,(___ckd_sub_short_result_65536_30 + 2),00103$
      000165 EB               [12]  441 	mov	a,r3
      000166 B5*16 13         [24]  442 	cjne	a,(___ckd_sub_short_result_65536_30 + 3),00103$
      000169 EC               [12]  443 	mov	a,r4
      00016A B5*17 0F         [24]  444 	cjne	a,(___ckd_sub_short_result_65536_30 + 4),00103$
      00016D ED               [12]  445 	mov	a,r5
      00016E B5*18 0B         [24]  446 	cjne	a,(___ckd_sub_short_result_65536_30 + 5),00103$
      000171 EE               [12]  447 	mov	a,r6
      000172 B5*19 07         [24]  448 	cjne	a,(___ckd_sub_short_result_65536_30 + 6),00103$
      000175 EF               [12]  449 	mov	a,r7
      000176 B5*1A 03         [24]  450 	cjne	a,(___ckd_sub_short_result_65536_30 + 7),00103$
      000179 D3               [12]  451 	setb	c
      00017A 80 01            [24]  452 	sjmp	00104$
      00017C                        453 00103$:
      00017C C3               [12]  454 	clr	c
      00017D                        455 00104$:
      00017D 92*02            [24]  456 	mov  ___ckd_sub_short_sloc0_1_0,c
      00017F B3               [12]  457 	cpl	c
      000180 E4               [12]  458 	clr	a
      000181 33               [12]  459 	rlc	a
      000182 F5 82            [12]  460 	mov	dpl,a
      000184 22               [24]  461 	ret
                                    462 ;------------------------------------------------------------
                                    463 ;Allocation info for local variables in function '__ckd_sub_ushort'
                                    464 ;------------------------------------------------------------
                                    465 ;a                         Allocated with name '___ckd_sub_ushort_PARM_2'
                                    466 ;b                         Allocated with name '___ckd_sub_ushort_PARM_3'
                                    467 ;r                         Allocated with name '___ckd_sub_ushort_r_65536_31'
                                    468 ;result                    Allocated with name '___ckd_sub_ushort_result_65536_32'
                                    469 ;------------------------------------------------------------
                                    470 ;	../../device/include/stdckdint.h:63: inline _Bool __ckd_sub_ushort __CKD_DEFAULT_IMPL(unsigned short, -)
                                    471 ;	-----------------------------------------
                                    472 ;	 function __ckd_sub_ushort
                                    473 ;	-----------------------------------------
      000185                        474 ___ckd_sub_ushort:
      000185 85 82*10         [24]  475 	mov	___ckd_sub_ushort_r_65536_31,dpl
      000188 85 83*11         [24]  476 	mov	(___ckd_sub_ushort_r_65536_31 + 1),dph
      00018B 85 F0*12         [24]  477 	mov	(___ckd_sub_ushort_r_65536_31 + 2),b
      00018E E5*00            [12]  478 	mov	a,___ckd_sub_ushort_PARM_2
      000190 C3               [12]  479 	clr	c
      000191 95*08            [12]  480 	subb	a,___ckd_sub_ushort_PARM_3
      000193 F5*13            [12]  481 	mov	___ckd_sub_ushort_result_65536_32,a
      000195 E5*01            [12]  482 	mov	a,(___ckd_sub_ushort_PARM_2 + 1)
      000197 95*09            [12]  483 	subb	a,(___ckd_sub_ushort_PARM_3 + 1)
      000199 F5*14            [12]  484 	mov	(___ckd_sub_ushort_result_65536_32 + 1),a
      00019B E5*02            [12]  485 	mov	a,(___ckd_sub_ushort_PARM_2 + 2)
      00019D 95*0A            [12]  486 	subb	a,(___ckd_sub_ushort_PARM_3 + 2)
      00019F F5*15            [12]  487 	mov	(___ckd_sub_ushort_result_65536_32 + 2),a
      0001A1 E5*03            [12]  488 	mov	a,(___ckd_sub_ushort_PARM_2 + 3)
      0001A3 95*0B            [12]  489 	subb	a,(___ckd_sub_ushort_PARM_3 + 3)
      0001A5 F5*16            [12]  490 	mov	(___ckd_sub_ushort_result_65536_32 + 3),a
      0001A7 E5*04            [12]  491 	mov	a,(___ckd_sub_ushort_PARM_2 + 4)
      0001A9 95*0C            [12]  492 	subb	a,(___ckd_sub_ushort_PARM_3 + 4)
      0001AB F5*17            [12]  493 	mov	(___ckd_sub_ushort_result_65536_32 + 4),a
      0001AD E5*05            [12]  494 	mov	a,(___ckd_sub_ushort_PARM_2 + 5)
      0001AF 95*0D            [12]  495 	subb	a,(___ckd_sub_ushort_PARM_3 + 5)
      0001B1 F5*18            [12]  496 	mov	(___ckd_sub_ushort_result_65536_32 + 5),a
      0001B3 E5*06            [12]  497 	mov	a,(___ckd_sub_ushort_PARM_2 + 6)
      0001B5 95*0E            [12]  498 	subb	a,(___ckd_sub_ushort_PARM_3 + 6)
      0001B7 F5*19            [12]  499 	mov	(___ckd_sub_ushort_result_65536_32 + 6),a
      0001B9 E5*07            [12]  500 	mov	a,(___ckd_sub_ushort_PARM_2 + 7)
      0001BB 95*0F            [12]  501 	subb	a,(___ckd_sub_ushort_PARM_3 + 7)
      0001BD F5*1A            [12]  502 	mov	(___ckd_sub_ushort_result_65536_32 + 7),a
      0001BF A9*13            [24]  503 	mov	r1,___ckd_sub_ushort_result_65536_32
      0001C1 AF*14            [24]  504 	mov	r7,(___ckd_sub_ushort_result_65536_32 + 1)
      0001C3 85*10 82         [24]  505 	mov	dpl,___ckd_sub_ushort_r_65536_31
      0001C6 85*11 83         [24]  506 	mov	dph,(___ckd_sub_ushort_r_65536_31 + 1)
      0001C9 85*12 F0         [24]  507 	mov	b,(___ckd_sub_ushort_r_65536_31 + 2)
      0001CC E9               [12]  508 	mov	a,r1
      0001CD 12r00r00         [24]  509 	lcall	__gptrput
      0001D0 A3               [24]  510 	inc	dptr
      0001D1 EF               [12]  511 	mov	a,r7
      0001D2 12r00r00         [24]  512 	lcall	__gptrput
      0001D5 8F 00            [24]  513 	mov	ar0,r7
      0001D7 E4               [12]  514 	clr	a
      0001D8 FA               [12]  515 	mov	r2,a
      0001D9 FB               [12]  516 	mov	r3,a
      0001DA FC               [12]  517 	mov	r4,a
      0001DB FD               [12]  518 	mov	r5,a
      0001DC FE               [12]  519 	mov	r6,a
      0001DD FF               [12]  520 	mov	r7,a
      0001DE E9               [12]  521 	mov	a,r1
      0001DF B5*13 1F         [24]  522 	cjne	a,___ckd_sub_ushort_result_65536_32,00103$
      0001E2 E8               [12]  523 	mov	a,r0
      0001E3 B5*14 1B         [24]  524 	cjne	a,(___ckd_sub_ushort_result_65536_32 + 1),00103$
      0001E6 EA               [12]  525 	mov	a,r2
      0001E7 B5*15 17         [24]  526 	cjne	a,(___ckd_sub_ushort_result_65536_32 + 2),00103$
      0001EA EB               [12]  527 	mov	a,r3
      0001EB B5*16 13         [24]  528 	cjne	a,(___ckd_sub_ushort_result_65536_32 + 3),00103$
      0001EE EC               [12]  529 	mov	a,r4
      0001EF B5*17 0F         [24]  530 	cjne	a,(___ckd_sub_ushort_result_65536_32 + 4),00103$
      0001F2 ED               [12]  531 	mov	a,r5
      0001F3 B5*18 0B         [24]  532 	cjne	a,(___ckd_sub_ushort_result_65536_32 + 5),00103$
      0001F6 EE               [12]  533 	mov	a,r6
      0001F7 B5*19 07         [24]  534 	cjne	a,(___ckd_sub_ushort_result_65536_32 + 6),00103$
      0001FA EF               [12]  535 	mov	a,r7
      0001FB B5*1A 03         [24]  536 	cjne	a,(___ckd_sub_ushort_result_65536_32 + 7),00103$
      0001FE D3               [12]  537 	setb	c
      0001FF 80 01            [24]  538 	sjmp	00104$
      000201                        539 00103$:
      000201 C3               [12]  540 	clr	c
      000202                        541 00104$:
      000202 92*03            [24]  542 	mov  ___ckd_sub_ushort_sloc0_1_0,c
      000204 B3               [12]  543 	cpl	c
      000205 E4               [12]  544 	clr	a
      000206 33               [12]  545 	rlc	a
      000207 F5 82            [12]  546 	mov	dpl,a
      000209 22               [24]  547 	ret
                                    548 ;------------------------------------------------------------
                                    549 ;Allocation info for local variables in function '__ckd_sub_int'
                                    550 ;------------------------------------------------------------
                                    551 ;a                         Allocated with name '___ckd_sub_int_PARM_2'
                                    552 ;b                         Allocated with name '___ckd_sub_int_PARM_3'
                                    553 ;r                         Allocated with name '___ckd_sub_int_r_65536_33'
                                    554 ;result                    Allocated with name '___ckd_sub_int_result_65536_34'
                                    555 ;------------------------------------------------------------
                                    556 ;	../../device/include/stdckdint.h:64: inline _Bool __ckd_sub_int __CKD_DEFAULT_IMPL(int, -)
                                    557 ;	-----------------------------------------
                                    558 ;	 function __ckd_sub_int
                                    559 ;	-----------------------------------------
      00020A                        560 ___ckd_sub_int:
      00020A 85 82*10         [24]  561 	mov	___ckd_sub_int_r_65536_33,dpl
      00020D 85 83*11         [24]  562 	mov	(___ckd_sub_int_r_65536_33 + 1),dph
      000210 85 F0*12         [24]  563 	mov	(___ckd_sub_int_r_65536_33 + 2),b
      000213 E5*00            [12]  564 	mov	a,___ckd_sub_int_PARM_2
      000215 C3               [12]  565 	clr	c
      000216 95*08            [12]  566 	subb	a,___ckd_sub_int_PARM_3
      000218 F5*13            [12]  567 	mov	___ckd_sub_int_result_65536_34,a
      00021A E5*01            [12]  568 	mov	a,(___ckd_sub_int_PARM_2 + 1)
      00021C 95*09            [12]  569 	subb	a,(___ckd_sub_int_PARM_3 + 1)
      00021E F5*14            [12]  570 	mov	(___ckd_sub_int_result_65536_34 + 1),a
      000220 E5*02            [12]  571 	mov	a,(___ckd_sub_int_PARM_2 + 2)
      000222 95*0A            [12]  572 	subb	a,(___ckd_sub_int_PARM_3 + 2)
      000224 F5*15            [12]  573 	mov	(___ckd_sub_int_result_65536_34 + 2),a
      000226 E5*03            [12]  574 	mov	a,(___ckd_sub_int_PARM_2 + 3)
      000228 95*0B            [12]  575 	subb	a,(___ckd_sub_int_PARM_3 + 3)
      00022A F5*16            [12]  576 	mov	(___ckd_sub_int_result_65536_34 + 3),a
      00022C E5*04            [12]  577 	mov	a,(___ckd_sub_int_PARM_2 + 4)
      00022E 95*0C            [12]  578 	subb	a,(___ckd_sub_int_PARM_3 + 4)
      000230 F5*17            [12]  579 	mov	(___ckd_sub_int_result_65536_34 + 4),a
      000232 E5*05            [12]  580 	mov	a,(___ckd_sub_int_PARM_2 + 5)
      000234 95*0D            [12]  581 	subb	a,(___ckd_sub_int_PARM_3 + 5)
      000236 F5*18            [12]  582 	mov	(___ckd_sub_int_result_65536_34 + 5),a
      000238 E5*06            [12]  583 	mov	a,(___ckd_sub_int_PARM_2 + 6)
      00023A 95*0E            [12]  584 	subb	a,(___ckd_sub_int_PARM_3 + 6)
      00023C F5*19            [12]  585 	mov	(___ckd_sub_int_result_65536_34 + 6),a
      00023E E5*07            [12]  586 	mov	a,(___ckd_sub_int_PARM_2 + 7)
      000240 95*0F            [12]  587 	subb	a,(___ckd_sub_int_PARM_3 + 7)
      000242 F5*1A            [12]  588 	mov	(___ckd_sub_int_result_65536_34 + 7),a
      000244 A9*13            [24]  589 	mov	r1,___ckd_sub_int_result_65536_34
      000246 AF*14            [24]  590 	mov	r7,(___ckd_sub_int_result_65536_34 + 1)
      000248 85*10 82         [24]  591 	mov	dpl,___ckd_sub_int_r_65536_33
      00024B 85*11 83         [24]  592 	mov	dph,(___ckd_sub_int_r_65536_33 + 1)
      00024E 85*12 F0         [24]  593 	mov	b,(___ckd_sub_int_r_65536_33 + 2)
      000251 E9               [12]  594 	mov	a,r1
      000252 12r00r00         [24]  595 	lcall	__gptrput
      000255 A3               [24]  596 	inc	dptr
      000256 EF               [12]  597 	mov	a,r7
      000257 12r00r00         [24]  598 	lcall	__gptrput
      00025A F8               [12]  599 	mov	r0,a
      00025B 33               [12]  600 	rlc	a
      00025C 95 E0            [12]  601 	subb	a,acc
      00025E FA               [12]  602 	mov	r2,a
      00025F FB               [12]  603 	mov	r3,a
      000260 FC               [12]  604 	mov	r4,a
      000261 FD               [12]  605 	mov	r5,a
      000262 FE               [12]  606 	mov	r6,a
      000263 FF               [12]  607 	mov	r7,a
      000264 E9               [12]  608 	mov	a,r1
      000265 B5*13 1F         [24]  609 	cjne	a,___ckd_sub_int_result_65536_34,00103$
      000268 E8               [12]  610 	mov	a,r0
      000269 B5*14 1B         [24]  611 	cjne	a,(___ckd_sub_int_result_65536_34 + 1),00103$
      00026C EA               [12]  612 	mov	a,r2
      00026D B5*15 17         [24]  613 	cjne	a,(___ckd_sub_int_result_65536_34 + 2),00103$
      000270 EB               [12]  614 	mov	a,r3
      000271 B5*16 13         [24]  615 	cjne	a,(___ckd_sub_int_result_65536_34 + 3),00103$
      000274 EC               [12]  616 	mov	a,r4
      000275 B5*17 0F         [24]  617 	cjne	a,(___ckd_sub_int_result_65536_34 + 4),00103$
      000278 ED               [12]  618 	mov	a,r5
      000279 B5*18 0B         [24]  619 	cjne	a,(___ckd_sub_int_result_65536_34 + 5),00103$
      00027C EE               [12]  620 	mov	a,r6
      00027D B5*19 07         [24]  621 	cjne	a,(___ckd_sub_int_result_65536_34 + 6),00103$
      000280 EF               [12]  622 	mov	a,r7
      000281 B5*1A 03         [24]  623 	cjne	a,(___ckd_sub_int_result_65536_34 + 7),00103$
      000284 D3               [12]  624 	setb	c
      000285 80 01            [24]  625 	sjmp	00104$
      000287                        626 00103$:
      000287 C3               [12]  627 	clr	c
      000288                        628 00104$:
      000288 92*04            [24]  629 	mov  ___ckd_sub_int_sloc0_1_0,c
      00028A B3               [12]  630 	cpl	c
      00028B E4               [12]  631 	clr	a
      00028C 33               [12]  632 	rlc	a
      00028D F5 82            [12]  633 	mov	dpl,a
      00028F 22               [24]  634 	ret
                                    635 ;------------------------------------------------------------
                                    636 ;Allocation info for local variables in function '__ckd_sub_uint'
                                    637 ;------------------------------------------------------------
                                    638 ;a                         Allocated with name '___ckd_sub_uint_PARM_2'
                                    639 ;b                         Allocated with name '___ckd_sub_uint_PARM_3'
                                    640 ;r                         Allocated with name '___ckd_sub_uint_r_65536_35'
                                    641 ;result                    Allocated with name '___ckd_sub_uint_result_65536_36'
                                    642 ;------------------------------------------------------------
                                    643 ;	../../device/include/stdckdint.h:65: inline _Bool __ckd_sub_uint __CKD_DEFAULT_IMPL(unsigned int, -)
                                    644 ;	-----------------------------------------
                                    645 ;	 function __ckd_sub_uint
                                    646 ;	-----------------------------------------
      000290                        647 ___ckd_sub_uint:
      000290 85 82*10         [24]  648 	mov	___ckd_sub_uint_r_65536_35,dpl
      000293 85 83*11         [24]  649 	mov	(___ckd_sub_uint_r_65536_35 + 1),dph
      000296 85 F0*12         [24]  650 	mov	(___ckd_sub_uint_r_65536_35 + 2),b
      000299 E5*00            [12]  651 	mov	a,___ckd_sub_uint_PARM_2
      00029B C3               [12]  652 	clr	c
      00029C 95*08            [12]  653 	subb	a,___ckd_sub_uint_PARM_3
      00029E F5*13            [12]  654 	mov	___ckd_sub_uint_result_65536_36,a
      0002A0 E5*01            [12]  655 	mov	a,(___ckd_sub_uint_PARM_2 + 1)
      0002A2 95*09            [12]  656 	subb	a,(___ckd_sub_uint_PARM_3 + 1)
      0002A4 F5*14            [12]  657 	mov	(___ckd_sub_uint_result_65536_36 + 1),a
      0002A6 E5*02            [12]  658 	mov	a,(___ckd_sub_uint_PARM_2 + 2)
      0002A8 95*0A            [12]  659 	subb	a,(___ckd_sub_uint_PARM_3 + 2)
      0002AA F5*15            [12]  660 	mov	(___ckd_sub_uint_result_65536_36 + 2),a
      0002AC E5*03            [12]  661 	mov	a,(___ckd_sub_uint_PARM_2 + 3)
      0002AE 95*0B            [12]  662 	subb	a,(___ckd_sub_uint_PARM_3 + 3)
      0002B0 F5*16            [12]  663 	mov	(___ckd_sub_uint_result_65536_36 + 3),a
      0002B2 E5*04            [12]  664 	mov	a,(___ckd_sub_uint_PARM_2 + 4)
      0002B4 95*0C            [12]  665 	subb	a,(___ckd_sub_uint_PARM_3 + 4)
      0002B6 F5*17            [12]  666 	mov	(___ckd_sub_uint_result_65536_36 + 4),a
      0002B8 E5*05            [12]  667 	mov	a,(___ckd_sub_uint_PARM_2 + 5)
      0002BA 95*0D            [12]  668 	subb	a,(___ckd_sub_uint_PARM_3 + 5)
      0002BC F5*18            [12]  669 	mov	(___ckd_sub_uint_result_65536_36 + 5),a
      0002BE E5*06            [12]  670 	mov	a,(___ckd_sub_uint_PARM_2 + 6)
      0002C0 95*0E            [12]  671 	subb	a,(___ckd_sub_uint_PARM_3 + 6)
      0002C2 F5*19            [12]  672 	mov	(___ckd_sub_uint_result_65536_36 + 6),a
      0002C4 E5*07            [12]  673 	mov	a,(___ckd_sub_uint_PARM_2 + 7)
      0002C6 95*0F            [12]  674 	subb	a,(___ckd_sub_uint_PARM_3 + 7)
      0002C8 F5*1A            [12]  675 	mov	(___ckd_sub_uint_result_65536_36 + 7),a
      0002CA A9*13            [24]  676 	mov	r1,___ckd_sub_uint_result_65536_36
      0002CC AF*14            [24]  677 	mov	r7,(___ckd_sub_uint_result_65536_36 + 1)
      0002CE 85*10 82         [24]  678 	mov	dpl,___ckd_sub_uint_r_65536_35
      0002D1 85*11 83         [24]  679 	mov	dph,(___ckd_sub_uint_r_65536_35 + 1)
      0002D4 85*12 F0         [24]  680 	mov	b,(___ckd_sub_uint_r_65536_35 + 2)
      0002D7 E9               [12]  681 	mov	a,r1
      0002D8 12r00r00         [24]  682 	lcall	__gptrput
      0002DB A3               [24]  683 	inc	dptr
      0002DC EF               [12]  684 	mov	a,r7
      0002DD 12r00r00         [24]  685 	lcall	__gptrput
      0002E0 8F 00            [24]  686 	mov	ar0,r7
      0002E2 E4               [12]  687 	clr	a
      0002E3 FA               [12]  688 	mov	r2,a
      0002E4 FB               [12]  689 	mov	r3,a
      0002E5 FC               [12]  690 	mov	r4,a
      0002E6 FD               [12]  691 	mov	r5,a
      0002E7 FE               [12]  692 	mov	r6,a
      0002E8 FF               [12]  693 	mov	r7,a
      0002E9 E9               [12]  694 	mov	a,r1
      0002EA B5*13 1F         [24]  695 	cjne	a,___ckd_sub_uint_result_65536_36,00103$
      0002ED E8               [12]  696 	mov	a,r0
      0002EE B5*14 1B         [24]  697 	cjne	a,(___ckd_sub_uint_result_65536_36 + 1),00103$
      0002F1 EA               [12]  698 	mov	a,r2
      0002F2 B5*15 17         [24]  699 	cjne	a,(___ckd_sub_uint_result_65536_36 + 2),00103$
      0002F5 EB               [12]  700 	mov	a,r3
      0002F6 B5*16 13         [24]  701 	cjne	a,(___ckd_sub_uint_result_65536_36 + 3),00103$
      0002F9 EC               [12]  702 	mov	a,r4
      0002FA B5*17 0F         [24]  703 	cjne	a,(___ckd_sub_uint_result_65536_36 + 4),00103$
      0002FD ED               [12]  704 	mov	a,r5
      0002FE B5*18 0B         [24]  705 	cjne	a,(___ckd_sub_uint_result_65536_36 + 5),00103$
      000301 EE               [12]  706 	mov	a,r6
      000302 B5*19 07         [24]  707 	cjne	a,(___ckd_sub_uint_result_65536_36 + 6),00103$
      000305 EF               [12]  708 	mov	a,r7
      000306 B5*1A 03         [24]  709 	cjne	a,(___ckd_sub_uint_result_65536_36 + 7),00103$
      000309 D3               [12]  710 	setb	c
      00030A 80 01            [24]  711 	sjmp	00104$
      00030C                        712 00103$:
      00030C C3               [12]  713 	clr	c
      00030D                        714 00104$:
      00030D 92*05            [24]  715 	mov  ___ckd_sub_uint_sloc0_1_0,c
      00030F B3               [12]  716 	cpl	c
      000310 E4               [12]  717 	clr	a
      000311 33               [12]  718 	rlc	a
      000312 F5 82            [12]  719 	mov	dpl,a
      000314 22               [24]  720 	ret
                                    721 ;------------------------------------------------------------
                                    722 ;Allocation info for local variables in function '__ckd_sub_long'
                                    723 ;------------------------------------------------------------
                                    724 ;a                         Allocated with name '___ckd_sub_long_PARM_2'
                                    725 ;b                         Allocated with name '___ckd_sub_long_PARM_3'
                                    726 ;r                         Allocated with name '___ckd_sub_long_r_65536_37'
                                    727 ;result                    Allocated with name '___ckd_sub_long_result_65536_38'
                                    728 ;------------------------------------------------------------
                                    729 ;	../../device/include/stdckdint.h:66: inline _Bool __ckd_sub_long __CKD_DEFAULT_IMPL(long, -)
                                    730 ;	-----------------------------------------
                                    731 ;	 function __ckd_sub_long
                                    732 ;	-----------------------------------------
      000315                        733 ___ckd_sub_long:
      000315 85 82*10         [24]  734 	mov	___ckd_sub_long_r_65536_37,dpl
      000318 85 83*11         [24]  735 	mov	(___ckd_sub_long_r_65536_37 + 1),dph
      00031B 85 F0*12         [24]  736 	mov	(___ckd_sub_long_r_65536_37 + 2),b
      00031E E5*00            [12]  737 	mov	a,___ckd_sub_long_PARM_2
      000320 C3               [12]  738 	clr	c
      000321 95*08            [12]  739 	subb	a,___ckd_sub_long_PARM_3
      000323 F5*13            [12]  740 	mov	___ckd_sub_long_result_65536_38,a
      000325 E5*01            [12]  741 	mov	a,(___ckd_sub_long_PARM_2 + 1)
      000327 95*09            [12]  742 	subb	a,(___ckd_sub_long_PARM_3 + 1)
      000329 F5*14            [12]  743 	mov	(___ckd_sub_long_result_65536_38 + 1),a
      00032B E5*02            [12]  744 	mov	a,(___ckd_sub_long_PARM_2 + 2)
      00032D 95*0A            [12]  745 	subb	a,(___ckd_sub_long_PARM_3 + 2)
      00032F F5*15            [12]  746 	mov	(___ckd_sub_long_result_65536_38 + 2),a
      000331 E5*03            [12]  747 	mov	a,(___ckd_sub_long_PARM_2 + 3)
      000333 95*0B            [12]  748 	subb	a,(___ckd_sub_long_PARM_3 + 3)
      000335 F5*16            [12]  749 	mov	(___ckd_sub_long_result_65536_38 + 3),a
      000337 E5*04            [12]  750 	mov	a,(___ckd_sub_long_PARM_2 + 4)
      000339 95*0C            [12]  751 	subb	a,(___ckd_sub_long_PARM_3 + 4)
      00033B F5*17            [12]  752 	mov	(___ckd_sub_long_result_65536_38 + 4),a
      00033D E5*05            [12]  753 	mov	a,(___ckd_sub_long_PARM_2 + 5)
      00033F 95*0D            [12]  754 	subb	a,(___ckd_sub_long_PARM_3 + 5)
      000341 F5*18            [12]  755 	mov	(___ckd_sub_long_result_65536_38 + 5),a
      000343 E5*06            [12]  756 	mov	a,(___ckd_sub_long_PARM_2 + 6)
      000345 95*0E            [12]  757 	subb	a,(___ckd_sub_long_PARM_3 + 6)
      000347 F5*19            [12]  758 	mov	(___ckd_sub_long_result_65536_38 + 6),a
      000349 E5*07            [12]  759 	mov	a,(___ckd_sub_long_PARM_2 + 7)
      00034B 95*0F            [12]  760 	subb	a,(___ckd_sub_long_PARM_3 + 7)
      00034D F5*1A            [12]  761 	mov	(___ckd_sub_long_result_65536_38 + 7),a
      00034F A9*13            [24]  762 	mov	r1,___ckd_sub_long_result_65536_38
      000351 AA*14            [24]  763 	mov	r2,(___ckd_sub_long_result_65536_38 + 1)
      000353 AB*15            [24]  764 	mov	r3,(___ckd_sub_long_result_65536_38 + 2)
      000355 AF*16            [24]  765 	mov	r7,(___ckd_sub_long_result_65536_38 + 3)
      000357 85*10 82         [24]  766 	mov	dpl,___ckd_sub_long_r_65536_37
      00035A 85*11 83         [24]  767 	mov	dph,(___ckd_sub_long_r_65536_37 + 1)
      00035D 85*12 F0         [24]  768 	mov	b,(___ckd_sub_long_r_65536_37 + 2)
      000360 E9               [12]  769 	mov	a,r1
      000361 12r00r00         [24]  770 	lcall	__gptrput
      000364 A3               [24]  771 	inc	dptr
      000365 EA               [12]  772 	mov	a,r2
      000366 12r00r00         [24]  773 	lcall	__gptrput
      000369 A3               [24]  774 	inc	dptr
      00036A EB               [12]  775 	mov	a,r3
      00036B 12r00r00         [24]  776 	lcall	__gptrput
      00036E A3               [24]  777 	inc	dptr
      00036F EF               [12]  778 	mov	a,r7
      000370 12r00r00         [24]  779 	lcall	__gptrput
      000373 F8               [12]  780 	mov	r0,a
      000374 33               [12]  781 	rlc	a
      000375 95 E0            [12]  782 	subb	a,acc
      000377 FC               [12]  783 	mov	r4,a
      000378 FD               [12]  784 	mov	r5,a
      000379 FE               [12]  785 	mov	r6,a
      00037A FF               [12]  786 	mov	r7,a
      00037B E9               [12]  787 	mov	a,r1
      00037C B5*13 1F         [24]  788 	cjne	a,___ckd_sub_long_result_65536_38,00103$
      00037F EA               [12]  789 	mov	a,r2
      000380 B5*14 1B         [24]  790 	cjne	a,(___ckd_sub_long_result_65536_38 + 1),00103$
      000383 EB               [12]  791 	mov	a,r3
      000384 B5*15 17         [24]  792 	cjne	a,(___ckd_sub_long_result_65536_38 + 2),00103$
      000387 E8               [12]  793 	mov	a,r0
      000388 B5*16 13         [24]  794 	cjne	a,(___ckd_sub_long_result_65536_38 + 3),00103$
      00038B EC               [12]  795 	mov	a,r4
      00038C B5*17 0F         [24]  796 	cjne	a,(___ckd_sub_long_result_65536_38 + 4),00103$
      00038F ED               [12]  797 	mov	a,r5
      000390 B5*18 0B         [24]  798 	cjne	a,(___ckd_sub_long_result_65536_38 + 5),00103$
      000393 EE               [12]  799 	mov	a,r6
      000394 B5*19 07         [24]  800 	cjne	a,(___ckd_sub_long_result_65536_38 + 6),00103$
      000397 EF               [12]  801 	mov	a,r7
      000398 B5*1A 03         [24]  802 	cjne	a,(___ckd_sub_long_result_65536_38 + 7),00103$
      00039B D3               [12]  803 	setb	c
      00039C 80 01            [24]  804 	sjmp	00104$
      00039E                        805 00103$:
      00039E C3               [12]  806 	clr	c
      00039F                        807 00104$:
      00039F 92*06            [24]  808 	mov  ___ckd_sub_long_sloc0_1_0,c
      0003A1 B3               [12]  809 	cpl	c
      0003A2 E4               [12]  810 	clr	a
      0003A3 33               [12]  811 	rlc	a
      0003A4 F5 82            [12]  812 	mov	dpl,a
      0003A6 22               [24]  813 	ret
                                    814 ;------------------------------------------------------------
                                    815 ;Allocation info for local variables in function '__ckd_sub_ulong'
                                    816 ;------------------------------------------------------------
                                    817 ;a                         Allocated with name '___ckd_sub_ulong_PARM_2'
                                    818 ;b                         Allocated with name '___ckd_sub_ulong_PARM_3'
                                    819 ;r                         Allocated with name '___ckd_sub_ulong_r_65536_39'
                                    820 ;result                    Allocated with name '___ckd_sub_ulong_result_65536_40'
                                    821 ;------------------------------------------------------------
                                    822 ;	../../device/include/stdckdint.h:67: inline _Bool __ckd_sub_ulong __CKD_DEFAULT_IMPL(unsigned long, -)
                                    823 ;	-----------------------------------------
                                    824 ;	 function __ckd_sub_ulong
                                    825 ;	-----------------------------------------
      0003A7                        826 ___ckd_sub_ulong:
      0003A7 85 82*10         [24]  827 	mov	___ckd_sub_ulong_r_65536_39,dpl
      0003AA 85 83*11         [24]  828 	mov	(___ckd_sub_ulong_r_65536_39 + 1),dph
      0003AD 85 F0*12         [24]  829 	mov	(___ckd_sub_ulong_r_65536_39 + 2),b
      0003B0 E5*00            [12]  830 	mov	a,___ckd_sub_ulong_PARM_2
      0003B2 C3               [12]  831 	clr	c
      0003B3 95*08            [12]  832 	subb	a,___ckd_sub_ulong_PARM_3
      0003B5 F5*13            [12]  833 	mov	___ckd_sub_ulong_result_65536_40,a
      0003B7 E5*01            [12]  834 	mov	a,(___ckd_sub_ulong_PARM_2 + 1)
      0003B9 95*09            [12]  835 	subb	a,(___ckd_sub_ulong_PARM_3 + 1)
      0003BB F5*14            [12]  836 	mov	(___ckd_sub_ulong_result_65536_40 + 1),a
      0003BD E5*02            [12]  837 	mov	a,(___ckd_sub_ulong_PARM_2 + 2)
      0003BF 95*0A            [12]  838 	subb	a,(___ckd_sub_ulong_PARM_3 + 2)
      0003C1 F5*15            [12]  839 	mov	(___ckd_sub_ulong_result_65536_40 + 2),a
      0003C3 E5*03            [12]  840 	mov	a,(___ckd_sub_ulong_PARM_2 + 3)
      0003C5 95*0B            [12]  841 	subb	a,(___ckd_sub_ulong_PARM_3 + 3)
      0003C7 F5*16            [12]  842 	mov	(___ckd_sub_ulong_result_65536_40 + 3),a
      0003C9 E5*04            [12]  843 	mov	a,(___ckd_sub_ulong_PARM_2 + 4)
      0003CB 95*0C            [12]  844 	subb	a,(___ckd_sub_ulong_PARM_3 + 4)
      0003CD F5*17            [12]  845 	mov	(___ckd_sub_ulong_result_65536_40 + 4),a
      0003CF E5*05            [12]  846 	mov	a,(___ckd_sub_ulong_PARM_2 + 5)
      0003D1 95*0D            [12]  847 	subb	a,(___ckd_sub_ulong_PARM_3 + 5)
      0003D3 F5*18            [12]  848 	mov	(___ckd_sub_ulong_result_65536_40 + 5),a
      0003D5 E5*06            [12]  849 	mov	a,(___ckd_sub_ulong_PARM_2 + 6)
      0003D7 95*0E            [12]  850 	subb	a,(___ckd_sub_ulong_PARM_3 + 6)
      0003D9 F5*19            [12]  851 	mov	(___ckd_sub_ulong_result_65536_40 + 6),a
      0003DB E5*07            [12]  852 	mov	a,(___ckd_sub_ulong_PARM_2 + 7)
      0003DD 95*0F            [12]  853 	subb	a,(___ckd_sub_ulong_PARM_3 + 7)
      0003DF F5*1A            [12]  854 	mov	(___ckd_sub_ulong_result_65536_40 + 7),a
      0003E1 A9*13            [24]  855 	mov	r1,___ckd_sub_ulong_result_65536_40
      0003E3 AA*14            [24]  856 	mov	r2,(___ckd_sub_ulong_result_65536_40 + 1)
      0003E5 AB*15            [24]  857 	mov	r3,(___ckd_sub_ulong_result_65536_40 + 2)
      0003E7 AF*16            [24]  858 	mov	r7,(___ckd_sub_ulong_result_65536_40 + 3)
      0003E9 85*10 82         [24]  859 	mov	dpl,___ckd_sub_ulong_r_65536_39
      0003EC 85*11 83         [24]  860 	mov	dph,(___ckd_sub_ulong_r_65536_39 + 1)
      0003EF 85*12 F0         [24]  861 	mov	b,(___ckd_sub_ulong_r_65536_39 + 2)
      0003F2 E9               [12]  862 	mov	a,r1
      0003F3 12r00r00         [24]  863 	lcall	__gptrput
      0003F6 A3               [24]  864 	inc	dptr
      0003F7 EA               [12]  865 	mov	a,r2
      0003F8 12r00r00         [24]  866 	lcall	__gptrput
      0003FB A3               [24]  867 	inc	dptr
      0003FC EB               [12]  868 	mov	a,r3
      0003FD 12r00r00         [24]  869 	lcall	__gptrput
      000400 A3               [24]  870 	inc	dptr
      000401 EF               [12]  871 	mov	a,r7
      000402 12r00r00         [24]  872 	lcall	__gptrput
      000405 8F 00            [24]  873 	mov	ar0,r7
      000407 E4               [12]  874 	clr	a
      000408 FC               [12]  875 	mov	r4,a
      000409 FD               [12]  876 	mov	r5,a
      00040A FE               [12]  877 	mov	r6,a
      00040B FF               [12]  878 	mov	r7,a
      00040C E9               [12]  879 	mov	a,r1
      00040D B5*13 1F         [24]  880 	cjne	a,___ckd_sub_ulong_result_65536_40,00103$
      000410 EA               [12]  881 	mov	a,r2
      000411 B5*14 1B         [24]  882 	cjne	a,(___ckd_sub_ulong_result_65536_40 + 1),00103$
      000414 EB               [12]  883 	mov	a,r3
      000415 B5*15 17         [24]  884 	cjne	a,(___ckd_sub_ulong_result_65536_40 + 2),00103$
      000418 E8               [12]  885 	mov	a,r0
      000419 B5*16 13         [24]  886 	cjne	a,(___ckd_sub_ulong_result_65536_40 + 3),00103$
      00041C EC               [12]  887 	mov	a,r4
      00041D B5*17 0F         [24]  888 	cjne	a,(___ckd_sub_ulong_result_65536_40 + 4),00103$
      000420 ED               [12]  889 	mov	a,r5
      000421 B5*18 0B         [24]  890 	cjne	a,(___ckd_sub_ulong_result_65536_40 + 5),00103$
      000424 EE               [12]  891 	mov	a,r6
      000425 B5*19 07         [24]  892 	cjne	a,(___ckd_sub_ulong_result_65536_40 + 6),00103$
      000428 EF               [12]  893 	mov	a,r7
      000429 B5*1A 03         [24]  894 	cjne	a,(___ckd_sub_ulong_result_65536_40 + 7),00103$
      00042C D3               [12]  895 	setb	c
      00042D 80 01            [24]  896 	sjmp	00104$
      00042F                        897 00103$:
      00042F C3               [12]  898 	clr	c
      000430                        899 00104$:
      000430 92*07            [24]  900 	mov  ___ckd_sub_ulong_sloc0_1_0,c
      000432 B3               [12]  901 	cpl	c
      000433 E4               [12]  902 	clr	a
      000434 33               [12]  903 	rlc	a
      000435 F5 82            [12]  904 	mov	dpl,a
      000437 22               [24]  905 	ret
                                    906 	.area CSEG    (CODE)
                                    907 	.area CONST   (CODE)
                                    908 	.area XINIT   (CODE)
                                    909 	.area CABS    (ABS,CODE)
