                                      1 ;--------------------------------------------------------
                                      2 ; File Created by SDCC : free open source ISO C Compiler 
                                      3 ; Version 4.2.14 #0 (Linux)
                                      4 ;--------------------------------------------------------
                                      5 	.module ckd_mul
                                      6 	.optsdcc -mmcs51 --model-small
                                      7 	
                                      8 ;--------------------------------------------------------
                                      9 ; Public variables in this module
                                     10 ;--------------------------------------------------------
                                     11 	.globl ___ckd_mul_ulong_PARM_3
                                     12 	.globl ___ckd_mul_ulong_PARM_2
                                     13 	.globl ___ckd_mul_long_PARM_3
                                     14 	.globl ___ckd_mul_long_PARM_2
                                     15 	.globl ___ckd_mul_uint_PARM_3
                                     16 	.globl ___ckd_mul_uint_PARM_2
                                     17 	.globl ___ckd_mul_int_PARM_3
                                     18 	.globl ___ckd_mul_int_PARM_2
                                     19 	.globl ___ckd_mul_ushort_PARM_3
                                     20 	.globl ___ckd_mul_ushort_PARM_2
                                     21 	.globl ___ckd_mul_short_PARM_3
                                     22 	.globl ___ckd_mul_short_PARM_2
                                     23 	.globl ___ckd_mul_uchar_PARM_3
                                     24 	.globl ___ckd_mul_uchar_PARM_2
                                     25 	.globl ___ckd_mul_schar_PARM_3
                                     26 	.globl ___ckd_mul_schar_PARM_2
                                     27 	.globl ___ckd_mul_schar
                                     28 	.globl ___ckd_mul_uchar
                                     29 	.globl ___ckd_mul_short
                                     30 	.globl ___ckd_mul_ushort
                                     31 	.globl ___ckd_mul_int
                                     32 	.globl ___ckd_mul_uint
                                     33 	.globl ___ckd_mul_long
                                     34 	.globl ___ckd_mul_ulong
                                     35 ;--------------------------------------------------------
                                     36 ; special function registers
                                     37 ;--------------------------------------------------------
                                     38 	.area RSEG    (ABS,DATA)
      000000                         39 	.org 0x0000
                                     40 ;--------------------------------------------------------
                                     41 ; special function bits
                                     42 ;--------------------------------------------------------
                                     43 	.area RSEG    (ABS,DATA)
      000000                         44 	.org 0x0000
                                     45 ;--------------------------------------------------------
                                     46 ; overlayable register banks
                                     47 ;--------------------------------------------------------
                                     48 	.area REG_BANK_0	(REL,OVR,DATA)
      000000                         49 	.ds 8
                                     50 ;--------------------------------------------------------
                                     51 ; internal ram data
                                     52 ;--------------------------------------------------------
                                     53 	.area DSEG    (DATA)
      000000                         54 ___ckd_mul_schar_PARM_2:
      000000                         55 	.ds 8
      000008                         56 ___ckd_mul_schar_PARM_3:
      000008                         57 	.ds 8
      000010                         58 ___ckd_mul_schar_r_65536_41:
      000010                         59 	.ds 3
      000013                         60 ___ckd_mul_schar_result_65536_42:
      000013                         61 	.ds 8
      00001B                         62 ___ckd_mul_uchar_PARM_2:
      00001B                         63 	.ds 8
      000023                         64 ___ckd_mul_uchar_PARM_3:
      000023                         65 	.ds 8
      00002B                         66 ___ckd_mul_uchar_r_65536_43:
      00002B                         67 	.ds 3
      00002E                         68 ___ckd_mul_uchar_result_65536_44:
      00002E                         69 	.ds 8
      000036                         70 ___ckd_mul_short_PARM_2:
      000036                         71 	.ds 8
      00003E                         72 ___ckd_mul_short_PARM_3:
      00003E                         73 	.ds 8
      000046                         74 ___ckd_mul_short_r_65536_45:
      000046                         75 	.ds 3
      000049                         76 ___ckd_mul_short_result_65536_46:
      000049                         77 	.ds 8
      000051                         78 ___ckd_mul_ushort_PARM_2:
      000051                         79 	.ds 8
      000059                         80 ___ckd_mul_ushort_PARM_3:
      000059                         81 	.ds 8
      000061                         82 ___ckd_mul_ushort_r_65536_47:
      000061                         83 	.ds 3
      000064                         84 ___ckd_mul_ushort_result_65536_48:
      000064                         85 	.ds 8
      00006C                         86 ___ckd_mul_int_PARM_2:
      00006C                         87 	.ds 8
      000074                         88 ___ckd_mul_int_PARM_3:
      000074                         89 	.ds 8
      00007C                         90 ___ckd_mul_int_r_65536_49:
      00007C                         91 	.ds 3
      00007F                         92 ___ckd_mul_int_result_65536_50:
      00007F                         93 	.ds 8
      000087                         94 ___ckd_mul_uint_PARM_2:
      000087                         95 	.ds 8
      00008F                         96 ___ckd_mul_uint_PARM_3:
      00008F                         97 	.ds 8
      000097                         98 ___ckd_mul_uint_r_65536_51:
      000097                         99 	.ds 3
      00009A                        100 ___ckd_mul_uint_result_65536_52:
      00009A                        101 	.ds 8
      0000A2                        102 ___ckd_mul_long_PARM_2:
      0000A2                        103 	.ds 8
      0000AA                        104 ___ckd_mul_long_PARM_3:
      0000AA                        105 	.ds 8
      0000B2                        106 ___ckd_mul_long_r_65536_53:
      0000B2                        107 	.ds 3
      0000B5                        108 ___ckd_mul_long_result_65536_54:
      0000B5                        109 	.ds 8
      0000BD                        110 ___ckd_mul_ulong_PARM_2:
      0000BD                        111 	.ds 8
      0000C5                        112 ___ckd_mul_ulong_PARM_3:
      0000C5                        113 	.ds 8
      0000CD                        114 ___ckd_mul_ulong_r_65536_55:
      0000CD                        115 	.ds 3
      0000D0                        116 ___ckd_mul_ulong_result_65536_56:
      0000D0                        117 	.ds 8
                                    118 ;--------------------------------------------------------
                                    119 ; overlayable items in internal ram
                                    120 ;--------------------------------------------------------
                                    121 ;--------------------------------------------------------
                                    122 ; indirectly addressable internal ram data
                                    123 ;--------------------------------------------------------
                                    124 	.area ISEG    (DATA)
                                    125 ;--------------------------------------------------------
                                    126 ; absolute internal ram data
                                    127 ;--------------------------------------------------------
                                    128 	.area IABS    (ABS,DATA)
                                    129 	.area IABS    (ABS,DATA)
                                    130 ;--------------------------------------------------------
                                    131 ; bit data
                                    132 ;--------------------------------------------------------
                                    133 	.area BSEG    (BIT)
      000000                        134 ___ckd_mul_schar_sloc0_1_0:
      000000                        135 	.ds 1
      000001                        136 ___ckd_mul_uchar_sloc0_1_0:
      000001                        137 	.ds 1
      000002                        138 ___ckd_mul_short_sloc0_1_0:
      000002                        139 	.ds 1
      000003                        140 ___ckd_mul_ushort_sloc0_1_0:
      000003                        141 	.ds 1
      000004                        142 ___ckd_mul_int_sloc0_1_0:
      000004                        143 	.ds 1
      000005                        144 ___ckd_mul_uint_sloc0_1_0:
      000005                        145 	.ds 1
      000006                        146 ___ckd_mul_long_sloc0_1_0:
      000006                        147 	.ds 1
      000007                        148 ___ckd_mul_ulong_sloc0_1_0:
      000007                        149 	.ds 1
                                    150 ;--------------------------------------------------------
                                    151 ; paged external ram data
                                    152 ;--------------------------------------------------------
                                    153 	.area PSEG    (PAG,XDATA)
                                    154 ;--------------------------------------------------------
                                    155 ; uninitialized external ram data
                                    156 ;--------------------------------------------------------
                                    157 	.area XSEG    (XDATA)
                                    158 ;--------------------------------------------------------
                                    159 ; absolute external ram data
                                    160 ;--------------------------------------------------------
                                    161 	.area XABS    (ABS,XDATA)
                                    162 ;--------------------------------------------------------
                                    163 ; initialized external ram data
                                    164 ;--------------------------------------------------------
                                    165 	.area XISEG   (XDATA)
                                    166 	.area HOME    (CODE)
                                    167 	.area GSINIT0 (CODE)
                                    168 	.area GSINIT1 (CODE)
                                    169 	.area GSINIT2 (CODE)
                                    170 	.area GSINIT3 (CODE)
                                    171 	.area GSINIT4 (CODE)
                                    172 	.area GSINIT5 (CODE)
                                    173 	.area GSINIT  (CODE)
                                    174 	.area GSFINAL (CODE)
                                    175 	.area CSEG    (CODE)
                                    176 ;--------------------------------------------------------
                                    177 ; global & static initialisations
                                    178 ;--------------------------------------------------------
                                    179 	.area HOME    (CODE)
                                    180 	.area GSINIT  (CODE)
                                    181 	.area GSFINAL (CODE)
                                    182 	.area GSINIT  (CODE)
                                    183 ;--------------------------------------------------------
                                    184 ; Home
                                    185 ;--------------------------------------------------------
                                    186 	.area HOME    (CODE)
                                    187 	.area HOME    (CODE)
                                    188 ;--------------------------------------------------------
                                    189 ; code
                                    190 ;--------------------------------------------------------
                                    191 	.area CSEG    (CODE)
                                    192 ;------------------------------------------------------------
                                    193 ;Allocation info for local variables in function '__ckd_mul_schar'
                                    194 ;------------------------------------------------------------
                                    195 ;a                         Allocated with name '___ckd_mul_schar_PARM_2'
                                    196 ;b                         Allocated with name '___ckd_mul_schar_PARM_3'
                                    197 ;r                         Allocated with name '___ckd_mul_schar_r_65536_41'
                                    198 ;result                    Allocated with name '___ckd_mul_schar_result_65536_42'
                                    199 ;------------------------------------------------------------
                                    200 ;	../../device/include/stdckdint.h:69: inline _Bool __ckd_mul_schar __CKD_DEFAULT_IMPL(signed char, *)
                                    201 ;	-----------------------------------------
                                    202 ;	 function __ckd_mul_schar
                                    203 ;	-----------------------------------------
      000000                        204 ___ckd_mul_schar:
                           000007   205 	ar7 = 0x07
                           000006   206 	ar6 = 0x06
                           000005   207 	ar5 = 0x05
                           000004   208 	ar4 = 0x04
                           000003   209 	ar3 = 0x03
                           000002   210 	ar2 = 0x02
                           000001   211 	ar1 = 0x01
                           000000   212 	ar0 = 0x00
      000000 85 82*10         [24]  213 	mov	___ckd_mul_schar_r_65536_41,dpl
      000003 85 83*11         [24]  214 	mov	(___ckd_mul_schar_r_65536_41 + 1),dph
      000006 85 F0*12         [24]  215 	mov	(___ckd_mul_schar_r_65536_41 + 2),b
      000009 85*08*00         [24]  216 	mov	__mullonglong_PARM_2,___ckd_mul_schar_PARM_3
      00000C 85*09*01         [24]  217 	mov	(__mullonglong_PARM_2 + 1),(___ckd_mul_schar_PARM_3 + 1)
      00000F 85*0A*02         [24]  218 	mov	(__mullonglong_PARM_2 + 2),(___ckd_mul_schar_PARM_3 + 2)
      000012 85*0B*03         [24]  219 	mov	(__mullonglong_PARM_2 + 3),(___ckd_mul_schar_PARM_3 + 3)
      000015 85*0C*04         [24]  220 	mov	(__mullonglong_PARM_2 + 4),(___ckd_mul_schar_PARM_3 + 4)
      000018 85*0D*05         [24]  221 	mov	(__mullonglong_PARM_2 + 5),(___ckd_mul_schar_PARM_3 + 5)
      00001B 85*0E*06         [24]  222 	mov	(__mullonglong_PARM_2 + 6),(___ckd_mul_schar_PARM_3 + 6)
      00001E 85*0F*07         [24]  223 	mov	(__mullonglong_PARM_2 + 7),(___ckd_mul_schar_PARM_3 + 7)
      000021 85*00 82         [24]  224 	mov	dpl,___ckd_mul_schar_PARM_2
      000024 85*01 83         [24]  225 	mov	dph,(___ckd_mul_schar_PARM_2 + 1)
      000027 85*02 F0         [24]  226 	mov	b,(___ckd_mul_schar_PARM_2 + 2)
      00002A E5*03            [12]  227 	mov	a,(___ckd_mul_schar_PARM_2 + 3)
      00002C AC*04            [24]  228 	mov	r4,(___ckd_mul_schar_PARM_2 + 4)
      00002E AD*05            [24]  229 	mov	r5,(___ckd_mul_schar_PARM_2 + 5)
      000030 AE*06            [24]  230 	mov	r6,(___ckd_mul_schar_PARM_2 + 6)
      000032 AF*07            [24]  231 	mov	r7,(___ckd_mul_schar_PARM_2 + 7)
      000034 12r00r00         [24]  232 	lcall	__mullonglong
      000037 85 82*13         [24]  233 	mov	___ckd_mul_schar_result_65536_42,dpl
      00003A 85 83*14         [24]  234 	mov	(___ckd_mul_schar_result_65536_42 + 1),dph
      00003D 85 F0*15         [24]  235 	mov	(___ckd_mul_schar_result_65536_42 + 2),b
      000040 F5*16            [12]  236 	mov	(___ckd_mul_schar_result_65536_42 + 3),a
      000042 8C*17            [24]  237 	mov	(___ckd_mul_schar_result_65536_42 + 4),r4
      000044 8D*18            [24]  238 	mov	(___ckd_mul_schar_result_65536_42 + 5),r5
      000046 8E*19            [24]  239 	mov	(___ckd_mul_schar_result_65536_42 + 6),r6
      000048 8F*1A            [24]  240 	mov	(___ckd_mul_schar_result_65536_42 + 7),r7
      00004A AF*13            [24]  241 	mov	r7,___ckd_mul_schar_result_65536_42
      00004C 85*10 82         [24]  242 	mov	dpl,___ckd_mul_schar_r_65536_41
      00004F 85*11 83         [24]  243 	mov	dph,(___ckd_mul_schar_r_65536_41 + 1)
      000052 85*12 F0         [24]  244 	mov	b,(___ckd_mul_schar_r_65536_41 + 2)
      000055 EF               [12]  245 	mov	a,r7
      000056 12r00r00         [24]  246 	lcall	__gptrput
      000059 F8               [12]  247 	mov	r0,a
      00005A 33               [12]  248 	rlc	a
      00005B 95 E0            [12]  249 	subb	a,acc
      00005D F9               [12]  250 	mov	r1,a
      00005E FA               [12]  251 	mov	r2,a
      00005F FB               [12]  252 	mov	r3,a
      000060 FC               [12]  253 	mov	r4,a
      000061 FD               [12]  254 	mov	r5,a
      000062 FE               [12]  255 	mov	r6,a
      000063 FF               [12]  256 	mov	r7,a
      000064 E8               [12]  257 	mov	a,r0
      000065 B5*13 1F         [24]  258 	cjne	a,___ckd_mul_schar_result_65536_42,00103$
      000068 E9               [12]  259 	mov	a,r1
      000069 B5*14 1B         [24]  260 	cjne	a,(___ckd_mul_schar_result_65536_42 + 1),00103$
      00006C EA               [12]  261 	mov	a,r2
      00006D B5*15 17         [24]  262 	cjne	a,(___ckd_mul_schar_result_65536_42 + 2),00103$
      000070 EB               [12]  263 	mov	a,r3
      000071 B5*16 13         [24]  264 	cjne	a,(___ckd_mul_schar_result_65536_42 + 3),00103$
      000074 EC               [12]  265 	mov	a,r4
      000075 B5*17 0F         [24]  266 	cjne	a,(___ckd_mul_schar_result_65536_42 + 4),00103$
      000078 ED               [12]  267 	mov	a,r5
      000079 B5*18 0B         [24]  268 	cjne	a,(___ckd_mul_schar_result_65536_42 + 5),00103$
      00007C EE               [12]  269 	mov	a,r6
      00007D B5*19 07         [24]  270 	cjne	a,(___ckd_mul_schar_result_65536_42 + 6),00103$
      000080 EF               [12]  271 	mov	a,r7
      000081 B5*1A 03         [24]  272 	cjne	a,(___ckd_mul_schar_result_65536_42 + 7),00103$
      000084 D3               [12]  273 	setb	c
      000085 80 01            [24]  274 	sjmp	00104$
      000087                        275 00103$:
      000087 C3               [12]  276 	clr	c
      000088                        277 00104$:
      000088 92*00            [24]  278 	mov  ___ckd_mul_schar_sloc0_1_0,c
      00008A B3               [12]  279 	cpl	c
      00008B E4               [12]  280 	clr	a
      00008C 33               [12]  281 	rlc	a
      00008D F5 82            [12]  282 	mov	dpl,a
      00008F 22               [24]  283 	ret
                                    284 ;------------------------------------------------------------
                                    285 ;Allocation info for local variables in function '__ckd_mul_uchar'
                                    286 ;------------------------------------------------------------
                                    287 ;a                         Allocated with name '___ckd_mul_uchar_PARM_2'
                                    288 ;b                         Allocated with name '___ckd_mul_uchar_PARM_3'
                                    289 ;r                         Allocated with name '___ckd_mul_uchar_r_65536_43'
                                    290 ;result                    Allocated with name '___ckd_mul_uchar_result_65536_44'
                                    291 ;------------------------------------------------------------
                                    292 ;	../../device/include/stdckdint.h:70: inline _Bool __ckd_mul_uchar __CKD_DEFAULT_IMPL(unsigned char, *)
                                    293 ;	-----------------------------------------
                                    294 ;	 function __ckd_mul_uchar
                                    295 ;	-----------------------------------------
      000090                        296 ___ckd_mul_uchar:
      000090 85 82*2B         [24]  297 	mov	___ckd_mul_uchar_r_65536_43,dpl
      000093 85 83*2C         [24]  298 	mov	(___ckd_mul_uchar_r_65536_43 + 1),dph
      000096 85 F0*2D         [24]  299 	mov	(___ckd_mul_uchar_r_65536_43 + 2),b
      000099 85*23*00         [24]  300 	mov	__mullonglong_PARM_2,___ckd_mul_uchar_PARM_3
      00009C 85*24*01         [24]  301 	mov	(__mullonglong_PARM_2 + 1),(___ckd_mul_uchar_PARM_3 + 1)
      00009F 85*25*02         [24]  302 	mov	(__mullonglong_PARM_2 + 2),(___ckd_mul_uchar_PARM_3 + 2)
      0000A2 85*26*03         [24]  303 	mov	(__mullonglong_PARM_2 + 3),(___ckd_mul_uchar_PARM_3 + 3)
      0000A5 85*27*04         [24]  304 	mov	(__mullonglong_PARM_2 + 4),(___ckd_mul_uchar_PARM_3 + 4)
      0000A8 85*28*05         [24]  305 	mov	(__mullonglong_PARM_2 + 5),(___ckd_mul_uchar_PARM_3 + 5)
      0000AB 85*29*06         [24]  306 	mov	(__mullonglong_PARM_2 + 6),(___ckd_mul_uchar_PARM_3 + 6)
      0000AE 85*2A*07         [24]  307 	mov	(__mullonglong_PARM_2 + 7),(___ckd_mul_uchar_PARM_3 + 7)
      0000B1 85*1B 82         [24]  308 	mov	dpl,___ckd_mul_uchar_PARM_2
      0000B4 85*1C 83         [24]  309 	mov	dph,(___ckd_mul_uchar_PARM_2 + 1)
      0000B7 85*1D F0         [24]  310 	mov	b,(___ckd_mul_uchar_PARM_2 + 2)
      0000BA E5*1E            [12]  311 	mov	a,(___ckd_mul_uchar_PARM_2 + 3)
      0000BC AC*1F            [24]  312 	mov	r4,(___ckd_mul_uchar_PARM_2 + 4)
      0000BE AD*20            [24]  313 	mov	r5,(___ckd_mul_uchar_PARM_2 + 5)
      0000C0 AE*21            [24]  314 	mov	r6,(___ckd_mul_uchar_PARM_2 + 6)
      0000C2 AF*22            [24]  315 	mov	r7,(___ckd_mul_uchar_PARM_2 + 7)
      0000C4 12r00r00         [24]  316 	lcall	__mullonglong
      0000C7 85 82*2E         [24]  317 	mov	___ckd_mul_uchar_result_65536_44,dpl
      0000CA 85 83*2F         [24]  318 	mov	(___ckd_mul_uchar_result_65536_44 + 1),dph
      0000CD 85 F0*30         [24]  319 	mov	(___ckd_mul_uchar_result_65536_44 + 2),b
      0000D0 F5*31            [12]  320 	mov	(___ckd_mul_uchar_result_65536_44 + 3),a
      0000D2 8C*32            [24]  321 	mov	(___ckd_mul_uchar_result_65536_44 + 4),r4
      0000D4 8D*33            [24]  322 	mov	(___ckd_mul_uchar_result_65536_44 + 5),r5
      0000D6 8E*34            [24]  323 	mov	(___ckd_mul_uchar_result_65536_44 + 6),r6
      0000D8 8F*35            [24]  324 	mov	(___ckd_mul_uchar_result_65536_44 + 7),r7
      0000DA AF*2E            [24]  325 	mov	r7,___ckd_mul_uchar_result_65536_44
      0000DC 85*2B 82         [24]  326 	mov	dpl,___ckd_mul_uchar_r_65536_43
      0000DF 85*2C 83         [24]  327 	mov	dph,(___ckd_mul_uchar_r_65536_43 + 1)
      0000E2 85*2D F0         [24]  328 	mov	b,(___ckd_mul_uchar_r_65536_43 + 2)
      0000E5 EF               [12]  329 	mov	a,r7
      0000E6 12r00r00         [24]  330 	lcall	__gptrput
      0000E9 8F 00            [24]  331 	mov	ar0,r7
      0000EB E4               [12]  332 	clr	a
      0000EC F9               [12]  333 	mov	r1,a
      0000ED FA               [12]  334 	mov	r2,a
      0000EE FB               [12]  335 	mov	r3,a
      0000EF FC               [12]  336 	mov	r4,a
      0000F0 FD               [12]  337 	mov	r5,a
      0000F1 FE               [12]  338 	mov	r6,a
      0000F2 FF               [12]  339 	mov	r7,a
      0000F3 E8               [12]  340 	mov	a,r0
      0000F4 B5*2E 1F         [24]  341 	cjne	a,___ckd_mul_uchar_result_65536_44,00103$
      0000F7 E9               [12]  342 	mov	a,r1
      0000F8 B5*2F 1B         [24]  343 	cjne	a,(___ckd_mul_uchar_result_65536_44 + 1),00103$
      0000FB EA               [12]  344 	mov	a,r2
      0000FC B5*30 17         [24]  345 	cjne	a,(___ckd_mul_uchar_result_65536_44 + 2),00103$
      0000FF EB               [12]  346 	mov	a,r3
      000100 B5*31 13         [24]  347 	cjne	a,(___ckd_mul_uchar_result_65536_44 + 3),00103$
      000103 EC               [12]  348 	mov	a,r4
      000104 B5*32 0F         [24]  349 	cjne	a,(___ckd_mul_uchar_result_65536_44 + 4),00103$
      000107 ED               [12]  350 	mov	a,r5
      000108 B5*33 0B         [24]  351 	cjne	a,(___ckd_mul_uchar_result_65536_44 + 5),00103$
      00010B EE               [12]  352 	mov	a,r6
      00010C B5*34 07         [24]  353 	cjne	a,(___ckd_mul_uchar_result_65536_44 + 6),00103$
      00010F EF               [12]  354 	mov	a,r7
      000110 B5*35 03         [24]  355 	cjne	a,(___ckd_mul_uchar_result_65536_44 + 7),00103$
      000113 D3               [12]  356 	setb	c
      000114 80 01            [24]  357 	sjmp	00104$
      000116                        358 00103$:
      000116 C3               [12]  359 	clr	c
      000117                        360 00104$:
      000117 92*01            [24]  361 	mov  ___ckd_mul_uchar_sloc0_1_0,c
      000119 B3               [12]  362 	cpl	c
      00011A E4               [12]  363 	clr	a
      00011B 33               [12]  364 	rlc	a
      00011C F5 82            [12]  365 	mov	dpl,a
      00011E 22               [24]  366 	ret
                                    367 ;------------------------------------------------------------
                                    368 ;Allocation info for local variables in function '__ckd_mul_short'
                                    369 ;------------------------------------------------------------
                                    370 ;a                         Allocated with name '___ckd_mul_short_PARM_2'
                                    371 ;b                         Allocated with name '___ckd_mul_short_PARM_3'
                                    372 ;r                         Allocated with name '___ckd_mul_short_r_65536_45'
                                    373 ;result                    Allocated with name '___ckd_mul_short_result_65536_46'
                                    374 ;------------------------------------------------------------
                                    375 ;	../../device/include/stdckdint.h:71: inline _Bool __ckd_mul_short __CKD_DEFAULT_IMPL(short, *)
                                    376 ;	-----------------------------------------
                                    377 ;	 function __ckd_mul_short
                                    378 ;	-----------------------------------------
      00011F                        379 ___ckd_mul_short:
      00011F 85 82*46         [24]  380 	mov	___ckd_mul_short_r_65536_45,dpl
      000122 85 83*47         [24]  381 	mov	(___ckd_mul_short_r_65536_45 + 1),dph
      000125 85 F0*48         [24]  382 	mov	(___ckd_mul_short_r_65536_45 + 2),b
      000128 85*3E*00         [24]  383 	mov	__mullonglong_PARM_2,___ckd_mul_short_PARM_3
      00012B 85*3F*01         [24]  384 	mov	(__mullonglong_PARM_2 + 1),(___ckd_mul_short_PARM_3 + 1)
      00012E 85*40*02         [24]  385 	mov	(__mullonglong_PARM_2 + 2),(___ckd_mul_short_PARM_3 + 2)
      000131 85*41*03         [24]  386 	mov	(__mullonglong_PARM_2 + 3),(___ckd_mul_short_PARM_3 + 3)
      000134 85*42*04         [24]  387 	mov	(__mullonglong_PARM_2 + 4),(___ckd_mul_short_PARM_3 + 4)
      000137 85*43*05         [24]  388 	mov	(__mullonglong_PARM_2 + 5),(___ckd_mul_short_PARM_3 + 5)
      00013A 85*44*06         [24]  389 	mov	(__mullonglong_PARM_2 + 6),(___ckd_mul_short_PARM_3 + 6)
      00013D 85*45*07         [24]  390 	mov	(__mullonglong_PARM_2 + 7),(___ckd_mul_short_PARM_3 + 7)
      000140 85*36 82         [24]  391 	mov	dpl,___ckd_mul_short_PARM_2
      000143 85*37 83         [24]  392 	mov	dph,(___ckd_mul_short_PARM_2 + 1)
      000146 85*38 F0         [24]  393 	mov	b,(___ckd_mul_short_PARM_2 + 2)
      000149 E5*39            [12]  394 	mov	a,(___ckd_mul_short_PARM_2 + 3)
      00014B AC*3A            [24]  395 	mov	r4,(___ckd_mul_short_PARM_2 + 4)
      00014D AD*3B            [24]  396 	mov	r5,(___ckd_mul_short_PARM_2 + 5)
      00014F AE*3C            [24]  397 	mov	r6,(___ckd_mul_short_PARM_2 + 6)
      000151 AF*3D            [24]  398 	mov	r7,(___ckd_mul_short_PARM_2 + 7)
      000153 12r00r00         [24]  399 	lcall	__mullonglong
      000156 85 82*49         [24]  400 	mov	___ckd_mul_short_result_65536_46,dpl
      000159 85 83*4A         [24]  401 	mov	(___ckd_mul_short_result_65536_46 + 1),dph
      00015C 85 F0*4B         [24]  402 	mov	(___ckd_mul_short_result_65536_46 + 2),b
      00015F F5*4C            [12]  403 	mov	(___ckd_mul_short_result_65536_46 + 3),a
      000161 8C*4D            [24]  404 	mov	(___ckd_mul_short_result_65536_46 + 4),r4
      000163 8D*4E            [24]  405 	mov	(___ckd_mul_short_result_65536_46 + 5),r5
      000165 8E*4F            [24]  406 	mov	(___ckd_mul_short_result_65536_46 + 6),r6
      000167 8F*50            [24]  407 	mov	(___ckd_mul_short_result_65536_46 + 7),r7
      000169 A9*49            [24]  408 	mov	r1,___ckd_mul_short_result_65536_46
      00016B AF*4A            [24]  409 	mov	r7,(___ckd_mul_short_result_65536_46 + 1)
      00016D 85*46 82         [24]  410 	mov	dpl,___ckd_mul_short_r_65536_45
      000170 85*47 83         [24]  411 	mov	dph,(___ckd_mul_short_r_65536_45 + 1)
      000173 85*48 F0         [24]  412 	mov	b,(___ckd_mul_short_r_65536_45 + 2)
      000176 E9               [12]  413 	mov	a,r1
      000177 12r00r00         [24]  414 	lcall	__gptrput
      00017A A3               [24]  415 	inc	dptr
      00017B EF               [12]  416 	mov	a,r7
      00017C 12r00r00         [24]  417 	lcall	__gptrput
      00017F F8               [12]  418 	mov	r0,a
      000180 33               [12]  419 	rlc	a
      000181 95 E0            [12]  420 	subb	a,acc
      000183 FA               [12]  421 	mov	r2,a
      000184 FB               [12]  422 	mov	r3,a
      000185 FC               [12]  423 	mov	r4,a
      000186 FD               [12]  424 	mov	r5,a
      000187 FE               [12]  425 	mov	r6,a
      000188 FF               [12]  426 	mov	r7,a
      000189 E9               [12]  427 	mov	a,r1
      00018A B5*49 1F         [24]  428 	cjne	a,___ckd_mul_short_result_65536_46,00103$
      00018D E8               [12]  429 	mov	a,r0
      00018E B5*4A 1B         [24]  430 	cjne	a,(___ckd_mul_short_result_65536_46 + 1),00103$
      000191 EA               [12]  431 	mov	a,r2
      000192 B5*4B 17         [24]  432 	cjne	a,(___ckd_mul_short_result_65536_46 + 2),00103$
      000195 EB               [12]  433 	mov	a,r3
      000196 B5*4C 13         [24]  434 	cjne	a,(___ckd_mul_short_result_65536_46 + 3),00103$
      000199 EC               [12]  435 	mov	a,r4
      00019A B5*4D 0F         [24]  436 	cjne	a,(___ckd_mul_short_result_65536_46 + 4),00103$
      00019D ED               [12]  437 	mov	a,r5
      00019E B5*4E 0B         [24]  438 	cjne	a,(___ckd_mul_short_result_65536_46 + 5),00103$
      0001A1 EE               [12]  439 	mov	a,r6
      0001A2 B5*4F 07         [24]  440 	cjne	a,(___ckd_mul_short_result_65536_46 + 6),00103$
      0001A5 EF               [12]  441 	mov	a,r7
      0001A6 B5*50 03         [24]  442 	cjne	a,(___ckd_mul_short_result_65536_46 + 7),00103$
      0001A9 D3               [12]  443 	setb	c
      0001AA 80 01            [24]  444 	sjmp	00104$
      0001AC                        445 00103$:
      0001AC C3               [12]  446 	clr	c
      0001AD                        447 00104$:
      0001AD 92*02            [24]  448 	mov  ___ckd_mul_short_sloc0_1_0,c
      0001AF B3               [12]  449 	cpl	c
      0001B0 E4               [12]  450 	clr	a
      0001B1 33               [12]  451 	rlc	a
      0001B2 F5 82            [12]  452 	mov	dpl,a
      0001B4 22               [24]  453 	ret
                                    454 ;------------------------------------------------------------
                                    455 ;Allocation info for local variables in function '__ckd_mul_ushort'
                                    456 ;------------------------------------------------------------
                                    457 ;a                         Allocated with name '___ckd_mul_ushort_PARM_2'
                                    458 ;b                         Allocated with name '___ckd_mul_ushort_PARM_3'
                                    459 ;r                         Allocated with name '___ckd_mul_ushort_r_65536_47'
                                    460 ;result                    Allocated with name '___ckd_mul_ushort_result_65536_48'
                                    461 ;------------------------------------------------------------
                                    462 ;	../../device/include/stdckdint.h:72: inline _Bool __ckd_mul_ushort __CKD_DEFAULT_IMPL(unsigned short, *)
                                    463 ;	-----------------------------------------
                                    464 ;	 function __ckd_mul_ushort
                                    465 ;	-----------------------------------------
      0001B5                        466 ___ckd_mul_ushort:
      0001B5 85 82*61         [24]  467 	mov	___ckd_mul_ushort_r_65536_47,dpl
      0001B8 85 83*62         [24]  468 	mov	(___ckd_mul_ushort_r_65536_47 + 1),dph
      0001BB 85 F0*63         [24]  469 	mov	(___ckd_mul_ushort_r_65536_47 + 2),b
      0001BE 85*59*00         [24]  470 	mov	__mullonglong_PARM_2,___ckd_mul_ushort_PARM_3
      0001C1 85*5A*01         [24]  471 	mov	(__mullonglong_PARM_2 + 1),(___ckd_mul_ushort_PARM_3 + 1)
      0001C4 85*5B*02         [24]  472 	mov	(__mullonglong_PARM_2 + 2),(___ckd_mul_ushort_PARM_3 + 2)
      0001C7 85*5C*03         [24]  473 	mov	(__mullonglong_PARM_2 + 3),(___ckd_mul_ushort_PARM_3 + 3)
      0001CA 85*5D*04         [24]  474 	mov	(__mullonglong_PARM_2 + 4),(___ckd_mul_ushort_PARM_3 + 4)
      0001CD 85*5E*05         [24]  475 	mov	(__mullonglong_PARM_2 + 5),(___ckd_mul_ushort_PARM_3 + 5)
      0001D0 85*5F*06         [24]  476 	mov	(__mullonglong_PARM_2 + 6),(___ckd_mul_ushort_PARM_3 + 6)
      0001D3 85*60*07         [24]  477 	mov	(__mullonglong_PARM_2 + 7),(___ckd_mul_ushort_PARM_3 + 7)
      0001D6 85*51 82         [24]  478 	mov	dpl,___ckd_mul_ushort_PARM_2
      0001D9 85*52 83         [24]  479 	mov	dph,(___ckd_mul_ushort_PARM_2 + 1)
      0001DC 85*53 F0         [24]  480 	mov	b,(___ckd_mul_ushort_PARM_2 + 2)
      0001DF E5*54            [12]  481 	mov	a,(___ckd_mul_ushort_PARM_2 + 3)
      0001E1 AC*55            [24]  482 	mov	r4,(___ckd_mul_ushort_PARM_2 + 4)
      0001E3 AD*56            [24]  483 	mov	r5,(___ckd_mul_ushort_PARM_2 + 5)
      0001E5 AE*57            [24]  484 	mov	r6,(___ckd_mul_ushort_PARM_2 + 6)
      0001E7 AF*58            [24]  485 	mov	r7,(___ckd_mul_ushort_PARM_2 + 7)
      0001E9 12r00r00         [24]  486 	lcall	__mullonglong
      0001EC 85 82*64         [24]  487 	mov	___ckd_mul_ushort_result_65536_48,dpl
      0001EF 85 83*65         [24]  488 	mov	(___ckd_mul_ushort_result_65536_48 + 1),dph
      0001F2 85 F0*66         [24]  489 	mov	(___ckd_mul_ushort_result_65536_48 + 2),b
      0001F5 F5*67            [12]  490 	mov	(___ckd_mul_ushort_result_65536_48 + 3),a
      0001F7 8C*68            [24]  491 	mov	(___ckd_mul_ushort_result_65536_48 + 4),r4
      0001F9 8D*69            [24]  492 	mov	(___ckd_mul_ushort_result_65536_48 + 5),r5
      0001FB 8E*6A            [24]  493 	mov	(___ckd_mul_ushort_result_65536_48 + 6),r6
      0001FD 8F*6B            [24]  494 	mov	(___ckd_mul_ushort_result_65536_48 + 7),r7
      0001FF A9*64            [24]  495 	mov	r1,___ckd_mul_ushort_result_65536_48
      000201 AF*65            [24]  496 	mov	r7,(___ckd_mul_ushort_result_65536_48 + 1)
      000203 85*61 82         [24]  497 	mov	dpl,___ckd_mul_ushort_r_65536_47
      000206 85*62 83         [24]  498 	mov	dph,(___ckd_mul_ushort_r_65536_47 + 1)
      000209 85*63 F0         [24]  499 	mov	b,(___ckd_mul_ushort_r_65536_47 + 2)
      00020C E9               [12]  500 	mov	a,r1
      00020D 12r00r00         [24]  501 	lcall	__gptrput
      000210 A3               [24]  502 	inc	dptr
      000211 EF               [12]  503 	mov	a,r7
      000212 12r00r00         [24]  504 	lcall	__gptrput
      000215 8F 00            [24]  505 	mov	ar0,r7
      000217 E4               [12]  506 	clr	a
      000218 FA               [12]  507 	mov	r2,a
      000219 FB               [12]  508 	mov	r3,a
      00021A FC               [12]  509 	mov	r4,a
      00021B FD               [12]  510 	mov	r5,a
      00021C FE               [12]  511 	mov	r6,a
      00021D FF               [12]  512 	mov	r7,a
      00021E E9               [12]  513 	mov	a,r1
      00021F B5*64 1F         [24]  514 	cjne	a,___ckd_mul_ushort_result_65536_48,00103$
      000222 E8               [12]  515 	mov	a,r0
      000223 B5*65 1B         [24]  516 	cjne	a,(___ckd_mul_ushort_result_65536_48 + 1),00103$
      000226 EA               [12]  517 	mov	a,r2
      000227 B5*66 17         [24]  518 	cjne	a,(___ckd_mul_ushort_result_65536_48 + 2),00103$
      00022A EB               [12]  519 	mov	a,r3
      00022B B5*67 13         [24]  520 	cjne	a,(___ckd_mul_ushort_result_65536_48 + 3),00103$
      00022E EC               [12]  521 	mov	a,r4
      00022F B5*68 0F         [24]  522 	cjne	a,(___ckd_mul_ushort_result_65536_48 + 4),00103$
      000232 ED               [12]  523 	mov	a,r5
      000233 B5*69 0B         [24]  524 	cjne	a,(___ckd_mul_ushort_result_65536_48 + 5),00103$
      000236 EE               [12]  525 	mov	a,r6
      000237 B5*6A 07         [24]  526 	cjne	a,(___ckd_mul_ushort_result_65536_48 + 6),00103$
      00023A EF               [12]  527 	mov	a,r7
      00023B B5*6B 03         [24]  528 	cjne	a,(___ckd_mul_ushort_result_65536_48 + 7),00103$
      00023E D3               [12]  529 	setb	c
      00023F 80 01            [24]  530 	sjmp	00104$
      000241                        531 00103$:
      000241 C3               [12]  532 	clr	c
      000242                        533 00104$:
      000242 92*03            [24]  534 	mov  ___ckd_mul_ushort_sloc0_1_0,c
      000244 B3               [12]  535 	cpl	c
      000245 E4               [12]  536 	clr	a
      000246 33               [12]  537 	rlc	a
      000247 F5 82            [12]  538 	mov	dpl,a
      000249 22               [24]  539 	ret
                                    540 ;------------------------------------------------------------
                                    541 ;Allocation info for local variables in function '__ckd_mul_int'
                                    542 ;------------------------------------------------------------
                                    543 ;a                         Allocated with name '___ckd_mul_int_PARM_2'
                                    544 ;b                         Allocated with name '___ckd_mul_int_PARM_3'
                                    545 ;r                         Allocated with name '___ckd_mul_int_r_65536_49'
                                    546 ;result                    Allocated with name '___ckd_mul_int_result_65536_50'
                                    547 ;------------------------------------------------------------
                                    548 ;	../../device/include/stdckdint.h:73: inline _Bool __ckd_mul_int __CKD_DEFAULT_IMPL(int, *)
                                    549 ;	-----------------------------------------
                                    550 ;	 function __ckd_mul_int
                                    551 ;	-----------------------------------------
      00024A                        552 ___ckd_mul_int:
      00024A 85 82*7C         [24]  553 	mov	___ckd_mul_int_r_65536_49,dpl
      00024D 85 83*7D         [24]  554 	mov	(___ckd_mul_int_r_65536_49 + 1),dph
      000250 85 F0*7E         [24]  555 	mov	(___ckd_mul_int_r_65536_49 + 2),b
      000253 85*74*00         [24]  556 	mov	__mullonglong_PARM_2,___ckd_mul_int_PARM_3
      000256 85*75*01         [24]  557 	mov	(__mullonglong_PARM_2 + 1),(___ckd_mul_int_PARM_3 + 1)
      000259 85*76*02         [24]  558 	mov	(__mullonglong_PARM_2 + 2),(___ckd_mul_int_PARM_3 + 2)
      00025C 85*77*03         [24]  559 	mov	(__mullonglong_PARM_2 + 3),(___ckd_mul_int_PARM_3 + 3)
      00025F 85*78*04         [24]  560 	mov	(__mullonglong_PARM_2 + 4),(___ckd_mul_int_PARM_3 + 4)
      000262 85*79*05         [24]  561 	mov	(__mullonglong_PARM_2 + 5),(___ckd_mul_int_PARM_3 + 5)
      000265 85*7A*06         [24]  562 	mov	(__mullonglong_PARM_2 + 6),(___ckd_mul_int_PARM_3 + 6)
      000268 85*7B*07         [24]  563 	mov	(__mullonglong_PARM_2 + 7),(___ckd_mul_int_PARM_3 + 7)
      00026B 85*6C 82         [24]  564 	mov	dpl,___ckd_mul_int_PARM_2
      00026E 85*6D 83         [24]  565 	mov	dph,(___ckd_mul_int_PARM_2 + 1)
      000271 85*6E F0         [24]  566 	mov	b,(___ckd_mul_int_PARM_2 + 2)
      000274 E5*6F            [12]  567 	mov	a,(___ckd_mul_int_PARM_2 + 3)
      000276 AC*70            [24]  568 	mov	r4,(___ckd_mul_int_PARM_2 + 4)
      000278 AD*71            [24]  569 	mov	r5,(___ckd_mul_int_PARM_2 + 5)
      00027A AE*72            [24]  570 	mov	r6,(___ckd_mul_int_PARM_2 + 6)
      00027C AF*73            [24]  571 	mov	r7,(___ckd_mul_int_PARM_2 + 7)
      00027E 12r00r00         [24]  572 	lcall	__mullonglong
      000281 85 82*7F         [24]  573 	mov	___ckd_mul_int_result_65536_50,dpl
      000284 85 83*80         [24]  574 	mov	(___ckd_mul_int_result_65536_50 + 1),dph
      000287 85 F0*81         [24]  575 	mov	(___ckd_mul_int_result_65536_50 + 2),b
      00028A F5*82            [12]  576 	mov	(___ckd_mul_int_result_65536_50 + 3),a
      00028C 8C*83            [24]  577 	mov	(___ckd_mul_int_result_65536_50 + 4),r4
      00028E 8D*84            [24]  578 	mov	(___ckd_mul_int_result_65536_50 + 5),r5
      000290 8E*85            [24]  579 	mov	(___ckd_mul_int_result_65536_50 + 6),r6
      000292 8F*86            [24]  580 	mov	(___ckd_mul_int_result_65536_50 + 7),r7
      000294 A9*7F            [24]  581 	mov	r1,___ckd_mul_int_result_65536_50
      000296 AF*80            [24]  582 	mov	r7,(___ckd_mul_int_result_65536_50 + 1)
      000298 85*7C 82         [24]  583 	mov	dpl,___ckd_mul_int_r_65536_49
      00029B 85*7D 83         [24]  584 	mov	dph,(___ckd_mul_int_r_65536_49 + 1)
      00029E 85*7E F0         [24]  585 	mov	b,(___ckd_mul_int_r_65536_49 + 2)
      0002A1 E9               [12]  586 	mov	a,r1
      0002A2 12r00r00         [24]  587 	lcall	__gptrput
      0002A5 A3               [24]  588 	inc	dptr
      0002A6 EF               [12]  589 	mov	a,r7
      0002A7 12r00r00         [24]  590 	lcall	__gptrput
      0002AA F8               [12]  591 	mov	r0,a
      0002AB 33               [12]  592 	rlc	a
      0002AC 95 E0            [12]  593 	subb	a,acc
      0002AE FA               [12]  594 	mov	r2,a
      0002AF FB               [12]  595 	mov	r3,a
      0002B0 FC               [12]  596 	mov	r4,a
      0002B1 FD               [12]  597 	mov	r5,a
      0002B2 FE               [12]  598 	mov	r6,a
      0002B3 FF               [12]  599 	mov	r7,a
      0002B4 E9               [12]  600 	mov	a,r1
      0002B5 B5*7F 1F         [24]  601 	cjne	a,___ckd_mul_int_result_65536_50,00103$
      0002B8 E8               [12]  602 	mov	a,r0
      0002B9 B5*80 1B         [24]  603 	cjne	a,(___ckd_mul_int_result_65536_50 + 1),00103$
      0002BC EA               [12]  604 	mov	a,r2
      0002BD B5*81 17         [24]  605 	cjne	a,(___ckd_mul_int_result_65536_50 + 2),00103$
      0002C0 EB               [12]  606 	mov	a,r3
      0002C1 B5*82 13         [24]  607 	cjne	a,(___ckd_mul_int_result_65536_50 + 3),00103$
      0002C4 EC               [12]  608 	mov	a,r4
      0002C5 B5*83 0F         [24]  609 	cjne	a,(___ckd_mul_int_result_65536_50 + 4),00103$
      0002C8 ED               [12]  610 	mov	a,r5
      0002C9 B5*84 0B         [24]  611 	cjne	a,(___ckd_mul_int_result_65536_50 + 5),00103$
      0002CC EE               [12]  612 	mov	a,r6
      0002CD B5*85 07         [24]  613 	cjne	a,(___ckd_mul_int_result_65536_50 + 6),00103$
      0002D0 EF               [12]  614 	mov	a,r7
      0002D1 B5*86 03         [24]  615 	cjne	a,(___ckd_mul_int_result_65536_50 + 7),00103$
      0002D4 D3               [12]  616 	setb	c
      0002D5 80 01            [24]  617 	sjmp	00104$
      0002D7                        618 00103$:
      0002D7 C3               [12]  619 	clr	c
      0002D8                        620 00104$:
      0002D8 92*04            [24]  621 	mov  ___ckd_mul_int_sloc0_1_0,c
      0002DA B3               [12]  622 	cpl	c
      0002DB E4               [12]  623 	clr	a
      0002DC 33               [12]  624 	rlc	a
      0002DD F5 82            [12]  625 	mov	dpl,a
      0002DF 22               [24]  626 	ret
                                    627 ;------------------------------------------------------------
                                    628 ;Allocation info for local variables in function '__ckd_mul_uint'
                                    629 ;------------------------------------------------------------
                                    630 ;a                         Allocated with name '___ckd_mul_uint_PARM_2'
                                    631 ;b                         Allocated with name '___ckd_mul_uint_PARM_3'
                                    632 ;r                         Allocated with name '___ckd_mul_uint_r_65536_51'
                                    633 ;result                    Allocated with name '___ckd_mul_uint_result_65536_52'
                                    634 ;------------------------------------------------------------
                                    635 ;	../../device/include/stdckdint.h:74: inline _Bool __ckd_mul_uint __CKD_DEFAULT_IMPL(unsigned int, *)
                                    636 ;	-----------------------------------------
                                    637 ;	 function __ckd_mul_uint
                                    638 ;	-----------------------------------------
      0002E0                        639 ___ckd_mul_uint:
      0002E0 85 82*97         [24]  640 	mov	___ckd_mul_uint_r_65536_51,dpl
      0002E3 85 83*98         [24]  641 	mov	(___ckd_mul_uint_r_65536_51 + 1),dph
      0002E6 85 F0*99         [24]  642 	mov	(___ckd_mul_uint_r_65536_51 + 2),b
      0002E9 85*8F*00         [24]  643 	mov	__mullonglong_PARM_2,___ckd_mul_uint_PARM_3
      0002EC 85*90*01         [24]  644 	mov	(__mullonglong_PARM_2 + 1),(___ckd_mul_uint_PARM_3 + 1)
      0002EF 85*91*02         [24]  645 	mov	(__mullonglong_PARM_2 + 2),(___ckd_mul_uint_PARM_3 + 2)
      0002F2 85*92*03         [24]  646 	mov	(__mullonglong_PARM_2 + 3),(___ckd_mul_uint_PARM_3 + 3)
      0002F5 85*93*04         [24]  647 	mov	(__mullonglong_PARM_2 + 4),(___ckd_mul_uint_PARM_3 + 4)
      0002F8 85*94*05         [24]  648 	mov	(__mullonglong_PARM_2 + 5),(___ckd_mul_uint_PARM_3 + 5)
      0002FB 85*95*06         [24]  649 	mov	(__mullonglong_PARM_2 + 6),(___ckd_mul_uint_PARM_3 + 6)
      0002FE 85*96*07         [24]  650 	mov	(__mullonglong_PARM_2 + 7),(___ckd_mul_uint_PARM_3 + 7)
      000301 85*87 82         [24]  651 	mov	dpl,___ckd_mul_uint_PARM_2
      000304 85*88 83         [24]  652 	mov	dph,(___ckd_mul_uint_PARM_2 + 1)
      000307 85*89 F0         [24]  653 	mov	b,(___ckd_mul_uint_PARM_2 + 2)
      00030A E5*8A            [12]  654 	mov	a,(___ckd_mul_uint_PARM_2 + 3)
      00030C AC*8B            [24]  655 	mov	r4,(___ckd_mul_uint_PARM_2 + 4)
      00030E AD*8C            [24]  656 	mov	r5,(___ckd_mul_uint_PARM_2 + 5)
      000310 AE*8D            [24]  657 	mov	r6,(___ckd_mul_uint_PARM_2 + 6)
      000312 AF*8E            [24]  658 	mov	r7,(___ckd_mul_uint_PARM_2 + 7)
      000314 12r00r00         [24]  659 	lcall	__mullonglong
      000317 85 82*9A         [24]  660 	mov	___ckd_mul_uint_result_65536_52,dpl
      00031A 85 83*9B         [24]  661 	mov	(___ckd_mul_uint_result_65536_52 + 1),dph
      00031D 85 F0*9C         [24]  662 	mov	(___ckd_mul_uint_result_65536_52 + 2),b
      000320 F5*9D            [12]  663 	mov	(___ckd_mul_uint_result_65536_52 + 3),a
      000322 8C*9E            [24]  664 	mov	(___ckd_mul_uint_result_65536_52 + 4),r4
      000324 8D*9F            [24]  665 	mov	(___ckd_mul_uint_result_65536_52 + 5),r5
      000326 8E*A0            [24]  666 	mov	(___ckd_mul_uint_result_65536_52 + 6),r6
      000328 8F*A1            [24]  667 	mov	(___ckd_mul_uint_result_65536_52 + 7),r7
      00032A A9*9A            [24]  668 	mov	r1,___ckd_mul_uint_result_65536_52
      00032C AF*9B            [24]  669 	mov	r7,(___ckd_mul_uint_result_65536_52 + 1)
      00032E 85*97 82         [24]  670 	mov	dpl,___ckd_mul_uint_r_65536_51
      000331 85*98 83         [24]  671 	mov	dph,(___ckd_mul_uint_r_65536_51 + 1)
      000334 85*99 F0         [24]  672 	mov	b,(___ckd_mul_uint_r_65536_51 + 2)
      000337 E9               [12]  673 	mov	a,r1
      000338 12r00r00         [24]  674 	lcall	__gptrput
      00033B A3               [24]  675 	inc	dptr
      00033C EF               [12]  676 	mov	a,r7
      00033D 12r00r00         [24]  677 	lcall	__gptrput
      000340 8F 00            [24]  678 	mov	ar0,r7
      000342 E4               [12]  679 	clr	a
      000343 FA               [12]  680 	mov	r2,a
      000344 FB               [12]  681 	mov	r3,a
      000345 FC               [12]  682 	mov	r4,a
      000346 FD               [12]  683 	mov	r5,a
      000347 FE               [12]  684 	mov	r6,a
      000348 FF               [12]  685 	mov	r7,a
      000349 E9               [12]  686 	mov	a,r1
      00034A B5*9A 1F         [24]  687 	cjne	a,___ckd_mul_uint_result_65536_52,00103$
      00034D E8               [12]  688 	mov	a,r0
      00034E B5*9B 1B         [24]  689 	cjne	a,(___ckd_mul_uint_result_65536_52 + 1),00103$
      000351 EA               [12]  690 	mov	a,r2
      000352 B5*9C 17         [24]  691 	cjne	a,(___ckd_mul_uint_result_65536_52 + 2),00103$
      000355 EB               [12]  692 	mov	a,r3
      000356 B5*9D 13         [24]  693 	cjne	a,(___ckd_mul_uint_result_65536_52 + 3),00103$
      000359 EC               [12]  694 	mov	a,r4
      00035A B5*9E 0F         [24]  695 	cjne	a,(___ckd_mul_uint_result_65536_52 + 4),00103$
      00035D ED               [12]  696 	mov	a,r5
      00035E B5*9F 0B         [24]  697 	cjne	a,(___ckd_mul_uint_result_65536_52 + 5),00103$
      000361 EE               [12]  698 	mov	a,r6
      000362 B5*A0 07         [24]  699 	cjne	a,(___ckd_mul_uint_result_65536_52 + 6),00103$
      000365 EF               [12]  700 	mov	a,r7
      000366 B5*A1 03         [24]  701 	cjne	a,(___ckd_mul_uint_result_65536_52 + 7),00103$
      000369 D3               [12]  702 	setb	c
      00036A 80 01            [24]  703 	sjmp	00104$
      00036C                        704 00103$:
      00036C C3               [12]  705 	clr	c
      00036D                        706 00104$:
      00036D 92*05            [24]  707 	mov  ___ckd_mul_uint_sloc0_1_0,c
      00036F B3               [12]  708 	cpl	c
      000370 E4               [12]  709 	clr	a
      000371 33               [12]  710 	rlc	a
      000372 F5 82            [12]  711 	mov	dpl,a
      000374 22               [24]  712 	ret
                                    713 ;------------------------------------------------------------
                                    714 ;Allocation info for local variables in function '__ckd_mul_long'
                                    715 ;------------------------------------------------------------
                                    716 ;a                         Allocated with name '___ckd_mul_long_PARM_2'
                                    717 ;b                         Allocated with name '___ckd_mul_long_PARM_3'
                                    718 ;r                         Allocated with name '___ckd_mul_long_r_65536_53'
                                    719 ;result                    Allocated with name '___ckd_mul_long_result_65536_54'
                                    720 ;------------------------------------------------------------
                                    721 ;	../../device/include/stdckdint.h:75: inline _Bool __ckd_mul_long __CKD_DEFAULT_IMPL(long, *)
                                    722 ;	-----------------------------------------
                                    723 ;	 function __ckd_mul_long
                                    724 ;	-----------------------------------------
      000375                        725 ___ckd_mul_long:
      000375 85 82*B2         [24]  726 	mov	___ckd_mul_long_r_65536_53,dpl
      000378 85 83*B3         [24]  727 	mov	(___ckd_mul_long_r_65536_53 + 1),dph
      00037B 85 F0*B4         [24]  728 	mov	(___ckd_mul_long_r_65536_53 + 2),b
      00037E 85*AA*00         [24]  729 	mov	__mullonglong_PARM_2,___ckd_mul_long_PARM_3
      000381 85*AB*01         [24]  730 	mov	(__mullonglong_PARM_2 + 1),(___ckd_mul_long_PARM_3 + 1)
      000384 85*AC*02         [24]  731 	mov	(__mullonglong_PARM_2 + 2),(___ckd_mul_long_PARM_3 + 2)
      000387 85*AD*03         [24]  732 	mov	(__mullonglong_PARM_2 + 3),(___ckd_mul_long_PARM_3 + 3)
      00038A 85*AE*04         [24]  733 	mov	(__mullonglong_PARM_2 + 4),(___ckd_mul_long_PARM_3 + 4)
      00038D 85*AF*05         [24]  734 	mov	(__mullonglong_PARM_2 + 5),(___ckd_mul_long_PARM_3 + 5)
      000390 85*B0*06         [24]  735 	mov	(__mullonglong_PARM_2 + 6),(___ckd_mul_long_PARM_3 + 6)
      000393 85*B1*07         [24]  736 	mov	(__mullonglong_PARM_2 + 7),(___ckd_mul_long_PARM_3 + 7)
      000396 85*A2 82         [24]  737 	mov	dpl,___ckd_mul_long_PARM_2
      000399 85*A3 83         [24]  738 	mov	dph,(___ckd_mul_long_PARM_2 + 1)
      00039C 85*A4 F0         [24]  739 	mov	b,(___ckd_mul_long_PARM_2 + 2)
      00039F E5*A5            [12]  740 	mov	a,(___ckd_mul_long_PARM_2 + 3)
      0003A1 AC*A6            [24]  741 	mov	r4,(___ckd_mul_long_PARM_2 + 4)
      0003A3 AD*A7            [24]  742 	mov	r5,(___ckd_mul_long_PARM_2 + 5)
      0003A5 AE*A8            [24]  743 	mov	r6,(___ckd_mul_long_PARM_2 + 6)
      0003A7 AF*A9            [24]  744 	mov	r7,(___ckd_mul_long_PARM_2 + 7)
      0003A9 12r00r00         [24]  745 	lcall	__mullonglong
      0003AC 85 82*B5         [24]  746 	mov	___ckd_mul_long_result_65536_54,dpl
      0003AF 85 83*B6         [24]  747 	mov	(___ckd_mul_long_result_65536_54 + 1),dph
      0003B2 85 F0*B7         [24]  748 	mov	(___ckd_mul_long_result_65536_54 + 2),b
      0003B5 F5*B8            [12]  749 	mov	(___ckd_mul_long_result_65536_54 + 3),a
      0003B7 8C*B9            [24]  750 	mov	(___ckd_mul_long_result_65536_54 + 4),r4
      0003B9 8D*BA            [24]  751 	mov	(___ckd_mul_long_result_65536_54 + 5),r5
      0003BB 8E*BB            [24]  752 	mov	(___ckd_mul_long_result_65536_54 + 6),r6
      0003BD 8F*BC            [24]  753 	mov	(___ckd_mul_long_result_65536_54 + 7),r7
      0003BF A9*B5            [24]  754 	mov	r1,___ckd_mul_long_result_65536_54
      0003C1 AA*B6            [24]  755 	mov	r2,(___ckd_mul_long_result_65536_54 + 1)
      0003C3 AB*B7            [24]  756 	mov	r3,(___ckd_mul_long_result_65536_54 + 2)
      0003C5 AF*B8            [24]  757 	mov	r7,(___ckd_mul_long_result_65536_54 + 3)
      0003C7 85*B2 82         [24]  758 	mov	dpl,___ckd_mul_long_r_65536_53
      0003CA 85*B3 83         [24]  759 	mov	dph,(___ckd_mul_long_r_65536_53 + 1)
      0003CD 85*B4 F0         [24]  760 	mov	b,(___ckd_mul_long_r_65536_53 + 2)
      0003D0 E9               [12]  761 	mov	a,r1
      0003D1 12r00r00         [24]  762 	lcall	__gptrput
      0003D4 A3               [24]  763 	inc	dptr
      0003D5 EA               [12]  764 	mov	a,r2
      0003D6 12r00r00         [24]  765 	lcall	__gptrput
      0003D9 A3               [24]  766 	inc	dptr
      0003DA EB               [12]  767 	mov	a,r3
      0003DB 12r00r00         [24]  768 	lcall	__gptrput
      0003DE A3               [24]  769 	inc	dptr
      0003DF EF               [12]  770 	mov	a,r7
      0003E0 12r00r00         [24]  771 	lcall	__gptrput
      0003E3 F8               [12]  772 	mov	r0,a
      0003E4 33               [12]  773 	rlc	a
      0003E5 95 E0            [12]  774 	subb	a,acc
      0003E7 FC               [12]  775 	mov	r4,a
      0003E8 FD               [12]  776 	mov	r5,a
      0003E9 FE               [12]  777 	mov	r6,a
      0003EA FF               [12]  778 	mov	r7,a
      0003EB E9               [12]  779 	mov	a,r1
      0003EC B5*B5 1F         [24]  780 	cjne	a,___ckd_mul_long_result_65536_54,00103$
      0003EF EA               [12]  781 	mov	a,r2
      0003F0 B5*B6 1B         [24]  782 	cjne	a,(___ckd_mul_long_result_65536_54 + 1),00103$
      0003F3 EB               [12]  783 	mov	a,r3
      0003F4 B5*B7 17         [24]  784 	cjne	a,(___ckd_mul_long_result_65536_54 + 2),00103$
      0003F7 E8               [12]  785 	mov	a,r0
      0003F8 B5*B8 13         [24]  786 	cjne	a,(___ckd_mul_long_result_65536_54 + 3),00103$
      0003FB EC               [12]  787 	mov	a,r4
      0003FC B5*B9 0F         [24]  788 	cjne	a,(___ckd_mul_long_result_65536_54 + 4),00103$
      0003FF ED               [12]  789 	mov	a,r5
      000400 B5*BA 0B         [24]  790 	cjne	a,(___ckd_mul_long_result_65536_54 + 5),00103$
      000403 EE               [12]  791 	mov	a,r6
      000404 B5*BB 07         [24]  792 	cjne	a,(___ckd_mul_long_result_65536_54 + 6),00103$
      000407 EF               [12]  793 	mov	a,r7
      000408 B5*BC 03         [24]  794 	cjne	a,(___ckd_mul_long_result_65536_54 + 7),00103$
      00040B D3               [12]  795 	setb	c
      00040C 80 01            [24]  796 	sjmp	00104$
      00040E                        797 00103$:
      00040E C3               [12]  798 	clr	c
      00040F                        799 00104$:
      00040F 92*06            [24]  800 	mov  ___ckd_mul_long_sloc0_1_0,c
      000411 B3               [12]  801 	cpl	c
      000412 E4               [12]  802 	clr	a
      000413 33               [12]  803 	rlc	a
      000414 F5 82            [12]  804 	mov	dpl,a
      000416 22               [24]  805 	ret
                                    806 ;------------------------------------------------------------
                                    807 ;Allocation info for local variables in function '__ckd_mul_ulong'
                                    808 ;------------------------------------------------------------
                                    809 ;a                         Allocated with name '___ckd_mul_ulong_PARM_2'
                                    810 ;b                         Allocated with name '___ckd_mul_ulong_PARM_3'
                                    811 ;r                         Allocated with name '___ckd_mul_ulong_r_65536_55'
                                    812 ;result                    Allocated with name '___ckd_mul_ulong_result_65536_56'
                                    813 ;------------------------------------------------------------
                                    814 ;	../../device/include/stdckdint.h:76: inline _Bool __ckd_mul_ulong __CKD_DEFAULT_IMPL(unsigned long, *)
                                    815 ;	-----------------------------------------
                                    816 ;	 function __ckd_mul_ulong
                                    817 ;	-----------------------------------------
      000417                        818 ___ckd_mul_ulong:
      000417 85 82*CD         [24]  819 	mov	___ckd_mul_ulong_r_65536_55,dpl
      00041A 85 83*CE         [24]  820 	mov	(___ckd_mul_ulong_r_65536_55 + 1),dph
      00041D 85 F0*CF         [24]  821 	mov	(___ckd_mul_ulong_r_65536_55 + 2),b
      000420 85*C5*00         [24]  822 	mov	__mullonglong_PARM_2,___ckd_mul_ulong_PARM_3
      000423 85*C6*01         [24]  823 	mov	(__mullonglong_PARM_2 + 1),(___ckd_mul_ulong_PARM_3 + 1)
      000426 85*C7*02         [24]  824 	mov	(__mullonglong_PARM_2 + 2),(___ckd_mul_ulong_PARM_3 + 2)
      000429 85*C8*03         [24]  825 	mov	(__mullonglong_PARM_2 + 3),(___ckd_mul_ulong_PARM_3 + 3)
      00042C 85*C9*04         [24]  826 	mov	(__mullonglong_PARM_2 + 4),(___ckd_mul_ulong_PARM_3 + 4)
      00042F 85*CA*05         [24]  827 	mov	(__mullonglong_PARM_2 + 5),(___ckd_mul_ulong_PARM_3 + 5)
      000432 85*CB*06         [24]  828 	mov	(__mullonglong_PARM_2 + 6),(___ckd_mul_ulong_PARM_3 + 6)
      000435 85*CC*07         [24]  829 	mov	(__mullonglong_PARM_2 + 7),(___ckd_mul_ulong_PARM_3 + 7)
      000438 85*BD 82         [24]  830 	mov	dpl,___ckd_mul_ulong_PARM_2
      00043B 85*BE 83         [24]  831 	mov	dph,(___ckd_mul_ulong_PARM_2 + 1)
      00043E 85*BF F0         [24]  832 	mov	b,(___ckd_mul_ulong_PARM_2 + 2)
      000441 E5*C0            [12]  833 	mov	a,(___ckd_mul_ulong_PARM_2 + 3)
      000443 AC*C1            [24]  834 	mov	r4,(___ckd_mul_ulong_PARM_2 + 4)
      000445 AD*C2            [24]  835 	mov	r5,(___ckd_mul_ulong_PARM_2 + 5)
      000447 AE*C3            [24]  836 	mov	r6,(___ckd_mul_ulong_PARM_2 + 6)
      000449 AF*C4            [24]  837 	mov	r7,(___ckd_mul_ulong_PARM_2 + 7)
      00044B 12r00r00         [24]  838 	lcall	__mullonglong
      00044E 85 82*D0         [24]  839 	mov	___ckd_mul_ulong_result_65536_56,dpl
      000451 85 83*D1         [24]  840 	mov	(___ckd_mul_ulong_result_65536_56 + 1),dph
      000454 85 F0*D2         [24]  841 	mov	(___ckd_mul_ulong_result_65536_56 + 2),b
      000457 F5*D3            [12]  842 	mov	(___ckd_mul_ulong_result_65536_56 + 3),a
      000459 8C*D4            [24]  843 	mov	(___ckd_mul_ulong_result_65536_56 + 4),r4
      00045B 8D*D5            [24]  844 	mov	(___ckd_mul_ulong_result_65536_56 + 5),r5
      00045D 8E*D6            [24]  845 	mov	(___ckd_mul_ulong_result_65536_56 + 6),r6
      00045F 8F*D7            [24]  846 	mov	(___ckd_mul_ulong_result_65536_56 + 7),r7
      000461 A9*D0            [24]  847 	mov	r1,___ckd_mul_ulong_result_65536_56
      000463 AA*D1            [24]  848 	mov	r2,(___ckd_mul_ulong_result_65536_56 + 1)
      000465 AB*D2            [24]  849 	mov	r3,(___ckd_mul_ulong_result_65536_56 + 2)
      000467 AF*D3            [24]  850 	mov	r7,(___ckd_mul_ulong_result_65536_56 + 3)
      000469 85*CD 82         [24]  851 	mov	dpl,___ckd_mul_ulong_r_65536_55
      00046C 85*CE 83         [24]  852 	mov	dph,(___ckd_mul_ulong_r_65536_55 + 1)
      00046F 85*CF F0         [24]  853 	mov	b,(___ckd_mul_ulong_r_65536_55 + 2)
      000472 E9               [12]  854 	mov	a,r1
      000473 12r00r00         [24]  855 	lcall	__gptrput
      000476 A3               [24]  856 	inc	dptr
      000477 EA               [12]  857 	mov	a,r2
      000478 12r00r00         [24]  858 	lcall	__gptrput
      00047B A3               [24]  859 	inc	dptr
      00047C EB               [12]  860 	mov	a,r3
      00047D 12r00r00         [24]  861 	lcall	__gptrput
      000480 A3               [24]  862 	inc	dptr
      000481 EF               [12]  863 	mov	a,r7
      000482 12r00r00         [24]  864 	lcall	__gptrput
      000485 8F 00            [24]  865 	mov	ar0,r7
      000487 E4               [12]  866 	clr	a
      000488 FC               [12]  867 	mov	r4,a
      000489 FD               [12]  868 	mov	r5,a
      00048A FE               [12]  869 	mov	r6,a
      00048B FF               [12]  870 	mov	r7,a
      00048C E9               [12]  871 	mov	a,r1
      00048D B5*D0 1F         [24]  872 	cjne	a,___ckd_mul_ulong_result_65536_56,00103$
      000490 EA               [12]  873 	mov	a,r2
      000491 B5*D1 1B         [24]  874 	cjne	a,(___ckd_mul_ulong_result_65536_56 + 1),00103$
      000494 EB               [12]  875 	mov	a,r3
      000495 B5*D2 17         [24]  876 	cjne	a,(___ckd_mul_ulong_result_65536_56 + 2),00103$
      000498 E8               [12]  877 	mov	a,r0
      000499 B5*D3 13         [24]  878 	cjne	a,(___ckd_mul_ulong_result_65536_56 + 3),00103$
      00049C EC               [12]  879 	mov	a,r4
      00049D B5*D4 0F         [24]  880 	cjne	a,(___ckd_mul_ulong_result_65536_56 + 4),00103$
      0004A0 ED               [12]  881 	mov	a,r5
      0004A1 B5*D5 0B         [24]  882 	cjne	a,(___ckd_mul_ulong_result_65536_56 + 5),00103$
      0004A4 EE               [12]  883 	mov	a,r6
      0004A5 B5*D6 07         [24]  884 	cjne	a,(___ckd_mul_ulong_result_65536_56 + 6),00103$
      0004A8 EF               [12]  885 	mov	a,r7
      0004A9 B5*D7 03         [24]  886 	cjne	a,(___ckd_mul_ulong_result_65536_56 + 7),00103$
      0004AC D3               [12]  887 	setb	c
      0004AD 80 01            [24]  888 	sjmp	00104$
      0004AF                        889 00103$:
      0004AF C3               [12]  890 	clr	c
      0004B0                        891 00104$:
      0004B0 92*07            [24]  892 	mov  ___ckd_mul_ulong_sloc0_1_0,c
      0004B2 B3               [12]  893 	cpl	c
      0004B3 E4               [12]  894 	clr	a
      0004B4 33               [12]  895 	rlc	a
      0004B5 F5 82            [12]  896 	mov	dpl,a
      0004B7 22               [24]  897 	ret
                                    898 	.area CSEG    (CODE)
                                    899 	.area CONST   (CODE)
                                    900 	.area XINIT   (CODE)
                                    901 	.area CABS    (ABS,CODE)
