                                      1 ;--------------------------------------------------------
                                      2 ; File Created by SDCC : free open source ISO C Compiler 
                                      3 ; Version 4.2.14 #0 (Linux)
                                      4 ;--------------------------------------------------------
                                      5 	.module _rrslonglong
                                      6 	.optsdcc -mmcs51 --model-medium
                                      7 	
                                      8 ;--------------------------------------------------------
                                      9 ; Public variables in this module
                                     10 ;--------------------------------------------------------
                                     11 	.globl __rrslonglong_PARM_2
                                     12 	.globl __rrslonglong
                                     13 ;--------------------------------------------------------
                                     14 ; special function registers
                                     15 ;--------------------------------------------------------
                                     16 	.area RSEG    (ABS,DATA)
      000000                         17 	.org 0x0000
                                     18 ;--------------------------------------------------------
                                     19 ; special function bits
                                     20 ;--------------------------------------------------------
                                     21 	.area RSEG    (ABS,DATA)
      000000                         22 	.org 0x0000
                                     23 ;--------------------------------------------------------
                                     24 ; overlayable register banks
                                     25 ;--------------------------------------------------------
                                     26 	.area REG_BANK_0	(REL,OVR,DATA)
      000000                         27 	.ds 8
                                     28 ;--------------------------------------------------------
                                     29 ; internal ram data
                                     30 ;--------------------------------------------------------
                                     31 	.area DSEG    (DATA)
                                     32 ;--------------------------------------------------------
                                     33 ; overlayable items in internal ram
                                     34 ;--------------------------------------------------------
                                     35 	.area	OSEG    (OVR,DATA)
      000000                         36 __rrslonglong_sloc0_1_0:
      000000                         37 	.ds 4
                                     38 ;--------------------------------------------------------
                                     39 ; indirectly addressable internal ram data
                                     40 ;--------------------------------------------------------
                                     41 	.area ISEG    (DATA)
                                     42 ;--------------------------------------------------------
                                     43 ; absolute internal ram data
                                     44 ;--------------------------------------------------------
                                     45 	.area IABS    (ABS,DATA)
                                     46 	.area IABS    (ABS,DATA)
                                     47 ;--------------------------------------------------------
                                     48 ; bit data
                                     49 ;--------------------------------------------------------
                                     50 	.area BSEG    (BIT)
                                     51 ;--------------------------------------------------------
                                     52 ; paged external ram data
                                     53 ;--------------------------------------------------------
                                     54 	.area PSEG    (PAG,XDATA)
      000000                         55 __rrslonglong_PARM_2:
      000000                         56 	.ds 1
      000001                         57 __rrslonglong_l_65536_1:
      000001                         58 	.ds 8
                                     59 ;--------------------------------------------------------
                                     60 ; uninitialized external ram data
                                     61 ;--------------------------------------------------------
                                     62 	.area XSEG    (XDATA)
                                     63 ;--------------------------------------------------------
                                     64 ; absolute external ram data
                                     65 ;--------------------------------------------------------
                                     66 	.area XABS    (ABS,XDATA)
                                     67 ;--------------------------------------------------------
                                     68 ; initialized external ram data
                                     69 ;--------------------------------------------------------
                                     70 	.area XISEG   (XDATA)
                                     71 	.area HOME    (CODE)
                                     72 	.area GSINIT0 (CODE)
                                     73 	.area GSINIT1 (CODE)
                                     74 	.area GSINIT2 (CODE)
                                     75 	.area GSINIT3 (CODE)
                                     76 	.area GSINIT4 (CODE)
                                     77 	.area GSINIT5 (CODE)
                                     78 	.area GSINIT  (CODE)
                                     79 	.area GSFINAL (CODE)
                                     80 	.area CSEG    (CODE)
                                     81 ;--------------------------------------------------------
                                     82 ; global & static initialisations
                                     83 ;--------------------------------------------------------
                                     84 	.area HOME    (CODE)
                                     85 	.area GSINIT  (CODE)
                                     86 	.area GSFINAL (CODE)
                                     87 	.area GSINIT  (CODE)
                                     88 ;--------------------------------------------------------
                                     89 ; Home
                                     90 ;--------------------------------------------------------
                                     91 	.area HOME    (CODE)
                                     92 	.area HOME    (CODE)
                                     93 ;--------------------------------------------------------
                                     94 ; code
                                     95 ;--------------------------------------------------------
                                     96 	.area CSEG    (CODE)
                                     97 ;------------------------------------------------------------
                                     98 ;Allocation info for local variables in function '_rrslonglong'
                                     99 ;------------------------------------------------------------
                                    100 ;sloc0                     Allocated with name '__rrslonglong_sloc0_1_0'
                                    101 ;------------------------------------------------------------
                                    102 ;	_rrslonglong.c:41: long long _rrslonglong(long long l, char s) __SDCC_NONBANKED
                                    103 ;	-----------------------------------------
                                    104 ;	 function _rrslonglong
                                    105 ;	-----------------------------------------
      000000                        106 __rrslonglong:
                           000007   107 	ar7 = 0x07
                           000006   108 	ar6 = 0x06
                           000005   109 	ar5 = 0x05
                           000004   110 	ar4 = 0x04
                           000003   111 	ar3 = 0x03
                           000002   112 	ar2 = 0x02
                           000001   113 	ar1 = 0x01
                           000000   114 	ar0 = 0x00
      000000 C0 07            [24]  115 	push	ar7
      000002 C0 06            [24]  116 	push	ar6
      000004 C0 05            [24]  117 	push	ar5
      000006 C0 04            [24]  118 	push	ar4
      000008 C0 E0            [24]  119 	push	acc
      00000A C0 F0            [24]  120 	push	b
      00000C C0 83            [24]  121 	push	dph
      00000E C0 82            [24]  122 	push	dpl
      000010 78r01            [12]  123 	mov	r0,#__rrslonglong_l_65536_1
      000012 D0 E0            [24]  124 	pop	acc
      000014 F2               [24]  125 	movx	@r0,a
      000015 D0 E0            [24]  126 	pop	acc
      000017 08               [12]  127 	inc	r0
      000018 F2               [24]  128 	movx	@r0,a
      000019 D0 E0            [24]  129 	pop	acc
      00001B 08               [12]  130 	inc	r0
      00001C F2               [24]  131 	movx	@r0,a
      00001D D0 E0            [24]  132 	pop	acc
      00001F 08               [12]  133 	inc	r0
      000020 F2               [24]  134 	movx	@r0,a
      000021 D0 E0            [24]  135 	pop	acc
      000023 08               [12]  136 	inc	r0
      000024 F2               [24]  137 	movx	@r0,a
      000025 D0 E0            [24]  138 	pop	acc
      000027 08               [12]  139 	inc	r0
      000028 F2               [24]  140 	movx	@r0,a
      000029 D0 E0            [24]  141 	pop	acc
      00002B 08               [12]  142 	inc	r0
      00002C F2               [24]  143 	movx	@r0,a
      00002D D0 E0            [24]  144 	pop	acc
      00002F 08               [12]  145 	inc	r0
      000030 F2               [24]  146 	movx	@r0,a
                                    147 ;	_rrslonglong.c:43: int32_t *top = (uint32_t *)((char *)(&l) + 0);
                                    148 ;	_rrslonglong.c:44: uint32_t *middle = (uint16_t *)((char *)(&l) + 2);
                                    149 ;	_rrslonglong.c:45: uint32_t *bottom = (uint32_t *)((char *)(&l) + 4);
                                    150 ;	_rrslonglong.c:46: uint16_t *b = (uint16_t *)(&l);
                                    151 ;	_rrslonglong.c:56: (*bottom) >>= s;
      000031                        152 00103$:
                                    153 ;	_rrslonglong.c:48: for(;s >= 16; s-= 16)
      000031 78r00            [12]  154 	mov	r0,#__rrslonglong_PARM_2
      000033 E2               [24]  155 	movx	a,@r0
      000034 B4 10 00         [24]  156 	cjne	a,#0x10,00121$
      000037                        157 00121$:
      000037 40 79            [24]  158 	jc	00101$
                                    159 ;	_rrslonglong.c:50: b[3] = b[2];
      000039 90r00r05         [24]  160 	mov	dptr,#(__rrslonglong_l_65536_1 + 0x0004)
      00003C 75 F0 60         [24]  161 	mov	b,#0x60
      00003F 12r00r00         [24]  162 	lcall	__gptrget
      000042 FE               [12]  163 	mov	r6,a
      000043 A3               [24]  164 	inc	dptr
      000044 12r00r00         [24]  165 	lcall	__gptrget
      000047 FF               [12]  166 	mov	r7,a
      000048 90r00r07         [24]  167 	mov	dptr,#(__rrslonglong_l_65536_1 + 0x0006)
      00004B EE               [12]  168 	mov	a,r6
      00004C 12r00r00         [24]  169 	lcall	__gptrput
      00004F A3               [24]  170 	inc	dptr
      000050 EF               [12]  171 	mov	a,r7
      000051 12r00r00         [24]  172 	lcall	__gptrput
                                    173 ;	_rrslonglong.c:51: b[2] = b[1];
      000054 90r00r03         [24]  174 	mov	dptr,#(__rrslonglong_l_65536_1 + 0x0002)
      000057 12r00r00         [24]  175 	lcall	__gptrget
      00005A FE               [12]  176 	mov	r6,a
      00005B A3               [24]  177 	inc	dptr
      00005C 12r00r00         [24]  178 	lcall	__gptrget
      00005F FF               [12]  179 	mov	r7,a
      000060 90r00r05         [24]  180 	mov	dptr,#(__rrslonglong_l_65536_1 + 0x0004)
      000063 EE               [12]  181 	mov	a,r6
      000064 12r00r00         [24]  182 	lcall	__gptrput
      000067 A3               [24]  183 	inc	dptr
      000068 EF               [12]  184 	mov	a,r7
      000069 12r00r00         [24]  185 	lcall	__gptrput
                                    186 ;	_rrslonglong.c:52: b[1] = b[0];
      00006C 78r01            [12]  187 	mov	r0,#__rrslonglong_l_65536_1
      00006E E2               [24]  188 	movx	a,@r0
      00006F FE               [12]  189 	mov	r6,a
      000070 08               [12]  190 	inc	r0
      000071 E2               [24]  191 	movx	a,@r0
      000072 FF               [12]  192 	mov	r7,a
      000073 90r00r03         [24]  193 	mov	dptr,#(__rrslonglong_l_65536_1 + 0x0002)
      000076 EE               [12]  194 	mov	a,r6
      000077 12r00r00         [24]  195 	lcall	__gptrput
      00007A A3               [24]  196 	inc	dptr
      00007B EF               [12]  197 	mov	a,r7
      00007C 12r00r00         [24]  198 	lcall	__gptrput
                                    199 ;	_rrslonglong.c:53: b[0] = (b[0] & 0x8000) ? 0xffff : 0x000000;
      00007F 7Dr01            [12]  200 	mov	r5,#__rrslonglong_l_65536_1
      000081 7Es00            [12]  201 	mov	r6,#(__rrslonglong_l_65536_1 >> 8)
      000083 7F 60            [12]  202 	mov	r7,#0x60
      000085 78r01            [12]  203 	mov	r0,#__rrslonglong_l_65536_1
      000087 E2               [24]  204 	movx	a,@r0
      000088 08               [12]  205 	inc	r0
      000089 E2               [24]  206 	movx	a,@r0
      00008A 30 E7 06         [24]  207 	jnb	acc.7,00107$
      00008D 7B FF            [12]  208 	mov	r3,#0xff
      00008F 7C FF            [12]  209 	mov	r4,#0xff
      000091 80 04            [24]  210 	sjmp	00108$
      000093                        211 00107$:
      000093 7B 00            [12]  212 	mov	r3,#0x00
      000095 7C 00            [12]  213 	mov	r4,#0x00
      000097                        214 00108$:
      000097 8D 82            [24]  215 	mov	dpl,r5
      000099 8E 83            [24]  216 	mov	dph,r6
      00009B 8F F0            [24]  217 	mov	b,r7
      00009D EB               [12]  218 	mov	a,r3
      00009E 12r00r00         [24]  219 	lcall	__gptrput
      0000A1 A3               [24]  220 	inc	dptr
      0000A2 EC               [12]  221 	mov	a,r4
      0000A3 12r00r00         [24]  222 	lcall	__gptrput
                                    223 ;	_rrslonglong.c:48: for(;s >= 16; s-= 16)
      0000A6 78r00            [12]  224 	mov	r0,#__rrslonglong_PARM_2
      0000A8 E2               [24]  225 	movx	a,@r0
      0000A9 FF               [12]  226 	mov	r7,a
      0000AA 78r00            [12]  227 	mov	r0,#__rrslonglong_PARM_2
      0000AC 24 F0            [12]  228 	add	a,#0xf0
      0000AE F2               [24]  229 	movx	@r0,a
      0000AF 02r00r31         [24]  230 	ljmp	00103$
      0000B2                        231 00101$:
                                    232 ;	_rrslonglong.c:56: (*bottom) >>= s;
      0000B2 90r00r05         [24]  233 	mov	dptr,#(__rrslonglong_l_65536_1 + 0x0004)
      0000B5 75 F0 60         [24]  234 	mov	b,#0x60
      0000B8 12r00r00         [24]  235 	lcall	__gptrget
      0000BB FC               [12]  236 	mov	r4,a
      0000BC A3               [24]  237 	inc	dptr
      0000BD 12r00r00         [24]  238 	lcall	__gptrget
      0000C0 FD               [12]  239 	mov	r5,a
      0000C1 A3               [24]  240 	inc	dptr
      0000C2 12r00r00         [24]  241 	lcall	__gptrget
      0000C5 FE               [12]  242 	mov	r6,a
      0000C6 A3               [24]  243 	inc	dptr
      0000C7 12r00r00         [24]  244 	lcall	__gptrget
      0000CA FF               [12]  245 	mov	r7,a
      0000CB 78r00            [12]  246 	mov	r0,#__rrslonglong_PARM_2
      0000CD E2               [24]  247 	movx	a,@r0
      0000CE F5 F0            [12]  248 	mov	b,a
      0000D0 05 F0            [12]  249 	inc	b
      0000D2 80 0D            [24]  250 	sjmp	00125$
      0000D4                        251 00124$:
      0000D4 C3               [12]  252 	clr	c
      0000D5 EF               [12]  253 	mov	a,r7
      0000D6 13               [12]  254 	rrc	a
      0000D7 FF               [12]  255 	mov	r7,a
      0000D8 EE               [12]  256 	mov	a,r6
      0000D9 13               [12]  257 	rrc	a
      0000DA FE               [12]  258 	mov	r6,a
      0000DB ED               [12]  259 	mov	a,r5
      0000DC 13               [12]  260 	rrc	a
      0000DD FD               [12]  261 	mov	r5,a
      0000DE EC               [12]  262 	mov	a,r4
      0000DF 13               [12]  263 	rrc	a
      0000E0 FC               [12]  264 	mov	r4,a
      0000E1                        265 00125$:
      0000E1 D5 F0 F0         [24]  266 	djnz	b,00124$
      0000E4 90r00r05         [24]  267 	mov	dptr,#(__rrslonglong_l_65536_1 + 0x0004)
      0000E7 75 F0 60         [24]  268 	mov	b,#0x60
      0000EA EC               [12]  269 	mov	a,r4
      0000EB 12r00r00         [24]  270 	lcall	__gptrput
      0000EE A3               [24]  271 	inc	dptr
      0000EF ED               [12]  272 	mov	a,r5
      0000F0 12r00r00         [24]  273 	lcall	__gptrput
      0000F3 A3               [24]  274 	inc	dptr
      0000F4 EE               [12]  275 	mov	a,r6
      0000F5 12r00r00         [24]  276 	lcall	__gptrput
      0000F8 A3               [24]  277 	inc	dptr
      0000F9 EF               [12]  278 	mov	a,r7
      0000FA 12r00r00         [24]  279 	lcall	__gptrput
                                    280 ;	_rrslonglong.c:57: (*middle) |= (((*middle & 0xffff0000ul) >> s) & 0x0000fffful);
      0000FD 90r00r03         [24]  281 	mov	dptr,#(__rrslonglong_l_65536_1 + 0x0002)
      000100 12r00r00         [24]  282 	lcall	__gptrget
      000103 F5*00            [12]  283 	mov	__rrslonglong_sloc0_1_0,a
      000105 A3               [24]  284 	inc	dptr
      000106 12r00r00         [24]  285 	lcall	__gptrget
      000109 F5*01            [12]  286 	mov	(__rrslonglong_sloc0_1_0 + 1),a
      00010B A3               [24]  287 	inc	dptr
      00010C 12r00r00         [24]  288 	lcall	__gptrget
      00010F F5*02            [12]  289 	mov	(__rrslonglong_sloc0_1_0 + 2),a
      000111 A3               [24]  290 	inc	dptr
      000112 12r00r00         [24]  291 	lcall	__gptrget
      000115 F5*03            [12]  292 	mov	(__rrslonglong_sloc0_1_0 + 3),a
      000117 7A 00            [12]  293 	mov	r2,#0x00
      000119 7B 00            [12]  294 	mov	r3,#0x00
      00011B AE*02            [24]  295 	mov	r6,(__rrslonglong_sloc0_1_0 + 2)
      00011D AF*03            [24]  296 	mov	r7,(__rrslonglong_sloc0_1_0 + 3)
      00011F 78r00            [12]  297 	mov	r0,#__rrslonglong_PARM_2
      000121 E2               [24]  298 	movx	a,@r0
      000122 F5 F0            [12]  299 	mov	b,a
      000124 05 F0            [12]  300 	inc	b
      000126 80 0D            [24]  301 	sjmp	00127$
      000128                        302 00126$:
      000128 C3               [12]  303 	clr	c
      000129 EF               [12]  304 	mov	a,r7
      00012A 13               [12]  305 	rrc	a
      00012B FF               [12]  306 	mov	r7,a
      00012C EE               [12]  307 	mov	a,r6
      00012D 13               [12]  308 	rrc	a
      00012E FE               [12]  309 	mov	r6,a
      00012F EB               [12]  310 	mov	a,r3
      000130 13               [12]  311 	rrc	a
      000131 FB               [12]  312 	mov	r3,a
      000132 EA               [12]  313 	mov	a,r2
      000133 13               [12]  314 	rrc	a
      000134 FA               [12]  315 	mov	r2,a
      000135                        316 00127$:
      000135 D5 F0 F0         [24]  317 	djnz	b,00126$
      000138 E4               [12]  318 	clr	a
      000139 FE               [12]  319 	mov	r6,a
      00013A FF               [12]  320 	mov	r7,a
      00013B E5*00            [12]  321 	mov	a,__rrslonglong_sloc0_1_0
      00013D 42 02            [12]  322 	orl	ar2,a
      00013F E5*01            [12]  323 	mov	a,(__rrslonglong_sloc0_1_0 + 1)
      000141 42 03            [12]  324 	orl	ar3,a
      000143 E5*02            [12]  325 	mov	a,(__rrslonglong_sloc0_1_0 + 2)
      000145 42 06            [12]  326 	orl	ar6,a
      000147 E5*03            [12]  327 	mov	a,(__rrslonglong_sloc0_1_0 + 3)
      000149 42 07            [12]  328 	orl	ar7,a
      00014B 90r00r03         [24]  329 	mov	dptr,#(__rrslonglong_l_65536_1 + 0x0002)
      00014E 75 F0 60         [24]  330 	mov	b,#0x60
      000151 EA               [12]  331 	mov	a,r2
      000152 12r00r00         [24]  332 	lcall	__gptrput
      000155 A3               [24]  333 	inc	dptr
      000156 EB               [12]  334 	mov	a,r3
      000157 12r00r00         [24]  335 	lcall	__gptrput
      00015A A3               [24]  336 	inc	dptr
      00015B EE               [12]  337 	mov	a,r6
      00015C 12r00r00         [24]  338 	lcall	__gptrput
      00015F A3               [24]  339 	inc	dptr
      000160 EF               [12]  340 	mov	a,r7
      000161 12r00r00         [24]  341 	lcall	__gptrput
                                    342 ;	_rrslonglong.c:58: (*top) >>= s;
      000164 78r01            [12]  343 	mov	r0,#__rrslonglong_l_65536_1
      000166 E2               [24]  344 	movx	a,@r0
      000167 FC               [12]  345 	mov	r4,a
      000168 08               [12]  346 	inc	r0
      000169 E2               [24]  347 	movx	a,@r0
      00016A FD               [12]  348 	mov	r5,a
      00016B 08               [12]  349 	inc	r0
      00016C E2               [24]  350 	movx	a,@r0
      00016D FE               [12]  351 	mov	r6,a
      00016E 08               [12]  352 	inc	r0
      00016F E2               [24]  353 	movx	a,@r0
      000170 FF               [12]  354 	mov	r7,a
      000171 78r00            [12]  355 	mov	r0,#__rrslonglong_PARM_2
      000173 E2               [24]  356 	movx	a,@r0
      000174 F5 F0            [12]  357 	mov	b,a
      000176 05 F0            [12]  358 	inc	b
      000178 EF               [12]  359 	mov	a,r7
      000179 33               [12]  360 	rlc	a
      00017A 92 D2            [24]  361 	mov	ov,c
      00017C 80 0E            [24]  362 	sjmp	00129$
      00017E                        363 00128$:
      00017E A2 D2            [12]  364 	mov	c,ov
      000180 EF               [12]  365 	mov	a,r7
      000181 13               [12]  366 	rrc	a
      000182 FF               [12]  367 	mov	r7,a
      000183 EE               [12]  368 	mov	a,r6
      000184 13               [12]  369 	rrc	a
      000185 FE               [12]  370 	mov	r6,a
      000186 ED               [12]  371 	mov	a,r5
      000187 13               [12]  372 	rrc	a
      000188 FD               [12]  373 	mov	r5,a
      000189 EC               [12]  374 	mov	a,r4
      00018A 13               [12]  375 	rrc	a
      00018B FC               [12]  376 	mov	r4,a
      00018C                        377 00129$:
      00018C D5 F0 EF         [24]  378 	djnz	b,00128$
      00018F 78r01            [12]  379 	mov	r0,#__rrslonglong_l_65536_1
      000191 EC               [12]  380 	mov	a,r4
      000192 F2               [24]  381 	movx	@r0,a
      000193 08               [12]  382 	inc	r0
      000194 ED               [12]  383 	mov	a,r5
      000195 F2               [24]  384 	movx	@r0,a
      000196 08               [12]  385 	inc	r0
      000197 EE               [12]  386 	mov	a,r6
      000198 F2               [24]  387 	movx	@r0,a
      000199 08               [12]  388 	inc	r0
      00019A EF               [12]  389 	mov	a,r7
      00019B F2               [24]  390 	movx	@r0,a
                                    391 ;	_rrslonglong.c:60: return(l);
      00019C 78r01            [12]  392 	mov	r0,#__rrslonglong_l_65536_1
      00019E E2               [24]  393 	movx	a,@r0
      00019F F5 82            [12]  394 	mov	dpl,a
      0001A1 08               [12]  395 	inc	r0
      0001A2 E2               [24]  396 	movx	a,@r0
      0001A3 F5 83            [12]  397 	mov	dph,a
      0001A5 08               [12]  398 	inc	r0
      0001A6 E2               [24]  399 	movx	a,@r0
      0001A7 F5 F0            [12]  400 	mov	b,a
      0001A9 08               [12]  401 	inc	r0
      0001AA E2               [24]  402 	movx	a,@r0
      0001AB C0 E0            [24]  403 	push	acc
      0001AD 08               [12]  404 	inc	r0
      0001AE E2               [24]  405 	movx	a,@r0
      0001AF FC               [12]  406 	mov	r4,a
      0001B0 08               [12]  407 	inc	r0
      0001B1 E2               [24]  408 	movx	a,@r0
      0001B2 FD               [12]  409 	mov	r5,a
      0001B3 08               [12]  410 	inc	r0
      0001B4 E2               [24]  411 	movx	a,@r0
      0001B5 FE               [12]  412 	mov	r6,a
      0001B6 08               [12]  413 	inc	r0
      0001B7 E2               [24]  414 	movx	a,@r0
      0001B8 FF               [12]  415 	mov	r7,a
      0001B9 D0 E0            [24]  416 	pop	acc
                                    417 ;	_rrslonglong.c:61: }
      0001BB 22               [24]  418 	ret
                                    419 	.area CSEG    (CODE)
                                    420 	.area CONST   (CODE)
                                    421 	.area XINIT   (CODE)
                                    422 	.area CABS    (ABS,CODE)
