                                      1 ;--------------------------------------------------------
                                      2 ; File Created by SDCC : free open source ISO C Compiler 
                                      3 ; Version 4.2.14 #0 (Linux)
                                      4 ;--------------------------------------------------------
                                      5 	.module ckd_mul
                                      6 	.optsdcc -mmcs51 --model-medium
                                      7 	
                                      8 ;--------------------------------------------------------
                                      9 ; Public variables in this module
                                     10 ;--------------------------------------------------------
                                     11 	.globl ___ckd_mul_ulong_PARM_3
                                     12 	.globl ___ckd_mul_ulong_PARM_2
                                     13 	.globl ___ckd_mul_long_PARM_3
                                     14 	.globl ___ckd_mul_long_PARM_2
                                     15 	.globl ___ckd_mul_uint_PARM_3
                                     16 	.globl ___ckd_mul_uint_PARM_2
                                     17 	.globl ___ckd_mul_int_PARM_3
                                     18 	.globl ___ckd_mul_int_PARM_2
                                     19 	.globl ___ckd_mul_ushort_PARM_3
                                     20 	.globl ___ckd_mul_ushort_PARM_2
                                     21 	.globl ___ckd_mul_short_PARM_3
                                     22 	.globl ___ckd_mul_short_PARM_2
                                     23 	.globl ___ckd_mul_uchar_PARM_3
                                     24 	.globl ___ckd_mul_uchar_PARM_2
                                     25 	.globl ___ckd_mul_schar_PARM_3
                                     26 	.globl ___ckd_mul_schar_PARM_2
                                     27 	.globl ___ckd_mul_schar
                                     28 	.globl ___ckd_mul_uchar
                                     29 	.globl ___ckd_mul_short
                                     30 	.globl ___ckd_mul_ushort
                                     31 	.globl ___ckd_mul_int
                                     32 	.globl ___ckd_mul_uint
                                     33 	.globl ___ckd_mul_long
                                     34 	.globl ___ckd_mul_ulong
                                     35 ;--------------------------------------------------------
                                     36 ; special function registers
                                     37 ;--------------------------------------------------------
                                     38 	.area RSEG    (ABS,DATA)
      000000                         39 	.org 0x0000
                                     40 ;--------------------------------------------------------
                                     41 ; special function bits
                                     42 ;--------------------------------------------------------
                                     43 	.area RSEG    (ABS,DATA)
      000000                         44 	.org 0x0000
                                     45 ;--------------------------------------------------------
                                     46 ; overlayable register banks
                                     47 ;--------------------------------------------------------
                                     48 	.area REG_BANK_0	(REL,OVR,DATA)
      000000                         49 	.ds 8
                                     50 ;--------------------------------------------------------
                                     51 ; internal ram data
                                     52 ;--------------------------------------------------------
                                     53 	.area DSEG    (DATA)
      000000                         54 ___ckd_mul_schar_sloc0_1_0:
      000000                         55 	.ds 8
      000008                         56 ___ckd_mul_uchar_sloc0_1_0:
      000008                         57 	.ds 8
      000010                         58 ___ckd_mul_short_sloc0_1_0:
      000010                         59 	.ds 8
      000018                         60 ___ckd_mul_ushort_sloc0_1_0:
      000018                         61 	.ds 8
      000020                         62 ___ckd_mul_int_sloc0_1_0:
      000020                         63 	.ds 8
      000028                         64 ___ckd_mul_uint_sloc0_1_0:
      000028                         65 	.ds 8
      000030                         66 ___ckd_mul_long_sloc0_1_0:
      000030                         67 	.ds 8
      000038                         68 ___ckd_mul_ulong_sloc0_1_0:
      000038                         69 	.ds 8
                                     70 ;--------------------------------------------------------
                                     71 ; overlayable items in internal ram
                                     72 ;--------------------------------------------------------
                                     73 ;--------------------------------------------------------
                                     74 ; indirectly addressable internal ram data
                                     75 ;--------------------------------------------------------
                                     76 	.area ISEG    (DATA)
                                     77 ;--------------------------------------------------------
                                     78 ; absolute internal ram data
                                     79 ;--------------------------------------------------------
                                     80 	.area IABS    (ABS,DATA)
                                     81 	.area IABS    (ABS,DATA)
                                     82 ;--------------------------------------------------------
                                     83 ; bit data
                                     84 ;--------------------------------------------------------
                                     85 	.area BSEG    (BIT)
      000000                         86 ___ckd_mul_schar_sloc1_1_0:
      000000                         87 	.ds 1
      000001                         88 ___ckd_mul_uchar_sloc1_1_0:
      000001                         89 	.ds 1
      000002                         90 ___ckd_mul_short_sloc1_1_0:
      000002                         91 	.ds 1
      000003                         92 ___ckd_mul_ushort_sloc1_1_0:
      000003                         93 	.ds 1
      000004                         94 ___ckd_mul_int_sloc1_1_0:
      000004                         95 	.ds 1
      000005                         96 ___ckd_mul_uint_sloc1_1_0:
      000005                         97 	.ds 1
      000006                         98 ___ckd_mul_long_sloc1_1_0:
      000006                         99 	.ds 1
      000007                        100 ___ckd_mul_ulong_sloc1_1_0:
      000007                        101 	.ds 1
                                    102 ;--------------------------------------------------------
                                    103 ; paged external ram data
                                    104 ;--------------------------------------------------------
                                    105 	.area PSEG    (PAG,XDATA)
      000000                        106 ___ckd_mul_schar_PARM_2:
      000000                        107 	.ds 8
      000008                        108 ___ckd_mul_schar_PARM_3:
      000008                        109 	.ds 8
      000010                        110 ___ckd_mul_schar_result_65536_42:
      000010                        111 	.ds 8
      000018                        112 ___ckd_mul_uchar_PARM_2:
      000018                        113 	.ds 8
      000020                        114 ___ckd_mul_uchar_PARM_3:
      000020                        115 	.ds 8
      000028                        116 ___ckd_mul_uchar_result_65536_44:
      000028                        117 	.ds 8
      000030                        118 ___ckd_mul_short_PARM_2:
      000030                        119 	.ds 8
      000038                        120 ___ckd_mul_short_PARM_3:
      000038                        121 	.ds 8
      000040                        122 ___ckd_mul_short_result_65536_46:
      000040                        123 	.ds 8
      000048                        124 ___ckd_mul_ushort_PARM_2:
      000048                        125 	.ds 8
      000050                        126 ___ckd_mul_ushort_PARM_3:
      000050                        127 	.ds 8
      000058                        128 ___ckd_mul_ushort_result_65536_48:
      000058                        129 	.ds 8
      000060                        130 ___ckd_mul_int_PARM_2:
      000060                        131 	.ds 8
      000068                        132 ___ckd_mul_int_PARM_3:
      000068                        133 	.ds 8
      000070                        134 ___ckd_mul_int_result_65536_50:
      000070                        135 	.ds 8
      000078                        136 ___ckd_mul_uint_PARM_2:
      000078                        137 	.ds 8
      000080                        138 ___ckd_mul_uint_PARM_3:
      000080                        139 	.ds 8
      000088                        140 ___ckd_mul_uint_result_65536_52:
      000088                        141 	.ds 8
      000090                        142 ___ckd_mul_long_PARM_2:
      000090                        143 	.ds 8
      000098                        144 ___ckd_mul_long_PARM_3:
      000098                        145 	.ds 8
      0000A0                        146 ___ckd_mul_long_r_65536_53:
      0000A0                        147 	.ds 3
      0000A3                        148 ___ckd_mul_long_result_65536_54:
      0000A3                        149 	.ds 8
      0000AB                        150 ___ckd_mul_ulong_PARM_2:
      0000AB                        151 	.ds 8
      0000B3                        152 ___ckd_mul_ulong_PARM_3:
      0000B3                        153 	.ds 8
      0000BB                        154 ___ckd_mul_ulong_r_65536_55:
      0000BB                        155 	.ds 3
      0000BE                        156 ___ckd_mul_ulong_result_65536_56:
      0000BE                        157 	.ds 8
                                    158 ;--------------------------------------------------------
                                    159 ; uninitialized external ram data
                                    160 ;--------------------------------------------------------
                                    161 	.area XSEG    (XDATA)
                                    162 ;--------------------------------------------------------
                                    163 ; absolute external ram data
                                    164 ;--------------------------------------------------------
                                    165 	.area XABS    (ABS,XDATA)
                                    166 ;--------------------------------------------------------
                                    167 ; initialized external ram data
                                    168 ;--------------------------------------------------------
                                    169 	.area XISEG   (XDATA)
                                    170 	.area HOME    (CODE)
                                    171 	.area GSINIT0 (CODE)
                                    172 	.area GSINIT1 (CODE)
                                    173 	.area GSINIT2 (CODE)
                                    174 	.area GSINIT3 (CODE)
                                    175 	.area GSINIT4 (CODE)
                                    176 	.area GSINIT5 (CODE)
                                    177 	.area GSINIT  (CODE)
                                    178 	.area GSFINAL (CODE)
                                    179 	.area CSEG    (CODE)
                                    180 ;--------------------------------------------------------
                                    181 ; global & static initialisations
                                    182 ;--------------------------------------------------------
                                    183 	.area HOME    (CODE)
                                    184 	.area GSINIT  (CODE)
                                    185 	.area GSFINAL (CODE)
                                    186 	.area GSINIT  (CODE)
                                    187 ;--------------------------------------------------------
                                    188 ; Home
                                    189 ;--------------------------------------------------------
                                    190 	.area HOME    (CODE)
                                    191 	.area HOME    (CODE)
                                    192 ;--------------------------------------------------------
                                    193 ; code
                                    194 ;--------------------------------------------------------
                                    195 	.area CSEG    (CODE)
                                    196 ;------------------------------------------------------------
                                    197 ;Allocation info for local variables in function '__ckd_mul_schar'
                                    198 ;------------------------------------------------------------
                                    199 ;sloc0                     Allocated with name '___ckd_mul_schar_sloc0_1_0'
                                    200 ;------------------------------------------------------------
                                    201 ;	../../device/include/stdckdint.h:69: inline _Bool __ckd_mul_schar __CKD_DEFAULT_IMPL(signed char, *)
                                    202 ;	-----------------------------------------
                                    203 ;	 function __ckd_mul_schar
                                    204 ;	-----------------------------------------
      000000                        205 ___ckd_mul_schar:
                           000007   206 	ar7 = 0x07
                           000006   207 	ar6 = 0x06
                           000005   208 	ar5 = 0x05
                           000004   209 	ar4 = 0x04
                           000003   210 	ar3 = 0x03
                           000002   211 	ar2 = 0x02
                           000001   212 	ar1 = 0x01
                           000000   213 	ar0 = 0x00
      000000 AE 82            [24]  214 	mov	r6,dpl
      000002 AD 83            [24]  215 	mov	r5,dph
      000004 AC F0            [24]  216 	mov	r4,b
      000006 78r08            [12]  217 	mov	r0,#___ckd_mul_schar_PARM_3
      000008 79r00            [12]  218 	mov	r1,#__mullonglong_PARM_2
      00000A E2               [24]  219 	movx	a,@r0
      00000B F3               [24]  220 	movx	@r1,a
      00000C 08               [12]  221 	inc	r0
      00000D E2               [24]  222 	movx	a,@r0
      00000E 09               [12]  223 	inc	r1
      00000F F3               [24]  224 	movx	@r1,a
      000010 08               [12]  225 	inc	r0
      000011 E2               [24]  226 	movx	a,@r0
      000012 09               [12]  227 	inc	r1
      000013 F3               [24]  228 	movx	@r1,a
      000014 08               [12]  229 	inc	r0
      000015 E2               [24]  230 	movx	a,@r0
      000016 09               [12]  231 	inc	r1
      000017 F3               [24]  232 	movx	@r1,a
      000018 08               [12]  233 	inc	r0
      000019 E2               [24]  234 	movx	a,@r0
      00001A 09               [12]  235 	inc	r1
      00001B F3               [24]  236 	movx	@r1,a
      00001C 08               [12]  237 	inc	r0
      00001D E2               [24]  238 	movx	a,@r0
      00001E 09               [12]  239 	inc	r1
      00001F F3               [24]  240 	movx	@r1,a
      000020 08               [12]  241 	inc	r0
      000021 E2               [24]  242 	movx	a,@r0
      000022 09               [12]  243 	inc	r1
      000023 F3               [24]  244 	movx	@r1,a
      000024 08               [12]  245 	inc	r0
      000025 E2               [24]  246 	movx	a,@r0
      000026 09               [12]  247 	inc	r1
      000027 F3               [24]  248 	movx	@r1,a
      000028 C0 06            [24]  249 	push	ar6
      00002A C0 05            [24]  250 	push	ar5
      00002C C0 04            [24]  251 	push	ar4
      00002E 78r00            [12]  252 	mov	r0,#___ckd_mul_schar_PARM_2
      000030 E2               [24]  253 	movx	a,@r0
      000031 F5 82            [12]  254 	mov	dpl,a
      000033 08               [12]  255 	inc	r0
      000034 E2               [24]  256 	movx	a,@r0
      000035 F5 83            [12]  257 	mov	dph,a
      000037 08               [12]  258 	inc	r0
      000038 E2               [24]  259 	movx	a,@r0
      000039 F5 F0            [12]  260 	mov	b,a
      00003B 08               [12]  261 	inc	r0
      00003C E2               [24]  262 	movx	a,@r0
      00003D C0 E0            [24]  263 	push	acc
      00003F 08               [12]  264 	inc	r0
      000040 E2               [24]  265 	movx	a,@r0
      000041 FC               [12]  266 	mov	r4,a
      000042 08               [12]  267 	inc	r0
      000043 E2               [24]  268 	movx	a,@r0
      000044 FD               [12]  269 	mov	r5,a
      000045 08               [12]  270 	inc	r0
      000046 E2               [24]  271 	movx	a,@r0
      000047 FE               [12]  272 	mov	r6,a
      000048 08               [12]  273 	inc	r0
      000049 E2               [24]  274 	movx	a,@r0
      00004A FF               [12]  275 	mov	r7,a
      00004B D0 E0            [24]  276 	pop	acc
      00004D 12r00r00         [24]  277 	lcall	__mullonglong
      000050 78r10            [12]  278 	mov	r0,#___ckd_mul_schar_result_65536_42
      000052 C0 E0            [24]  279 	push	acc
      000054 E5 82            [12]  280 	mov	a,dpl
      000056 F2               [24]  281 	movx	@r0,a
      000057 E5 83            [12]  282 	mov	a,dph
      000059 08               [12]  283 	inc	r0
      00005A F2               [24]  284 	movx	@r0,a
      00005B E5 F0            [12]  285 	mov	a,b
      00005D 08               [12]  286 	inc	r0
      00005E F2               [24]  287 	movx	@r0,a
      00005F D0 E0            [24]  288 	pop	acc
      000061 08               [12]  289 	inc	r0
      000062 F2               [24]  290 	movx	@r0,a
      000063 EC               [12]  291 	mov	a,r4
      000064 08               [12]  292 	inc	r0
      000065 F2               [24]  293 	movx	@r0,a
      000066 ED               [12]  294 	mov	a,r5
      000067 08               [12]  295 	inc	r0
      000068 F2               [24]  296 	movx	@r0,a
      000069 EE               [12]  297 	mov	a,r6
      00006A 08               [12]  298 	inc	r0
      00006B F2               [24]  299 	movx	@r0,a
      00006C EF               [12]  300 	mov	a,r7
      00006D 08               [12]  301 	inc	r0
      00006E F2               [24]  302 	movx	@r0,a
      00006F D0 04            [24]  303 	pop	ar4
      000071 D0 05            [24]  304 	pop	ar5
      000073 D0 06            [24]  305 	pop	ar6
      000075 78r10            [12]  306 	mov	r0,#___ckd_mul_schar_result_65536_42
      000077 E2               [24]  307 	movx	a,@r0
      000078 8E 82            [24]  308 	mov	dpl,r6
      00007A 8D 83            [24]  309 	mov	dph,r5
      00007C 8C F0            [24]  310 	mov	b,r4
      00007E 12r00r00         [24]  311 	lcall	__gptrput
      000081 F5*00            [12]  312 	mov	___ckd_mul_schar_sloc0_1_0,a
      000083 33               [12]  313 	rlc	a
      000084 95 E0            [12]  314 	subb	a,acc
      000086 F5*01            [12]  315 	mov	(___ckd_mul_schar_sloc0_1_0 + 1),a
      000088 F5*02            [12]  316 	mov	(___ckd_mul_schar_sloc0_1_0 + 2),a
      00008A F5*03            [12]  317 	mov	(___ckd_mul_schar_sloc0_1_0 + 3),a
      00008C F5*04            [12]  318 	mov	(___ckd_mul_schar_sloc0_1_0 + 4),a
      00008E F5*05            [12]  319 	mov	(___ckd_mul_schar_sloc0_1_0 + 5),a
      000090 F5*06            [12]  320 	mov	(___ckd_mul_schar_sloc0_1_0 + 6),a
      000092 F5*07            [12]  321 	mov	(___ckd_mul_schar_sloc0_1_0 + 7),a
      000094 78r10            [12]  322 	mov	r0,#___ckd_mul_schar_result_65536_42
      000096 E2               [24]  323 	movx	a,@r0
      000097 B5*00 26         [24]  324 	cjne	a,___ckd_mul_schar_sloc0_1_0,00103$
      00009A 08               [12]  325 	inc	r0
      00009B E2               [24]  326 	movx	a,@r0
      00009C B5*01 21         [24]  327 	cjne	a,(___ckd_mul_schar_sloc0_1_0 + 1),00103$
      00009F 08               [12]  328 	inc	r0
      0000A0 E2               [24]  329 	movx	a,@r0
      0000A1 B5*02 1C         [24]  330 	cjne	a,(___ckd_mul_schar_sloc0_1_0 + 2),00103$
      0000A4 08               [12]  331 	inc	r0
      0000A5 E2               [24]  332 	movx	a,@r0
      0000A6 B5*03 17         [24]  333 	cjne	a,(___ckd_mul_schar_sloc0_1_0 + 3),00103$
      0000A9 08               [12]  334 	inc	r0
      0000AA E2               [24]  335 	movx	a,@r0
      0000AB B5*04 12         [24]  336 	cjne	a,(___ckd_mul_schar_sloc0_1_0 + 4),00103$
      0000AE 08               [12]  337 	inc	r0
      0000AF E2               [24]  338 	movx	a,@r0
      0000B0 B5*05 0D         [24]  339 	cjne	a,(___ckd_mul_schar_sloc0_1_0 + 5),00103$
      0000B3 08               [12]  340 	inc	r0
      0000B4 E2               [24]  341 	movx	a,@r0
      0000B5 B5*06 08         [24]  342 	cjne	a,(___ckd_mul_schar_sloc0_1_0 + 6),00103$
      0000B8 08               [12]  343 	inc	r0
      0000B9 E2               [24]  344 	movx	a,@r0
      0000BA B5*07 03         [24]  345 	cjne	a,(___ckd_mul_schar_sloc0_1_0 + 7),00103$
      0000BD D3               [12]  346 	setb	c
      0000BE 80 01            [24]  347 	sjmp	00104$
      0000C0                        348 00103$:
      0000C0 C3               [12]  349 	clr	c
      0000C1                        350 00104$:
      0000C1 92*00            [24]  351 	mov  ___ckd_mul_schar_sloc1_1_0,c
      0000C3 B3               [12]  352 	cpl	c
      0000C4 E4               [12]  353 	clr	a
      0000C5 33               [12]  354 	rlc	a
      0000C6 F5 82            [12]  355 	mov	dpl,a
      0000C8 22               [24]  356 	ret
                                    357 ;------------------------------------------------------------
                                    358 ;Allocation info for local variables in function '__ckd_mul_uchar'
                                    359 ;------------------------------------------------------------
                                    360 ;sloc0                     Allocated with name '___ckd_mul_uchar_sloc0_1_0'
                                    361 ;------------------------------------------------------------
                                    362 ;	../../device/include/stdckdint.h:70: inline _Bool __ckd_mul_uchar __CKD_DEFAULT_IMPL(unsigned char, *)
                                    363 ;	-----------------------------------------
                                    364 ;	 function __ckd_mul_uchar
                                    365 ;	-----------------------------------------
      0000C9                        366 ___ckd_mul_uchar:
      0000C9 AE 82            [24]  367 	mov	r6,dpl
      0000CB AD 83            [24]  368 	mov	r5,dph
      0000CD AC F0            [24]  369 	mov	r4,b
      0000CF 78r20            [12]  370 	mov	r0,#___ckd_mul_uchar_PARM_3
      0000D1 79r00            [12]  371 	mov	r1,#__mullonglong_PARM_2
      0000D3 E2               [24]  372 	movx	a,@r0
      0000D4 F3               [24]  373 	movx	@r1,a
      0000D5 08               [12]  374 	inc	r0
      0000D6 E2               [24]  375 	movx	a,@r0
      0000D7 09               [12]  376 	inc	r1
      0000D8 F3               [24]  377 	movx	@r1,a
      0000D9 08               [12]  378 	inc	r0
      0000DA E2               [24]  379 	movx	a,@r0
      0000DB 09               [12]  380 	inc	r1
      0000DC F3               [24]  381 	movx	@r1,a
      0000DD 08               [12]  382 	inc	r0
      0000DE E2               [24]  383 	movx	a,@r0
      0000DF 09               [12]  384 	inc	r1
      0000E0 F3               [24]  385 	movx	@r1,a
      0000E1 08               [12]  386 	inc	r0
      0000E2 E2               [24]  387 	movx	a,@r0
      0000E3 09               [12]  388 	inc	r1
      0000E4 F3               [24]  389 	movx	@r1,a
      0000E5 08               [12]  390 	inc	r0
      0000E6 E2               [24]  391 	movx	a,@r0
      0000E7 09               [12]  392 	inc	r1
      0000E8 F3               [24]  393 	movx	@r1,a
      0000E9 08               [12]  394 	inc	r0
      0000EA E2               [24]  395 	movx	a,@r0
      0000EB 09               [12]  396 	inc	r1
      0000EC F3               [24]  397 	movx	@r1,a
      0000ED 08               [12]  398 	inc	r0
      0000EE E2               [24]  399 	movx	a,@r0
      0000EF 09               [12]  400 	inc	r1
      0000F0 F3               [24]  401 	movx	@r1,a
      0000F1 C0 06            [24]  402 	push	ar6
      0000F3 C0 05            [24]  403 	push	ar5
      0000F5 C0 04            [24]  404 	push	ar4
      0000F7 78r18            [12]  405 	mov	r0,#___ckd_mul_uchar_PARM_2
      0000F9 E2               [24]  406 	movx	a,@r0
      0000FA F5 82            [12]  407 	mov	dpl,a
      0000FC 08               [12]  408 	inc	r0
      0000FD E2               [24]  409 	movx	a,@r0
      0000FE F5 83            [12]  410 	mov	dph,a
      000100 08               [12]  411 	inc	r0
      000101 E2               [24]  412 	movx	a,@r0
      000102 F5 F0            [12]  413 	mov	b,a
      000104 08               [12]  414 	inc	r0
      000105 E2               [24]  415 	movx	a,@r0
      000106 C0 E0            [24]  416 	push	acc
      000108 08               [12]  417 	inc	r0
      000109 E2               [24]  418 	movx	a,@r0
      00010A FC               [12]  419 	mov	r4,a
      00010B 08               [12]  420 	inc	r0
      00010C E2               [24]  421 	movx	a,@r0
      00010D FD               [12]  422 	mov	r5,a
      00010E 08               [12]  423 	inc	r0
      00010F E2               [24]  424 	movx	a,@r0
      000110 FE               [12]  425 	mov	r6,a
      000111 08               [12]  426 	inc	r0
      000112 E2               [24]  427 	movx	a,@r0
      000113 FF               [12]  428 	mov	r7,a
      000114 D0 E0            [24]  429 	pop	acc
      000116 12r00r00         [24]  430 	lcall	__mullonglong
      000119 78r28            [12]  431 	mov	r0,#___ckd_mul_uchar_result_65536_44
      00011B C0 E0            [24]  432 	push	acc
      00011D E5 82            [12]  433 	mov	a,dpl
      00011F F2               [24]  434 	movx	@r0,a
      000120 E5 83            [12]  435 	mov	a,dph
      000122 08               [12]  436 	inc	r0
      000123 F2               [24]  437 	movx	@r0,a
      000124 E5 F0            [12]  438 	mov	a,b
      000126 08               [12]  439 	inc	r0
      000127 F2               [24]  440 	movx	@r0,a
      000128 D0 E0            [24]  441 	pop	acc
      00012A 08               [12]  442 	inc	r0
      00012B F2               [24]  443 	movx	@r0,a
      00012C EC               [12]  444 	mov	a,r4
      00012D 08               [12]  445 	inc	r0
      00012E F2               [24]  446 	movx	@r0,a
      00012F ED               [12]  447 	mov	a,r5
      000130 08               [12]  448 	inc	r0
      000131 F2               [24]  449 	movx	@r0,a
      000132 EE               [12]  450 	mov	a,r6
      000133 08               [12]  451 	inc	r0
      000134 F2               [24]  452 	movx	@r0,a
      000135 EF               [12]  453 	mov	a,r7
      000136 08               [12]  454 	inc	r0
      000137 F2               [24]  455 	movx	@r0,a
      000138 D0 04            [24]  456 	pop	ar4
      00013A D0 05            [24]  457 	pop	ar5
      00013C D0 06            [24]  458 	pop	ar6
      00013E 78r28            [12]  459 	mov	r0,#___ckd_mul_uchar_result_65536_44
      000140 E2               [24]  460 	movx	a,@r0
      000141 FF               [12]  461 	mov	r7,a
      000142 8E 82            [24]  462 	mov	dpl,r6
      000144 8D 83            [24]  463 	mov	dph,r5
      000146 8C F0            [24]  464 	mov	b,r4
      000148 12r00r00         [24]  465 	lcall	__gptrput
      00014B 8F*08            [24]  466 	mov	___ckd_mul_uchar_sloc0_1_0,r7
      00014D 75*09 00         [24]  467 	mov	(___ckd_mul_uchar_sloc0_1_0 + 1),#0x00
      000150 75*0A 00         [24]  468 	mov	(___ckd_mul_uchar_sloc0_1_0 + 2),#0x00
      000153 75*0B 00         [24]  469 	mov	(___ckd_mul_uchar_sloc0_1_0 + 3),#0x00
      000156 75*0C 00         [24]  470 	mov	(___ckd_mul_uchar_sloc0_1_0 + 4),#0x00
      000159 75*0D 00         [24]  471 	mov	(___ckd_mul_uchar_sloc0_1_0 + 5),#0x00
      00015C 75*0E 00         [24]  472 	mov	(___ckd_mul_uchar_sloc0_1_0 + 6),#0x00
      00015F 75*0F 00         [24]  473 	mov	(___ckd_mul_uchar_sloc0_1_0 + 7),#0x00
      000162 78r28            [12]  474 	mov	r0,#___ckd_mul_uchar_result_65536_44
      000164 E2               [24]  475 	movx	a,@r0
      000165 B5*08 26         [24]  476 	cjne	a,___ckd_mul_uchar_sloc0_1_0,00103$
      000168 08               [12]  477 	inc	r0
      000169 E2               [24]  478 	movx	a,@r0
      00016A B5*09 21         [24]  479 	cjne	a,(___ckd_mul_uchar_sloc0_1_0 + 1),00103$
      00016D 08               [12]  480 	inc	r0
      00016E E2               [24]  481 	movx	a,@r0
      00016F B5*0A 1C         [24]  482 	cjne	a,(___ckd_mul_uchar_sloc0_1_0 + 2),00103$
      000172 08               [12]  483 	inc	r0
      000173 E2               [24]  484 	movx	a,@r0
      000174 B5*0B 17         [24]  485 	cjne	a,(___ckd_mul_uchar_sloc0_1_0 + 3),00103$
      000177 08               [12]  486 	inc	r0
      000178 E2               [24]  487 	movx	a,@r0
      000179 B5*0C 12         [24]  488 	cjne	a,(___ckd_mul_uchar_sloc0_1_0 + 4),00103$
      00017C 08               [12]  489 	inc	r0
      00017D E2               [24]  490 	movx	a,@r0
      00017E B5*0D 0D         [24]  491 	cjne	a,(___ckd_mul_uchar_sloc0_1_0 + 5),00103$
      000181 08               [12]  492 	inc	r0
      000182 E2               [24]  493 	movx	a,@r0
      000183 B5*0E 08         [24]  494 	cjne	a,(___ckd_mul_uchar_sloc0_1_0 + 6),00103$
      000186 08               [12]  495 	inc	r0
      000187 E2               [24]  496 	movx	a,@r0
      000188 B5*0F 03         [24]  497 	cjne	a,(___ckd_mul_uchar_sloc0_1_0 + 7),00103$
      00018B D3               [12]  498 	setb	c
      00018C 80 01            [24]  499 	sjmp	00104$
      00018E                        500 00103$:
      00018E C3               [12]  501 	clr	c
      00018F                        502 00104$:
      00018F 92*01            [24]  503 	mov  ___ckd_mul_uchar_sloc1_1_0,c
      000191 B3               [12]  504 	cpl	c
      000192 E4               [12]  505 	clr	a
      000193 33               [12]  506 	rlc	a
      000194 F5 82            [12]  507 	mov	dpl,a
      000196 22               [24]  508 	ret
                                    509 ;------------------------------------------------------------
                                    510 ;Allocation info for local variables in function '__ckd_mul_short'
                                    511 ;------------------------------------------------------------
                                    512 ;sloc0                     Allocated with name '___ckd_mul_short_sloc0_1_0'
                                    513 ;------------------------------------------------------------
                                    514 ;	../../device/include/stdckdint.h:71: inline _Bool __ckd_mul_short __CKD_DEFAULT_IMPL(short, *)
                                    515 ;	-----------------------------------------
                                    516 ;	 function __ckd_mul_short
                                    517 ;	-----------------------------------------
      000197                        518 ___ckd_mul_short:
      000197 AD 82            [24]  519 	mov	r5,dpl
      000199 AC 83            [24]  520 	mov	r4,dph
      00019B AB F0            [24]  521 	mov	r3,b
      00019D 78r38            [12]  522 	mov	r0,#___ckd_mul_short_PARM_3
      00019F 79r00            [12]  523 	mov	r1,#__mullonglong_PARM_2
      0001A1 E2               [24]  524 	movx	a,@r0
      0001A2 F3               [24]  525 	movx	@r1,a
      0001A3 08               [12]  526 	inc	r0
      0001A4 E2               [24]  527 	movx	a,@r0
      0001A5 09               [12]  528 	inc	r1
      0001A6 F3               [24]  529 	movx	@r1,a
      0001A7 08               [12]  530 	inc	r0
      0001A8 E2               [24]  531 	movx	a,@r0
      0001A9 09               [12]  532 	inc	r1
      0001AA F3               [24]  533 	movx	@r1,a
      0001AB 08               [12]  534 	inc	r0
      0001AC E2               [24]  535 	movx	a,@r0
      0001AD 09               [12]  536 	inc	r1
      0001AE F3               [24]  537 	movx	@r1,a
      0001AF 08               [12]  538 	inc	r0
      0001B0 E2               [24]  539 	movx	a,@r0
      0001B1 09               [12]  540 	inc	r1
      0001B2 F3               [24]  541 	movx	@r1,a
      0001B3 08               [12]  542 	inc	r0
      0001B4 E2               [24]  543 	movx	a,@r0
      0001B5 09               [12]  544 	inc	r1
      0001B6 F3               [24]  545 	movx	@r1,a
      0001B7 08               [12]  546 	inc	r0
      0001B8 E2               [24]  547 	movx	a,@r0
      0001B9 09               [12]  548 	inc	r1
      0001BA F3               [24]  549 	movx	@r1,a
      0001BB 08               [12]  550 	inc	r0
      0001BC E2               [24]  551 	movx	a,@r0
      0001BD 09               [12]  552 	inc	r1
      0001BE F3               [24]  553 	movx	@r1,a
      0001BF C0 05            [24]  554 	push	ar5
      0001C1 C0 04            [24]  555 	push	ar4
      0001C3 C0 03            [24]  556 	push	ar3
      0001C5 78r30            [12]  557 	mov	r0,#___ckd_mul_short_PARM_2
      0001C7 E2               [24]  558 	movx	a,@r0
      0001C8 F5 82            [12]  559 	mov	dpl,a
      0001CA 08               [12]  560 	inc	r0
      0001CB E2               [24]  561 	movx	a,@r0
      0001CC F5 83            [12]  562 	mov	dph,a
      0001CE 08               [12]  563 	inc	r0
      0001CF E2               [24]  564 	movx	a,@r0
      0001D0 F5 F0            [12]  565 	mov	b,a
      0001D2 08               [12]  566 	inc	r0
      0001D3 E2               [24]  567 	movx	a,@r0
      0001D4 C0 E0            [24]  568 	push	acc
      0001D6 08               [12]  569 	inc	r0
      0001D7 E2               [24]  570 	movx	a,@r0
      0001D8 FC               [12]  571 	mov	r4,a
      0001D9 08               [12]  572 	inc	r0
      0001DA E2               [24]  573 	movx	a,@r0
      0001DB FD               [12]  574 	mov	r5,a
      0001DC 08               [12]  575 	inc	r0
      0001DD E2               [24]  576 	movx	a,@r0
      0001DE FE               [12]  577 	mov	r6,a
      0001DF 08               [12]  578 	inc	r0
      0001E0 E2               [24]  579 	movx	a,@r0
      0001E1 FF               [12]  580 	mov	r7,a
      0001E2 D0 E0            [24]  581 	pop	acc
      0001E4 12r00r00         [24]  582 	lcall	__mullonglong
      0001E7 78r40            [12]  583 	mov	r0,#___ckd_mul_short_result_65536_46
      0001E9 C0 E0            [24]  584 	push	acc
      0001EB E5 82            [12]  585 	mov	a,dpl
      0001ED F2               [24]  586 	movx	@r0,a
      0001EE E5 83            [12]  587 	mov	a,dph
      0001F0 08               [12]  588 	inc	r0
      0001F1 F2               [24]  589 	movx	@r0,a
      0001F2 E5 F0            [12]  590 	mov	a,b
      0001F4 08               [12]  591 	inc	r0
      0001F5 F2               [24]  592 	movx	@r0,a
      0001F6 D0 E0            [24]  593 	pop	acc
      0001F8 08               [12]  594 	inc	r0
      0001F9 F2               [24]  595 	movx	@r0,a
      0001FA EC               [12]  596 	mov	a,r4
      0001FB 08               [12]  597 	inc	r0
      0001FC F2               [24]  598 	movx	@r0,a
      0001FD ED               [12]  599 	mov	a,r5
      0001FE 08               [12]  600 	inc	r0
      0001FF F2               [24]  601 	movx	@r0,a
      000200 EE               [12]  602 	mov	a,r6
      000201 08               [12]  603 	inc	r0
      000202 F2               [24]  604 	movx	@r0,a
      000203 EF               [12]  605 	mov	a,r7
      000204 08               [12]  606 	inc	r0
      000205 F2               [24]  607 	movx	@r0,a
      000206 D0 03            [24]  608 	pop	ar3
      000208 D0 04            [24]  609 	pop	ar4
      00020A D0 05            [24]  610 	pop	ar5
      00020C 78r40            [12]  611 	mov	r0,#___ckd_mul_short_result_65536_46
      00020E E2               [24]  612 	movx	a,@r0
      00020F FE               [12]  613 	mov	r6,a
      000210 08               [12]  614 	inc	r0
      000211 E2               [24]  615 	movx	a,@r0
      000212 FF               [12]  616 	mov	r7,a
      000213 8D 82            [24]  617 	mov	dpl,r5
      000215 8C 83            [24]  618 	mov	dph,r4
      000217 8B F0            [24]  619 	mov	b,r3
      000219 EE               [12]  620 	mov	a,r6
      00021A 12r00r00         [24]  621 	lcall	__gptrput
      00021D A3               [24]  622 	inc	dptr
      00021E EF               [12]  623 	mov	a,r7
      00021F 12r00r00         [24]  624 	lcall	__gptrput
      000222 8E*10            [24]  625 	mov	___ckd_mul_short_sloc0_1_0,r6
      000224 EF               [12]  626 	mov	a,r7
      000225 F5*11            [12]  627 	mov	(___ckd_mul_short_sloc0_1_0 + 1),a
      000227 33               [12]  628 	rlc	a
      000228 95 E0            [12]  629 	subb	a,acc
      00022A F5*12            [12]  630 	mov	(___ckd_mul_short_sloc0_1_0 + 2),a
      00022C F5*13            [12]  631 	mov	(___ckd_mul_short_sloc0_1_0 + 3),a
      00022E F5*14            [12]  632 	mov	(___ckd_mul_short_sloc0_1_0 + 4),a
      000230 F5*15            [12]  633 	mov	(___ckd_mul_short_sloc0_1_0 + 5),a
      000232 F5*16            [12]  634 	mov	(___ckd_mul_short_sloc0_1_0 + 6),a
      000234 F5*17            [12]  635 	mov	(___ckd_mul_short_sloc0_1_0 + 7),a
      000236 78r40            [12]  636 	mov	r0,#___ckd_mul_short_result_65536_46
      000238 E2               [24]  637 	movx	a,@r0
      000239 B5*10 26         [24]  638 	cjne	a,___ckd_mul_short_sloc0_1_0,00103$
      00023C 08               [12]  639 	inc	r0
      00023D E2               [24]  640 	movx	a,@r0
      00023E B5*11 21         [24]  641 	cjne	a,(___ckd_mul_short_sloc0_1_0 + 1),00103$
      000241 08               [12]  642 	inc	r0
      000242 E2               [24]  643 	movx	a,@r0
      000243 B5*12 1C         [24]  644 	cjne	a,(___ckd_mul_short_sloc0_1_0 + 2),00103$
      000246 08               [12]  645 	inc	r0
      000247 E2               [24]  646 	movx	a,@r0
      000248 B5*13 17         [24]  647 	cjne	a,(___ckd_mul_short_sloc0_1_0 + 3),00103$
      00024B 08               [12]  648 	inc	r0
      00024C E2               [24]  649 	movx	a,@r0
      00024D B5*14 12         [24]  650 	cjne	a,(___ckd_mul_short_sloc0_1_0 + 4),00103$
      000250 08               [12]  651 	inc	r0
      000251 E2               [24]  652 	movx	a,@r0
      000252 B5*15 0D         [24]  653 	cjne	a,(___ckd_mul_short_sloc0_1_0 + 5),00103$
      000255 08               [12]  654 	inc	r0
      000256 E2               [24]  655 	movx	a,@r0
      000257 B5*16 08         [24]  656 	cjne	a,(___ckd_mul_short_sloc0_1_0 + 6),00103$
      00025A 08               [12]  657 	inc	r0
      00025B E2               [24]  658 	movx	a,@r0
      00025C B5*17 03         [24]  659 	cjne	a,(___ckd_mul_short_sloc0_1_0 + 7),00103$
      00025F D3               [12]  660 	setb	c
      000260 80 01            [24]  661 	sjmp	00104$
      000262                        662 00103$:
      000262 C3               [12]  663 	clr	c
      000263                        664 00104$:
      000263 92*02            [24]  665 	mov  ___ckd_mul_short_sloc1_1_0,c
      000265 B3               [12]  666 	cpl	c
      000266 E4               [12]  667 	clr	a
      000267 33               [12]  668 	rlc	a
      000268 F5 82            [12]  669 	mov	dpl,a
      00026A 22               [24]  670 	ret
                                    671 ;------------------------------------------------------------
                                    672 ;Allocation info for local variables in function '__ckd_mul_ushort'
                                    673 ;------------------------------------------------------------
                                    674 ;sloc0                     Allocated with name '___ckd_mul_ushort_sloc0_1_0'
                                    675 ;------------------------------------------------------------
                                    676 ;	../../device/include/stdckdint.h:72: inline _Bool __ckd_mul_ushort __CKD_DEFAULT_IMPL(unsigned short, *)
                                    677 ;	-----------------------------------------
                                    678 ;	 function __ckd_mul_ushort
                                    679 ;	-----------------------------------------
      00026B                        680 ___ckd_mul_ushort:
      00026B AD 82            [24]  681 	mov	r5,dpl
      00026D AC 83            [24]  682 	mov	r4,dph
      00026F AB F0            [24]  683 	mov	r3,b
      000271 78r50            [12]  684 	mov	r0,#___ckd_mul_ushort_PARM_3
      000273 79r00            [12]  685 	mov	r1,#__mullonglong_PARM_2
      000275 E2               [24]  686 	movx	a,@r0
      000276 F3               [24]  687 	movx	@r1,a
      000277 08               [12]  688 	inc	r0
      000278 E2               [24]  689 	movx	a,@r0
      000279 09               [12]  690 	inc	r1
      00027A F3               [24]  691 	movx	@r1,a
      00027B 08               [12]  692 	inc	r0
      00027C E2               [24]  693 	movx	a,@r0
      00027D 09               [12]  694 	inc	r1
      00027E F3               [24]  695 	movx	@r1,a
      00027F 08               [12]  696 	inc	r0
      000280 E2               [24]  697 	movx	a,@r0
      000281 09               [12]  698 	inc	r1
      000282 F3               [24]  699 	movx	@r1,a
      000283 08               [12]  700 	inc	r0
      000284 E2               [24]  701 	movx	a,@r0
      000285 09               [12]  702 	inc	r1
      000286 F3               [24]  703 	movx	@r1,a
      000287 08               [12]  704 	inc	r0
      000288 E2               [24]  705 	movx	a,@r0
      000289 09               [12]  706 	inc	r1
      00028A F3               [24]  707 	movx	@r1,a
      00028B 08               [12]  708 	inc	r0
      00028C E2               [24]  709 	movx	a,@r0
      00028D 09               [12]  710 	inc	r1
      00028E F3               [24]  711 	movx	@r1,a
      00028F 08               [12]  712 	inc	r0
      000290 E2               [24]  713 	movx	a,@r0
      000291 09               [12]  714 	inc	r1
      000292 F3               [24]  715 	movx	@r1,a
      000293 C0 05            [24]  716 	push	ar5
      000295 C0 04            [24]  717 	push	ar4
      000297 C0 03            [24]  718 	push	ar3
      000299 78r48            [12]  719 	mov	r0,#___ckd_mul_ushort_PARM_2
      00029B E2               [24]  720 	movx	a,@r0
      00029C F5 82            [12]  721 	mov	dpl,a
      00029E 08               [12]  722 	inc	r0
      00029F E2               [24]  723 	movx	a,@r0
      0002A0 F5 83            [12]  724 	mov	dph,a
      0002A2 08               [12]  725 	inc	r0
      0002A3 E2               [24]  726 	movx	a,@r0
      0002A4 F5 F0            [12]  727 	mov	b,a
      0002A6 08               [12]  728 	inc	r0
      0002A7 E2               [24]  729 	movx	a,@r0
      0002A8 C0 E0            [24]  730 	push	acc
      0002AA 08               [12]  731 	inc	r0
      0002AB E2               [24]  732 	movx	a,@r0
      0002AC FC               [12]  733 	mov	r4,a
      0002AD 08               [12]  734 	inc	r0
      0002AE E2               [24]  735 	movx	a,@r0
      0002AF FD               [12]  736 	mov	r5,a
      0002B0 08               [12]  737 	inc	r0
      0002B1 E2               [24]  738 	movx	a,@r0
      0002B2 FE               [12]  739 	mov	r6,a
      0002B3 08               [12]  740 	inc	r0
      0002B4 E2               [24]  741 	movx	a,@r0
      0002B5 FF               [12]  742 	mov	r7,a
      0002B6 D0 E0            [24]  743 	pop	acc
      0002B8 12r00r00         [24]  744 	lcall	__mullonglong
      0002BB 78r58            [12]  745 	mov	r0,#___ckd_mul_ushort_result_65536_48
      0002BD C0 E0            [24]  746 	push	acc
      0002BF E5 82            [12]  747 	mov	a,dpl
      0002C1 F2               [24]  748 	movx	@r0,a
      0002C2 E5 83            [12]  749 	mov	a,dph
      0002C4 08               [12]  750 	inc	r0
      0002C5 F2               [24]  751 	movx	@r0,a
      0002C6 E5 F0            [12]  752 	mov	a,b
      0002C8 08               [12]  753 	inc	r0
      0002C9 F2               [24]  754 	movx	@r0,a
      0002CA D0 E0            [24]  755 	pop	acc
      0002CC 08               [12]  756 	inc	r0
      0002CD F2               [24]  757 	movx	@r0,a
      0002CE EC               [12]  758 	mov	a,r4
      0002CF 08               [12]  759 	inc	r0
      0002D0 F2               [24]  760 	movx	@r0,a
      0002D1 ED               [12]  761 	mov	a,r5
      0002D2 08               [12]  762 	inc	r0
      0002D3 F2               [24]  763 	movx	@r0,a
      0002D4 EE               [12]  764 	mov	a,r6
      0002D5 08               [12]  765 	inc	r0
      0002D6 F2               [24]  766 	movx	@r0,a
      0002D7 EF               [12]  767 	mov	a,r7
      0002D8 08               [12]  768 	inc	r0
      0002D9 F2               [24]  769 	movx	@r0,a
      0002DA D0 03            [24]  770 	pop	ar3
      0002DC D0 04            [24]  771 	pop	ar4
      0002DE D0 05            [24]  772 	pop	ar5
      0002E0 78r58            [12]  773 	mov	r0,#___ckd_mul_ushort_result_65536_48
      0002E2 E2               [24]  774 	movx	a,@r0
      0002E3 FE               [12]  775 	mov	r6,a
      0002E4 08               [12]  776 	inc	r0
      0002E5 E2               [24]  777 	movx	a,@r0
      0002E6 FF               [12]  778 	mov	r7,a
      0002E7 8D 82            [24]  779 	mov	dpl,r5
      0002E9 8C 83            [24]  780 	mov	dph,r4
      0002EB 8B F0            [24]  781 	mov	b,r3
      0002ED EE               [12]  782 	mov	a,r6
      0002EE 12r00r00         [24]  783 	lcall	__gptrput
      0002F1 A3               [24]  784 	inc	dptr
      0002F2 EF               [12]  785 	mov	a,r7
      0002F3 12r00r00         [24]  786 	lcall	__gptrput
      0002F6 8E*18            [24]  787 	mov	___ckd_mul_ushort_sloc0_1_0,r6
      0002F8 8F*19            [24]  788 	mov	(___ckd_mul_ushort_sloc0_1_0 + 1),r7
      0002FA 75*1A 00         [24]  789 	mov	(___ckd_mul_ushort_sloc0_1_0 + 2),#0x00
      0002FD 75*1B 00         [24]  790 	mov	(___ckd_mul_ushort_sloc0_1_0 + 3),#0x00
      000300 75*1C 00         [24]  791 	mov	(___ckd_mul_ushort_sloc0_1_0 + 4),#0x00
      000303 75*1D 00         [24]  792 	mov	(___ckd_mul_ushort_sloc0_1_0 + 5),#0x00
      000306 75*1E 00         [24]  793 	mov	(___ckd_mul_ushort_sloc0_1_0 + 6),#0x00
      000309 75*1F 00         [24]  794 	mov	(___ckd_mul_ushort_sloc0_1_0 + 7),#0x00
      00030C 78r58            [12]  795 	mov	r0,#___ckd_mul_ushort_result_65536_48
      00030E E2               [24]  796 	movx	a,@r0
      00030F B5*18 26         [24]  797 	cjne	a,___ckd_mul_ushort_sloc0_1_0,00103$
      000312 08               [12]  798 	inc	r0
      000313 E2               [24]  799 	movx	a,@r0
      000314 B5*19 21         [24]  800 	cjne	a,(___ckd_mul_ushort_sloc0_1_0 + 1),00103$
      000317 08               [12]  801 	inc	r0
      000318 E2               [24]  802 	movx	a,@r0
      000319 B5*1A 1C         [24]  803 	cjne	a,(___ckd_mul_ushort_sloc0_1_0 + 2),00103$
      00031C 08               [12]  804 	inc	r0
      00031D E2               [24]  805 	movx	a,@r0
      00031E B5*1B 17         [24]  806 	cjne	a,(___ckd_mul_ushort_sloc0_1_0 + 3),00103$
      000321 08               [12]  807 	inc	r0
      000322 E2               [24]  808 	movx	a,@r0
      000323 B5*1C 12         [24]  809 	cjne	a,(___ckd_mul_ushort_sloc0_1_0 + 4),00103$
      000326 08               [12]  810 	inc	r0
      000327 E2               [24]  811 	movx	a,@r0
      000328 B5*1D 0D         [24]  812 	cjne	a,(___ckd_mul_ushort_sloc0_1_0 + 5),00103$
      00032B 08               [12]  813 	inc	r0
      00032C E2               [24]  814 	movx	a,@r0
      00032D B5*1E 08         [24]  815 	cjne	a,(___ckd_mul_ushort_sloc0_1_0 + 6),00103$
      000330 08               [12]  816 	inc	r0
      000331 E2               [24]  817 	movx	a,@r0
      000332 B5*1F 03         [24]  818 	cjne	a,(___ckd_mul_ushort_sloc0_1_0 + 7),00103$
      000335 D3               [12]  819 	setb	c
      000336 80 01            [24]  820 	sjmp	00104$
      000338                        821 00103$:
      000338 C3               [12]  822 	clr	c
      000339                        823 00104$:
      000339 92*03            [24]  824 	mov  ___ckd_mul_ushort_sloc1_1_0,c
      00033B B3               [12]  825 	cpl	c
      00033C E4               [12]  826 	clr	a
      00033D 33               [12]  827 	rlc	a
      00033E F5 82            [12]  828 	mov	dpl,a
      000340 22               [24]  829 	ret
                                    830 ;------------------------------------------------------------
                                    831 ;Allocation info for local variables in function '__ckd_mul_int'
                                    832 ;------------------------------------------------------------
                                    833 ;sloc0                     Allocated with name '___ckd_mul_int_sloc0_1_0'
                                    834 ;------------------------------------------------------------
                                    835 ;	../../device/include/stdckdint.h:73: inline _Bool __ckd_mul_int __CKD_DEFAULT_IMPL(int, *)
                                    836 ;	-----------------------------------------
                                    837 ;	 function __ckd_mul_int
                                    838 ;	-----------------------------------------
      000341                        839 ___ckd_mul_int:
      000341 AD 82            [24]  840 	mov	r5,dpl
      000343 AC 83            [24]  841 	mov	r4,dph
      000345 AB F0            [24]  842 	mov	r3,b
      000347 78r68            [12]  843 	mov	r0,#___ckd_mul_int_PARM_3
      000349 79r00            [12]  844 	mov	r1,#__mullonglong_PARM_2
      00034B E2               [24]  845 	movx	a,@r0
      00034C F3               [24]  846 	movx	@r1,a
      00034D 08               [12]  847 	inc	r0
      00034E E2               [24]  848 	movx	a,@r0
      00034F 09               [12]  849 	inc	r1
      000350 F3               [24]  850 	movx	@r1,a
      000351 08               [12]  851 	inc	r0
      000352 E2               [24]  852 	movx	a,@r0
      000353 09               [12]  853 	inc	r1
      000354 F3               [24]  854 	movx	@r1,a
      000355 08               [12]  855 	inc	r0
      000356 E2               [24]  856 	movx	a,@r0
      000357 09               [12]  857 	inc	r1
      000358 F3               [24]  858 	movx	@r1,a
      000359 08               [12]  859 	inc	r0
      00035A E2               [24]  860 	movx	a,@r0
      00035B 09               [12]  861 	inc	r1
      00035C F3               [24]  862 	movx	@r1,a
      00035D 08               [12]  863 	inc	r0
      00035E E2               [24]  864 	movx	a,@r0
      00035F 09               [12]  865 	inc	r1
      000360 F3               [24]  866 	movx	@r1,a
      000361 08               [12]  867 	inc	r0
      000362 E2               [24]  868 	movx	a,@r0
      000363 09               [12]  869 	inc	r1
      000364 F3               [24]  870 	movx	@r1,a
      000365 08               [12]  871 	inc	r0
      000366 E2               [24]  872 	movx	a,@r0
      000367 09               [12]  873 	inc	r1
      000368 F3               [24]  874 	movx	@r1,a
      000369 C0 05            [24]  875 	push	ar5
      00036B C0 04            [24]  876 	push	ar4
      00036D C0 03            [24]  877 	push	ar3
      00036F 78r60            [12]  878 	mov	r0,#___ckd_mul_int_PARM_2
      000371 E2               [24]  879 	movx	a,@r0
      000372 F5 82            [12]  880 	mov	dpl,a
      000374 08               [12]  881 	inc	r0
      000375 E2               [24]  882 	movx	a,@r0
      000376 F5 83            [12]  883 	mov	dph,a
      000378 08               [12]  884 	inc	r0
      000379 E2               [24]  885 	movx	a,@r0
      00037A F5 F0            [12]  886 	mov	b,a
      00037C 08               [12]  887 	inc	r0
      00037D E2               [24]  888 	movx	a,@r0
      00037E C0 E0            [24]  889 	push	acc
      000380 08               [12]  890 	inc	r0
      000381 E2               [24]  891 	movx	a,@r0
      000382 FC               [12]  892 	mov	r4,a
      000383 08               [12]  893 	inc	r0
      000384 E2               [24]  894 	movx	a,@r0
      000385 FD               [12]  895 	mov	r5,a
      000386 08               [12]  896 	inc	r0
      000387 E2               [24]  897 	movx	a,@r0
      000388 FE               [12]  898 	mov	r6,a
      000389 08               [12]  899 	inc	r0
      00038A E2               [24]  900 	movx	a,@r0
      00038B FF               [12]  901 	mov	r7,a
      00038C D0 E0            [24]  902 	pop	acc
      00038E 12r00r00         [24]  903 	lcall	__mullonglong
      000391 78r70            [12]  904 	mov	r0,#___ckd_mul_int_result_65536_50
      000393 C0 E0            [24]  905 	push	acc
      000395 E5 82            [12]  906 	mov	a,dpl
      000397 F2               [24]  907 	movx	@r0,a
      000398 E5 83            [12]  908 	mov	a,dph
      00039A 08               [12]  909 	inc	r0
      00039B F2               [24]  910 	movx	@r0,a
      00039C E5 F0            [12]  911 	mov	a,b
      00039E 08               [12]  912 	inc	r0
      00039F F2               [24]  913 	movx	@r0,a
      0003A0 D0 E0            [24]  914 	pop	acc
      0003A2 08               [12]  915 	inc	r0
      0003A3 F2               [24]  916 	movx	@r0,a
      0003A4 EC               [12]  917 	mov	a,r4
      0003A5 08               [12]  918 	inc	r0
      0003A6 F2               [24]  919 	movx	@r0,a
      0003A7 ED               [12]  920 	mov	a,r5
      0003A8 08               [12]  921 	inc	r0
      0003A9 F2               [24]  922 	movx	@r0,a
      0003AA EE               [12]  923 	mov	a,r6
      0003AB 08               [12]  924 	inc	r0
      0003AC F2               [24]  925 	movx	@r0,a
      0003AD EF               [12]  926 	mov	a,r7
      0003AE 08               [12]  927 	inc	r0
      0003AF F2               [24]  928 	movx	@r0,a
      0003B0 D0 03            [24]  929 	pop	ar3
      0003B2 D0 04            [24]  930 	pop	ar4
      0003B4 D0 05            [24]  931 	pop	ar5
      0003B6 78r70            [12]  932 	mov	r0,#___ckd_mul_int_result_65536_50
      0003B8 E2               [24]  933 	movx	a,@r0
      0003B9 FE               [12]  934 	mov	r6,a
      0003BA 08               [12]  935 	inc	r0
      0003BB E2               [24]  936 	movx	a,@r0
      0003BC FF               [12]  937 	mov	r7,a
      0003BD 8D 82            [24]  938 	mov	dpl,r5
      0003BF 8C 83            [24]  939 	mov	dph,r4
      0003C1 8B F0            [24]  940 	mov	b,r3
      0003C3 EE               [12]  941 	mov	a,r6
      0003C4 12r00r00         [24]  942 	lcall	__gptrput
      0003C7 A3               [24]  943 	inc	dptr
      0003C8 EF               [12]  944 	mov	a,r7
      0003C9 12r00r00         [24]  945 	lcall	__gptrput
      0003CC 8E*20            [24]  946 	mov	___ckd_mul_int_sloc0_1_0,r6
      0003CE EF               [12]  947 	mov	a,r7
      0003CF F5*21            [12]  948 	mov	(___ckd_mul_int_sloc0_1_0 + 1),a
      0003D1 33               [12]  949 	rlc	a
      0003D2 95 E0            [12]  950 	subb	a,acc
      0003D4 F5*22            [12]  951 	mov	(___ckd_mul_int_sloc0_1_0 + 2),a
      0003D6 F5*23            [12]  952 	mov	(___ckd_mul_int_sloc0_1_0 + 3),a
      0003D8 F5*24            [12]  953 	mov	(___ckd_mul_int_sloc0_1_0 + 4),a
      0003DA F5*25            [12]  954 	mov	(___ckd_mul_int_sloc0_1_0 + 5),a
      0003DC F5*26            [12]  955 	mov	(___ckd_mul_int_sloc0_1_0 + 6),a
      0003DE F5*27            [12]  956 	mov	(___ckd_mul_int_sloc0_1_0 + 7),a
      0003E0 78r70            [12]  957 	mov	r0,#___ckd_mul_int_result_65536_50
      0003E2 E2               [24]  958 	movx	a,@r0
      0003E3 B5*20 26         [24]  959 	cjne	a,___ckd_mul_int_sloc0_1_0,00103$
      0003E6 08               [12]  960 	inc	r0
      0003E7 E2               [24]  961 	movx	a,@r0
      0003E8 B5*21 21         [24]  962 	cjne	a,(___ckd_mul_int_sloc0_1_0 + 1),00103$
      0003EB 08               [12]  963 	inc	r0
      0003EC E2               [24]  964 	movx	a,@r0
      0003ED B5*22 1C         [24]  965 	cjne	a,(___ckd_mul_int_sloc0_1_0 + 2),00103$
      0003F0 08               [12]  966 	inc	r0
      0003F1 E2               [24]  967 	movx	a,@r0
      0003F2 B5*23 17         [24]  968 	cjne	a,(___ckd_mul_int_sloc0_1_0 + 3),00103$
      0003F5 08               [12]  969 	inc	r0
      0003F6 E2               [24]  970 	movx	a,@r0
      0003F7 B5*24 12         [24]  971 	cjne	a,(___ckd_mul_int_sloc0_1_0 + 4),00103$
      0003FA 08               [12]  972 	inc	r0
      0003FB E2               [24]  973 	movx	a,@r0
      0003FC B5*25 0D         [24]  974 	cjne	a,(___ckd_mul_int_sloc0_1_0 + 5),00103$
      0003FF 08               [12]  975 	inc	r0
      000400 E2               [24]  976 	movx	a,@r0
      000401 B5*26 08         [24]  977 	cjne	a,(___ckd_mul_int_sloc0_1_0 + 6),00103$
      000404 08               [12]  978 	inc	r0
      000405 E2               [24]  979 	movx	a,@r0
      000406 B5*27 03         [24]  980 	cjne	a,(___ckd_mul_int_sloc0_1_0 + 7),00103$
      000409 D3               [12]  981 	setb	c
      00040A 80 01            [24]  982 	sjmp	00104$
      00040C                        983 00103$:
      00040C C3               [12]  984 	clr	c
      00040D                        985 00104$:
      00040D 92*04            [24]  986 	mov  ___ckd_mul_int_sloc1_1_0,c
      00040F B3               [12]  987 	cpl	c
      000410 E4               [12]  988 	clr	a
      000411 33               [12]  989 	rlc	a
      000412 F5 82            [12]  990 	mov	dpl,a
      000414 22               [24]  991 	ret
                                    992 ;------------------------------------------------------------
                                    993 ;Allocation info for local variables in function '__ckd_mul_uint'
                                    994 ;------------------------------------------------------------
                                    995 ;sloc0                     Allocated with name '___ckd_mul_uint_sloc0_1_0'
                                    996 ;------------------------------------------------------------
                                    997 ;	../../device/include/stdckdint.h:74: inline _Bool __ckd_mul_uint __CKD_DEFAULT_IMPL(unsigned int, *)
                                    998 ;	-----------------------------------------
                                    999 ;	 function __ckd_mul_uint
                                   1000 ;	-----------------------------------------
      000415                       1001 ___ckd_mul_uint:
      000415 AD 82            [24] 1002 	mov	r5,dpl
      000417 AC 83            [24] 1003 	mov	r4,dph
      000419 AB F0            [24] 1004 	mov	r3,b
      00041B 78r80            [12] 1005 	mov	r0,#___ckd_mul_uint_PARM_3
      00041D 79r00            [12] 1006 	mov	r1,#__mullonglong_PARM_2
      00041F E2               [24] 1007 	movx	a,@r0
      000420 F3               [24] 1008 	movx	@r1,a
      000421 08               [12] 1009 	inc	r0
      000422 E2               [24] 1010 	movx	a,@r0
      000423 09               [12] 1011 	inc	r1
      000424 F3               [24] 1012 	movx	@r1,a
      000425 08               [12] 1013 	inc	r0
      000426 E2               [24] 1014 	movx	a,@r0
      000427 09               [12] 1015 	inc	r1
      000428 F3               [24] 1016 	movx	@r1,a
      000429 08               [12] 1017 	inc	r0
      00042A E2               [24] 1018 	movx	a,@r0
      00042B 09               [12] 1019 	inc	r1
      00042C F3               [24] 1020 	movx	@r1,a
      00042D 08               [12] 1021 	inc	r0
      00042E E2               [24] 1022 	movx	a,@r0
      00042F 09               [12] 1023 	inc	r1
      000430 F3               [24] 1024 	movx	@r1,a
      000431 08               [12] 1025 	inc	r0
      000432 E2               [24] 1026 	movx	a,@r0
      000433 09               [12] 1027 	inc	r1
      000434 F3               [24] 1028 	movx	@r1,a
      000435 08               [12] 1029 	inc	r0
      000436 E2               [24] 1030 	movx	a,@r0
      000437 09               [12] 1031 	inc	r1
      000438 F3               [24] 1032 	movx	@r1,a
      000439 08               [12] 1033 	inc	r0
      00043A E2               [24] 1034 	movx	a,@r0
      00043B 09               [12] 1035 	inc	r1
      00043C F3               [24] 1036 	movx	@r1,a
      00043D C0 05            [24] 1037 	push	ar5
      00043F C0 04            [24] 1038 	push	ar4
      000441 C0 03            [24] 1039 	push	ar3
      000443 78r78            [12] 1040 	mov	r0,#___ckd_mul_uint_PARM_2
      000445 E2               [24] 1041 	movx	a,@r0
      000446 F5 82            [12] 1042 	mov	dpl,a
      000448 08               [12] 1043 	inc	r0
      000449 E2               [24] 1044 	movx	a,@r0
      00044A F5 83            [12] 1045 	mov	dph,a
      00044C 08               [12] 1046 	inc	r0
      00044D E2               [24] 1047 	movx	a,@r0
      00044E F5 F0            [12] 1048 	mov	b,a
      000450 08               [12] 1049 	inc	r0
      000451 E2               [24] 1050 	movx	a,@r0
      000452 C0 E0            [24] 1051 	push	acc
      000454 08               [12] 1052 	inc	r0
      000455 E2               [24] 1053 	movx	a,@r0
      000456 FC               [12] 1054 	mov	r4,a
      000457 08               [12] 1055 	inc	r0
      000458 E2               [24] 1056 	movx	a,@r0
      000459 FD               [12] 1057 	mov	r5,a
      00045A 08               [12] 1058 	inc	r0
      00045B E2               [24] 1059 	movx	a,@r0
      00045C FE               [12] 1060 	mov	r6,a
      00045D 08               [12] 1061 	inc	r0
      00045E E2               [24] 1062 	movx	a,@r0
      00045F FF               [12] 1063 	mov	r7,a
      000460 D0 E0            [24] 1064 	pop	acc
      000462 12r00r00         [24] 1065 	lcall	__mullonglong
      000465 78r88            [12] 1066 	mov	r0,#___ckd_mul_uint_result_65536_52
      000467 C0 E0            [24] 1067 	push	acc
      000469 E5 82            [12] 1068 	mov	a,dpl
      00046B F2               [24] 1069 	movx	@r0,a
      00046C E5 83            [12] 1070 	mov	a,dph
      00046E 08               [12] 1071 	inc	r0
      00046F F2               [24] 1072 	movx	@r0,a
      000470 E5 F0            [12] 1073 	mov	a,b
      000472 08               [12] 1074 	inc	r0
      000473 F2               [24] 1075 	movx	@r0,a
      000474 D0 E0            [24] 1076 	pop	acc
      000476 08               [12] 1077 	inc	r0
      000477 F2               [24] 1078 	movx	@r0,a
      000478 EC               [12] 1079 	mov	a,r4
      000479 08               [12] 1080 	inc	r0
      00047A F2               [24] 1081 	movx	@r0,a
      00047B ED               [12] 1082 	mov	a,r5
      00047C 08               [12] 1083 	inc	r0
      00047D F2               [24] 1084 	movx	@r0,a
      00047E EE               [12] 1085 	mov	a,r6
      00047F 08               [12] 1086 	inc	r0
      000480 F2               [24] 1087 	movx	@r0,a
      000481 EF               [12] 1088 	mov	a,r7
      000482 08               [12] 1089 	inc	r0
      000483 F2               [24] 1090 	movx	@r0,a
      000484 D0 03            [24] 1091 	pop	ar3
      000486 D0 04            [24] 1092 	pop	ar4
      000488 D0 05            [24] 1093 	pop	ar5
      00048A 78r88            [12] 1094 	mov	r0,#___ckd_mul_uint_result_65536_52
      00048C E2               [24] 1095 	movx	a,@r0
      00048D FE               [12] 1096 	mov	r6,a
      00048E 08               [12] 1097 	inc	r0
      00048F E2               [24] 1098 	movx	a,@r0
      000490 FF               [12] 1099 	mov	r7,a
      000491 8D 82            [24] 1100 	mov	dpl,r5
      000493 8C 83            [24] 1101 	mov	dph,r4
      000495 8B F0            [24] 1102 	mov	b,r3
      000497 EE               [12] 1103 	mov	a,r6
      000498 12r00r00         [24] 1104 	lcall	__gptrput
      00049B A3               [24] 1105 	inc	dptr
      00049C EF               [12] 1106 	mov	a,r7
      00049D 12r00r00         [24] 1107 	lcall	__gptrput
      0004A0 8E*28            [24] 1108 	mov	___ckd_mul_uint_sloc0_1_0,r6
      0004A2 8F*29            [24] 1109 	mov	(___ckd_mul_uint_sloc0_1_0 + 1),r7
      0004A4 75*2A 00         [24] 1110 	mov	(___ckd_mul_uint_sloc0_1_0 + 2),#0x00
      0004A7 75*2B 00         [24] 1111 	mov	(___ckd_mul_uint_sloc0_1_0 + 3),#0x00
      0004AA 75*2C 00         [24] 1112 	mov	(___ckd_mul_uint_sloc0_1_0 + 4),#0x00
      0004AD 75*2D 00         [24] 1113 	mov	(___ckd_mul_uint_sloc0_1_0 + 5),#0x00
      0004B0 75*2E 00         [24] 1114 	mov	(___ckd_mul_uint_sloc0_1_0 + 6),#0x00
      0004B3 75*2F 00         [24] 1115 	mov	(___ckd_mul_uint_sloc0_1_0 + 7),#0x00
      0004B6 78r88            [12] 1116 	mov	r0,#___ckd_mul_uint_result_65536_52
      0004B8 E2               [24] 1117 	movx	a,@r0
      0004B9 B5*28 26         [24] 1118 	cjne	a,___ckd_mul_uint_sloc0_1_0,00103$
      0004BC 08               [12] 1119 	inc	r0
      0004BD E2               [24] 1120 	movx	a,@r0
      0004BE B5*29 21         [24] 1121 	cjne	a,(___ckd_mul_uint_sloc0_1_0 + 1),00103$
      0004C1 08               [12] 1122 	inc	r0
      0004C2 E2               [24] 1123 	movx	a,@r0
      0004C3 B5*2A 1C         [24] 1124 	cjne	a,(___ckd_mul_uint_sloc0_1_0 + 2),00103$
      0004C6 08               [12] 1125 	inc	r0
      0004C7 E2               [24] 1126 	movx	a,@r0
      0004C8 B5*2B 17         [24] 1127 	cjne	a,(___ckd_mul_uint_sloc0_1_0 + 3),00103$
      0004CB 08               [12] 1128 	inc	r0
      0004CC E2               [24] 1129 	movx	a,@r0
      0004CD B5*2C 12         [24] 1130 	cjne	a,(___ckd_mul_uint_sloc0_1_0 + 4),00103$
      0004D0 08               [12] 1131 	inc	r0
      0004D1 E2               [24] 1132 	movx	a,@r0
      0004D2 B5*2D 0D         [24] 1133 	cjne	a,(___ckd_mul_uint_sloc0_1_0 + 5),00103$
      0004D5 08               [12] 1134 	inc	r0
      0004D6 E2               [24] 1135 	movx	a,@r0
      0004D7 B5*2E 08         [24] 1136 	cjne	a,(___ckd_mul_uint_sloc0_1_0 + 6),00103$
      0004DA 08               [12] 1137 	inc	r0
      0004DB E2               [24] 1138 	movx	a,@r0
      0004DC B5*2F 03         [24] 1139 	cjne	a,(___ckd_mul_uint_sloc0_1_0 + 7),00103$
      0004DF D3               [12] 1140 	setb	c
      0004E0 80 01            [24] 1141 	sjmp	00104$
      0004E2                       1142 00103$:
      0004E2 C3               [12] 1143 	clr	c
      0004E3                       1144 00104$:
      0004E3 92*05            [24] 1145 	mov  ___ckd_mul_uint_sloc1_1_0,c
      0004E5 B3               [12] 1146 	cpl	c
      0004E6 E4               [12] 1147 	clr	a
      0004E7 33               [12] 1148 	rlc	a
      0004E8 F5 82            [12] 1149 	mov	dpl,a
      0004EA 22               [24] 1150 	ret
                                   1151 ;------------------------------------------------------------
                                   1152 ;Allocation info for local variables in function '__ckd_mul_long'
                                   1153 ;------------------------------------------------------------
                                   1154 ;sloc0                     Allocated with name '___ckd_mul_long_sloc0_1_0'
                                   1155 ;------------------------------------------------------------
                                   1156 ;	../../device/include/stdckdint.h:75: inline _Bool __ckd_mul_long __CKD_DEFAULT_IMPL(long, *)
                                   1157 ;	-----------------------------------------
                                   1158 ;	 function __ckd_mul_long
                                   1159 ;	-----------------------------------------
      0004EB                       1160 ___ckd_mul_long:
      0004EB AF F0            [24] 1161 	mov	r7,b
      0004ED AE 83            [24] 1162 	mov	r6,dph
      0004EF E5 82            [12] 1163 	mov	a,dpl
      0004F1 78rA0            [12] 1164 	mov	r0,#___ckd_mul_long_r_65536_53
      0004F3 F2               [24] 1165 	movx	@r0,a
      0004F4 EE               [12] 1166 	mov	a,r6
      0004F5 08               [12] 1167 	inc	r0
      0004F6 F2               [24] 1168 	movx	@r0,a
      0004F7 EF               [12] 1169 	mov	a,r7
      0004F8 08               [12] 1170 	inc	r0
      0004F9 F2               [24] 1171 	movx	@r0,a
      0004FA 78r98            [12] 1172 	mov	r0,#___ckd_mul_long_PARM_3
      0004FC 79r00            [12] 1173 	mov	r1,#__mullonglong_PARM_2
      0004FE E2               [24] 1174 	movx	a,@r0
      0004FF F3               [24] 1175 	movx	@r1,a
      000500 08               [12] 1176 	inc	r0
      000501 E2               [24] 1177 	movx	a,@r0
      000502 09               [12] 1178 	inc	r1
      000503 F3               [24] 1179 	movx	@r1,a
      000504 08               [12] 1180 	inc	r0
      000505 E2               [24] 1181 	movx	a,@r0
      000506 09               [12] 1182 	inc	r1
      000507 F3               [24] 1183 	movx	@r1,a
      000508 08               [12] 1184 	inc	r0
      000509 E2               [24] 1185 	movx	a,@r0
      00050A 09               [12] 1186 	inc	r1
      00050B F3               [24] 1187 	movx	@r1,a
      00050C 08               [12] 1188 	inc	r0
      00050D E2               [24] 1189 	movx	a,@r0
      00050E 09               [12] 1190 	inc	r1
      00050F F3               [24] 1191 	movx	@r1,a
      000510 08               [12] 1192 	inc	r0
      000511 E2               [24] 1193 	movx	a,@r0
      000512 09               [12] 1194 	inc	r1
      000513 F3               [24] 1195 	movx	@r1,a
      000514 08               [12] 1196 	inc	r0
      000515 E2               [24] 1197 	movx	a,@r0
      000516 09               [12] 1198 	inc	r1
      000517 F3               [24] 1199 	movx	@r1,a
      000518 08               [12] 1200 	inc	r0
      000519 E2               [24] 1201 	movx	a,@r0
      00051A 09               [12] 1202 	inc	r1
      00051B F3               [24] 1203 	movx	@r1,a
      00051C 78r90            [12] 1204 	mov	r0,#___ckd_mul_long_PARM_2
      00051E E2               [24] 1205 	movx	a,@r0
      00051F F5 82            [12] 1206 	mov	dpl,a
      000521 08               [12] 1207 	inc	r0
      000522 E2               [24] 1208 	movx	a,@r0
      000523 F5 83            [12] 1209 	mov	dph,a
      000525 08               [12] 1210 	inc	r0
      000526 E2               [24] 1211 	movx	a,@r0
      000527 F5 F0            [12] 1212 	mov	b,a
      000529 08               [12] 1213 	inc	r0
      00052A E2               [24] 1214 	movx	a,@r0
      00052B C0 E0            [24] 1215 	push	acc
      00052D 08               [12] 1216 	inc	r0
      00052E E2               [24] 1217 	movx	a,@r0
      00052F FC               [12] 1218 	mov	r4,a
      000530 08               [12] 1219 	inc	r0
      000531 E2               [24] 1220 	movx	a,@r0
      000532 FD               [12] 1221 	mov	r5,a
      000533 08               [12] 1222 	inc	r0
      000534 E2               [24] 1223 	movx	a,@r0
      000535 FE               [12] 1224 	mov	r6,a
      000536 08               [12] 1225 	inc	r0
      000537 E2               [24] 1226 	movx	a,@r0
      000538 FF               [12] 1227 	mov	r7,a
      000539 D0 E0            [24] 1228 	pop	acc
      00053B 12r00r00         [24] 1229 	lcall	__mullonglong
      00053E 78rA3            [12] 1230 	mov	r0,#___ckd_mul_long_result_65536_54
      000540 C0 E0            [24] 1231 	push	acc
      000542 E5 82            [12] 1232 	mov	a,dpl
      000544 F2               [24] 1233 	movx	@r0,a
      000545 E5 83            [12] 1234 	mov	a,dph
      000547 08               [12] 1235 	inc	r0
      000548 F2               [24] 1236 	movx	@r0,a
      000549 E5 F0            [12] 1237 	mov	a,b
      00054B 08               [12] 1238 	inc	r0
      00054C F2               [24] 1239 	movx	@r0,a
      00054D D0 E0            [24] 1240 	pop	acc
      00054F 08               [12] 1241 	inc	r0
      000550 F2               [24] 1242 	movx	@r0,a
      000551 EC               [12] 1243 	mov	a,r4
      000552 08               [12] 1244 	inc	r0
      000553 F2               [24] 1245 	movx	@r0,a
      000554 ED               [12] 1246 	mov	a,r5
      000555 08               [12] 1247 	inc	r0
      000556 F2               [24] 1248 	movx	@r0,a
      000557 EE               [12] 1249 	mov	a,r6
      000558 08               [12] 1250 	inc	r0
      000559 F2               [24] 1251 	movx	@r0,a
      00055A EF               [12] 1252 	mov	a,r7
      00055B 08               [12] 1253 	inc	r0
      00055C F2               [24] 1254 	movx	@r0,a
      00055D 78rA3            [12] 1255 	mov	r0,#___ckd_mul_long_result_65536_54
      00055F E2               [24] 1256 	movx	a,@r0
      000560 FD               [12] 1257 	mov	r5,a
      000561 08               [12] 1258 	inc	r0
      000562 E2               [24] 1259 	movx	a,@r0
      000563 FE               [12] 1260 	mov	r6,a
      000564 08               [12] 1261 	inc	r0
      000565 E2               [24] 1262 	movx	a,@r0
      000566 FC               [12] 1263 	mov	r4,a
      000567 08               [12] 1264 	inc	r0
      000568 E2               [24] 1265 	movx	a,@r0
      000569 FF               [12] 1266 	mov	r7,a
      00056A 78rA0            [12] 1267 	mov	r0,#___ckd_mul_long_r_65536_53
      00056C E2               [24] 1268 	movx	a,@r0
      00056D F5 82            [12] 1269 	mov	dpl,a
      00056F 08               [12] 1270 	inc	r0
      000570 E2               [24] 1271 	movx	a,@r0
      000571 F5 83            [12] 1272 	mov	dph,a
      000573 08               [12] 1273 	inc	r0
      000574 E2               [24] 1274 	movx	a,@r0
      000575 F5 F0            [12] 1275 	mov	b,a
      000577 ED               [12] 1276 	mov	a,r5
      000578 12r00r00         [24] 1277 	lcall	__gptrput
      00057B A3               [24] 1278 	inc	dptr
      00057C EE               [12] 1279 	mov	a,r6
      00057D 12r00r00         [24] 1280 	lcall	__gptrput
      000580 A3               [24] 1281 	inc	dptr
      000581 EC               [12] 1282 	mov	a,r4
      000582 12r00r00         [24] 1283 	lcall	__gptrput
      000585 A3               [24] 1284 	inc	dptr
      000586 EF               [12] 1285 	mov	a,r7
      000587 12r00r00         [24] 1286 	lcall	__gptrput
      00058A 8D*30            [24] 1287 	mov	___ckd_mul_long_sloc0_1_0,r5
      00058C 8E*31            [24] 1288 	mov	(___ckd_mul_long_sloc0_1_0 + 1),r6
      00058E 8C*32            [24] 1289 	mov	(___ckd_mul_long_sloc0_1_0 + 2),r4
      000590 EF               [12] 1290 	mov	a,r7
      000591 F5*33            [12] 1291 	mov	(___ckd_mul_long_sloc0_1_0 + 3),a
      000593 33               [12] 1292 	rlc	a
      000594 95 E0            [12] 1293 	subb	a,acc
      000596 F5*34            [12] 1294 	mov	(___ckd_mul_long_sloc0_1_0 + 4),a
      000598 F5*35            [12] 1295 	mov	(___ckd_mul_long_sloc0_1_0 + 5),a
      00059A F5*36            [12] 1296 	mov	(___ckd_mul_long_sloc0_1_0 + 6),a
      00059C F5*37            [12] 1297 	mov	(___ckd_mul_long_sloc0_1_0 + 7),a
      00059E 78rA3            [12] 1298 	mov	r0,#___ckd_mul_long_result_65536_54
      0005A0 E2               [24] 1299 	movx	a,@r0
      0005A1 B5*30 26         [24] 1300 	cjne	a,___ckd_mul_long_sloc0_1_0,00103$
      0005A4 08               [12] 1301 	inc	r0
      0005A5 E2               [24] 1302 	movx	a,@r0
      0005A6 B5*31 21         [24] 1303 	cjne	a,(___ckd_mul_long_sloc0_1_0 + 1),00103$
      0005A9 08               [12] 1304 	inc	r0
      0005AA E2               [24] 1305 	movx	a,@r0
      0005AB B5*32 1C         [24] 1306 	cjne	a,(___ckd_mul_long_sloc0_1_0 + 2),00103$
      0005AE 08               [12] 1307 	inc	r0
      0005AF E2               [24] 1308 	movx	a,@r0
      0005B0 B5*33 17         [24] 1309 	cjne	a,(___ckd_mul_long_sloc0_1_0 + 3),00103$
      0005B3 08               [12] 1310 	inc	r0
      0005B4 E2               [24] 1311 	movx	a,@r0
      0005B5 B5*34 12         [24] 1312 	cjne	a,(___ckd_mul_long_sloc0_1_0 + 4),00103$
      0005B8 08               [12] 1313 	inc	r0
      0005B9 E2               [24] 1314 	movx	a,@r0
      0005BA B5*35 0D         [24] 1315 	cjne	a,(___ckd_mul_long_sloc0_1_0 + 5),00103$
      0005BD 08               [12] 1316 	inc	r0
      0005BE E2               [24] 1317 	movx	a,@r0
      0005BF B5*36 08         [24] 1318 	cjne	a,(___ckd_mul_long_sloc0_1_0 + 6),00103$
      0005C2 08               [12] 1319 	inc	r0
      0005C3 E2               [24] 1320 	movx	a,@r0
      0005C4 B5*37 03         [24] 1321 	cjne	a,(___ckd_mul_long_sloc0_1_0 + 7),00103$
      0005C7 D3               [12] 1322 	setb	c
      0005C8 80 01            [24] 1323 	sjmp	00104$
      0005CA                       1324 00103$:
      0005CA C3               [12] 1325 	clr	c
      0005CB                       1326 00104$:
      0005CB 92*06            [24] 1327 	mov  ___ckd_mul_long_sloc1_1_0,c
      0005CD B3               [12] 1328 	cpl	c
      0005CE E4               [12] 1329 	clr	a
      0005CF 33               [12] 1330 	rlc	a
      0005D0 F5 82            [12] 1331 	mov	dpl,a
      0005D2 22               [24] 1332 	ret
                                   1333 ;------------------------------------------------------------
                                   1334 ;Allocation info for local variables in function '__ckd_mul_ulong'
                                   1335 ;------------------------------------------------------------
                                   1336 ;sloc0                     Allocated with name '___ckd_mul_ulong_sloc0_1_0'
                                   1337 ;------------------------------------------------------------
                                   1338 ;	../../device/include/stdckdint.h:76: inline _Bool __ckd_mul_ulong __CKD_DEFAULT_IMPL(unsigned long, *)
                                   1339 ;	-----------------------------------------
                                   1340 ;	 function __ckd_mul_ulong
                                   1341 ;	-----------------------------------------
      0005D3                       1342 ___ckd_mul_ulong:
      0005D3 AF F0            [24] 1343 	mov	r7,b
      0005D5 AE 83            [24] 1344 	mov	r6,dph
      0005D7 E5 82            [12] 1345 	mov	a,dpl
      0005D9 78rBB            [12] 1346 	mov	r0,#___ckd_mul_ulong_r_65536_55
      0005DB F2               [24] 1347 	movx	@r0,a
      0005DC EE               [12] 1348 	mov	a,r6
      0005DD 08               [12] 1349 	inc	r0
      0005DE F2               [24] 1350 	movx	@r0,a
      0005DF EF               [12] 1351 	mov	a,r7
      0005E0 08               [12] 1352 	inc	r0
      0005E1 F2               [24] 1353 	movx	@r0,a
      0005E2 78rB3            [12] 1354 	mov	r0,#___ckd_mul_ulong_PARM_3
      0005E4 79r00            [12] 1355 	mov	r1,#__mullonglong_PARM_2
      0005E6 E2               [24] 1356 	movx	a,@r0
      0005E7 F3               [24] 1357 	movx	@r1,a
      0005E8 08               [12] 1358 	inc	r0
      0005E9 E2               [24] 1359 	movx	a,@r0
      0005EA 09               [12] 1360 	inc	r1
      0005EB F3               [24] 1361 	movx	@r1,a
      0005EC 08               [12] 1362 	inc	r0
      0005ED E2               [24] 1363 	movx	a,@r0
      0005EE 09               [12] 1364 	inc	r1
      0005EF F3               [24] 1365 	movx	@r1,a
      0005F0 08               [12] 1366 	inc	r0
      0005F1 E2               [24] 1367 	movx	a,@r0
      0005F2 09               [12] 1368 	inc	r1
      0005F3 F3               [24] 1369 	movx	@r1,a
      0005F4 08               [12] 1370 	inc	r0
      0005F5 E2               [24] 1371 	movx	a,@r0
      0005F6 09               [12] 1372 	inc	r1
      0005F7 F3               [24] 1373 	movx	@r1,a
      0005F8 08               [12] 1374 	inc	r0
      0005F9 E2               [24] 1375 	movx	a,@r0
      0005FA 09               [12] 1376 	inc	r1
      0005FB F3               [24] 1377 	movx	@r1,a
      0005FC 08               [12] 1378 	inc	r0
      0005FD E2               [24] 1379 	movx	a,@r0
      0005FE 09               [12] 1380 	inc	r1
      0005FF F3               [24] 1381 	movx	@r1,a
      000600 08               [12] 1382 	inc	r0
      000601 E2               [24] 1383 	movx	a,@r0
      000602 09               [12] 1384 	inc	r1
      000603 F3               [24] 1385 	movx	@r1,a
      000604 78rAB            [12] 1386 	mov	r0,#___ckd_mul_ulong_PARM_2
      000606 E2               [24] 1387 	movx	a,@r0
      000607 F5 82            [12] 1388 	mov	dpl,a
      000609 08               [12] 1389 	inc	r0
      00060A E2               [24] 1390 	movx	a,@r0
      00060B F5 83            [12] 1391 	mov	dph,a
      00060D 08               [12] 1392 	inc	r0
      00060E E2               [24] 1393 	movx	a,@r0
      00060F F5 F0            [12] 1394 	mov	b,a
      000611 08               [12] 1395 	inc	r0
      000612 E2               [24] 1396 	movx	a,@r0
      000613 C0 E0            [24] 1397 	push	acc
      000615 08               [12] 1398 	inc	r0
      000616 E2               [24] 1399 	movx	a,@r0
      000617 FC               [12] 1400 	mov	r4,a
      000618 08               [12] 1401 	inc	r0
      000619 E2               [24] 1402 	movx	a,@r0
      00061A FD               [12] 1403 	mov	r5,a
      00061B 08               [12] 1404 	inc	r0
      00061C E2               [24] 1405 	movx	a,@r0
      00061D FE               [12] 1406 	mov	r6,a
      00061E 08               [12] 1407 	inc	r0
      00061F E2               [24] 1408 	movx	a,@r0
      000620 FF               [12] 1409 	mov	r7,a
      000621 D0 E0            [24] 1410 	pop	acc
      000623 12r00r00         [24] 1411 	lcall	__mullonglong
      000626 78rBE            [12] 1412 	mov	r0,#___ckd_mul_ulong_result_65536_56
      000628 C0 E0            [24] 1413 	push	acc
      00062A E5 82            [12] 1414 	mov	a,dpl
      00062C F2               [24] 1415 	movx	@r0,a
      00062D E5 83            [12] 1416 	mov	a,dph
      00062F 08               [12] 1417 	inc	r0
      000630 F2               [24] 1418 	movx	@r0,a
      000631 E5 F0            [12] 1419 	mov	a,b
      000633 08               [12] 1420 	inc	r0
      000634 F2               [24] 1421 	movx	@r0,a
      000635 D0 E0            [24] 1422 	pop	acc
      000637 08               [12] 1423 	inc	r0
      000638 F2               [24] 1424 	movx	@r0,a
      000639 EC               [12] 1425 	mov	a,r4
      00063A 08               [12] 1426 	inc	r0
      00063B F2               [24] 1427 	movx	@r0,a
      00063C ED               [12] 1428 	mov	a,r5
      00063D 08               [12] 1429 	inc	r0
      00063E F2               [24] 1430 	movx	@r0,a
      00063F EE               [12] 1431 	mov	a,r6
      000640 08               [12] 1432 	inc	r0
      000641 F2               [24] 1433 	movx	@r0,a
      000642 EF               [12] 1434 	mov	a,r7
      000643 08               [12] 1435 	inc	r0
      000644 F2               [24] 1436 	movx	@r0,a
      000645 78rBE            [12] 1437 	mov	r0,#___ckd_mul_ulong_result_65536_56
      000647 E2               [24] 1438 	movx	a,@r0
      000648 FD               [12] 1439 	mov	r5,a
      000649 08               [12] 1440 	inc	r0
      00064A E2               [24] 1441 	movx	a,@r0
      00064B FE               [12] 1442 	mov	r6,a
      00064C 08               [12] 1443 	inc	r0
      00064D E2               [24] 1444 	movx	a,@r0
      00064E FC               [12] 1445 	mov	r4,a
      00064F 08               [12] 1446 	inc	r0
      000650 E2               [24] 1447 	movx	a,@r0
      000651 FF               [12] 1448 	mov	r7,a
      000652 78rBB            [12] 1449 	mov	r0,#___ckd_mul_ulong_r_65536_55
      000654 E2               [24] 1450 	movx	a,@r0
      000655 F5 82            [12] 1451 	mov	dpl,a
      000657 08               [12] 1452 	inc	r0
      000658 E2               [24] 1453 	movx	a,@r0
      000659 F5 83            [12] 1454 	mov	dph,a
      00065B 08               [12] 1455 	inc	r0
      00065C E2               [24] 1456 	movx	a,@r0
      00065D F5 F0            [12] 1457 	mov	b,a
      00065F ED               [12] 1458 	mov	a,r5
      000660 12r00r00         [24] 1459 	lcall	__gptrput
      000663 A3               [24] 1460 	inc	dptr
      000664 EE               [12] 1461 	mov	a,r6
      000665 12r00r00         [24] 1462 	lcall	__gptrput
      000668 A3               [24] 1463 	inc	dptr
      000669 EC               [12] 1464 	mov	a,r4
      00066A 12r00r00         [24] 1465 	lcall	__gptrput
      00066D A3               [24] 1466 	inc	dptr
      00066E EF               [12] 1467 	mov	a,r7
      00066F 12r00r00         [24] 1468 	lcall	__gptrput
      000672 8D*38            [24] 1469 	mov	___ckd_mul_ulong_sloc0_1_0,r5
      000674 8E*39            [24] 1470 	mov	(___ckd_mul_ulong_sloc0_1_0 + 1),r6
      000676 8C*3A            [24] 1471 	mov	(___ckd_mul_ulong_sloc0_1_0 + 2),r4
      000678 8F*3B            [24] 1472 	mov	(___ckd_mul_ulong_sloc0_1_0 + 3),r7
      00067A 75*3C 00         [24] 1473 	mov	(___ckd_mul_ulong_sloc0_1_0 + 4),#0x00
      00067D 75*3D 00         [24] 1474 	mov	(___ckd_mul_ulong_sloc0_1_0 + 5),#0x00
      000680 75*3E 00         [24] 1475 	mov	(___ckd_mul_ulong_sloc0_1_0 + 6),#0x00
      000683 75*3F 00         [24] 1476 	mov	(___ckd_mul_ulong_sloc0_1_0 + 7),#0x00
      000686 78rBE            [12] 1477 	mov	r0,#___ckd_mul_ulong_result_65536_56
      000688 E2               [24] 1478 	movx	a,@r0
      000689 B5*38 26         [24] 1479 	cjne	a,___ckd_mul_ulong_sloc0_1_0,00103$
      00068C 08               [12] 1480 	inc	r0
      00068D E2               [24] 1481 	movx	a,@r0
      00068E B5*39 21         [24] 1482 	cjne	a,(___ckd_mul_ulong_sloc0_1_0 + 1),00103$
      000691 08               [12] 1483 	inc	r0
      000692 E2               [24] 1484 	movx	a,@r0
      000693 B5*3A 1C         [24] 1485 	cjne	a,(___ckd_mul_ulong_sloc0_1_0 + 2),00103$
      000696 08               [12] 1486 	inc	r0
      000697 E2               [24] 1487 	movx	a,@r0
      000698 B5*3B 17         [24] 1488 	cjne	a,(___ckd_mul_ulong_sloc0_1_0 + 3),00103$
      00069B 08               [12] 1489 	inc	r0
      00069C E2               [24] 1490 	movx	a,@r0
      00069D B5*3C 12         [24] 1491 	cjne	a,(___ckd_mul_ulong_sloc0_1_0 + 4),00103$
      0006A0 08               [12] 1492 	inc	r0
      0006A1 E2               [24] 1493 	movx	a,@r0
      0006A2 B5*3D 0D         [24] 1494 	cjne	a,(___ckd_mul_ulong_sloc0_1_0 + 5),00103$
      0006A5 08               [12] 1495 	inc	r0
      0006A6 E2               [24] 1496 	movx	a,@r0
      0006A7 B5*3E 08         [24] 1497 	cjne	a,(___ckd_mul_ulong_sloc0_1_0 + 6),00103$
      0006AA 08               [12] 1498 	inc	r0
      0006AB E2               [24] 1499 	movx	a,@r0
      0006AC B5*3F 03         [24] 1500 	cjne	a,(___ckd_mul_ulong_sloc0_1_0 + 7),00103$
      0006AF D3               [12] 1501 	setb	c
      0006B0 80 01            [24] 1502 	sjmp	00104$
      0006B2                       1503 00103$:
      0006B2 C3               [12] 1504 	clr	c
      0006B3                       1505 00104$:
      0006B3 92*07            [24] 1506 	mov  ___ckd_mul_ulong_sloc1_1_0,c
      0006B5 B3               [12] 1507 	cpl	c
      0006B6 E4               [12] 1508 	clr	a
      0006B7 33               [12] 1509 	rlc	a
      0006B8 F5 82            [12] 1510 	mov	dpl,a
      0006BA 22               [24] 1511 	ret
                                   1512 	.area CSEG    (CODE)
                                   1513 	.area CONST   (CODE)
                                   1514 	.area XINIT   (CODE)
                                   1515 	.area CABS    (ABS,CODE)
