                                      1 ;--------------------------------------------------------
                                      2 ; File Created by SDCC : free open source ISO C Compiler 
                                      3 ; Version 4.2.14 #0 (Linux)
                                      4 ;--------------------------------------------------------
                                      5 	.module sincoshf
                                      6 	.optsdcc -mmcs51 --model-medium
                                      7 	
                                      8 ;--------------------------------------------------------
                                      9 ; Public variables in this module
                                     10 ;--------------------------------------------------------
                                     11 	.globl _sincoshf
                                     12 	.globl _expf
                                     13 	.globl _sincoshf_PARM_2
                                     14 ;--------------------------------------------------------
                                     15 ; special function registers
                                     16 ;--------------------------------------------------------
                                     17 	.area RSEG    (ABS,DATA)
      000000                         18 	.org 0x0000
                                     19 ;--------------------------------------------------------
                                     20 ; special function bits
                                     21 ;--------------------------------------------------------
                                     22 	.area RSEG    (ABS,DATA)
      000000                         23 	.org 0x0000
                                     24 ;--------------------------------------------------------
                                     25 ; overlayable register banks
                                     26 ;--------------------------------------------------------
                                     27 	.area REG_BANK_0	(REL,OVR,DATA)
      000000                         28 	.ds 8
                                     29 ;--------------------------------------------------------
                                     30 ; internal ram data
                                     31 ;--------------------------------------------------------
                                     32 	.area DSEG    (DATA)
      000000                         33 _sincoshf_sloc0_1_0:
      000000                         34 	.ds 4
      000004                         35 _sincoshf_sloc1_1_0:
      000004                         36 	.ds 4
      000008                         37 _sincoshf_sloc2_1_0:
      000008                         38 	.ds 4
                                     39 ;--------------------------------------------------------
                                     40 ; overlayable items in internal ram
                                     41 ;--------------------------------------------------------
                                     42 ;--------------------------------------------------------
                                     43 ; indirectly addressable internal ram data
                                     44 ;--------------------------------------------------------
                                     45 	.area ISEG    (DATA)
                                     46 ;--------------------------------------------------------
                                     47 ; absolute internal ram data
                                     48 ;--------------------------------------------------------
                                     49 	.area IABS    (ABS,DATA)
                                     50 	.area IABS    (ABS,DATA)
                                     51 ;--------------------------------------------------------
                                     52 ; bit data
                                     53 ;--------------------------------------------------------
                                     54 	.area BSEG    (BIT)
                                     55 ;--------------------------------------------------------
                                     56 ; paged external ram data
                                     57 ;--------------------------------------------------------
                                     58 	.area PSEG    (PAG,XDATA)
      000000                         59 _sincoshf_PARM_2:
      000000                         60 	.ds 1
      000001                         61 _sincoshf_x_65536_25:
      000001                         62 	.ds 4
      000005                         63 _sincoshf_z_65536_26:
      000005                         64 	.ds 4
      000009                         65 _sincoshf_sign_65536_26:
      000009                         66 	.ds 1
                                     67 ;--------------------------------------------------------
                                     68 ; uninitialized external ram data
                                     69 ;--------------------------------------------------------
                                     70 	.area XSEG    (XDATA)
                                     71 ;--------------------------------------------------------
                                     72 ; absolute external ram data
                                     73 ;--------------------------------------------------------
                                     74 	.area XABS    (ABS,XDATA)
                                     75 ;--------------------------------------------------------
                                     76 ; initialized external ram data
                                     77 ;--------------------------------------------------------
                                     78 	.area XISEG   (XDATA)
                                     79 	.area HOME    (CODE)
                                     80 	.area GSINIT0 (CODE)
                                     81 	.area GSINIT1 (CODE)
                                     82 	.area GSINIT2 (CODE)
                                     83 	.area GSINIT3 (CODE)
                                     84 	.area GSINIT4 (CODE)
                                     85 	.area GSINIT5 (CODE)
                                     86 	.area GSINIT  (CODE)
                                     87 	.area GSFINAL (CODE)
                                     88 	.area CSEG    (CODE)
                                     89 ;--------------------------------------------------------
                                     90 ; global & static initialisations
                                     91 ;--------------------------------------------------------
                                     92 	.area HOME    (CODE)
                                     93 	.area GSINIT  (CODE)
                                     94 	.area GSFINAL (CODE)
                                     95 	.area GSINIT  (CODE)
                                     96 ;--------------------------------------------------------
                                     97 ; Home
                                     98 ;--------------------------------------------------------
                                     99 	.area HOME    (CODE)
                                    100 	.area HOME    (CODE)
                                    101 ;--------------------------------------------------------
                                    102 ; code
                                    103 ;--------------------------------------------------------
                                    104 	.area CSEG    (CODE)
                                    105 ;------------------------------------------------------------
                                    106 ;Allocation info for local variables in function 'sincoshf'
                                    107 ;------------------------------------------------------------
                                    108 ;sloc0                     Allocated with name '_sincoshf_sloc0_1_0'
                                    109 ;sloc1                     Allocated with name '_sincoshf_sloc1_1_0'
                                    110 ;sloc2                     Allocated with name '_sincoshf_sloc2_1_0'
                                    111 ;------------------------------------------------------------
                                    112 ;	sincoshf.c:56: float sincoshf(float x, bool iscosh)
                                    113 ;	-----------------------------------------
                                    114 ;	 function sincoshf
                                    115 ;	-----------------------------------------
      000000                        116 _sincoshf:
                           000007   117 	ar7 = 0x07
                           000006   118 	ar6 = 0x06
                           000005   119 	ar5 = 0x05
                           000004   120 	ar4 = 0x04
                           000003   121 	ar3 = 0x03
                           000002   122 	ar2 = 0x02
                           000001   123 	ar1 = 0x01
                           000000   124 	ar0 = 0x00
      000000 AF 82            [24]  125 	mov	r7,dpl
      000002 AE 83            [24]  126 	mov	r6,dph
      000004 AD F0            [24]  127 	mov	r5,b
      000006 FC               [12]  128 	mov	r4,a
      000007 78r01            [12]  129 	mov	r0,#_sincoshf_x_65536_25
      000009 EF               [12]  130 	mov	a,r7
      00000A F2               [24]  131 	movx	@r0,a
      00000B EE               [12]  132 	mov	a,r6
      00000C 08               [12]  133 	inc	r0
      00000D F2               [24]  134 	movx	@r0,a
      00000E ED               [12]  135 	mov	a,r5
      00000F 08               [12]  136 	inc	r0
      000010 F2               [24]  137 	movx	@r0,a
      000011 EC               [12]  138 	mov	a,r4
      000012 08               [12]  139 	inc	r0
      000013 F2               [24]  140 	movx	@r0,a
                                    141 ;	sincoshf.c:61: if (x<0.0) { y=-x; sign=1; }
      000014 E4               [12]  142 	clr	a
      000015 C0 E0            [24]  143 	push	acc
      000017 C0 E0            [24]  144 	push	acc
      000019 C0 E0            [24]  145 	push	acc
      00001B C0 E0            [24]  146 	push	acc
      00001D 78r01            [12]  147 	mov	r0,#_sincoshf_x_65536_25
      00001F E2               [24]  148 	movx	a,@r0
      000020 F5 82            [12]  149 	mov	dpl,a
      000022 08               [12]  150 	inc	r0
      000023 E2               [24]  151 	movx	a,@r0
      000024 F5 83            [12]  152 	mov	dph,a
      000026 08               [12]  153 	inc	r0
      000027 E2               [24]  154 	movx	a,@r0
      000028 F5 F0            [12]  155 	mov	b,a
      00002A 08               [12]  156 	inc	r0
      00002B E2               [24]  157 	movx	a,@r0
      00002C 12r00r00         [24]  158 	lcall	___fslt
      00002F AB 82            [24]  159 	mov	r3,dpl
      000031 E5 81            [12]  160 	mov	a,sp
      000033 24 FC            [12]  161 	add	a,#0xfc
      000035 F5 81            [12]  162 	mov	sp,a
      000037 EB               [12]  163 	mov	a,r3
      000038 60 16            [24]  164 	jz	00102$
      00003A 78r01            [12]  165 	mov	r0,#_sincoshf_x_65536_25
      00003C E2               [24]  166 	movx	a,@r0
      00003D FF               [12]  167 	mov	r7,a
      00003E 08               [12]  168 	inc	r0
      00003F E2               [24]  169 	movx	a,@r0
      000040 FE               [12]  170 	mov	r6,a
      000041 08               [12]  171 	inc	r0
      000042 E2               [24]  172 	movx	a,@r0
      000043 FD               [12]  173 	mov	r5,a
      000044 08               [12]  174 	inc	r0
      000045 E2               [24]  175 	movx	a,@r0
      000046 B2 E7            [12]  176 	cpl	acc.7
      000048 FC               [12]  177 	mov	r4,a
      000049 78r09            [12]  178 	mov	r0,#_sincoshf_sign_65536_26
      00004B 74 01            [12]  179 	mov	a,#0x01
      00004D F2               [24]  180 	movx	@r0,a
      00004E 80 11            [24]  181 	sjmp	00103$
      000050                        182 00102$:
                                    183 ;	sincoshf.c:62: else { y=x;  sign=0; }
      000050 78r01            [12]  184 	mov	r0,#_sincoshf_x_65536_25
      000052 E2               [24]  185 	movx	a,@r0
      000053 FF               [12]  186 	mov	r7,a
      000054 08               [12]  187 	inc	r0
      000055 E2               [24]  188 	movx	a,@r0
      000056 FE               [12]  189 	mov	r6,a
      000057 08               [12]  190 	inc	r0
      000058 E2               [24]  191 	movx	a,@r0
      000059 FD               [12]  192 	mov	r5,a
      00005A 08               [12]  193 	inc	r0
      00005B E2               [24]  194 	movx	a,@r0
      00005C FC               [12]  195 	mov	r4,a
      00005D 78r09            [12]  196 	mov	r0,#_sincoshf_sign_65536_26
      00005F E4               [12]  197 	clr	a
      000060 F2               [24]  198 	movx	@r0,a
      000061                        199 00103$:
                                    200 ;	sincoshf.c:64: if ((y>1.0) || iscosh)
      000061 C0 07            [24]  201 	push	ar7
      000063 C0 06            [24]  202 	push	ar6
      000065 C0 05            [24]  203 	push	ar5
      000067 C0 04            [24]  204 	push	ar4
      000069 C0 07            [24]  205 	push	ar7
      00006B C0 06            [24]  206 	push	ar6
      00006D C0 05            [24]  207 	push	ar5
      00006F C0 04            [24]  208 	push	ar4
      000071 90 00 00         [24]  209 	mov	dptr,#0x0000
      000074 75 F0 80         [24]  210 	mov	b,#0x80
      000077 74 3F            [12]  211 	mov	a,#0x3f
      000079 12r00r00         [24]  212 	lcall	___fslt
      00007C AB 82            [24]  213 	mov	r3,dpl
      00007E E5 81            [12]  214 	mov	a,sp
      000080 24 FC            [12]  215 	add	a,#0xfc
      000082 F5 81            [12]  216 	mov	sp,a
      000084 D0 04            [24]  217 	pop	ar4
      000086 D0 05            [24]  218 	pop	ar5
      000088 D0 06            [24]  219 	pop	ar6
      00008A D0 07            [24]  220 	pop	ar7
      00008C EB               [12]  221 	mov	a,r3
      00008D 70 08            [24]  222 	jnz	00117$
      00008F 78r00            [12]  223 	mov	r0,#_sincoshf_PARM_2
      000091 E2               [24]  224 	movx	a,@r0
      000092 70 03            [24]  225 	jnz	00160$
      000094 02r02r3D         [24]  226 	ljmp	00118$
      000097                        227 00160$:
      000097                        228 00117$:
                                    229 ;	sincoshf.c:66: if(y>YBAR)
      000097 C0 07            [24]  230 	push	ar7
      000099 C0 06            [24]  231 	push	ar6
      00009B C0 05            [24]  232 	push	ar5
      00009D C0 04            [24]  233 	push	ar4
      00009F C0 07            [24]  234 	push	ar7
      0000A1 C0 06            [24]  235 	push	ar6
      0000A3 C0 05            [24]  236 	push	ar5
      0000A5 C0 04            [24]  237 	push	ar4
      0000A7 90 00 00         [24]  238 	mov	dptr,#0x0000
      0000AA 75 F0 10         [24]  239 	mov	b,#0x10
      0000AD 74 41            [12]  240 	mov	a,#0x41
      0000AF 12r00r00         [24]  241 	lcall	___fslt
      0000B2 AB 82            [24]  242 	mov	r3,dpl
      0000B4 E5 81            [12]  243 	mov	a,sp
      0000B6 24 FC            [12]  244 	add	a,#0xfc
      0000B8 F5 81            [12]  245 	mov	sp,a
      0000BA D0 04            [24]  246 	pop	ar4
      0000BC D0 05            [24]  247 	pop	ar5
      0000BE D0 06            [24]  248 	pop	ar6
      0000C0 D0 07            [24]  249 	pop	ar7
      0000C2 EB               [12]  250 	mov	a,r3
      0000C3 70 03            [24]  251 	jnz	00161$
      0000C5 02r01r8E         [24]  252 	ljmp	00110$
      0000C8                        253 00161$:
                                    254 ;	sincoshf.c:68: w=y-K1;
      0000C8 E4               [12]  255 	clr	a
      0000C9 C0 E0            [24]  256 	push	acc
      0000CB 74 73            [12]  257 	mov	a,#0x73
      0000CD C0 E0            [24]  258 	push	acc
      0000CF 74 31            [12]  259 	mov	a,#0x31
      0000D1 C0 E0            [24]  260 	push	acc
      0000D3 74 3F            [12]  261 	mov	a,#0x3f
      0000D5 C0 E0            [24]  262 	push	acc
      0000D7 8F 82            [24]  263 	mov	dpl,r7
      0000D9 8E 83            [24]  264 	mov	dph,r6
      0000DB 8D F0            [24]  265 	mov	b,r5
      0000DD EC               [12]  266 	mov	a,r4
      0000DE 12r00r00         [24]  267 	lcall	___fssub
      0000E1 85 82*00         [24]  268 	mov	_sincoshf_sloc0_1_0,dpl
      0000E4 85 83*01         [24]  269 	mov	(_sincoshf_sloc0_1_0 + 1),dph
      0000E7 85 F0*02         [24]  270 	mov	(_sincoshf_sloc0_1_0 + 2),b
      0000EA F5*03            [12]  271 	mov	(_sincoshf_sloc0_1_0 + 3),a
      0000EC E5 81            [12]  272 	mov	a,sp
      0000EE 24 FC            [12]  273 	add	a,#0xfc
      0000F0 F5 81            [12]  274 	mov	sp,a
                                    275 ;	sincoshf.c:69: if (w>WMAX)
      0000F2 C0*00            [24]  276 	push	_sincoshf_sloc0_1_0
      0000F4 C0*01            [24]  277 	push	(_sincoshf_sloc0_1_0 + 1)
      0000F6 C0*02            [24]  278 	push	(_sincoshf_sloc0_1_0 + 2)
      0000F8 C0*03            [24]  279 	push	(_sincoshf_sloc0_1_0 + 3)
      0000FA 90 BD CF         [24]  280 	mov	dptr,#0xbdcf
      0000FD 75 F0 33         [24]  281 	mov	b,#0x33
      000100 74 42            [12]  282 	mov	a,#0x42
      000102 12r00r00         [24]  283 	lcall	___fslt
      000105 AB 82            [24]  284 	mov	r3,dpl
      000107 E5 81            [12]  285 	mov	a,sp
      000109 24 FC            [12]  286 	add	a,#0xfc
      00010B F5 81            [12]  287 	mov	sp,a
      00010D EB               [12]  288 	mov	a,r3
      00010E 60 17            [24]  289 	jz	00105$
                                    290 ;	sincoshf.c:71: errno=ERANGE;
      000110 78r00            [12]  291 	mov	r0,#_errno
      000112 74 22            [12]  292 	mov	a,#0x22
      000114 F2               [24]  293 	movx	@r0,a
      000115 E4               [12]  294 	clr	a
      000116 08               [12]  295 	inc	r0
      000117 F2               [24]  296 	movx	@r0,a
                                    297 ;	sincoshf.c:72: z=HUGE_VALF;
      000118 75*04 FF         [24]  298 	mov	_sincoshf_sloc1_1_0,#0xff
      00011B 75*05 FF         [24]  299 	mov	(_sincoshf_sloc1_1_0 + 1),#0xff
      00011E 75*06 7F         [24]  300 	mov	(_sincoshf_sloc1_1_0 + 2),#0x7f
      000121 75*07 7F         [24]  301 	mov	(_sincoshf_sloc1_1_0 + 3),#0x7f
      000124 02r02r2C         [24]  302 	ljmp	00111$
      000127                        303 00105$:
                                    304 ;	sincoshf.c:76: z=expf(w);
      000127 85*00 82         [24]  305 	mov	dpl,_sincoshf_sloc0_1_0
      00012A 85*01 83         [24]  306 	mov	dph,(_sincoshf_sloc0_1_0 + 1)
      00012D 85*02 F0         [24]  307 	mov	b,(_sincoshf_sloc0_1_0 + 2)
      000130 E5*03            [12]  308 	mov	a,(_sincoshf_sloc0_1_0 + 3)
      000132 12r00r00         [24]  309 	lcall	_expf
      000135 85 82*00         [24]  310 	mov	_sincoshf_sloc0_1_0,dpl
      000138 85 83*01         [24]  311 	mov	(_sincoshf_sloc0_1_0 + 1),dph
      00013B 85 F0*02         [24]  312 	mov	(_sincoshf_sloc0_1_0 + 2),b
      00013E F5*03            [12]  313 	mov	(_sincoshf_sloc0_1_0 + 3),a
                                    314 ;	sincoshf.c:77: z+=K3*z;
      000140 C0*00            [24]  315 	push	_sincoshf_sloc0_1_0
      000142 C0*01            [24]  316 	push	(_sincoshf_sloc0_1_0 + 1)
      000144 C0*02            [24]  317 	push	(_sincoshf_sloc0_1_0 + 2)
      000146 C0*03            [24]  318 	push	(_sincoshf_sloc0_1_0 + 3)
      000148 90 08 97         [24]  319 	mov	dptr,#0x0897
      00014B 75 F0 68         [24]  320 	mov	b,#0x68
      00014E 74 37            [12]  321 	mov	a,#0x37
      000150 12r00r00         [24]  322 	lcall	___fsmul
      000153 85 82*08         [24]  323 	mov	_sincoshf_sloc2_1_0,dpl
      000156 85 83*09         [24]  324 	mov	(_sincoshf_sloc2_1_0 + 1),dph
      000159 85 F0*0A         [24]  325 	mov	(_sincoshf_sloc2_1_0 + 2),b
      00015C F5*0B            [12]  326 	mov	(_sincoshf_sloc2_1_0 + 3),a
      00015E E5 81            [12]  327 	mov	a,sp
      000160 24 FC            [12]  328 	add	a,#0xfc
      000162 F5 81            [12]  329 	mov	sp,a
      000164 C0*08            [24]  330 	push	_sincoshf_sloc2_1_0
      000166 C0*09            [24]  331 	push	(_sincoshf_sloc2_1_0 + 1)
      000168 C0*0A            [24]  332 	push	(_sincoshf_sloc2_1_0 + 2)
      00016A C0*0B            [24]  333 	push	(_sincoshf_sloc2_1_0 + 3)
      00016C 85*00 82         [24]  334 	mov	dpl,_sincoshf_sloc0_1_0
      00016F 85*01 83         [24]  335 	mov	dph,(_sincoshf_sloc0_1_0 + 1)
      000172 85*02 F0         [24]  336 	mov	b,(_sincoshf_sloc0_1_0 + 2)
      000175 E5*03            [12]  337 	mov	a,(_sincoshf_sloc0_1_0 + 3)
      000177 12r00r00         [24]  338 	lcall	___fsadd
      00017A 85 82*04         [24]  339 	mov	_sincoshf_sloc1_1_0,dpl
      00017D 85 83*05         [24]  340 	mov	(_sincoshf_sloc1_1_0 + 1),dph
      000180 85 F0*06         [24]  341 	mov	(_sincoshf_sloc1_1_0 + 2),b
      000183 F5*07            [12]  342 	mov	(_sincoshf_sloc1_1_0 + 3),a
      000185 E5 81            [12]  343 	mov	a,sp
      000187 24 FC            [12]  344 	add	a,#0xfc
      000189 F5 81            [12]  345 	mov	sp,a
      00018B 02r02r2C         [24]  346 	ljmp	00111$
      00018E                        347 00110$:
                                    348 ;	sincoshf.c:82: z=expf(y);
      00018E 8F 82            [24]  349 	mov	dpl,r7
      000190 8E 83            [24]  350 	mov	dph,r6
      000192 8D F0            [24]  351 	mov	b,r5
      000194 EC               [12]  352 	mov	a,r4
      000195 12r00r00         [24]  353 	lcall	_expf
      000198 78r05            [12]  354 	mov	r0,#_sincoshf_z_65536_26
      00019A C0 E0            [24]  355 	push	acc
      00019C E5 82            [12]  356 	mov	a,dpl
      00019E F2               [24]  357 	movx	@r0,a
      00019F E5 83            [12]  358 	mov	a,dph
      0001A1 08               [12]  359 	inc	r0
      0001A2 F2               [24]  360 	movx	@r0,a
      0001A3 E5 F0            [12]  361 	mov	a,b
      0001A5 08               [12]  362 	inc	r0
      0001A6 F2               [24]  363 	movx	@r0,a
      0001A7 D0 E0            [24]  364 	pop	acc
      0001A9 08               [12]  365 	inc	r0
      0001AA F2               [24]  366 	movx	@r0,a
                                    367 ;	sincoshf.c:83: w=1.0/z;
      0001AB 78r05            [12]  368 	mov	r0,#_sincoshf_z_65536_26
      0001AD E2               [24]  369 	movx	a,@r0
      0001AE C0 E0            [24]  370 	push	acc
      0001B0 08               [12]  371 	inc	r0
      0001B1 E2               [24]  372 	movx	a,@r0
      0001B2 C0 E0            [24]  373 	push	acc
      0001B4 08               [12]  374 	inc	r0
      0001B5 E2               [24]  375 	movx	a,@r0
      0001B6 C0 E0            [24]  376 	push	acc
      0001B8 08               [12]  377 	inc	r0
      0001B9 E2               [24]  378 	movx	a,@r0
      0001BA C0 E0            [24]  379 	push	acc
      0001BC 90 00 00         [24]  380 	mov	dptr,#0x0000
      0001BF 75 F0 80         [24]  381 	mov	b,#0x80
      0001C2 74 3F            [12]  382 	mov	a,#0x3f
      0001C4 12r00r00         [24]  383 	lcall	___fsdiv
      0001C7 AF 82            [24]  384 	mov	r7,dpl
      0001C9 AE 83            [24]  385 	mov	r6,dph
      0001CB AD F0            [24]  386 	mov	r5,b
      0001CD FC               [12]  387 	mov	r4,a
      0001CE E5 81            [12]  388 	mov	a,sp
      0001D0 24 FC            [12]  389 	add	a,#0xfc
      0001D2 F5 81            [12]  390 	mov	sp,a
                                    391 ;	sincoshf.c:84: if(!iscosh) w=-w;
      0001D4 78r00            [12]  392 	mov	r0,#_sincoshf_PARM_2
      0001D6 E2               [24]  393 	movx	a,@r0
      0001D7 70 04            [24]  394 	jnz	00108$
      0001D9 EC               [12]  395 	mov	a,r4
      0001DA B2 E7            [12]  396 	cpl	acc.7
      0001DC FC               [12]  397 	mov	r4,a
      0001DD                        398 00108$:
                                    399 ;	sincoshf.c:85: z=(z+w)*0.5;
      0001DD C0 07            [24]  400 	push	ar7
      0001DF C0 06            [24]  401 	push	ar6
      0001E1 C0 05            [24]  402 	push	ar5
      0001E3 C0 04            [24]  403 	push	ar4
      0001E5 78r05            [12]  404 	mov	r0,#_sincoshf_z_65536_26
      0001E7 E2               [24]  405 	movx	a,@r0
      0001E8 F5 82            [12]  406 	mov	dpl,a
      0001EA 08               [12]  407 	inc	r0
      0001EB E2               [24]  408 	movx	a,@r0
      0001EC F5 83            [12]  409 	mov	dph,a
      0001EE 08               [12]  410 	inc	r0
      0001EF E2               [24]  411 	movx	a,@r0
      0001F0 F5 F0            [12]  412 	mov	b,a
      0001F2 08               [12]  413 	inc	r0
      0001F3 E2               [24]  414 	movx	a,@r0
      0001F4 12r00r00         [24]  415 	lcall	___fsadd
      0001F7 85 82*08         [24]  416 	mov	_sincoshf_sloc2_1_0,dpl
      0001FA 85 83*09         [24]  417 	mov	(_sincoshf_sloc2_1_0 + 1),dph
      0001FD 85 F0*0A         [24]  418 	mov	(_sincoshf_sloc2_1_0 + 2),b
      000200 F5*0B            [12]  419 	mov	(_sincoshf_sloc2_1_0 + 3),a
      000202 E5 81            [12]  420 	mov	a,sp
      000204 24 FC            [12]  421 	add	a,#0xfc
      000206 F5 81            [12]  422 	mov	sp,a
      000208 C0*08            [24]  423 	push	_sincoshf_sloc2_1_0
      00020A C0*09            [24]  424 	push	(_sincoshf_sloc2_1_0 + 1)
      00020C C0*0A            [24]  425 	push	(_sincoshf_sloc2_1_0 + 2)
      00020E C0*0B            [24]  426 	push	(_sincoshf_sloc2_1_0 + 3)
      000210 90 00 00         [24]  427 	mov	dptr,#(0x00&0x00ff)
      000213 E4               [12]  428 	clr	a
      000214 F5 F0            [12]  429 	mov	b,a
      000216 74 3F            [12]  430 	mov	a,#0x3f
      000218 12r00r00         [24]  431 	lcall	___fsmul
      00021B 85 82*04         [24]  432 	mov	_sincoshf_sloc1_1_0,dpl
      00021E 85 83*05         [24]  433 	mov	(_sincoshf_sloc1_1_0 + 1),dph
      000221 85 F0*06         [24]  434 	mov	(_sincoshf_sloc1_1_0 + 2),b
      000224 F5*07            [12]  435 	mov	(_sincoshf_sloc1_1_0 + 3),a
      000226 E5 81            [12]  436 	mov	a,sp
      000228 24 FC            [12]  437 	add	a,#0xfc
      00022A F5 81            [12]  438 	mov	sp,a
      00022C                        439 00111$:
                                    440 ;	sincoshf.c:87: if(sign) z=-z;
      00022C 78r09            [12]  441 	mov	r0,#_sincoshf_sign_65536_26
      00022E E2               [24]  442 	movx	a,@r0
      00022F 70 03            [24]  443 	jnz	00164$
      000231 02r03rB9         [24]  444 	ljmp	00119$
      000234                        445 00164$:
      000234 E5*07            [12]  446 	mov	a,(_sincoshf_sloc1_1_0 + 3)
      000236 B2 E7            [12]  447 	cpl	acc.7
      000238 F5*07            [12]  448 	mov	(_sincoshf_sloc1_1_0 + 3),a
      00023A 02r03rB9         [24]  449 	ljmp	00119$
      00023D                        450 00118$:
                                    451 ;	sincoshf.c:91: if (y<EPS)
      00023D E4               [12]  452 	clr	a
      00023E C0 E0            [24]  453 	push	acc
      000240 C0 E0            [24]  454 	push	acc
      000242 74 80            [12]  455 	mov	a,#0x80
      000244 C0 E0            [24]  456 	push	acc
      000246 74 39            [12]  457 	mov	a,#0x39
      000248 C0 E0            [24]  458 	push	acc
      00024A 8F 82            [24]  459 	mov	dpl,r7
      00024C 8E 83            [24]  460 	mov	dph,r6
      00024E 8D F0            [24]  461 	mov	b,r5
      000250 EC               [12]  462 	mov	a,r4
      000251 12r00r00         [24]  463 	lcall	___fslt
      000254 AB 82            [24]  464 	mov	r3,dpl
      000256 E5 81            [12]  465 	mov	a,sp
      000258 24 FC            [12]  466 	add	a,#0xfc
      00025A F5 81            [12]  467 	mov	sp,a
      00025C EB               [12]  468 	mov	a,r3
      00025D 60 14            [24]  469 	jz	00115$
                                    470 ;	sincoshf.c:92: z=x;
      00025F 78r01            [12]  471 	mov	r0,#_sincoshf_x_65536_25
      000261 E2               [24]  472 	movx	a,@r0
      000262 F5*04            [12]  473 	mov	_sincoshf_sloc1_1_0,a
      000264 08               [12]  474 	inc	r0
      000265 E2               [24]  475 	movx	a,@r0
      000266 F5*05            [12]  476 	mov	(_sincoshf_sloc1_1_0 + 1),a
      000268 08               [12]  477 	inc	r0
      000269 E2               [24]  478 	movx	a,@r0
      00026A F5*06            [12]  479 	mov	(_sincoshf_sloc1_1_0 + 2),a
      00026C 08               [12]  480 	inc	r0
      00026D E2               [24]  481 	movx	a,@r0
      00026E F5*07            [12]  482 	mov	(_sincoshf_sloc1_1_0 + 3),a
      000270 02r03rB9         [24]  483 	ljmp	00119$
      000273                        484 00115$:
                                    485 ;	sincoshf.c:95: z=x*x;
      000273 78r01            [12]  486 	mov	r0,#_sincoshf_x_65536_25
      000275 E2               [24]  487 	movx	a,@r0
      000276 C0 E0            [24]  488 	push	acc
      000278 08               [12]  489 	inc	r0
      000279 E2               [24]  490 	movx	a,@r0
      00027A C0 E0            [24]  491 	push	acc
      00027C 08               [12]  492 	inc	r0
      00027D E2               [24]  493 	movx	a,@r0
      00027E C0 E0            [24]  494 	push	acc
      000280 08               [12]  495 	inc	r0
      000281 E2               [24]  496 	movx	a,@r0
      000282 C0 E0            [24]  497 	push	acc
      000284 78r01            [12]  498 	mov	r0,#_sincoshf_x_65536_25
      000286 E2               [24]  499 	movx	a,@r0
      000287 F5 82            [12]  500 	mov	dpl,a
      000289 08               [12]  501 	inc	r0
      00028A E2               [24]  502 	movx	a,@r0
      00028B F5 83            [12]  503 	mov	dph,a
      00028D 08               [12]  504 	inc	r0
      00028E E2               [24]  505 	movx	a,@r0
      00028F F5 F0            [12]  506 	mov	b,a
      000291 08               [12]  507 	inc	r0
      000292 E2               [24]  508 	movx	a,@r0
      000293 12r00r00         [24]  509 	lcall	___fsmul
      000296 85 82*08         [24]  510 	mov	_sincoshf_sloc2_1_0,dpl
      000299 85 83*09         [24]  511 	mov	(_sincoshf_sloc2_1_0 + 1),dph
      00029C 85 F0*0A         [24]  512 	mov	(_sincoshf_sloc2_1_0 + 2),b
      00029F F5*0B            [12]  513 	mov	(_sincoshf_sloc2_1_0 + 3),a
      0002A1 E5 81            [12]  514 	mov	a,sp
      0002A3 24 FC            [12]  515 	add	a,#0xfc
      0002A5 F5 81            [12]  516 	mov	sp,a
                                    517 ;	sincoshf.c:96: z=x+x*z*P(z)/Q(z);
      0002A7 C0*08            [24]  518 	push	_sincoshf_sloc2_1_0
      0002A9 C0*09            [24]  519 	push	(_sincoshf_sloc2_1_0 + 1)
      0002AB C0*0A            [24]  520 	push	(_sincoshf_sloc2_1_0 + 2)
      0002AD C0*0B            [24]  521 	push	(_sincoshf_sloc2_1_0 + 3)
      0002AF 78r01            [12]  522 	mov	r0,#_sincoshf_x_65536_25
      0002B1 E2               [24]  523 	movx	a,@r0
      0002B2 F5 82            [12]  524 	mov	dpl,a
      0002B4 08               [12]  525 	inc	r0
      0002B5 E2               [24]  526 	movx	a,@r0
      0002B6 F5 83            [12]  527 	mov	dph,a
      0002B8 08               [12]  528 	inc	r0
      0002B9 E2               [24]  529 	movx	a,@r0
      0002BA F5 F0            [12]  530 	mov	b,a
      0002BC 08               [12]  531 	inc	r0
      0002BD E2               [24]  532 	movx	a,@r0
      0002BE 12r00r00         [24]  533 	lcall	___fsmul
      0002C1 85 82*00         [24]  534 	mov	_sincoshf_sloc0_1_0,dpl
      0002C4 85 83*01         [24]  535 	mov	(_sincoshf_sloc0_1_0 + 1),dph
      0002C7 85 F0*02         [24]  536 	mov	(_sincoshf_sloc0_1_0 + 2),b
      0002CA F5*03            [12]  537 	mov	(_sincoshf_sloc0_1_0 + 3),a
      0002CC E5 81            [12]  538 	mov	a,sp
      0002CE 24 FC            [12]  539 	add	a,#0xfc
      0002D0 F5 81            [12]  540 	mov	sp,a
      0002D2 C0*08            [24]  541 	push	_sincoshf_sloc2_1_0
      0002D4 C0*09            [24]  542 	push	(_sincoshf_sloc2_1_0 + 1)
      0002D6 C0*0A            [24]  543 	push	(_sincoshf_sloc2_1_0 + 2)
      0002D8 C0*0B            [24]  544 	push	(_sincoshf_sloc2_1_0 + 3)
      0002DA 90 E6 EA         [24]  545 	mov	dptr,#0xe6ea
      0002DD 75 F0 42         [24]  546 	mov	b,#0x42
      0002E0 74 BE            [12]  547 	mov	a,#0xbe
      0002E2 12r00r00         [24]  548 	lcall	___fsmul
      0002E5 AA 82            [24]  549 	mov	r2,dpl
      0002E7 AB 83            [24]  550 	mov	r3,dph
      0002E9 AE F0            [24]  551 	mov	r6,b
      0002EB FF               [12]  552 	mov	r7,a
      0002EC E5 81            [12]  553 	mov	a,sp
      0002EE 24 FC            [12]  554 	add	a,#0xfc
      0002F0 F5 81            [12]  555 	mov	sp,a
      0002F2 74 F0            [12]  556 	mov	a,#0xf0
      0002F4 C0 E0            [24]  557 	push	acc
      0002F6 74 69            [12]  558 	mov	a,#0x69
      0002F8 C0 E0            [24]  559 	push	acc
      0002FA 74 E4            [12]  560 	mov	a,#0xe4
      0002FC C0 E0            [24]  561 	push	acc
      0002FE 74 C0            [12]  562 	mov	a,#0xc0
      000300 C0 E0            [24]  563 	push	acc
      000302 8A 82            [24]  564 	mov	dpl,r2
      000304 8B 83            [24]  565 	mov	dph,r3
      000306 8E F0            [24]  566 	mov	b,r6
      000308 EF               [12]  567 	mov	a,r7
      000309 12r00r00         [24]  568 	lcall	___fsadd
      00030C AC 82            [24]  569 	mov	r4,dpl
      00030E AD 83            [24]  570 	mov	r5,dph
      000310 AE F0            [24]  571 	mov	r6,b
      000312 FF               [12]  572 	mov	r7,a
      000313 E5 81            [12]  573 	mov	a,sp
      000315 24 FC            [12]  574 	add	a,#0xfc
      000317 F5 81            [12]  575 	mov	sp,a
      000319 C0 04            [24]  576 	push	ar4
      00031B C0 05            [24]  577 	push	ar5
      00031D C0 06            [24]  578 	push	ar6
      00031F C0 07            [24]  579 	push	ar7
      000321 85*00 82         [24]  580 	mov	dpl,_sincoshf_sloc0_1_0
      000324 85*01 83         [24]  581 	mov	dph,(_sincoshf_sloc0_1_0 + 1)
      000327 85*02 F0         [24]  582 	mov	b,(_sincoshf_sloc0_1_0 + 2)
      00032A E5*03            [12]  583 	mov	a,(_sincoshf_sloc0_1_0 + 3)
      00032C 12r00r00         [24]  584 	lcall	___fsmul
      00032F 85 82*00         [24]  585 	mov	_sincoshf_sloc0_1_0,dpl
      000332 85 83*01         [24]  586 	mov	(_sincoshf_sloc0_1_0 + 1),dph
      000335 85 F0*02         [24]  587 	mov	(_sincoshf_sloc0_1_0 + 2),b
      000338 F5*03            [12]  588 	mov	(_sincoshf_sloc0_1_0 + 3),a
      00033A E5 81            [12]  589 	mov	a,sp
      00033C 24 FC            [12]  590 	add	a,#0xfc
      00033E F5 81            [12]  591 	mov	sp,a
      000340 74 93            [12]  592 	mov	a,#0x93
      000342 C0 E0            [24]  593 	push	acc
      000344 74 4F            [12]  594 	mov	a,#0x4f
      000346 C0 E0            [24]  595 	push	acc
      000348 74 2B            [12]  596 	mov	a,#0x2b
      00034A C0 E0            [24]  597 	push	acc
      00034C 74 C2            [12]  598 	mov	a,#0xc2
      00034E C0 E0            [24]  599 	push	acc
      000350 85*08 82         [24]  600 	mov	dpl,_sincoshf_sloc2_1_0
      000353 85*09 83         [24]  601 	mov	dph,(_sincoshf_sloc2_1_0 + 1)
      000356 85*0A F0         [24]  602 	mov	b,(_sincoshf_sloc2_1_0 + 2)
      000359 E5*0B            [12]  603 	mov	a,(_sincoshf_sloc2_1_0 + 3)
      00035B 12r00r00         [24]  604 	lcall	___fsadd
      00035E AA 82            [24]  605 	mov	r2,dpl
      000360 AB 83            [24]  606 	mov	r3,dph
      000362 AE F0            [24]  607 	mov	r6,b
      000364 FF               [12]  608 	mov	r7,a
      000365 E5 81            [12]  609 	mov	a,sp
      000367 24 FC            [12]  610 	add	a,#0xfc
      000369 F5 81            [12]  611 	mov	sp,a
      00036B C0 02            [24]  612 	push	ar2
      00036D C0 03            [24]  613 	push	ar3
      00036F C0 06            [24]  614 	push	ar6
      000371 C0 07            [24]  615 	push	ar7
      000373 85*00 82         [24]  616 	mov	dpl,_sincoshf_sloc0_1_0
      000376 85*01 83         [24]  617 	mov	dph,(_sincoshf_sloc0_1_0 + 1)
      000379 85*02 F0         [24]  618 	mov	b,(_sincoshf_sloc0_1_0 + 2)
      00037C E5*03            [12]  619 	mov	a,(_sincoshf_sloc0_1_0 + 3)
      00037E 12r00r00         [24]  620 	lcall	___fsdiv
      000381 AC 82            [24]  621 	mov	r4,dpl
      000383 AD 83            [24]  622 	mov	r5,dph
      000385 AE F0            [24]  623 	mov	r6,b
      000387 FF               [12]  624 	mov	r7,a
      000388 E5 81            [12]  625 	mov	a,sp
      00038A 24 FC            [12]  626 	add	a,#0xfc
      00038C F5 81            [12]  627 	mov	sp,a
      00038E C0 04            [24]  628 	push	ar4
      000390 C0 05            [24]  629 	push	ar5
      000392 C0 06            [24]  630 	push	ar6
      000394 C0 07            [24]  631 	push	ar7
      000396 78r01            [12]  632 	mov	r0,#_sincoshf_x_65536_25
      000398 E2               [24]  633 	movx	a,@r0
      000399 F5 82            [12]  634 	mov	dpl,a
      00039B 08               [12]  635 	inc	r0
      00039C E2               [24]  636 	movx	a,@r0
      00039D F5 83            [12]  637 	mov	dph,a
      00039F 08               [12]  638 	inc	r0
      0003A0 E2               [24]  639 	movx	a,@r0
      0003A1 F5 F0            [12]  640 	mov	b,a
      0003A3 08               [12]  641 	inc	r0
      0003A4 E2               [24]  642 	movx	a,@r0
      0003A5 12r00r00         [24]  643 	lcall	___fsadd
      0003A8 85 82*04         [24]  644 	mov	_sincoshf_sloc1_1_0,dpl
      0003AB 85 83*05         [24]  645 	mov	(_sincoshf_sloc1_1_0 + 1),dph
      0003AE 85 F0*06         [24]  646 	mov	(_sincoshf_sloc1_1_0 + 2),b
      0003B1 F5*07            [12]  647 	mov	(_sincoshf_sloc1_1_0 + 3),a
      0003B3 E5 81            [12]  648 	mov	a,sp
      0003B5 24 FC            [12]  649 	add	a,#0xfc
      0003B7 F5 81            [12]  650 	mov	sp,a
      0003B9                        651 00119$:
                                    652 ;	sincoshf.c:99: return z;
      0003B9 85*04 82         [24]  653 	mov	dpl,_sincoshf_sloc1_1_0
      0003BC 85*05 83         [24]  654 	mov	dph,(_sincoshf_sloc1_1_0 + 1)
      0003BF 85*06 F0         [24]  655 	mov	b,(_sincoshf_sloc1_1_0 + 2)
      0003C2 E5*07            [12]  656 	mov	a,(_sincoshf_sloc1_1_0 + 3)
                                    657 ;	sincoshf.c:100: }
      0003C4 22               [24]  658 	ret
                                    659 	.area CSEG    (CODE)
                                    660 	.area CONST   (CODE)
                                    661 	.area XINIT   (CODE)
                                    662 	.area CABS    (ABS,CODE)
