;--------------------------------------------------------
; File Created by SDCC : free open source ISO C Compiler 
; Version 4.2.14 #0 (Linux)
;--------------------------------------------------------
	.module tanhf
	.optsdcc -mmcs51 --model-medium
	
;--------------------------------------------------------
; Public variables in this module
;--------------------------------------------------------
	.globl _fabsf
	.globl _expf
	.globl _tanhf
;--------------------------------------------------------
; special function registers
;--------------------------------------------------------
	.area RSEG    (ABS,DATA)
	.org 0x0000
;--------------------------------------------------------
; special function bits
;--------------------------------------------------------
	.area RSEG    (ABS,DATA)
	.org 0x0000
;--------------------------------------------------------
; overlayable register banks
;--------------------------------------------------------
	.area REG_BANK_0	(REL,OVR,DATA)
	.ds 8
;--------------------------------------------------------
; internal ram data
;--------------------------------------------------------
	.area DSEG    (DATA)
;--------------------------------------------------------
; overlayable items in internal ram
;--------------------------------------------------------
;--------------------------------------------------------
; indirectly addressable internal ram data
;--------------------------------------------------------
	.area ISEG    (DATA)
;--------------------------------------------------------
; absolute internal ram data
;--------------------------------------------------------
	.area IABS    (ABS,DATA)
	.area IABS    (ABS,DATA)
;--------------------------------------------------------
; bit data
;--------------------------------------------------------
	.area BSEG    (BIT)
;--------------------------------------------------------
; paged external ram data
;--------------------------------------------------------
	.area PSEG    (PAG,XDATA)
;--------------------------------------------------------
; uninitialized external ram data
;--------------------------------------------------------
	.area XSEG    (XDATA)
;--------------------------------------------------------
; absolute external ram data
;--------------------------------------------------------
	.area XABS    (ABS,XDATA)
;--------------------------------------------------------
; initialized external ram data
;--------------------------------------------------------
	.area XISEG   (XDATA)
	.area HOME    (CODE)
	.area GSINIT0 (CODE)
	.area GSINIT1 (CODE)
	.area GSINIT2 (CODE)
	.area GSINIT3 (CODE)
	.area GSINIT4 (CODE)
	.area GSINIT5 (CODE)
	.area GSINIT  (CODE)
	.area GSFINAL (CODE)
	.area CSEG    (CODE)
;--------------------------------------------------------
; global & static initialisations
;--------------------------------------------------------
	.area HOME    (CODE)
	.area GSINIT  (CODE)
	.area GSFINAL (CODE)
	.area GSINIT  (CODE)
;--------------------------------------------------------
; Home
;--------------------------------------------------------
	.area HOME    (CODE)
	.area HOME    (CODE)
;--------------------------------------------------------
; code
;--------------------------------------------------------
	.area CSEG    (CODE)
;------------------------------------------------------------
;Allocation info for local variables in function 'tanhf'
;------------------------------------------------------------
;x                         Allocated to stack - _bp +1
;f                         Allocated to stack - _bp +9
;g                         Allocated to stack - _bp +13
;r                         Allocated to registers r7 r6 r5 r4 
;sloc0                     Allocated to stack - _bp +17
;sloc1                     Allocated to stack - _bp +5
;------------------------------------------------------------
;	tanhf.c:50: float tanhf(float x) _FLOAT_FUNC_REENTRANT
;	-----------------------------------------
;	 function tanhf
;	-----------------------------------------
_tanhf:
	ar7 = 0x07
	ar6 = 0x06
	ar5 = 0x05
	ar4 = 0x04
	ar3 = 0x03
	ar2 = 0x02
	ar1 = 0x01
	ar0 = 0x00
	push	_bp
	mov	_bp,sp
	push	dpl
	push	dph
	push	b
	push	acc
	mov	a,sp
	add	a,#0x0c
	mov	sp,a
;	tanhf.c:54: f=fabsf(x);
	mov	r0,_bp
	inc	r0
	mov	dpl,@r0
	inc	r0
	mov	dph,@r0
	inc	r0
	mov	b,@r0
	inc	r0
	mov	a,@r0
	lcall	_fabsf
	mov	r4,dpl
	mov	r5,dph
	mov	r6,b
	mov	r7,a
	mov	a,_bp
	add	a,#0x09
	mov	r0,a
	mov	@r0,ar4
	inc	r0
	mov	@r0,ar5
	inc	r0
	mov	@r0,ar6
	inc	r0
	mov	@r0,ar7
;	tanhf.c:55: if(f>SBIG) r=1.0;
	mov	a,_bp
	add	a,#0x09
	mov	r0,a
	mov	a,@r0
	push	acc
	inc	r0
	mov	a,@r0
	push	acc
	inc	r0
	mov	a,@r0
	push	acc
	inc	r0
	mov	a,@r0
	push	acc
	mov	dptr,#0x2cb0
	mov	b,#0x10
	mov	a,#0x41
	lcall	___fslt
	mov	r5,dpl
	mov	a,sp
	add	a,#0xfc
	mov	sp,a
	mov	a,r5
	jz	00108$
	mov	r6,#0x00
	mov	r5,#0x00
	mov	r4,#0x80
	mov	r3,#0x3f
	ljmp	00109$
00108$:
;	tanhf.c:56: else if(f>K1)
	mov	a,_bp
	add	a,#0x09
	mov	r0,a
	mov	a,@r0
	push	acc
	inc	r0
	mov	a,@r0
	push	acc
	inc	r0
	mov	a,@r0
	push	acc
	inc	r0
	mov	a,@r0
	push	acc
	mov	dptr,#0x9f54
	mov	b,#0x0c
	mov	a,#0x3f
	lcall	___fslt
	mov	r5,dpl
	mov	a,sp
	add	a,#0xfc
	mov	sp,a
	mov	a,r5
	jnz	00135$
	ljmp	00105$
00135$:
;	tanhf.c:58: r=0.5-1.0/(expf(f+f)+1.0);
	mov	a,_bp
	add	a,#0x09
	mov	r0,a
	mov	a,@r0
	push	acc
	inc	r0
	mov	a,@r0
	push	acc
	inc	r0
	mov	a,@r0
	push	acc
	inc	r0
	mov	a,@r0
	push	acc
	mov	a,_bp
	add	a,#0x09
	mov	r0,a
	mov	dpl,@r0
	inc	r0
	mov	dph,@r0
	inc	r0
	mov	b,@r0
	inc	r0
	mov	a,@r0
	lcall	___fsadd
	mov	r7,dpl
	mov	r6,dph
	mov	r5,b
	mov	r4,a
	mov	a,sp
	add	a,#0xfc
	mov	sp,a
	mov	dpl,r7
	mov	dph,r6
	mov	b,r5
	mov	a,r4
	lcall	_expf
	mov	r7,dpl
	mov	r6,dph
	mov	r5,b
	mov	r4,a
	clr	a
	push	acc
	push	acc
	mov	a,#0x80
	push	acc
	mov	a,#0x3f
	push	acc
	mov	dpl,r7
	mov	dph,r6
	mov	b,r5
	mov	a,r4
	lcall	___fsadd
	mov	r7,dpl
	mov	r6,dph
	mov	r5,b
	mov	r4,a
	mov	a,sp
	add	a,#0xfc
	mov	sp,a
	push	ar7
	push	ar6
	push	ar5
	push	ar4
	mov	dptr,#0x0000
	mov	b,#0x80
	mov	a,#0x3f
	lcall	___fsdiv
	mov	r7,dpl
	mov	r6,dph
	mov	r5,b
	mov	r4,a
	mov	a,sp
	add	a,#0xfc
	mov	sp,a
	push	ar7
	push	ar6
	push	ar5
	push	ar4
	mov	dptr,#(0x00&0x00ff)
	clr	a
	mov	b,a
	mov	a,#0x3f
	lcall	___fssub
	mov	r7,dpl
	mov	r6,dph
	mov	r5,b
	mov	r4,a
	mov	a,sp
	add	a,#0xfc
	mov	sp,a
;	tanhf.c:59: r+=r;
	push	ar7
	push	ar6
	push	ar5
	push	ar4
	mov	dpl,r7
	mov	dph,r6
	mov	b,r5
	mov	a,r4
	lcall	___fsadd
	mov	r6,dpl
	mov	r5,dph
	mov	r4,b
	mov	r3,a
	mov	a,sp
	add	a,#0xfc
	mov	sp,a
	ljmp	00109$
00105$:
;	tanhf.c:61: else if(f<EPS) r=f;
	clr	a
	push	acc
	push	acc
	mov	a,#0x80
	push	acc
	mov	a,#0x39
	push	acc
	mov	a,_bp
	add	a,#0x09
	mov	r0,a
	mov	dpl,@r0
	inc	r0
	mov	dph,@r0
	inc	r0
	mov	b,@r0
	inc	r0
	mov	a,@r0
	lcall	___fslt
	mov	r5,dpl
	mov	a,sp
	add	a,#0xfc
	mov	sp,a
	mov	a,r5
	jz	00102$
	mov	a,_bp
	add	a,#0x09
	mov	r0,a
	mov	ar6,@r0
	inc	r0
	mov	ar5,@r0
	inc	r0
	mov	ar4,@r0
	inc	r0
	mov	ar3,@r0
	ljmp	00109$
00102$:
;	tanhf.c:64: g=f*f;
	mov	a,_bp
	add	a,#0x09
	mov	r0,a
	mov	a,@r0
	push	acc
	inc	r0
	mov	a,@r0
	push	acc
	inc	r0
	mov	a,@r0
	push	acc
	inc	r0
	mov	a,@r0
	push	acc
	mov	a,_bp
	add	a,#0x09
	mov	r0,a
	mov	dpl,@r0
	inc	r0
	mov	dph,@r0
	inc	r0
	mov	b,@r0
	inc	r0
	mov	a,@r0
	lcall	___fsmul
	mov	r7,dpl
	mov	r6,dph
	mov	r5,b
	mov	r4,a
	mov	a,sp
	add	a,#0xfc
	mov	sp,a
	mov	a,_bp
	add	a,#0x0d
	mov	r0,a
	mov	@r0,ar7
	inc	r0
	mov	@r0,ar6
	inc	r0
	mov	@r0,ar5
	inc	r0
	mov	@r0,ar4
;	tanhf.c:65: r=f+f*(P(g)/Q(g));
	mov	a,_bp
	add	a,#0x0d
	mov	r0,a
	mov	a,@r0
	push	acc
	inc	r0
	mov	a,@r0
	push	acc
	inc	r0
	mov	a,@r0
	push	acc
	inc	r0
	mov	a,@r0
	push	acc
	mov	dptr,#0x11b2
	mov	b,#0x7b
	mov	a,#0xbb
	lcall	___fsmul
	mov	r4,dpl
	mov	r5,dph
	mov	r6,b
	mov	r7,a
	mov	a,sp
	add	a,#0xfc
	mov	sp,a
	mov	a,#0xc6
	push	acc
	mov	a,#0xe2
	push	acc
	mov	a,#0x52
	push	acc
	mov	a,#0xbf
	push	acc
	mov	dpl,r4
	mov	dph,r5
	mov	b,r6
	mov	a,r7
	lcall	___fsadd
	mov	r4,dpl
	mov	r5,dph
	mov	r6,b
	mov	r7,a
	mov	a,sp
	add	a,#0xfc
	mov	sp,a
	mov	a,_bp
	add	a,#0x0d
	mov	r0,a
	mov	a,@r0
	push	acc
	inc	r0
	mov	a,@r0
	push	acc
	inc	r0
	mov	a,@r0
	push	acc
	inc	r0
	mov	a,@r0
	push	acc
	mov	dpl,r4
	mov	dph,r5
	mov	b,r6
	mov	a,r7
	lcall	___fsmul
	xch	a,r0
	mov	a,_bp
	add	a,#0x05
	xch	a,r0
	mov	@r0,dpl
	inc	r0
	mov	@r0,dph
	inc	r0
	mov	@r0,b
	inc	r0
	mov	@r0,a
	mov	a,sp
	add	a,#0xfc
	mov	sp,a
	mov	a,#0x1a
	push	acc
	mov	a,#0x2a
	push	acc
	mov	a,#0x1e
	push	acc
	mov	a,#0x40
	push	acc
	mov	a,_bp
	add	a,#0x0d
	mov	r0,a
	mov	dpl,@r0
	inc	r0
	mov	dph,@r0
	inc	r0
	mov	b,@r0
	inc	r0
	mov	a,@r0
	lcall	___fsadd
	mov	r2,dpl
	mov	r3,dph
	mov	r6,b
	mov	r7,a
	mov	a,sp
	add	a,#0xfc
	mov	sp,a
	push	ar2
	push	ar3
	push	ar6
	push	ar7
	mov	a,_bp
	add	a,#0x05
	mov	r0,a
	mov	dpl,@r0
	inc	r0
	mov	dph,@r0
	inc	r0
	mov	b,@r0
	inc	r0
	mov	a,@r0
	lcall	___fsdiv
	mov	r4,dpl
	mov	r5,dph
	mov	r6,b
	mov	r7,a
	mov	a,sp
	add	a,#0xfc
	mov	sp,a
	push	ar4
	push	ar5
	push	ar6
	push	ar7
	mov	a,_bp
	add	a,#0x09
	mov	r0,a
	mov	dpl,@r0
	inc	r0
	mov	dph,@r0
	inc	r0
	mov	b,@r0
	inc	r0
	mov	a,@r0
	lcall	___fsmul
	mov	r4,dpl
	mov	r5,dph
	mov	r6,b
	mov	r7,a
	mov	a,sp
	add	a,#0xfc
	mov	sp,a
	push	ar4
	push	ar5
	push	ar6
	push	ar7
	mov	a,_bp
	add	a,#0x09
	mov	r0,a
	mov	dpl,@r0
	inc	r0
	mov	dph,@r0
	inc	r0
	mov	b,@r0
	inc	r0
	mov	a,@r0
	lcall	___fsadd
	mov	r6,dpl
	mov	r5,dph
	mov	r4,b
	mov	r3,a
	mov	a,sp
	add	a,#0xfc
	mov	sp,a
00109$:
;	tanhf.c:67: if(x<0.0) r=-r;
	push	ar6
	push	ar5
	push	ar4
	push	ar3
	clr	a
	push	acc
	push	acc
	push	acc
	push	acc
	mov	r0,_bp
	inc	r0
	mov	dpl,@r0
	inc	r0
	mov	dph,@r0
	inc	r0
	mov	b,@r0
	inc	r0
	mov	a,@r0
	lcall	___fslt
	mov	r7,dpl
	mov	a,sp
	add	a,#0xfc
	mov	sp,a
	pop	ar3
	pop	ar4
	pop	ar5
	pop	ar6
	mov	a,r7
	jz	00111$
	mov	a,r3
	cpl	acc.7
	mov	r3,a
00111$:
;	tanhf.c:68: return r;
	mov	dpl,r6
	mov	dph,r5
	mov	b,r4
	mov	a,r3
;	tanhf.c:69: }
	mov	sp,_bp
	pop	_bp
	ret
	.area CSEG    (CODE)
	.area CONST   (CODE)
	.area XINIT   (CODE)
	.area CABS    (ABS,CODE)
