;--------------------------------------------------------
; File Created by SDCC : free open source ISO C Compiler 
; Version 4.2.14 #0 (Linux)
;--------------------------------------------------------
	.module asincosf
	.optsdcc -mmcs51 --model-large
	
;--------------------------------------------------------
; Public variables in this module
;--------------------------------------------------------
	.globl _asincosf
	.globl _ldexpf
	.globl _fabsf
	.globl _sqrtf
;--------------------------------------------------------
; special function registers
;--------------------------------------------------------
	.area RSEG    (ABS,DATA)
	.org 0x0000
;--------------------------------------------------------
; special function bits
;--------------------------------------------------------
	.area RSEG    (ABS,DATA)
	.org 0x0000
;--------------------------------------------------------
; overlayable register banks
;--------------------------------------------------------
	.area REG_BANK_0	(REL,OVR,DATA)
	.ds 8
;--------------------------------------------------------
; internal ram data
;--------------------------------------------------------
	.area DSEG    (DATA)
;--------------------------------------------------------
; overlayable items in internal ram
;--------------------------------------------------------
;--------------------------------------------------------
; indirectly addressable internal ram data
;--------------------------------------------------------
	.area ISEG    (DATA)
;--------------------------------------------------------
; absolute internal ram data
;--------------------------------------------------------
	.area IABS    (ABS,DATA)
	.area IABS    (ABS,DATA)
;--------------------------------------------------------
; bit data
;--------------------------------------------------------
	.area BSEG    (BIT)
;--------------------------------------------------------
; paged external ram data
;--------------------------------------------------------
	.area PSEG    (PAG,XDATA)
;--------------------------------------------------------
; uninitialized external ram data
;--------------------------------------------------------
	.area XSEG    (XDATA)
;--------------------------------------------------------
; absolute external ram data
;--------------------------------------------------------
	.area XABS    (ABS,XDATA)
;--------------------------------------------------------
; initialized external ram data
;--------------------------------------------------------
	.area XISEG   (XDATA)
	.area HOME    (CODE)
	.area GSINIT0 (CODE)
	.area GSINIT1 (CODE)
	.area GSINIT2 (CODE)
	.area GSINIT3 (CODE)
	.area GSINIT4 (CODE)
	.area GSINIT5 (CODE)
	.area GSINIT  (CODE)
	.area GSFINAL (CODE)
	.area CSEG    (CODE)
;--------------------------------------------------------
; global & static initialisations
;--------------------------------------------------------
	.area HOME    (CODE)
	.area GSINIT  (CODE)
	.area GSFINAL (CODE)
	.area GSINIT  (CODE)
;--------------------------------------------------------
; Home
;--------------------------------------------------------
	.area HOME    (CODE)
	.area HOME    (CODE)
;--------------------------------------------------------
; code
;--------------------------------------------------------
	.area CSEG    (CODE)
;------------------------------------------------------------
;Allocation info for local variables in function 'asincosf'
;------------------------------------------------------------
;isacos                    Allocated to stack - _bp -3
;x                         Allocated to stack - _bp +1
;y                         Allocated to registers r7 r6 r5 r4 
;g                         Allocated to stack - _bp +17
;r                         Allocated to registers r4 r5 r6 r7 
;i                         Allocated to registers r3 
;quartPI                   Allocated to stack - _bp +21
;sloc0                     Allocated to stack - _bp +5
;sloc1                     Allocated to stack - _bp +9
;sloc2                     Allocated to stack - _bp +13
;------------------------------------------------------------
;	asincosf.c:47: float asincosf(float x, bool isacos)
;	-----------------------------------------
;	 function asincosf
;	-----------------------------------------
_asincosf:
	ar7 = 0x07
	ar6 = 0x06
	ar5 = 0x05
	ar4 = 0x04
	ar3 = 0x03
	ar2 = 0x02
	ar1 = 0x01
	ar0 = 0x00
	push	_bp
	mov	_bp,sp
	push	dpl
	push	dph
	push	b
	push	acc
	mov	a,sp
	add	a,#0x11
	mov	sp,a
;	asincosf.c:51: bool quartPI = isacos;
	mov	a,_bp
	add	a,#0xfd
	mov	r0,a
	mov	a,_bp
	add	a,#0x15
	mov	r1,a
	mov	a,@r0
	mov	@r1,a
;	asincosf.c:56: y = fabsf(x);
	mov	r0,_bp
	inc	r0
	mov	dpl,@r0
	inc	r0
	mov	dph,@r0
	inc	r0
	mov	b,@r0
	inc	r0
	mov	a,@r0
	lcall	_fabsf
	xch	a,r0
	mov	a,_bp
	add	a,#0x0d
	xch	a,r0
	mov	@r0,dpl
	inc	r0
	mov	@r0,dph
	inc	r0
	mov	@r0,b
	inc	r0
	mov	@r0,a
;	asincosf.c:57: if (y < EPS)
	clr	a
	push	acc
	push	acc
	mov	a,#0x80
	push	acc
	mov	a,#0x39
	push	acc
	mov	a,_bp
	add	a,#0x0d
	mov	r0,a
	mov	dpl,@r0
	inc	r0
	mov	dph,@r0
	inc	r0
	mov	b,@r0
	inc	r0
	mov	a,@r0
	lcall	___fslt
	mov	r5,dpl
	mov	a,sp
	add	a,#0xfc
	mov	sp,a
	mov	a,r5
	jz	00107$
;	asincosf.c:59: r = y;
	mov	a,_bp
	add	a,#0x0d
	mov	r0,a
	mov	a,_bp
	add	a,#0x05
	mov	r1,a
	mov	a,@r0
	mov	@r1,a
	inc	r0
	mov	a,@r0
	inc	r1
	mov	@r1,a
	inc	r0
	mov	a,@r0
	inc	r1
	mov	@r1,a
	inc	r0
	mov	a,@r0
	inc	r1
	mov	@r1,a
	ljmp	00108$
00107$:
;	asincosf.c:63: if (y > 0.5)
	mov	a,_bp
	add	a,#0x0d
	mov	r0,a
	mov	a,@r0
	push	acc
	inc	r0
	mov	a,@r0
	push	acc
	inc	r0
	mov	a,@r0
	push	acc
	inc	r0
	mov	a,@r0
	push	acc
	mov	dptr,#(0x00&0x00ff)
	clr	a
	mov	b,a
	mov	a,#0x3f
	lcall	___fslt
	mov	r5,dpl
	mov	a,sp
	add	a,#0xfc
	mov	sp,a
	mov	a,r5
	jnz	00150$
	ljmp	00104$
00150$:
;	asincosf.c:65: quartPI = !isacos;
	mov	a,_bp
	add	a,#0x15
	mov	r0,a
	mov	a,@r0
	cjne	a,#0x01,00151$
00151$:
	clr	a
	rlc	a
	mov	@r0,a
;	asincosf.c:66: if (y > 1.0)
	mov	a,_bp
	add	a,#0x0d
	mov	r0,a
	mov	a,@r0
	push	acc
	inc	r0
	mov	a,@r0
	push	acc
	inc	r0
	mov	a,@r0
	push	acc
	inc	r0
	mov	a,@r0
	push	acc
	mov	dptr,#0x0000
	mov	b,#0x80
	mov	a,#0x3f
	lcall	___fslt
	mov	r5,dpl
	mov	a,sp
	add	a,#0xfc
	mov	sp,a
	mov	a,r5
	jz	00102$
;	asincosf.c:68: errno = EDOM;
	mov	dptr,#_errno
	mov	a,#0x21
	movx	@dptr,a
	clr	a
	inc	dptr
	movx	@dptr,a
;	asincosf.c:69: return 0.0;
	mov	dptr,#0x0000
	mov	b,a
	ljmp	00117$
00102$:
;	asincosf.c:71: g = (0.5 - y) + 0.5;
	mov	a,_bp
	add	a,#0x0d
	mov	r0,a
	mov	a,@r0
	push	acc
	inc	r0
	mov	a,@r0
	push	acc
	inc	r0
	mov	a,@r0
	push	acc
	inc	r0
	mov	a,@r0
	push	acc
	mov	dptr,#0x0000
	mov	b,#0x80
	mov	a,#0x3f
	lcall	___fssub
	mov	r7,dpl
	mov	r6,dph
	mov	r5,b
	mov	r4,a
	mov	a,sp
	add	a,#0xfc
	mov	sp,a
;	asincosf.c:72: g = ldexpf(g, -1);
	mov	a,#0xff
	push	acc
	push	acc
	mov	dpl,r7
	mov	dph,r6
	mov	b,r5
	mov	a,r4
	lcall	_ldexpf
	mov	r7,dpl
	mov	r6,dph
	mov	r5,b
	mov	r4,a
	dec	sp
	dec	sp
	mov	a,_bp
	add	a,#0x11
	mov	r0,a
	mov	@r0,ar7
	inc	r0
	mov	@r0,ar6
	inc	r0
	mov	@r0,ar5
	inc	r0
	mov	@r0,ar4
;	asincosf.c:73: y = sqrtf(g);
	mov	a,_bp
	add	a,#0x11
	mov	r0,a
	mov	dpl,@r0
	inc	r0
	mov	dph,@r0
	inc	r0
	mov	b,@r0
	inc	r0
	mov	a,@r0
	lcall	_sqrtf
	mov	r7,dpl
	mov	r6,dph
	mov	r5,b
	mov	r4,a
;	asincosf.c:74: y = -(y + y);
	push	ar7
	push	ar6
	push	ar5
	push	ar4
	mov	dpl,r7
	mov	dph,r6
	mov	b,r5
	mov	a,r4
	lcall	___fsadd
	mov	r4,dpl
	mov	r5,dph
	mov	r6,b
	mov	r7,a
	mov	a,sp
	add	a,#0xfc
	mov	sp,a
	mov	a,_bp
	add	a,#0x0d
	mov	r0,a
	mov	@r0,ar4
	inc	r0
	mov	@r0,ar5
	inc	r0
	mov	@r0,ar6
	mov	a,r7
	cpl	acc.7
	inc	r0
	mov	@r0,a
	sjmp	00105$
00104$:
;	asincosf.c:78: g = y * y;
	mov	a,_bp
	add	a,#0x0d
	mov	r0,a
	mov	a,@r0
	push	acc
	inc	r0
	mov	a,@r0
	push	acc
	inc	r0
	mov	a,@r0
	push	acc
	inc	r0
	mov	a,@r0
	push	acc
	mov	a,_bp
	add	a,#0x0d
	mov	r0,a
	mov	dpl,@r0
	inc	r0
	mov	dph,@r0
	inc	r0
	mov	b,@r0
	inc	r0
	mov	a,@r0
	lcall	___fsmul
	mov	r4,dpl
	mov	r5,dph
	mov	r6,b
	mov	r7,a
	mov	a,sp
	add	a,#0xfc
	mov	sp,a
	mov	a,_bp
	add	a,#0x11
	mov	r0,a
	mov	@r0,ar4
	inc	r0
	mov	@r0,ar5
	inc	r0
	mov	@r0,ar6
	inc	r0
	mov	@r0,ar7
00105$:
;	asincosf.c:80: r = y + y * ((P(g) * g) / Q(g));
	mov	a,_bp
	add	a,#0x11
	mov	r0,a
	mov	a,@r0
	push	acc
	inc	r0
	mov	a,@r0
	push	acc
	inc	r0
	mov	a,@r0
	push	acc
	inc	r0
	mov	a,@r0
	push	acc
	mov	dptr,#0x2065
	mov	b,#0x01
	mov	a,#0xbf
	lcall	___fsmul
	mov	r4,dpl
	mov	r5,dph
	mov	r6,b
	mov	r7,a
	mov	a,sp
	add	a,#0xfc
	mov	sp,a
	mov	a,#0x6b
	push	acc
	mov	a,#0x16
	push	acc
	mov	a,#0x6f
	push	acc
	mov	a,#0x3f
	push	acc
	mov	dpl,r4
	mov	dph,r5
	mov	b,r6
	mov	a,r7
	lcall	___fsadd
	mov	r4,dpl
	mov	r5,dph
	mov	r6,b
	mov	r7,a
	mov	a,sp
	add	a,#0xfc
	mov	sp,a
	mov	a,_bp
	add	a,#0x11
	mov	r0,a
	mov	a,@r0
	push	acc
	inc	r0
	mov	a,@r0
	push	acc
	inc	r0
	mov	a,@r0
	push	acc
	inc	r0
	mov	a,@r0
	push	acc
	mov	dpl,r4
	mov	dph,r5
	mov	b,r6
	mov	a,r7
	lcall	___fsmul
	xch	a,r0
	mov	a,_bp
	add	a,#0x09
	xch	a,r0
	mov	@r0,dpl
	inc	r0
	mov	@r0,dph
	inc	r0
	mov	@r0,b
	inc	r0
	mov	@r0,a
	mov	a,sp
	add	a,#0xfc
	mov	sp,a
	mov	a,#0x0b
	push	acc
	mov	a,#0x8d
	push	acc
	mov	a,#0xb1
	push	acc
	mov	a,#0xc0
	push	acc
	mov	a,_bp
	add	a,#0x11
	mov	r0,a
	mov	dpl,@r0
	inc	r0
	mov	dph,@r0
	inc	r0
	mov	b,@r0
	inc	r0
	mov	a,@r0
	lcall	___fsadd
	mov	r2,dpl
	mov	r3,dph
	mov	r6,b
	mov	r7,a
	mov	a,sp
	add	a,#0xfc
	mov	sp,a
	mov	a,_bp
	add	a,#0x11
	mov	r0,a
	mov	a,@r0
	push	acc
	inc	r0
	mov	a,@r0
	push	acc
	inc	r0
	mov	a,@r0
	push	acc
	inc	r0
	mov	a,@r0
	push	acc
	mov	dpl,r2
	mov	dph,r3
	mov	b,r6
	mov	a,r7
	lcall	___fsmul
	mov	r4,dpl
	mov	r5,dph
	mov	r6,b
	mov	r7,a
	mov	a,sp
	add	a,#0xfc
	mov	sp,a
	mov	a,#0xf0
	push	acc
	mov	a,#0x50
	push	acc
	mov	a,#0xb3
	push	acc
	mov	a,#0x40
	push	acc
	mov	dpl,r4
	mov	dph,r5
	mov	b,r6
	mov	a,r7
	lcall	___fsadd
	mov	r4,dpl
	mov	r5,dph
	mov	r6,b
	mov	r7,a
	mov	a,sp
	add	a,#0xfc
	mov	sp,a
	push	ar4
	push	ar5
	push	ar6
	push	ar7
	mov	a,_bp
	add	a,#0x09
	mov	r0,a
	mov	dpl,@r0
	inc	r0
	mov	dph,@r0
	inc	r0
	mov	b,@r0
	inc	r0
	mov	a,@r0
	lcall	___fsdiv
	mov	r4,dpl
	mov	r5,dph
	mov	r6,b
	mov	r7,a
	mov	a,sp
	add	a,#0xfc
	mov	sp,a
	push	ar4
	push	ar5
	push	ar6
	push	ar7
	mov	a,_bp
	add	a,#0x0d
	mov	r0,a
	mov	dpl,@r0
	inc	r0
	mov	dph,@r0
	inc	r0
	mov	b,@r0
	inc	r0
	mov	a,@r0
	lcall	___fsmul
	mov	r4,dpl
	mov	r5,dph
	mov	r6,b
	mov	r7,a
	mov	a,sp
	add	a,#0xfc
	mov	sp,a
	push	ar4
	push	ar5
	push	ar6
	push	ar7
	mov	a,_bp
	add	a,#0x0d
	mov	r0,a
	mov	dpl,@r0
	inc	r0
	mov	dph,@r0
	inc	r0
	mov	b,@r0
	inc	r0
	mov	a,@r0
	lcall	___fsadd
	xch	a,r0
	mov	a,_bp
	add	a,#0x05
	xch	a,r0
	mov	@r0,dpl
	inc	r0
	mov	@r0,dph
	inc	r0
	mov	@r0,b
	inc	r0
	mov	@r0,a
	mov	a,sp
	add	a,#0xfc
	mov	sp,a
00108$:
;	asincosf.c:82: i = quartPI;
	mov	a,_bp
	add	a,#0x15
	mov	r0,a
	mov	ar3,@r0
;	asincosf.c:83: if (isacos)
	mov	a,_bp
	add	a,#0xfd
	mov	r0,a
	mov	a,@r0
	jnz	00153$
	ljmp	00115$
00153$:
;	asincosf.c:85: if (x < 0.0)
	push	ar3
	clr	a
	push	acc
	push	acc
	push	acc
	push	acc
	mov	r0,_bp
	inc	r0
	mov	dpl,@r0
	inc	r0
	mov	dph,@r0
	inc	r0
	mov	b,@r0
	inc	r0
	mov	a,@r0
	lcall	___fslt
	mov	r7,dpl
	mov	a,sp
	add	a,#0xfc
	mov	sp,a
	pop	ar3
	mov	a,r7
	jnz	00154$
	ljmp	00110$
00154$:
;	asincosf.c:86: r = (b[i] + r) + b[i];
	mov	a,r3
	mov	b,#0x04
	mul	ab
	add	a,#_asincosf_b_65536_26
	mov	dpl,a
	mov	a,#(_asincosf_b_65536_26 >> 8)
	addc	a,b
	mov	dph,a
	mov	a,_bp
	add	a,#0x0d
	mov	r0,a
	clr	a
	movc	a,@a+dptr
	mov	@r0,a
	inc	dptr
	clr	a
	movc	a,@a+dptr
	inc	r0
	mov	@r0,a
	inc	dptr
	clr	a
	movc	a,@a+dptr
	inc	r0
	mov	@r0,a
	inc	dptr
	clr	a
	movc	a,@a+dptr
	inc	r0
	mov	@r0,a
	mov	a,_bp
	add	a,#0x05
	mov	r0,a
	mov	a,@r0
	push	acc
	inc	r0
	mov	a,@r0
	push	acc
	inc	r0
	mov	a,@r0
	push	acc
	inc	r0
	mov	a,@r0
	push	acc
	mov	a,_bp
	add	a,#0x0d
	mov	r0,a
	mov	dpl,@r0
	inc	r0
	mov	dph,@r0
	inc	r0
	mov	b,@r0
	inc	r0
	mov	a,@r0
	lcall	___fsadd
	mov	r2,dpl
	mov	r5,dph
	mov	r6,b
	mov	r7,a
	mov	a,sp
	add	a,#0xfc
	mov	sp,a
	mov	a,_bp
	add	a,#0x0d
	mov	r0,a
	mov	a,@r0
	push	acc
	inc	r0
	mov	a,@r0
	push	acc
	inc	r0
	mov	a,@r0
	push	acc
	inc	r0
	mov	a,@r0
	push	acc
	mov	dpl,r2
	mov	dph,r5
	mov	b,r6
	mov	a,r7
	lcall	___fsadd
	mov	r4,dpl
	mov	r5,dph
	mov	r6,b
	mov	r7,a
	mov	a,sp
	add	a,#0xfc
	mov	sp,a
	ljmp	00116$
00110$:
;	asincosf.c:88: r = (a[i] - r) + a[i];
	mov	a,r3
	mov	b,#0x04
	mul	ab
	add	a,#_asincosf_a_65536_26
	mov	dpl,a
	mov	a,#(_asincosf_a_65536_26 >> 8)
	addc	a,b
	mov	dph,a
	clr	a
	movc	a,@a+dptr
	mov	r7,a
	inc	dptr
	clr	a
	movc	a,@a+dptr
	mov	r6,a
	inc	dptr
	clr	a
	movc	a,@a+dptr
	mov	r5,a
	inc	dptr
	clr	a
	movc	a,@a+dptr
	mov	r4,a
	push	ar7
	push	ar6
	push	ar5
	push	ar4
	mov	a,_bp
	add	a,#0x05
	mov	r0,a
	mov	a,@r0
	push	acc
	inc	r0
	mov	a,@r0
	push	acc
	inc	r0
	mov	a,@r0
	push	acc
	inc	r0
	mov	a,@r0
	push	acc
	mov	dpl,r7
	mov	dph,r6
	mov	b,r5
	mov	a,r4
	lcall	___fssub
	xch	a,r0
	mov	a,_bp
	add	a,#0x09
	xch	a,r0
	mov	@r0,dpl
	inc	r0
	mov	@r0,dph
	inc	r0
	mov	@r0,b
	inc	r0
	mov	@r0,a
	mov	a,sp
	add	a,#0xfc
	mov	sp,a
	mov	a,_bp
	add	a,#0x09
	mov	r0,a
	mov	dpl,@r0
	inc	r0
	mov	dph,@r0
	inc	r0
	mov	b,@r0
	inc	r0
	mov	a,@r0
	lcall	___fsadd
	xch	a,r0
	mov	a,_bp
	add	a,#0x0d
	xch	a,r0
	mov	@r0,dpl
	inc	r0
	mov	@r0,dph
	inc	r0
	mov	@r0,b
	inc	r0
	mov	@r0,a
	mov	a,sp
	add	a,#0xfc
	mov	sp,a
	mov	a,_bp
	add	a,#0x0d
	mov	r0,a
	mov	ar4,@r0
	inc	r0
	mov	ar5,@r0
	inc	r0
	mov	ar6,@r0
	inc	r0
	mov	ar7,@r0
	ljmp	00116$
00115$:
;	asincosf.c:92: r = (a[i] + r) + a[i];
	mov	a,r3
	mov	b,#0x04
	mul	ab
	add	a,#_asincosf_a_65536_26
	mov	dpl,a
	mov	a,#(_asincosf_a_65536_26 >> 8)
	addc	a,b
	mov	dph,a
	clr	a
	movc	a,@a+dptr
	mov	r7,a
	inc	dptr
	clr	a
	movc	a,@a+dptr
	mov	r6,a
	inc	dptr
	clr	a
	movc	a,@a+dptr
	mov	r5,a
	inc	dptr
	clr	a
	movc	a,@a+dptr
	mov	r4,a
	push	ar7
	push	ar6
	push	ar5
	push	ar4
	mov	a,_bp
	add	a,#0x05
	mov	r0,a
	mov	a,@r0
	push	acc
	inc	r0
	mov	a,@r0
	push	acc
	inc	r0
	mov	a,@r0
	push	acc
	inc	r0
	mov	a,@r0
	push	acc
	mov	dpl,r7
	mov	dph,r6
	mov	b,r5
	mov	a,r4
	lcall	___fsadd
	xch	a,r0
	mov	a,_bp
	add	a,#0x09
	xch	a,r0
	mov	@r0,dpl
	inc	r0
	mov	@r0,dph
	inc	r0
	mov	@r0,b
	inc	r0
	mov	@r0,a
	mov	a,sp
	add	a,#0xfc
	mov	sp,a
	mov	a,_bp
	add	a,#0x09
	mov	r0,a
	mov	dpl,@r0
	inc	r0
	mov	dph,@r0
	inc	r0
	mov	b,@r0
	inc	r0
	mov	a,@r0
	lcall	___fsadd
	xch	a,r0
	mov	a,_bp
	add	a,#0x0d
	xch	a,r0
	mov	@r0,dpl
	inc	r0
	mov	@r0,dph
	inc	r0
	mov	@r0,b
	inc	r0
	mov	@r0,a
	mov	a,sp
	add	a,#0xfc
	mov	sp,a
	mov	a,_bp
	add	a,#0x0d
	mov	r0,a
	mov	ar4,@r0
	inc	r0
	mov	ar5,@r0
	inc	r0
	mov	ar6,@r0
	inc	r0
	mov	ar7,@r0
;	asincosf.c:93: if (x < 0.0)
	push	ar7
	push	ar6
	push	ar5
	push	ar4
	clr	a
	push	acc
	push	acc
	push	acc
	push	acc
	mov	r0,_bp
	inc	r0
	mov	dpl,@r0
	inc	r0
	mov	dph,@r0
	inc	r0
	mov	b,@r0
	inc	r0
	mov	a,@r0
	lcall	___fslt
	mov	r3,dpl
	mov	a,sp
	add	a,#0xfc
	mov	sp,a
	pop	ar4
	pop	ar5
	pop	ar6
	pop	ar7
	mov	a,r3
	jz	00116$
;	asincosf.c:94: r = -r;
	mov	a,r7
	cpl	acc.7
	mov	r7,a
00116$:
;	asincosf.c:96: return r;
	mov	dpl,r4
	mov	dph,r5
	mov	b,r6
	mov	a,r7
00117$:
;	asincosf.c:97: }
	mov	sp,_bp
	pop	_bp
	ret
	.area CSEG    (CODE)
	.area CONST   (CODE)
_asincosf_a_65536_26:
	.byte #0x00, #0x00, #0x00, #0x00	;  0.000000e+00
	.byte #0xdb, #0x0f, #0x49, #0x3f	;  7.853982e-01
_asincosf_b_65536_26:
	.byte #0xdb, #0x0f, #0xc9, #0x3f	;  1.570796e+00
	.byte #0xdb, #0x0f, #0x49, #0x3f	;  7.853982e-01
	.area XINIT   (CODE)
	.area CABS    (ABS,CODE)
