;--------------------------------------------------------
; File Created by SDCC : free open source ISO C Compiler 
; Version 4.2.14 #0 (Linux)
;--------------------------------------------------------
	.module sincosf
	.optsdcc -mmcs51 --model-large
	
;--------------------------------------------------------
; Public variables in this module
;--------------------------------------------------------
	.globl _sincosf
	.globl _fabsf
;--------------------------------------------------------
; special function registers
;--------------------------------------------------------
	.area RSEG    (ABS,DATA)
	.org 0x0000
;--------------------------------------------------------
; special function bits
;--------------------------------------------------------
	.area RSEG    (ABS,DATA)
	.org 0x0000
;--------------------------------------------------------
; overlayable register banks
;--------------------------------------------------------
	.area REG_BANK_0	(REL,OVR,DATA)
	.ds 8
;--------------------------------------------------------
; overlayable bit register bank
;--------------------------------------------------------
	.area BIT_BANK	(REL,OVR,DATA)
bits:
	.ds 1
	b0 = bits[0]
	b1 = bits[1]
	b2 = bits[2]
	b3 = bits[3]
	b4 = bits[4]
	b5 = bits[5]
	b6 = bits[6]
	b7 = bits[7]
;--------------------------------------------------------
; internal ram data
;--------------------------------------------------------
	.area DSEG    (DATA)
;--------------------------------------------------------
; overlayable items in internal ram
;--------------------------------------------------------
;--------------------------------------------------------
; indirectly addressable internal ram data
;--------------------------------------------------------
	.area ISEG    (DATA)
;--------------------------------------------------------
; absolute internal ram data
;--------------------------------------------------------
	.area IABS    (ABS,DATA)
	.area IABS    (ABS,DATA)
;--------------------------------------------------------
; bit data
;--------------------------------------------------------
	.area BSEG    (BIT)
;--------------------------------------------------------
; paged external ram data
;--------------------------------------------------------
	.area PSEG    (PAG,XDATA)
;--------------------------------------------------------
; uninitialized external ram data
;--------------------------------------------------------
	.area XSEG    (XDATA)
;--------------------------------------------------------
; absolute external ram data
;--------------------------------------------------------
	.area XABS    (ABS,XDATA)
;--------------------------------------------------------
; initialized external ram data
;--------------------------------------------------------
	.area XISEG   (XDATA)
	.area HOME    (CODE)
	.area GSINIT0 (CODE)
	.area GSINIT1 (CODE)
	.area GSINIT2 (CODE)
	.area GSINIT3 (CODE)
	.area GSINIT4 (CODE)
	.area GSINIT5 (CODE)
	.area GSINIT  (CODE)
	.area GSFINAL (CODE)
	.area CSEG    (CODE)
;--------------------------------------------------------
; global & static initialisations
;--------------------------------------------------------
	.area HOME    (CODE)
	.area GSINIT  (CODE)
	.area GSFINAL (CODE)
	.area GSINIT  (CODE)
;--------------------------------------------------------
; Home
;--------------------------------------------------------
	.area HOME    (CODE)
	.area HOME    (CODE)
;--------------------------------------------------------
; code
;--------------------------------------------------------
	.area CSEG    (CODE)
;------------------------------------------------------------
;Allocation info for local variables in function 'sincosf'
;------------------------------------------------------------
;iscos                     Allocated to stack - _bp -3
;x                         Allocated to stack - _bp +1
;y                         Allocated to registers r2 r3 r6 r7 
;f                         Allocated to stack - _bp +13
;r                         Allocated to registers 
;g                         Allocated to stack - _bp +17
;XN                        Allocated to stack - _bp +21
;N                         Allocated to registers r6 r7 
;sign                      Allocated to registers b0 
;sloc0                     Allocated to stack - _bp +5
;sloc1                     Allocated to stack - _bp +9
;------------------------------------------------------------
;	sincosf.c:50: float sincosf(float x, bool iscos)
;	-----------------------------------------
;	 function sincosf
;	-----------------------------------------
_sincosf:
	ar7 = 0x07
	ar6 = 0x06
	ar5 = 0x05
	ar4 = 0x04
	ar3 = 0x03
	ar2 = 0x02
	ar1 = 0x01
	ar0 = 0x00
	push	_bp
	mov	_bp,sp
	push	dpl
	push	dph
	push	b
	push	acc
	mov	a,sp
	add	a,#0x14
	mov	sp,a
;	sincosf.c:56: if(iscos)
	mov	a,_bp
	add	a,#0xfd
	mov	r0,a
	mov	a,@r0
	jz	00105$
;	sincosf.c:58: y=fabsf(x)+HALF_PI;
	mov	r0,_bp
	inc	r0
	mov	dpl,@r0
	inc	r0
	mov	dph,@r0
	inc	r0
	mov	b,@r0
	inc	r0
	mov	a,@r0
	lcall	_fabsf
	mov	r2,dpl
	mov	r3,dph
	mov	r6,b
	mov	r7,a
	mov	a,#0xdb
	push	acc
	mov	a,#0x0f
	push	acc
	mov	a,#0xc9
	push	acc
	mov	a,#0x3f
	push	acc
	mov	dpl,r2
	mov	dph,r3
	mov	b,r6
	mov	a,r7
	lcall	___fsadd
	mov	r4,dpl
	mov	r5,dph
	mov	r6,b
	mov	r7,a
	mov	a,sp
	add	a,#0xfc
	mov	sp,a
;	sincosf.c:59: sign=0;
;	assignBit
	clr	b0
	sjmp	00106$
00105$:
;	sincosf.c:63: if(x<0.0)
	clr	a
	push	acc
	push	acc
	push	acc
	push	acc
	mov	r0,_bp
	inc	r0
	mov	dpl,@r0
	inc	r0
	mov	dph,@r0
	inc	r0
	mov	b,@r0
	inc	r0
	mov	a,@r0
	lcall	___fslt
	mov	r3,dpl
	mov	a,sp
	add	a,#0xfc
	mov	sp,a
	mov	a,r3
	jz	00102$
;	sincosf.c:64: { y=-x; sign=1; }
	mov	r0,_bp
	inc	r0
	mov	ar4,@r0
	inc	r0
	mov	ar5,@r0
	inc	r0
	mov	ar6,@r0
	inc	r0
	mov	a,@r0
	cpl	acc.7
	mov	r7,a
;	assignBit
	setb	b0
	sjmp	00106$
00102$:
;	sincosf.c:66: { y=x; sign=0; }
	mov	r0,_bp
	inc	r0
	mov	ar4,@r0
	inc	r0
	mov	ar5,@r0
	inc	r0
	mov	ar6,@r0
	inc	r0
	mov	ar7,@r0
;	assignBit
	clr	b0
00106$:
;	sincosf.c:69: if(y>YMAX)
	push	ar7
	push	ar6
	push	ar5
	push	ar4
	push	bits
	push	ar4
	push	ar5
	push	ar6
	push	ar7
	mov	dptr,#0x0c00
	mov	b,#0x49
	mov	a,#0x46
	lcall	___fslt
	mov	r3,dpl
	mov	a,sp
	add	a,#0xfc
	mov	sp,a
	pop	bits
	pop	ar4
	pop	ar5
	pop	ar6
	pop	ar7
	mov	a,r3
	jz	00108$
;	sincosf.c:71: errno=ERANGE;
	mov	dptr,#_errno
	mov	a,#0x22
	movx	@dptr,a
	clr	a
	inc	dptr
	movx	@dptr,a
;	sincosf.c:72: return 0.0;
	mov	dptr,#0x0000
	mov	b,a
	ljmp	00115$
00108$:
;	sincosf.c:76: N=((y*iPI)+0.5); /*y is positive*/
	push	bits
	push	ar4
	push	ar5
	push	ar6
	push	ar7
	mov	dptr,#0xf983
	mov	b,#0xa2
	mov	a,#0x3e
	lcall	___fsmul
	mov	r4,dpl
	mov	r5,dph
	mov	r6,b
	mov	r7,a
	mov	a,sp
	add	a,#0xfc
	mov	sp,a
	pop	bits
	push	bits
	clr	a
	push	acc
	push	acc
	push	acc
	mov	a,#0x3f
	push	acc
	mov	dpl,r4
	mov	dph,r5
	mov	b,r6
	mov	a,r7
	lcall	___fsadd
	mov	r4,dpl
	mov	r5,dph
	mov	r6,b
	mov	r7,a
	mov	a,sp
	add	a,#0xfc
	mov	sp,a
	pop	bits
	mov	dpl,r4
	mov	dph,r5
	mov	b,r6
	mov	a,r7
	push	bits
	lcall	___fs2sint
	mov	r6,dpl
	mov	r7,dph
	pop	bits
;	sincosf.c:79: if(N&1) sign=!sign;
	mov	a,r6
	jnb	acc.0,00110$
	cpl	b0
00110$:
;	sincosf.c:81: XN=N;
	mov	dpl,r6
	mov	dph,r7
	push	bits
	lcall	___sint2fs
	mov	r4,dpl
	mov	r5,dph
	mov	r6,b
	mov	r7,a
	pop	bits
	mov	a,_bp
	add	a,#0x15
	mov	r0,a
	mov	@r0,ar4
	inc	r0
	mov	@r0,ar5
	inc	r0
	mov	@r0,ar6
	inc	r0
	mov	@r0,ar7
;	sincosf.c:83: if(iscos) XN-=0.5;
	mov	a,_bp
	add	a,#0xfd
	mov	r0,a
	mov	a,@r0
	jz	00112$
	push	bits
	clr	a
	push	acc
	push	acc
	push	acc
	mov	a,#0x3f
	push	acc
	mov	a,_bp
	add	a,#0x15
	mov	r0,a
	mov	dpl,@r0
	inc	r0
	mov	dph,@r0
	inc	r0
	mov	b,@r0
	inc	r0
	mov	a,@r0
	lcall	___fssub
	mov	r4,dpl
	mov	r5,dph
	mov	r6,b
	mov	r7,a
	mov	a,sp
	add	a,#0xfc
	mov	sp,a
	pop	bits
	mov	a,_bp
	add	a,#0x15
	mov	r0,a
	mov	@r0,ar4
	inc	r0
	mov	@r0,ar5
	inc	r0
	mov	@r0,ar6
	inc	r0
	mov	@r0,ar7
00112$:
;	sincosf.c:85: y=fabsf(x);
	mov	r0,_bp
	inc	r0
	mov	dpl,@r0
	inc	r0
	mov	dph,@r0
	inc	r0
	mov	b,@r0
	inc	r0
	mov	a,@r0
	push	bits
	lcall	_fabsf
	mov	r2,dpl
	mov	r3,dph
	mov	r6,b
	mov	r7,a
	pop	bits
;	sincosf.c:86: r=(int)y;
	mov	dpl,r2
	mov	dph,r3
	mov	b,r6
	mov	a,r7
	push	ar7
	push	ar6
	push	ar3
	push	ar2
	push	bits
	lcall	___fs2sint
	mov	r4,dpl
	mov	r5,dph
	pop	bits
	mov	dpl,r4
	mov	dph,r5
	push	bits
	lcall	___sint2fs
	xch	a,r0
	mov	a,_bp
	add	a,#0x05
	xch	a,r0
	mov	@r0,dpl
	inc	r0
	mov	@r0,dph
	inc	r0
	mov	@r0,b
	inc	r0
	mov	@r0,a
	pop	bits
	pop	ar2
	pop	ar3
	pop	ar6
	pop	ar7
;	sincosf.c:87: g=y-r;
	push	bits
	mov	a,_bp
	add	a,#0x05
	mov	r0,a
	mov	a,@r0
	push	acc
	inc	r0
	mov	a,@r0
	push	acc
	inc	r0
	mov	a,@r0
	push	acc
	inc	r0
	mov	a,@r0
	push	acc
	mov	dpl,r2
	mov	dph,r3
	mov	b,r6
	mov	a,r7
	lcall	___fssub
	xch	a,r0
	mov	a,_bp
	add	a,#0x09
	xch	a,r0
	mov	@r0,dpl
	inc	r0
	mov	@r0,dph
	inc	r0
	mov	@r0,b
	inc	r0
	mov	@r0,a
	mov	a,sp
	add	a,#0xfc
	mov	sp,a
	pop	bits
;	sincosf.c:88: f=((r-XN*C1)+g)-XN*C2;
	push	bits
	mov	a,_bp
	add	a,#0x15
	mov	r0,a
	mov	a,@r0
	push	acc
	inc	r0
	mov	a,@r0
	push	acc
	inc	r0
	mov	a,@r0
	push	acc
	inc	r0
	mov	a,@r0
	push	acc
	mov	dptr,#0x0000
	mov	b,#0x49
	mov	a,#0x40
	lcall	___fsmul
	mov	r4,dpl
	mov	r5,dph
	mov	r6,b
	mov	r7,a
	mov	a,sp
	add	a,#0xfc
	mov	sp,a
	pop	bits
	push	bits
	push	ar4
	push	ar5
	push	ar6
	push	ar7
	mov	a,_bp
	add	a,#0x05
	mov	r0,a
	mov	dpl,@r0
	inc	r0
	mov	dph,@r0
	inc	r0
	mov	b,@r0
	inc	r0
	mov	a,@r0
	lcall	___fssub
	mov	r4,dpl
	mov	r5,dph
	mov	r6,b
	mov	r7,a
	mov	a,sp
	add	a,#0xfc
	mov	sp,a
	pop	bits
	push	bits
	mov	a,_bp
	add	a,#0x09
	mov	r0,a
	mov	a,@r0
	push	acc
	inc	r0
	mov	a,@r0
	push	acc
	inc	r0
	mov	a,@r0
	push	acc
	inc	r0
	mov	a,@r0
	push	acc
	mov	dpl,r4
	mov	dph,r5
	mov	b,r6
	mov	a,r7
	lcall	___fsadd
	xch	a,r0
	mov	a,_bp
	add	a,#0x09
	xch	a,r0
	mov	@r0,dpl
	inc	r0
	mov	@r0,dph
	inc	r0
	mov	@r0,b
	inc	r0
	mov	@r0,a
	mov	a,sp
	add	a,#0xfc
	mov	sp,a
	pop	bits
	push	bits
	mov	a,_bp
	add	a,#0x15
	mov	r0,a
	mov	a,@r0
	push	acc
	inc	r0
	mov	a,@r0
	push	acc
	inc	r0
	mov	a,@r0
	push	acc
	inc	r0
	mov	a,@r0
	push	acc
	mov	dptr,#0xaa22
	mov	b,#0x7d
	mov	a,#0x3a
	lcall	___fsmul
	mov	r2,dpl
	mov	r3,dph
	mov	r6,b
	mov	r7,a
	mov	a,sp
	add	a,#0xfc
	mov	sp,a
	pop	bits
	push	bits
	push	ar2
	push	ar3
	push	ar6
	push	ar7
	mov	a,_bp
	add	a,#0x09
	mov	r0,a
	mov	dpl,@r0
	inc	r0
	mov	dph,@r0
	inc	r0
	mov	b,@r0
	inc	r0
	mov	a,@r0
	lcall	___fssub
	mov	r4,dpl
	mov	r5,dph
	mov	r6,b
	mov	r7,a
	mov	a,sp
	add	a,#0xfc
	mov	sp,a
	pop	bits
	mov	a,_bp
	add	a,#0x0d
	mov	r0,a
	mov	@r0,ar4
	inc	r0
	mov	@r0,ar5
	inc	r0
	mov	@r0,ar6
	inc	r0
	mov	@r0,ar7
;	sincosf.c:90: g=f*f;
	push	bits
	mov	a,_bp
	add	a,#0x0d
	mov	r0,a
	mov	a,@r0
	push	acc
	inc	r0
	mov	a,@r0
	push	acc
	inc	r0
	mov	a,@r0
	push	acc
	inc	r0
	mov	a,@r0
	push	acc
	mov	a,_bp
	add	a,#0x0d
	mov	r0,a
	mov	dpl,@r0
	inc	r0
	mov	dph,@r0
	inc	r0
	mov	b,@r0
	inc	r0
	mov	a,@r0
	lcall	___fsmul
	mov	r2,dpl
	mov	r3,dph
	mov	r6,b
	mov	r7,a
	mov	a,sp
	add	a,#0xfc
	mov	sp,a
	pop	bits
	mov	a,_bp
	add	a,#0x11
	mov	r0,a
	mov	@r0,ar2
	inc	r0
	mov	@r0,ar3
	inc	r0
	mov	@r0,ar6
	inc	r0
	mov	@r0,ar7
;	sincosf.c:91: if(g>EPS2) //Used to be if(fabsf(f)>EPS)
	push	bits
	mov	a,_bp
	add	a,#0x11
	mov	r0,a
	mov	a,@r0
	push	acc
	inc	r0
	mov	a,@r0
	push	acc
	inc	r0
	mov	a,@r0
	push	acc
	inc	r0
	mov	a,@r0
	push	acc
	mov	dptr,#0xfff3
	mov	b,#0x7f
	mov	a,#0x33
	lcall	___fslt
	mov	r3,dpl
	mov	a,sp
	add	a,#0xfc
	mov	sp,a
	pop	bits
	mov	a,r3
	jnz	00159$
	ljmp	00114$
00159$:
;	sincosf.c:93: r=(((r4*g+r3)*g+r2)*g+r1)*g;
	push	bits
	mov	a,_bp
	add	a,#0x11
	mov	r0,a
	mov	a,@r0
	push	acc
	inc	r0
	mov	a,@r0
	push	acc
	inc	r0
	mov	a,@r0
	push	acc
	inc	r0
	mov	a,@r0
	push	acc
	mov	dptr,#0x9c5b
	mov	b,#0x2e
	mov	a,#0x36
	lcall	___fsmul
	mov	r2,dpl
	mov	r3,dph
	mov	r6,b
	mov	r7,a
	mov	a,sp
	add	a,#0xfc
	mov	sp,a
	pop	bits
	push	bits
	mov	a,#0x22
	push	acc
	mov	a,#0xb2
	push	acc
	mov	a,#0x4f
	push	acc
	mov	a,#0xb9
	push	acc
	mov	dpl,r2
	mov	dph,r3
	mov	b,r6
	mov	a,r7
	lcall	___fsadd
	mov	r4,dpl
	mov	r5,dph
	mov	r6,b
	mov	r7,a
	mov	a,sp
	add	a,#0xfc
	mov	sp,a
	pop	bits
	push	bits
	mov	a,_bp
	add	a,#0x11
	mov	r0,a
	mov	a,@r0
	push	acc
	inc	r0
	mov	a,@r0
	push	acc
	inc	r0
	mov	a,@r0
	push	acc
	inc	r0
	mov	a,@r0
	push	acc
	mov	dpl,r4
	mov	dph,r5
	mov	b,r6
	mov	a,r7
	lcall	___fsmul
	mov	r4,dpl
	mov	r5,dph
	mov	r6,b
	mov	r7,a
	mov	a,sp
	add	a,#0xfc
	mov	sp,a
	pop	bits
	push	bits
	mov	a,#0x3e
	push	acc
	mov	a,#0x87
	push	acc
	mov	a,#0x08
	push	acc
	mov	a,#0x3c
	push	acc
	mov	dpl,r4
	mov	dph,r5
	mov	b,r6
	mov	a,r7
	lcall	___fsadd
	mov	r4,dpl
	mov	r5,dph
	mov	r6,b
	mov	r7,a
	mov	a,sp
	add	a,#0xfc
	mov	sp,a
	pop	bits
	push	bits
	mov	a,_bp
	add	a,#0x11
	mov	r0,a
	mov	a,@r0
	push	acc
	inc	r0
	mov	a,@r0
	push	acc
	inc	r0
	mov	a,@r0
	push	acc
	inc	r0
	mov	a,@r0
	push	acc
	mov	dpl,r4
	mov	dph,r5
	mov	b,r6
	mov	a,r7
	lcall	___fsmul
	mov	r4,dpl
	mov	r5,dph
	mov	r6,b
	mov	r7,a
	mov	a,sp
	add	a,#0xfc
	mov	sp,a
	pop	bits
	push	bits
	mov	a,#0xa4
	push	acc
	mov	a,#0xaa
	push	acc
	mov	a,#0x2a
	push	acc
	mov	a,#0xbe
	push	acc
	mov	dpl,r4
	mov	dph,r5
	mov	b,r6
	mov	a,r7
	lcall	___fsadd
	mov	r4,dpl
	mov	r5,dph
	mov	r6,b
	mov	r7,a
	mov	a,sp
	add	a,#0xfc
	mov	sp,a
	pop	bits
	push	bits
	mov	a,_bp
	add	a,#0x11
	mov	r0,a
	mov	a,@r0
	push	acc
	inc	r0
	mov	a,@r0
	push	acc
	inc	r0
	mov	a,@r0
	push	acc
	inc	r0
	mov	a,@r0
	push	acc
	mov	dpl,r4
	mov	dph,r5
	mov	b,r6
	mov	a,r7
	lcall	___fsmul
	mov	r4,dpl
	mov	r5,dph
	mov	r6,b
	mov	r7,a
	mov	a,sp
	add	a,#0xfc
	mov	sp,a
	pop	bits
;	sincosf.c:94: f+=f*r;
	push	bits
	push	ar4
	push	ar5
	push	ar6
	push	ar7
	mov	a,_bp
	add	a,#0x0d
	mov	r0,a
	mov	dpl,@r0
	inc	r0
	mov	dph,@r0
	inc	r0
	mov	b,@r0
	inc	r0
	mov	a,@r0
	lcall	___fsmul
	mov	r4,dpl
	mov	r5,dph
	mov	r6,b
	mov	r7,a
	mov	a,sp
	add	a,#0xfc
	mov	sp,a
	pop	bits
	push	bits
	push	ar4
	push	ar5
	push	ar6
	push	ar7
	mov	a,_bp
	add	a,#0x0d
	mov	r0,a
	mov	dpl,@r0
	inc	r0
	mov	dph,@r0
	inc	r0
	mov	b,@r0
	inc	r0
	mov	a,@r0
	lcall	___fsadd
	mov	r4,dpl
	mov	r5,dph
	mov	r6,b
	mov	r7,a
	mov	a,sp
	add	a,#0xfc
	mov	sp,a
	pop	bits
	mov	a,_bp
	add	a,#0x0d
	mov	r0,a
	mov	@r0,ar4
	inc	r0
	mov	@r0,ar5
	inc	r0
	mov	@r0,ar6
	inc	r0
	mov	@r0,ar7
00114$:
;	sincosf.c:96: return (sign?-f:f);
	jnb	b0,00117$
	mov	a,_bp
	add	a,#0x0d
	mov	r0,a
	mov	ar4,@r0
	inc	r0
	mov	ar5,@r0
	inc	r0
	mov	ar6,@r0
	inc	r0
	mov	a,@r0
	cpl	acc.7
	mov	r7,a
	sjmp	00118$
00117$:
	mov	a,_bp
	add	a,#0x0d
	mov	r0,a
	mov	ar4,@r0
	inc	r0
	mov	ar5,@r0
	inc	r0
	mov	ar6,@r0
	inc	r0
	mov	ar7,@r0
00118$:
	mov	dpl,r4
	mov	dph,r5
	mov	b,r6
	mov	a,r7
00115$:
;	sincosf.c:97: }
	mov	sp,_bp
	pop	_bp
	ret
	.area CSEG    (CODE)
	.area CONST   (CODE)
	.area XINIT   (CODE)
	.area CABS    (ABS,CODE)
