                                      1 ;--------------------------------------------------------
                                      2 ; File Created by SDCC : free open source ISO C Compiler 
                                      3 ; Version 4.2.14 #0 (Linux)
                                      4 ;--------------------------------------------------------
                                      5 	.module asincosf
                                      6 	.optsdcc -mmcs51 --model-huge
                                      7 	
                                      8 ;--------------------------------------------------------
                                      9 ; Public variables in this module
                                     10 ;--------------------------------------------------------
                                     11 	.globl _asincosf
                                     12 	.globl _ldexpf
                                     13 	.globl _fabsf
                                     14 	.globl _sqrtf
                                     15 	.globl _asincosf_PARM_2
                                     16 ;--------------------------------------------------------
                                     17 ; special function registers
                                     18 ;--------------------------------------------------------
                                     19 	.area RSEG    (ABS,DATA)
      000000                         20 	.org 0x0000
                                     21 ;--------------------------------------------------------
                                     22 ; special function bits
                                     23 ;--------------------------------------------------------
                                     24 	.area RSEG    (ABS,DATA)
      000000                         25 	.org 0x0000
                                     26 ;--------------------------------------------------------
                                     27 ; overlayable register banks
                                     28 ;--------------------------------------------------------
                                     29 	.area REG_BANK_0	(REL,OVR,DATA)
      000000                         30 	.ds 8
                                     31 ;--------------------------------------------------------
                                     32 ; internal ram data
                                     33 ;--------------------------------------------------------
                                     34 	.area DSEG    (DATA)
      000000                         35 _asincosf_sloc0_1_0:
      000000                         36 	.ds 4
                                     37 ;--------------------------------------------------------
                                     38 ; overlayable items in internal ram
                                     39 ;--------------------------------------------------------
                                     40 ;--------------------------------------------------------
                                     41 ; indirectly addressable internal ram data
                                     42 ;--------------------------------------------------------
                                     43 	.area ISEG    (DATA)
                                     44 ;--------------------------------------------------------
                                     45 ; absolute internal ram data
                                     46 ;--------------------------------------------------------
                                     47 	.area IABS    (ABS,DATA)
                                     48 	.area IABS    (ABS,DATA)
                                     49 ;--------------------------------------------------------
                                     50 ; bit data
                                     51 ;--------------------------------------------------------
                                     52 	.area BSEG    (BIT)
                                     53 ;--------------------------------------------------------
                                     54 ; paged external ram data
                                     55 ;--------------------------------------------------------
                                     56 	.area PSEG    (PAG,XDATA)
                                     57 ;--------------------------------------------------------
                                     58 ; uninitialized external ram data
                                     59 ;--------------------------------------------------------
                                     60 	.area XSEG    (XDATA)
      000000                         61 _asincosf_PARM_2:
      000000                         62 	.ds 1
      000001                         63 _asincosf_x_65536_25:
      000001                         64 	.ds 4
      000005                         65 _asincosf_y_65536_26:
      000005                         66 	.ds 4
      000009                         67 _asincosf_g_65536_26:
      000009                         68 	.ds 4
      00000D                         69 _asincosf_r_65536_26:
      00000D                         70 	.ds 4
      000011                         71 _asincosf_quartPI_65536_26:
      000011                         72 	.ds 1
                                     73 ;--------------------------------------------------------
                                     74 ; absolute external ram data
                                     75 ;--------------------------------------------------------
                                     76 	.area XABS    (ABS,XDATA)
                                     77 ;--------------------------------------------------------
                                     78 ; initialized external ram data
                                     79 ;--------------------------------------------------------
                                     80 	.area XISEG   (XDATA)
                                     81 	.area HOME    (CODE)
                                     82 	.area GSINIT0 (CODE)
                                     83 	.area GSINIT1 (CODE)
                                     84 	.area GSINIT2 (CODE)
                                     85 	.area GSINIT3 (CODE)
                                     86 	.area GSINIT4 (CODE)
                                     87 	.area GSINIT5 (CODE)
                                     88 	.area GSINIT  (CODE)
                                     89 	.area GSFINAL (CODE)
                                     90 	.area CSEG    (CODE)
                                     91 ;--------------------------------------------------------
                                     92 ; global & static initialisations
                                     93 ;--------------------------------------------------------
                                     94 	.area HOME    (CODE)
                                     95 	.area GSINIT  (CODE)
                                     96 	.area GSFINAL (CODE)
                                     97 	.area GSINIT  (CODE)
                                     98 ;--------------------------------------------------------
                                     99 ; Home
                                    100 ;--------------------------------------------------------
                                    101 	.area HOME    (CODE)
                                    102 	.area HOME    (CODE)
                                    103 ;--------------------------------------------------------
                                    104 ; code
                                    105 ;--------------------------------------------------------
                                    106 	.area CSEG    (CODE)
                                    107 ;------------------------------------------------------------
                                    108 ;Allocation info for local variables in function 'asincosf'
                                    109 ;------------------------------------------------------------
                                    110 ;sloc0                     Allocated with name '_asincosf_sloc0_1_0'
                                    111 ;isacos                    Allocated with name '_asincosf_PARM_2'
                                    112 ;x                         Allocated with name '_asincosf_x_65536_25'
                                    113 ;y                         Allocated with name '_asincosf_y_65536_26'
                                    114 ;g                         Allocated with name '_asincosf_g_65536_26'
                                    115 ;r                         Allocated with name '_asincosf_r_65536_26'
                                    116 ;i                         Allocated with name '_asincosf_i_65536_26'
                                    117 ;quartPI                   Allocated with name '_asincosf_quartPI_65536_26'
                                    118 ;------------------------------------------------------------
                                    119 ;	asincosf.c:47: float asincosf(float x, bool isacos)
                                    120 ;	-----------------------------------------
                                    121 ;	 function asincosf
                                    122 ;	-----------------------------------------
      000000                        123 _asincosf:
                           000007   124 	ar7 = 0x07
                           000006   125 	ar6 = 0x06
                           000005   126 	ar5 = 0x05
                           000004   127 	ar4 = 0x04
                           000003   128 	ar3 = 0x03
                           000002   129 	ar2 = 0x02
                           000001   130 	ar1 = 0x01
                           000000   131 	ar0 = 0x00
      000000 AF 82            [24]  132 	mov	r7,dpl
      000002 AE 83            [24]  133 	mov	r6,dph
      000004 AD F0            [24]  134 	mov	r5,b
      000006 FC               [12]  135 	mov	r4,a
      000007 90r00r01         [24]  136 	mov	dptr,#_asincosf_x_65536_25
      00000A EF               [12]  137 	mov	a,r7
      00000B F0               [24]  138 	movx	@dptr,a
      00000C EE               [12]  139 	mov	a,r6
      00000D A3               [24]  140 	inc	dptr
      00000E F0               [24]  141 	movx	@dptr,a
      00000F ED               [12]  142 	mov	a,r5
      000010 A3               [24]  143 	inc	dptr
      000011 F0               [24]  144 	movx	@dptr,a
      000012 EC               [12]  145 	mov	a,r4
      000013 A3               [24]  146 	inc	dptr
      000014 F0               [24]  147 	movx	@dptr,a
                                    148 ;	asincosf.c:51: bool quartPI = isacos;
      000015 90r00r00         [24]  149 	mov	dptr,#_asincosf_PARM_2
      000018 E0               [24]  150 	movx	a,@dptr
      000019 FF               [12]  151 	mov	r7,a
      00001A 90r00r11         [24]  152 	mov	dptr,#_asincosf_quartPI_65536_26
      00001D F0               [24]  153 	movx	@dptr,a
                                    154 ;	asincosf.c:56: y = fabsf(x);
      00001E 90r00r01         [24]  155 	mov	dptr,#_asincosf_x_65536_25
      000021 E0               [24]  156 	movx	a,@dptr
      000022 FB               [12]  157 	mov	r3,a
      000023 A3               [24]  158 	inc	dptr
      000024 E0               [24]  159 	movx	a,@dptr
      000025 FC               [12]  160 	mov	r4,a
      000026 A3               [24]  161 	inc	dptr
      000027 E0               [24]  162 	movx	a,@dptr
      000028 FD               [12]  163 	mov	r5,a
      000029 A3               [24]  164 	inc	dptr
      00002A E0               [24]  165 	movx	a,@dptr
      00002B 8B 82            [24]  166 	mov	dpl,r3
      00002D 8C 83            [24]  167 	mov	dph,r4
      00002F 8D F0            [24]  168 	mov	b,r5
      000031 C0 07            [24]  169 	push	ar7
      000033 78r00            [12]  170 	mov	r0,#_fabsf
      000035 79s00            [12]  171 	mov	r1,#(_fabsf >> 8)
      000037 7As00            [12]  172 	mov	r2,#(_fabsf >> 16)
      000039 12r00r00         [24]  173 	lcall	__sdcc_banked_call
      00003C AB 82            [24]  174 	mov	r3,dpl
      00003E AC 83            [24]  175 	mov	r4,dph
      000040 AD F0            [24]  176 	mov	r5,b
      000042 FE               [12]  177 	mov	r6,a
      000043 90r00r05         [24]  178 	mov	dptr,#_asincosf_y_65536_26
      000046 EB               [12]  179 	mov	a,r3
      000047 F0               [24]  180 	movx	@dptr,a
      000048 EC               [12]  181 	mov	a,r4
      000049 A3               [24]  182 	inc	dptr
      00004A F0               [24]  183 	movx	@dptr,a
      00004B ED               [12]  184 	mov	a,r5
      00004C A3               [24]  185 	inc	dptr
      00004D F0               [24]  186 	movx	@dptr,a
      00004E EE               [12]  187 	mov	a,r6
      00004F A3               [24]  188 	inc	dptr
      000050 F0               [24]  189 	movx	@dptr,a
                                    190 ;	asincosf.c:57: if (y < EPS)
      000051 C0 06            [24]  191 	push	ar6
      000053 C0 05            [24]  192 	push	ar5
      000055 C0 04            [24]  193 	push	ar4
      000057 C0 03            [24]  194 	push	ar3
      000059 E4               [12]  195 	clr	a
      00005A C0 E0            [24]  196 	push	acc
      00005C C0 E0            [24]  197 	push	acc
      00005E 74 80            [12]  198 	mov	a,#0x80
      000060 C0 E0            [24]  199 	push	acc
      000062 74 39            [12]  200 	mov	a,#0x39
      000064 C0 E0            [24]  201 	push	acc
      000066 8B 82            [24]  202 	mov	dpl,r3
      000068 8C 83            [24]  203 	mov	dph,r4
      00006A 8D F0            [24]  204 	mov	b,r5
      00006C EE               [12]  205 	mov	a,r6
      00006D 12r00r00         [24]  206 	lcall	___fslt
      000070 AA 82            [24]  207 	mov	r2,dpl
      000072 E5 81            [12]  208 	mov	a,sp
      000074 24 FC            [12]  209 	add	a,#0xfc
      000076 F5 81            [12]  210 	mov	sp,a
      000078 D0 03            [24]  211 	pop	ar3
      00007A D0 04            [24]  212 	pop	ar4
      00007C D0 05            [24]  213 	pop	ar5
      00007E D0 06            [24]  214 	pop	ar6
      000080 D0 07            [24]  215 	pop	ar7
      000082 EA               [12]  216 	mov	a,r2
      000083 60 11            [24]  217 	jz	00107$
                                    218 ;	asincosf.c:59: r = y;
      000085 90r00r0D         [24]  219 	mov	dptr,#_asincosf_r_65536_26
      000088 EB               [12]  220 	mov	a,r3
      000089 F0               [24]  221 	movx	@dptr,a
      00008A EC               [12]  222 	mov	a,r4
      00008B A3               [24]  223 	inc	dptr
      00008C F0               [24]  224 	movx	@dptr,a
      00008D ED               [12]  225 	mov	a,r5
      00008E A3               [24]  226 	inc	dptr
      00008F F0               [24]  227 	movx	@dptr,a
      000090 EE               [12]  228 	mov	a,r6
      000091 A3               [24]  229 	inc	dptr
      000092 F0               [24]  230 	movx	@dptr,a
      000093 02r03r8C         [24]  231 	ljmp	00108$
      000096                        232 00107$:
                                    233 ;	asincosf.c:63: if (y > 0.5)
      000096 C0 07            [24]  234 	push	ar7
      000098 C0 06            [24]  235 	push	ar6
      00009A C0 05            [24]  236 	push	ar5
      00009C C0 04            [24]  237 	push	ar4
      00009E C0 03            [24]  238 	push	ar3
      0000A0 C0 03            [24]  239 	push	ar3
      0000A2 C0 04            [24]  240 	push	ar4
      0000A4 C0 05            [24]  241 	push	ar5
      0000A6 C0 06            [24]  242 	push	ar6
      0000A8 90 00 00         [24]  243 	mov	dptr,#(0x00&0x00ff)
      0000AB E4               [12]  244 	clr	a
      0000AC F5 F0            [12]  245 	mov	b,a
      0000AE 74 3F            [12]  246 	mov	a,#0x3f
      0000B0 12r00r00         [24]  247 	lcall	___fslt
      0000B3 AA 82            [24]  248 	mov	r2,dpl
      0000B5 E5 81            [12]  249 	mov	a,sp
      0000B7 24 FC            [12]  250 	add	a,#0xfc
      0000B9 F5 81            [12]  251 	mov	sp,a
      0000BB D0 03            [24]  252 	pop	ar3
      0000BD D0 04            [24]  253 	pop	ar4
      0000BF D0 05            [24]  254 	pop	ar5
      0000C1 D0 06            [24]  255 	pop	ar6
      0000C3 D0 07            [24]  256 	pop	ar7
      0000C5 EA               [12]  257 	mov	a,r2
      0000C6 70 03            [24]  258 	jnz	00144$
      0000C8 02r01rB1         [24]  259 	ljmp	00104$
      0000CB                        260 00144$:
                                    261 ;	asincosf.c:65: quartPI = !isacos;
      0000CB 90r00r11         [24]  262 	mov	dptr,#_asincosf_quartPI_65536_26
      0000CE EF               [12]  263 	mov	a,r7
      0000CF B4 01 00         [24]  264 	cjne	a,#0x01,00145$
      0000D2                        265 00145$:
      0000D2 E4               [12]  266 	clr	a
      0000D3 33               [12]  267 	rlc	a
      0000D4 F0               [24]  268 	movx	@dptr,a
                                    269 ;	asincosf.c:66: if (y > 1.0)
      0000D5 C0 07            [24]  270 	push	ar7
      0000D7 C0 06            [24]  271 	push	ar6
      0000D9 C0 05            [24]  272 	push	ar5
      0000DB C0 04            [24]  273 	push	ar4
      0000DD C0 03            [24]  274 	push	ar3
      0000DF C0 03            [24]  275 	push	ar3
      0000E1 C0 04            [24]  276 	push	ar4
      0000E3 C0 05            [24]  277 	push	ar5
      0000E5 C0 06            [24]  278 	push	ar6
      0000E7 90 00 00         [24]  279 	mov	dptr,#0x0000
      0000EA 75 F0 80         [24]  280 	mov	b,#0x80
      0000ED 74 3F            [12]  281 	mov	a,#0x3f
      0000EF 12r00r00         [24]  282 	lcall	___fslt
      0000F2 AA 82            [24]  283 	mov	r2,dpl
      0000F4 E5 81            [12]  284 	mov	a,sp
      0000F6 24 FC            [12]  285 	add	a,#0xfc
      0000F8 F5 81            [12]  286 	mov	sp,a
      0000FA D0 03            [24]  287 	pop	ar3
      0000FC D0 04            [24]  288 	pop	ar4
      0000FE D0 05            [24]  289 	pop	ar5
      000100 D0 06            [24]  290 	pop	ar6
      000102 D0 07            [24]  291 	pop	ar7
      000104 EA               [12]  292 	mov	a,r2
      000105 60 11            [24]  293 	jz	00102$
                                    294 ;	asincosf.c:68: errno = EDOM;
      000107 90r00r00         [24]  295 	mov	dptr,#_errno
      00010A 74 21            [12]  296 	mov	a,#0x21
      00010C F0               [24]  297 	movx	@dptr,a
      00010D E4               [12]  298 	clr	a
      00010E A3               [24]  299 	inc	dptr
      00010F F0               [24]  300 	movx	@dptr,a
                                    301 ;	asincosf.c:69: return 0.0;
      000110 90 00 00         [24]  302 	mov	dptr,#0x0000
      000113 F5 F0            [12]  303 	mov	b,a
      000115 02r00r00         [24]  304 	ljmp	__sdcc_banked_ret
      000118                        305 00102$:
                                    306 ;	asincosf.c:71: g = (0.5 - y) + 0.5;
      000118 C0 07            [24]  307 	push	ar7
      00011A C0 03            [24]  308 	push	ar3
      00011C C0 04            [24]  309 	push	ar4
      00011E C0 05            [24]  310 	push	ar5
      000120 C0 06            [24]  311 	push	ar6
                                    312 ;	asincosf.c:72: g = ldexpf(g, -1);
      000122 90 00 00         [24]  313 	mov	dptr,#0x0000
      000125 75 F0 80         [24]  314 	mov	b,#0x80
      000128 74 3F            [12]  315 	mov	a,#0x3f
      00012A 12r00r00         [24]  316 	lcall	___fssub
      00012D A8 82            [24]  317 	mov	r0,dpl
      00012F A9 83            [24]  318 	mov	r1,dph
      000131 AA F0            [24]  319 	mov	r2,b
      000133 FF               [12]  320 	mov	r7,a
      000134 E5 81            [12]  321 	mov	a,sp
      000136 24 FC            [12]  322 	add	a,#0xfc
      000138 F5 81            [12]  323 	mov	sp,a
      00013A 90r00r00         [24]  324 	mov	dptr,#_ldexpf_PARM_2
      00013D 74 FF            [12]  325 	mov	a,#0xff
      00013F F0               [24]  326 	movx	@dptr,a
      000140 A3               [24]  327 	inc	dptr
      000141 F0               [24]  328 	movx	@dptr,a
      000142 88 82            [24]  329 	mov	dpl,r0
      000144 89 83            [24]  330 	mov	dph,r1
      000146 8A F0            [24]  331 	mov	b,r2
      000148 EF               [12]  332 	mov	a,r7
      000149 78r00            [12]  333 	mov	r0,#_ldexpf
      00014B 79s00            [12]  334 	mov	r1,#(_ldexpf >> 8)
      00014D 7As00            [12]  335 	mov	r2,#(_ldexpf >> 16)
      00014F 12r00r00         [24]  336 	lcall	__sdcc_banked_call
      000152 A8 82            [24]  337 	mov	r0,dpl
      000154 A9 83            [24]  338 	mov	r1,dph
      000156 AA F0            [24]  339 	mov	r2,b
      000158 FF               [12]  340 	mov	r7,a
      000159 90r00r09         [24]  341 	mov	dptr,#_asincosf_g_65536_26
      00015C E8               [12]  342 	mov	a,r0
      00015D F0               [24]  343 	movx	@dptr,a
      00015E E9               [12]  344 	mov	a,r1
      00015F A3               [24]  345 	inc	dptr
      000160 F0               [24]  346 	movx	@dptr,a
      000161 EA               [12]  347 	mov	a,r2
      000162 A3               [24]  348 	inc	dptr
      000163 F0               [24]  349 	movx	@dptr,a
      000164 EF               [12]  350 	mov	a,r7
      000165 A3               [24]  351 	inc	dptr
      000166 F0               [24]  352 	movx	@dptr,a
                                    353 ;	asincosf.c:73: y = sqrtf(g);
      000167 88 82            [24]  354 	mov	dpl,r0
      000169 89 83            [24]  355 	mov	dph,r1
      00016B 8A F0            [24]  356 	mov	b,r2
      00016D EF               [12]  357 	mov	a,r7
      00016E 78r00            [12]  358 	mov	r0,#_sqrtf
      000170 79s00            [12]  359 	mov	r1,#(_sqrtf >> 8)
      000172 7As00            [12]  360 	mov	r2,#(_sqrtf >> 16)
      000174 12r00r00         [24]  361 	lcall	__sdcc_banked_call
      000177 A8 82            [24]  362 	mov	r0,dpl
      000179 A9 83            [24]  363 	mov	r1,dph
      00017B AA F0            [24]  364 	mov	r2,b
      00017D FF               [12]  365 	mov	r7,a
                                    366 ;	asincosf.c:74: y = -(y + y);
      00017E C0 00            [24]  367 	push	ar0
      000180 C0 01            [24]  368 	push	ar1
      000182 C0 02            [24]  369 	push	ar2
      000184 C0 07            [24]  370 	push	ar7
      000186 88 82            [24]  371 	mov	dpl,r0
      000188 89 83            [24]  372 	mov	dph,r1
      00018A 8A F0            [24]  373 	mov	b,r2
      00018C EF               [12]  374 	mov	a,r7
      00018D 12r00r00         [24]  375 	lcall	___fsadd
      000190 A8 82            [24]  376 	mov	r0,dpl
      000192 A9 83            [24]  377 	mov	r1,dph
      000194 AA F0            [24]  378 	mov	r2,b
      000196 FF               [12]  379 	mov	r7,a
      000197 E5 81            [12]  380 	mov	a,sp
      000199 24 FC            [12]  381 	add	a,#0xfc
      00019B F5 81            [12]  382 	mov	sp,a
      00019D 90r00r05         [24]  383 	mov	dptr,#_asincosf_y_65536_26
      0001A0 E8               [12]  384 	mov	a,r0
      0001A1 F0               [24]  385 	movx	@dptr,a
      0001A2 E9               [12]  386 	mov	a,r1
      0001A3 A3               [24]  387 	inc	dptr
      0001A4 F0               [24]  388 	movx	@dptr,a
      0001A5 EA               [12]  389 	mov	a,r2
      0001A6 A3               [24]  390 	inc	dptr
      0001A7 F0               [24]  391 	movx	@dptr,a
      0001A8 EF               [12]  392 	mov	a,r7
      0001A9 B2 E7            [12]  393 	cpl	acc.7
      0001AB A3               [24]  394 	inc	dptr
      0001AC F0               [24]  395 	movx	@dptr,a
      0001AD D0 07            [24]  396 	pop	ar7
      0001AF 80 31            [24]  397 	sjmp	00105$
      0001B1                        398 00104$:
                                    399 ;	asincosf.c:78: g = y * y;
      0001B1 C0 07            [24]  400 	push	ar7
      0001B3 C0 03            [24]  401 	push	ar3
      0001B5 C0 04            [24]  402 	push	ar4
      0001B7 C0 05            [24]  403 	push	ar5
      0001B9 C0 06            [24]  404 	push	ar6
      0001BB 8B 82            [24]  405 	mov	dpl,r3
      0001BD 8C 83            [24]  406 	mov	dph,r4
      0001BF 8D F0            [24]  407 	mov	b,r5
      0001C1 EE               [12]  408 	mov	a,r6
      0001C2 12r00r00         [24]  409 	lcall	___fsmul
      0001C5 AB 82            [24]  410 	mov	r3,dpl
      0001C7 AC 83            [24]  411 	mov	r4,dph
      0001C9 AD F0            [24]  412 	mov	r5,b
      0001CB FE               [12]  413 	mov	r6,a
      0001CC E5 81            [12]  414 	mov	a,sp
      0001CE 24 FC            [12]  415 	add	a,#0xfc
      0001D0 F5 81            [12]  416 	mov	sp,a
      0001D2 D0 07            [24]  417 	pop	ar7
      0001D4 90r00r09         [24]  418 	mov	dptr,#_asincosf_g_65536_26
      0001D7 EB               [12]  419 	mov	a,r3
      0001D8 F0               [24]  420 	movx	@dptr,a
      0001D9 EC               [12]  421 	mov	a,r4
      0001DA A3               [24]  422 	inc	dptr
      0001DB F0               [24]  423 	movx	@dptr,a
      0001DC ED               [12]  424 	mov	a,r5
      0001DD A3               [24]  425 	inc	dptr
      0001DE F0               [24]  426 	movx	@dptr,a
      0001DF EE               [12]  427 	mov	a,r6
      0001E0 A3               [24]  428 	inc	dptr
      0001E1 F0               [24]  429 	movx	@dptr,a
      0001E2                        430 00105$:
                                    431 ;	asincosf.c:80: r = y + y * ((P(g) * g) / Q(g));
      0001E2 C0 07            [24]  432 	push	ar7
      0001E4 90r00r09         [24]  433 	mov	dptr,#_asincosf_g_65536_26
      0001E7 E0               [24]  434 	movx	a,@dptr
      0001E8 FB               [12]  435 	mov	r3,a
      0001E9 A3               [24]  436 	inc	dptr
      0001EA E0               [24]  437 	movx	a,@dptr
      0001EB FC               [12]  438 	mov	r4,a
      0001EC A3               [24]  439 	inc	dptr
      0001ED E0               [24]  440 	movx	a,@dptr
      0001EE FD               [12]  441 	mov	r5,a
      0001EF A3               [24]  442 	inc	dptr
      0001F0 E0               [24]  443 	movx	a,@dptr
      0001F1 FE               [12]  444 	mov	r6,a
      0001F2 C0 06            [24]  445 	push	ar6
      0001F4 C0 05            [24]  446 	push	ar5
      0001F6 C0 04            [24]  447 	push	ar4
      0001F8 C0 03            [24]  448 	push	ar3
      0001FA C0 03            [24]  449 	push	ar3
      0001FC C0 04            [24]  450 	push	ar4
      0001FE C0 05            [24]  451 	push	ar5
      000200 C0 06            [24]  452 	push	ar6
      000202 90 20 65         [24]  453 	mov	dptr,#0x2065
      000205 75 F0 01         [24]  454 	mov	b,#0x01
      000208 74 BF            [12]  455 	mov	a,#0xbf
      00020A 12r00r00         [24]  456 	lcall	___fsmul
      00020D A8 82            [24]  457 	mov	r0,dpl
      00020F A9 83            [24]  458 	mov	r1,dph
      000211 AA F0            [24]  459 	mov	r2,b
      000213 FF               [12]  460 	mov	r7,a
      000214 E5 81            [12]  461 	mov	a,sp
      000216 24 FC            [12]  462 	add	a,#0xfc
      000218 F5 81            [12]  463 	mov	sp,a
      00021A 74 6B            [12]  464 	mov	a,#0x6b
      00021C C0 E0            [24]  465 	push	acc
      00021E 74 16            [12]  466 	mov	a,#0x16
      000220 C0 E0            [24]  467 	push	acc
      000222 74 6F            [12]  468 	mov	a,#0x6f
      000224 C0 E0            [24]  469 	push	acc
      000226 74 3F            [12]  470 	mov	a,#0x3f
      000228 C0 E0            [24]  471 	push	acc
      00022A 88 82            [24]  472 	mov	dpl,r0
      00022C 89 83            [24]  473 	mov	dph,r1
      00022E 8A F0            [24]  474 	mov	b,r2
      000230 EF               [12]  475 	mov	a,r7
      000231 12r00r00         [24]  476 	lcall	___fsadd
      000234 A8 82            [24]  477 	mov	r0,dpl
      000236 A9 83            [24]  478 	mov	r1,dph
      000238 AA F0            [24]  479 	mov	r2,b
      00023A FF               [12]  480 	mov	r7,a
      00023B E5 81            [12]  481 	mov	a,sp
      00023D 24 FC            [12]  482 	add	a,#0xfc
      00023F F5 81            [12]  483 	mov	sp,a
      000241 D0 03            [24]  484 	pop	ar3
      000243 D0 04            [24]  485 	pop	ar4
      000245 D0 05            [24]  486 	pop	ar5
      000247 D0 06            [24]  487 	pop	ar6
      000249 C0 07            [24]  488 	push	ar7
      00024B C0 06            [24]  489 	push	ar6
      00024D C0 05            [24]  490 	push	ar5
      00024F C0 04            [24]  491 	push	ar4
      000251 C0 03            [24]  492 	push	ar3
      000253 C0 03            [24]  493 	push	ar3
      000255 C0 04            [24]  494 	push	ar4
      000257 C0 05            [24]  495 	push	ar5
      000259 C0 06            [24]  496 	push	ar6
      00025B 88 82            [24]  497 	mov	dpl,r0
      00025D 89 83            [24]  498 	mov	dph,r1
      00025F 8A F0            [24]  499 	mov	b,r2
      000261 EF               [12]  500 	mov	a,r7
      000262 12r00r00         [24]  501 	lcall	___fsmul
      000265 85 82*00         [24]  502 	mov	_asincosf_sloc0_1_0,dpl
      000268 85 83*01         [24]  503 	mov	(_asincosf_sloc0_1_0 + 1),dph
      00026B 85 F0*02         [24]  504 	mov	(_asincosf_sloc0_1_0 + 2),b
      00026E F5*03            [12]  505 	mov	(_asincosf_sloc0_1_0 + 3),a
      000270 E5 81            [12]  506 	mov	a,sp
      000272 24 FC            [12]  507 	add	a,#0xfc
      000274 F5 81            [12]  508 	mov	sp,a
      000276 D0 03            [24]  509 	pop	ar3
      000278 D0 04            [24]  510 	pop	ar4
      00027A D0 05            [24]  511 	pop	ar5
      00027C D0 06            [24]  512 	pop	ar6
      00027E D0 07            [24]  513 	pop	ar7
      000280 C0 06            [24]  514 	push	ar6
      000282 C0 05            [24]  515 	push	ar5
      000284 C0 04            [24]  516 	push	ar4
      000286 C0 03            [24]  517 	push	ar3
      000288 74 0B            [12]  518 	mov	a,#0x0b
      00028A C0 E0            [24]  519 	push	acc
      00028C 74 8D            [12]  520 	mov	a,#0x8d
      00028E C0 E0            [24]  521 	push	acc
      000290 74 B1            [12]  522 	mov	a,#0xb1
      000292 C0 E0            [24]  523 	push	acc
      000294 74 C0            [12]  524 	mov	a,#0xc0
      000296 C0 E0            [24]  525 	push	acc
      000298 8B 82            [24]  526 	mov	dpl,r3
      00029A 8C 83            [24]  527 	mov	dph,r4
      00029C 8D F0            [24]  528 	mov	b,r5
      00029E EE               [12]  529 	mov	a,r6
      00029F 12r00r00         [24]  530 	lcall	___fsadd
      0002A2 A8 82            [24]  531 	mov	r0,dpl
      0002A4 A9 83            [24]  532 	mov	r1,dph
      0002A6 AA F0            [24]  533 	mov	r2,b
      0002A8 FF               [12]  534 	mov	r7,a
      0002A9 E5 81            [12]  535 	mov	a,sp
      0002AB 24 FC            [12]  536 	add	a,#0xfc
      0002AD F5 81            [12]  537 	mov	sp,a
      0002AF D0 03            [24]  538 	pop	ar3
      0002B1 D0 04            [24]  539 	pop	ar4
      0002B3 D0 05            [24]  540 	pop	ar5
      0002B5 D0 06            [24]  541 	pop	ar6
      0002B7 C0 03            [24]  542 	push	ar3
      0002B9 C0 04            [24]  543 	push	ar4
      0002BB C0 05            [24]  544 	push	ar5
      0002BD C0 06            [24]  545 	push	ar6
      0002BF 88 82            [24]  546 	mov	dpl,r0
      0002C1 89 83            [24]  547 	mov	dph,r1
      0002C3 8A F0            [24]  548 	mov	b,r2
      0002C5 EF               [12]  549 	mov	a,r7
      0002C6 12r00r00         [24]  550 	lcall	___fsmul
      0002C9 AC 82            [24]  551 	mov	r4,dpl
      0002CB AD 83            [24]  552 	mov	r5,dph
      0002CD AE F0            [24]  553 	mov	r6,b
      0002CF FF               [12]  554 	mov	r7,a
      0002D0 E5 81            [12]  555 	mov	a,sp
      0002D2 24 FC            [12]  556 	add	a,#0xfc
      0002D4 F5 81            [12]  557 	mov	sp,a
      0002D6 74 F0            [12]  558 	mov	a,#0xf0
      0002D8 C0 E0            [24]  559 	push	acc
      0002DA 74 50            [12]  560 	mov	a,#0x50
      0002DC C0 E0            [24]  561 	push	acc
      0002DE 74 B3            [12]  562 	mov	a,#0xb3
      0002E0 C0 E0            [24]  563 	push	acc
      0002E2 74 40            [12]  564 	mov	a,#0x40
      0002E4 C0 E0            [24]  565 	push	acc
      0002E6 8C 82            [24]  566 	mov	dpl,r4
      0002E8 8D 83            [24]  567 	mov	dph,r5
      0002EA 8E F0            [24]  568 	mov	b,r6
      0002EC EF               [12]  569 	mov	a,r7
      0002ED 12r00r00         [24]  570 	lcall	___fsadd
      0002F0 AC 82            [24]  571 	mov	r4,dpl
      0002F2 AD 83            [24]  572 	mov	r5,dph
      0002F4 AE F0            [24]  573 	mov	r6,b
      0002F6 FF               [12]  574 	mov	r7,a
      0002F7 E5 81            [12]  575 	mov	a,sp
      0002F9 24 FC            [12]  576 	add	a,#0xfc
      0002FB F5 81            [12]  577 	mov	sp,a
      0002FD C0 04            [24]  578 	push	ar4
      0002FF C0 05            [24]  579 	push	ar5
      000301 C0 06            [24]  580 	push	ar6
      000303 C0 07            [24]  581 	push	ar7
      000305 85*00 82         [24]  582 	mov	dpl,_asincosf_sloc0_1_0
      000308 85*01 83         [24]  583 	mov	dph,(_asincosf_sloc0_1_0 + 1)
      00030B 85*02 F0         [24]  584 	mov	b,(_asincosf_sloc0_1_0 + 2)
      00030E E5*03            [12]  585 	mov	a,(_asincosf_sloc0_1_0 + 3)
      000310 12r00r00         [24]  586 	lcall	___fsdiv
      000313 AC 82            [24]  587 	mov	r4,dpl
      000315 AD 83            [24]  588 	mov	r5,dph
      000317 AE F0            [24]  589 	mov	r6,b
      000319 FF               [12]  590 	mov	r7,a
      00031A E5 81            [12]  591 	mov	a,sp
      00031C 24 FC            [12]  592 	add	a,#0xfc
      00031E F5 81            [12]  593 	mov	sp,a
      000320 90r00r05         [24]  594 	mov	dptr,#_asincosf_y_65536_26
      000323 E0               [24]  595 	movx	a,@dptr
      000324 F8               [12]  596 	mov	r0,a
      000325 A3               [24]  597 	inc	dptr
      000326 E0               [24]  598 	movx	a,@dptr
      000327 F9               [12]  599 	mov	r1,a
      000328 A3               [24]  600 	inc	dptr
      000329 E0               [24]  601 	movx	a,@dptr
      00032A FA               [12]  602 	mov	r2,a
      00032B A3               [24]  603 	inc	dptr
      00032C E0               [24]  604 	movx	a,@dptr
      00032D FB               [12]  605 	mov	r3,a
      00032E C0 03            [24]  606 	push	ar3
      000330 C0 02            [24]  607 	push	ar2
      000332 C0 01            [24]  608 	push	ar1
      000334 C0 00            [24]  609 	push	ar0
      000336 C0 04            [24]  610 	push	ar4
      000338 C0 05            [24]  611 	push	ar5
      00033A C0 06            [24]  612 	push	ar6
      00033C C0 07            [24]  613 	push	ar7
      00033E 88 82            [24]  614 	mov	dpl,r0
      000340 89 83            [24]  615 	mov	dph,r1
      000342 8A F0            [24]  616 	mov	b,r2
      000344 EB               [12]  617 	mov	a,r3
      000345 12r00r00         [24]  618 	lcall	___fsmul
      000348 AC 82            [24]  619 	mov	r4,dpl
      00034A AD 83            [24]  620 	mov	r5,dph
      00034C AE F0            [24]  621 	mov	r6,b
      00034E FF               [12]  622 	mov	r7,a
      00034F E5 81            [12]  623 	mov	a,sp
      000351 24 FC            [12]  624 	add	a,#0xfc
      000353 F5 81            [12]  625 	mov	sp,a
      000355 D0 00            [24]  626 	pop	ar0
      000357 D0 01            [24]  627 	pop	ar1
      000359 D0 02            [24]  628 	pop	ar2
      00035B D0 03            [24]  629 	pop	ar3
      00035D C0 04            [24]  630 	push	ar4
      00035F C0 05            [24]  631 	push	ar5
      000361 C0 06            [24]  632 	push	ar6
      000363 C0 07            [24]  633 	push	ar7
      000365 88 82            [24]  634 	mov	dpl,r0
      000367 89 83            [24]  635 	mov	dph,r1
      000369 8A F0            [24]  636 	mov	b,r2
      00036B EB               [12]  637 	mov	a,r3
      00036C 12r00r00         [24]  638 	lcall	___fsadd
      00036F AC 82            [24]  639 	mov	r4,dpl
      000371 AD 83            [24]  640 	mov	r5,dph
      000373 AE F0            [24]  641 	mov	r6,b
      000375 FF               [12]  642 	mov	r7,a
      000376 E5 81            [12]  643 	mov	a,sp
      000378 24 FC            [12]  644 	add	a,#0xfc
      00037A F5 81            [12]  645 	mov	sp,a
      00037C 90r00r0D         [24]  646 	mov	dptr,#_asincosf_r_65536_26
      00037F EC               [12]  647 	mov	a,r4
      000380 F0               [24]  648 	movx	@dptr,a
      000381 ED               [12]  649 	mov	a,r5
      000382 A3               [24]  650 	inc	dptr
      000383 F0               [24]  651 	movx	@dptr,a
      000384 EE               [12]  652 	mov	a,r6
      000385 A3               [24]  653 	inc	dptr
      000386 F0               [24]  654 	movx	@dptr,a
      000387 EF               [12]  655 	mov	a,r7
      000388 A3               [24]  656 	inc	dptr
      000389 F0               [24]  657 	movx	@dptr,a
                                    658 ;	asincosf.c:96: return r;
      00038A D0 07            [24]  659 	pop	ar7
                                    660 ;	asincosf.c:80: r = y + y * ((P(g) * g) / Q(g));
      00038C                        661 00108$:
                                    662 ;	asincosf.c:82: i = quartPI;
      00038C 90r00r11         [24]  663 	mov	dptr,#_asincosf_quartPI_65536_26
      00038F E0               [24]  664 	movx	a,@dptr
      000390 FE               [12]  665 	mov	r6,a
                                    666 ;	asincosf.c:83: if (isacos)
      000391 EF               [12]  667 	mov	a,r7
      000392 70 03            [24]  668 	jnz	00147$
      000394 02r04rC8         [24]  669 	ljmp	00115$
      000397                        670 00147$:
                                    671 ;	asincosf.c:85: if (x < 0.0)
      000397 90r00r01         [24]  672 	mov	dptr,#_asincosf_x_65536_25
      00039A E0               [24]  673 	movx	a,@dptr
      00039B FB               [12]  674 	mov	r3,a
      00039C A3               [24]  675 	inc	dptr
      00039D E0               [24]  676 	movx	a,@dptr
      00039E FC               [12]  677 	mov	r4,a
      00039F A3               [24]  678 	inc	dptr
      0003A0 E0               [24]  679 	movx	a,@dptr
      0003A1 FD               [12]  680 	mov	r5,a
      0003A2 A3               [24]  681 	inc	dptr
      0003A3 E0               [24]  682 	movx	a,@dptr
      0003A4 FF               [12]  683 	mov	r7,a
      0003A5 C0 06            [24]  684 	push	ar6
      0003A7 E4               [12]  685 	clr	a
      0003A8 C0 E0            [24]  686 	push	acc
      0003AA C0 E0            [24]  687 	push	acc
      0003AC C0 E0            [24]  688 	push	acc
      0003AE C0 E0            [24]  689 	push	acc
      0003B0 8B 82            [24]  690 	mov	dpl,r3
      0003B2 8C 83            [24]  691 	mov	dph,r4
      0003B4 8D F0            [24]  692 	mov	b,r5
      0003B6 EF               [12]  693 	mov	a,r7
      0003B7 12r00r00         [24]  694 	lcall	___fslt
      0003BA AF 82            [24]  695 	mov	r7,dpl
      0003BC E5 81            [12]  696 	mov	a,sp
      0003BE 24 FC            [12]  697 	add	a,#0xfc
      0003C0 F5 81            [12]  698 	mov	sp,a
      0003C2 D0 06            [24]  699 	pop	ar6
      0003C4 EF               [12]  700 	mov	a,r7
      0003C5 70 03            [24]  701 	jnz	00148$
      0003C7 02r04r49         [24]  702 	ljmp	00110$
      0003CA                        703 00148$:
                                    704 ;	asincosf.c:86: r = (b[i] + r) + b[i];
      0003CA EE               [12]  705 	mov	a,r6
      0003CB 75 F0 04         [24]  706 	mov	b,#0x04
      0003CE A4               [48]  707 	mul	ab
      0003CF 24r08            [12]  708 	add	a,#_asincosf_b_65536_26
      0003D1 F5 82            [12]  709 	mov	dpl,a
      0003D3 74s00            [12]  710 	mov	a,#(_asincosf_b_65536_26 >> 8)
      0003D5 35 F0            [12]  711 	addc	a,b
      0003D7 F5 83            [12]  712 	mov	dph,a
      0003D9 E4               [12]  713 	clr	a
      0003DA 93               [24]  714 	movc	a,@a+dptr
      0003DB F5*00            [12]  715 	mov	_asincosf_sloc0_1_0,a
      0003DD A3               [24]  716 	inc	dptr
      0003DE E4               [12]  717 	clr	a
      0003DF 93               [24]  718 	movc	a,@a+dptr
      0003E0 F5*01            [12]  719 	mov	(_asincosf_sloc0_1_0 + 1),a
      0003E2 A3               [24]  720 	inc	dptr
      0003E3 E4               [12]  721 	clr	a
      0003E4 93               [24]  722 	movc	a,@a+dptr
      0003E5 F5*02            [12]  723 	mov	(_asincosf_sloc0_1_0 + 2),a
      0003E7 A3               [24]  724 	inc	dptr
      0003E8 E4               [12]  725 	clr	a
      0003E9 93               [24]  726 	movc	a,@a+dptr
      0003EA F5*03            [12]  727 	mov	(_asincosf_sloc0_1_0 + 3),a
      0003EC 90r00r0D         [24]  728 	mov	dptr,#_asincosf_r_65536_26
      0003EF E0               [24]  729 	movx	a,@dptr
      0003F0 C0 E0            [24]  730 	push	acc
      0003F2 A3               [24]  731 	inc	dptr
      0003F3 E0               [24]  732 	movx	a,@dptr
      0003F4 C0 E0            [24]  733 	push	acc
      0003F6 A3               [24]  734 	inc	dptr
      0003F7 E0               [24]  735 	movx	a,@dptr
      0003F8 C0 E0            [24]  736 	push	acc
      0003FA A3               [24]  737 	inc	dptr
      0003FB E0               [24]  738 	movx	a,@dptr
      0003FC C0 E0            [24]  739 	push	acc
      0003FE 85*00 82         [24]  740 	mov	dpl,_asincosf_sloc0_1_0
      000401 85*01 83         [24]  741 	mov	dph,(_asincosf_sloc0_1_0 + 1)
      000404 85*02 F0         [24]  742 	mov	b,(_asincosf_sloc0_1_0 + 2)
      000407 E5*03            [12]  743 	mov	a,(_asincosf_sloc0_1_0 + 3)
      000409 12r00r00         [24]  744 	lcall	___fsadd
      00040C A8 82            [24]  745 	mov	r0,dpl
      00040E A9 83            [24]  746 	mov	r1,dph
      000410 AA F0            [24]  747 	mov	r2,b
      000412 FF               [12]  748 	mov	r7,a
      000413 E5 81            [12]  749 	mov	a,sp
      000415 24 FC            [12]  750 	add	a,#0xfc
      000417 F5 81            [12]  751 	mov	sp,a
      000419 C0*00            [24]  752 	push	_asincosf_sloc0_1_0
      00041B C0*01            [24]  753 	push	(_asincosf_sloc0_1_0 + 1)
      00041D C0*02            [24]  754 	push	(_asincosf_sloc0_1_0 + 2)
      00041F C0*03            [24]  755 	push	(_asincosf_sloc0_1_0 + 3)
      000421 88 82            [24]  756 	mov	dpl,r0
      000423 89 83            [24]  757 	mov	dph,r1
      000425 8A F0            [24]  758 	mov	b,r2
      000427 EF               [12]  759 	mov	a,r7
      000428 12r00r00         [24]  760 	lcall	___fsadd
      00042B AB 82            [24]  761 	mov	r3,dpl
      00042D AC 83            [24]  762 	mov	r4,dph
      00042F AD F0            [24]  763 	mov	r5,b
      000431 FF               [12]  764 	mov	r7,a
      000432 E5 81            [12]  765 	mov	a,sp
      000434 24 FC            [12]  766 	add	a,#0xfc
      000436 F5 81            [12]  767 	mov	sp,a
      000438 90r00r0D         [24]  768 	mov	dptr,#_asincosf_r_65536_26
      00043B EB               [12]  769 	mov	a,r3
      00043C F0               [24]  770 	movx	@dptr,a
      00043D EC               [12]  771 	mov	a,r4
      00043E A3               [24]  772 	inc	dptr
      00043F F0               [24]  773 	movx	@dptr,a
      000440 ED               [12]  774 	mov	a,r5
      000441 A3               [24]  775 	inc	dptr
      000442 F0               [24]  776 	movx	@dptr,a
      000443 EF               [12]  777 	mov	a,r7
      000444 A3               [24]  778 	inc	dptr
      000445 F0               [24]  779 	movx	@dptr,a
      000446 02r05r96         [24]  780 	ljmp	00116$
      000449                        781 00110$:
                                    782 ;	asincosf.c:88: r = (a[i] - r) + a[i];
      000449 EE               [12]  783 	mov	a,r6
      00044A 75 F0 04         [24]  784 	mov	b,#0x04
      00044D A4               [48]  785 	mul	ab
      00044E 24r00            [12]  786 	add	a,#_asincosf_a_65536_26
      000450 F5 82            [12]  787 	mov	dpl,a
      000452 74s00            [12]  788 	mov	a,#(_asincosf_a_65536_26 >> 8)
      000454 35 F0            [12]  789 	addc	a,b
      000456 F5 83            [12]  790 	mov	dph,a
      000458 E4               [12]  791 	clr	a
      000459 93               [24]  792 	movc	a,@a+dptr
      00045A F5*00            [12]  793 	mov	_asincosf_sloc0_1_0,a
      00045C A3               [24]  794 	inc	dptr
      00045D E4               [12]  795 	clr	a
      00045E 93               [24]  796 	movc	a,@a+dptr
      00045F F5*01            [12]  797 	mov	(_asincosf_sloc0_1_0 + 1),a
      000461 A3               [24]  798 	inc	dptr
      000462 E4               [12]  799 	clr	a
      000463 93               [24]  800 	movc	a,@a+dptr
      000464 F5*02            [12]  801 	mov	(_asincosf_sloc0_1_0 + 2),a
      000466 A3               [24]  802 	inc	dptr
      000467 E4               [12]  803 	clr	a
      000468 93               [24]  804 	movc	a,@a+dptr
      000469 F5*03            [12]  805 	mov	(_asincosf_sloc0_1_0 + 3),a
      00046B 90r00r0D         [24]  806 	mov	dptr,#_asincosf_r_65536_26
      00046E E0               [24]  807 	movx	a,@dptr
      00046F C0 E0            [24]  808 	push	acc
      000471 A3               [24]  809 	inc	dptr
      000472 E0               [24]  810 	movx	a,@dptr
      000473 C0 E0            [24]  811 	push	acc
      000475 A3               [24]  812 	inc	dptr
      000476 E0               [24]  813 	movx	a,@dptr
      000477 C0 E0            [24]  814 	push	acc
      000479 A3               [24]  815 	inc	dptr
      00047A E0               [24]  816 	movx	a,@dptr
      00047B C0 E0            [24]  817 	push	acc
      00047D 85*00 82         [24]  818 	mov	dpl,_asincosf_sloc0_1_0
      000480 85*01 83         [24]  819 	mov	dph,(_asincosf_sloc0_1_0 + 1)
      000483 85*02 F0         [24]  820 	mov	b,(_asincosf_sloc0_1_0 + 2)
      000486 E5*03            [12]  821 	mov	a,(_asincosf_sloc0_1_0 + 3)
      000488 12r00r00         [24]  822 	lcall	___fssub
      00048B A8 82            [24]  823 	mov	r0,dpl
      00048D A9 83            [24]  824 	mov	r1,dph
      00048F AA F0            [24]  825 	mov	r2,b
      000491 FF               [12]  826 	mov	r7,a
      000492 E5 81            [12]  827 	mov	a,sp
      000494 24 FC            [12]  828 	add	a,#0xfc
      000496 F5 81            [12]  829 	mov	sp,a
      000498 C0*00            [24]  830 	push	_asincosf_sloc0_1_0
      00049A C0*01            [24]  831 	push	(_asincosf_sloc0_1_0 + 1)
      00049C C0*02            [24]  832 	push	(_asincosf_sloc0_1_0 + 2)
      00049E C0*03            [24]  833 	push	(_asincosf_sloc0_1_0 + 3)
      0004A0 88 82            [24]  834 	mov	dpl,r0
      0004A2 89 83            [24]  835 	mov	dph,r1
      0004A4 8A F0            [24]  836 	mov	b,r2
      0004A6 EF               [12]  837 	mov	a,r7
      0004A7 12r00r00         [24]  838 	lcall	___fsadd
      0004AA AB 82            [24]  839 	mov	r3,dpl
      0004AC AC 83            [24]  840 	mov	r4,dph
      0004AE AD F0            [24]  841 	mov	r5,b
      0004B0 FF               [12]  842 	mov	r7,a
      0004B1 E5 81            [12]  843 	mov	a,sp
      0004B3 24 FC            [12]  844 	add	a,#0xfc
      0004B5 F5 81            [12]  845 	mov	sp,a
      0004B7 90r00r0D         [24]  846 	mov	dptr,#_asincosf_r_65536_26
      0004BA EB               [12]  847 	mov	a,r3
      0004BB F0               [24]  848 	movx	@dptr,a
      0004BC EC               [12]  849 	mov	a,r4
      0004BD A3               [24]  850 	inc	dptr
      0004BE F0               [24]  851 	movx	@dptr,a
      0004BF ED               [12]  852 	mov	a,r5
      0004C0 A3               [24]  853 	inc	dptr
      0004C1 F0               [24]  854 	movx	@dptr,a
      0004C2 EF               [12]  855 	mov	a,r7
      0004C3 A3               [24]  856 	inc	dptr
      0004C4 F0               [24]  857 	movx	@dptr,a
      0004C5 02r05r96         [24]  858 	ljmp	00116$
      0004C8                        859 00115$:
                                    860 ;	asincosf.c:92: r = (a[i] + r) + a[i];
      0004C8 EE               [12]  861 	mov	a,r6
      0004C9 75 F0 04         [24]  862 	mov	b,#0x04
      0004CC A4               [48]  863 	mul	ab
      0004CD 24r00            [12]  864 	add	a,#_asincosf_a_65536_26
      0004CF F5 82            [12]  865 	mov	dpl,a
      0004D1 74s00            [12]  866 	mov	a,#(_asincosf_a_65536_26 >> 8)
      0004D3 35 F0            [12]  867 	addc	a,b
      0004D5 F5 83            [12]  868 	mov	dph,a
      0004D7 E4               [12]  869 	clr	a
      0004D8 93               [24]  870 	movc	a,@a+dptr
      0004D9 FC               [12]  871 	mov	r4,a
      0004DA A3               [24]  872 	inc	dptr
      0004DB E4               [12]  873 	clr	a
      0004DC 93               [24]  874 	movc	a,@a+dptr
      0004DD FD               [12]  875 	mov	r5,a
      0004DE A3               [24]  876 	inc	dptr
      0004DF E4               [12]  877 	clr	a
      0004E0 93               [24]  878 	movc	a,@a+dptr
      0004E1 FE               [12]  879 	mov	r6,a
      0004E2 A3               [24]  880 	inc	dptr
      0004E3 E4               [12]  881 	clr	a
      0004E4 93               [24]  882 	movc	a,@a+dptr
      0004E5 FF               [12]  883 	mov	r7,a
      0004E6 C0 07            [24]  884 	push	ar7
      0004E8 C0 06            [24]  885 	push	ar6
      0004EA C0 05            [24]  886 	push	ar5
      0004EC C0 04            [24]  887 	push	ar4
      0004EE 90r00r0D         [24]  888 	mov	dptr,#_asincosf_r_65536_26
      0004F1 E0               [24]  889 	movx	a,@dptr
      0004F2 C0 E0            [24]  890 	push	acc
      0004F4 A3               [24]  891 	inc	dptr
      0004F5 E0               [24]  892 	movx	a,@dptr
      0004F6 C0 E0            [24]  893 	push	acc
      0004F8 A3               [24]  894 	inc	dptr
      0004F9 E0               [24]  895 	movx	a,@dptr
      0004FA C0 E0            [24]  896 	push	acc
      0004FC A3               [24]  897 	inc	dptr
      0004FD E0               [24]  898 	movx	a,@dptr
      0004FE C0 E0            [24]  899 	push	acc
      000500 8C 82            [24]  900 	mov	dpl,r4
      000502 8D 83            [24]  901 	mov	dph,r5
      000504 8E F0            [24]  902 	mov	b,r6
      000506 EF               [12]  903 	mov	a,r7
      000507 12r00r00         [24]  904 	lcall	___fsadd
      00050A A8 82            [24]  905 	mov	r0,dpl
      00050C A9 83            [24]  906 	mov	r1,dph
      00050E AA F0            [24]  907 	mov	r2,b
      000510 FB               [12]  908 	mov	r3,a
      000511 E5 81            [12]  909 	mov	a,sp
      000513 24 FC            [12]  910 	add	a,#0xfc
      000515 F5 81            [12]  911 	mov	sp,a
      000517 D0 04            [24]  912 	pop	ar4
      000519 D0 05            [24]  913 	pop	ar5
      00051B D0 06            [24]  914 	pop	ar6
      00051D D0 07            [24]  915 	pop	ar7
      00051F C0 04            [24]  916 	push	ar4
      000521 C0 05            [24]  917 	push	ar5
      000523 C0 06            [24]  918 	push	ar6
      000525 C0 07            [24]  919 	push	ar7
      000527 88 82            [24]  920 	mov	dpl,r0
      000529 89 83            [24]  921 	mov	dph,r1
      00052B 8A F0            [24]  922 	mov	b,r2
      00052D EB               [12]  923 	mov	a,r3
      00052E 12r00r00         [24]  924 	lcall	___fsadd
      000531 AC 82            [24]  925 	mov	r4,dpl
      000533 AD 83            [24]  926 	mov	r5,dph
      000535 AE F0            [24]  927 	mov	r6,b
      000537 FF               [12]  928 	mov	r7,a
      000538 E5 81            [12]  929 	mov	a,sp
      00053A 24 FC            [12]  930 	add	a,#0xfc
      00053C F5 81            [12]  931 	mov	sp,a
      00053E 90r00r0D         [24]  932 	mov	dptr,#_asincosf_r_65536_26
      000541 EC               [12]  933 	mov	a,r4
      000542 F0               [24]  934 	movx	@dptr,a
      000543 ED               [12]  935 	mov	a,r5
      000544 A3               [24]  936 	inc	dptr
      000545 F0               [24]  937 	movx	@dptr,a
      000546 EE               [12]  938 	mov	a,r6
      000547 A3               [24]  939 	inc	dptr
      000548 F0               [24]  940 	movx	@dptr,a
      000549 EF               [12]  941 	mov	a,r7
      00054A A3               [24]  942 	inc	dptr
      00054B F0               [24]  943 	movx	@dptr,a
                                    944 ;	asincosf.c:93: if (x < 0.0)
      00054C 90r00r01         [24]  945 	mov	dptr,#_asincosf_x_65536_25
      00054F E0               [24]  946 	movx	a,@dptr
      000550 FC               [12]  947 	mov	r4,a
      000551 A3               [24]  948 	inc	dptr
      000552 E0               [24]  949 	movx	a,@dptr
      000553 FD               [12]  950 	mov	r5,a
      000554 A3               [24]  951 	inc	dptr
      000555 E0               [24]  952 	movx	a,@dptr
      000556 FE               [12]  953 	mov	r6,a
      000557 A3               [24]  954 	inc	dptr
      000558 E0               [24]  955 	movx	a,@dptr
      000559 FF               [12]  956 	mov	r7,a
      00055A E4               [12]  957 	clr	a
      00055B C0 E0            [24]  958 	push	acc
      00055D C0 E0            [24]  959 	push	acc
      00055F C0 E0            [24]  960 	push	acc
      000561 C0 E0            [24]  961 	push	acc
      000563 8C 82            [24]  962 	mov	dpl,r4
      000565 8D 83            [24]  963 	mov	dph,r5
      000567 8E F0            [24]  964 	mov	b,r6
      000569 EF               [12]  965 	mov	a,r7
      00056A 12r00r00         [24]  966 	lcall	___fslt
      00056D AF 82            [24]  967 	mov	r7,dpl
      00056F E5 81            [12]  968 	mov	a,sp
      000571 24 FC            [12]  969 	add	a,#0xfc
      000573 F5 81            [12]  970 	mov	sp,a
      000575 EF               [12]  971 	mov	a,r7
      000576 60 1E            [24]  972 	jz	00116$
                                    973 ;	asincosf.c:94: r = -r;
      000578 90r00r0D         [24]  974 	mov	dptr,#_asincosf_r_65536_26
      00057B E0               [24]  975 	movx	a,@dptr
      00057C FC               [12]  976 	mov	r4,a
      00057D A3               [24]  977 	inc	dptr
      00057E E0               [24]  978 	movx	a,@dptr
      00057F FD               [12]  979 	mov	r5,a
      000580 A3               [24]  980 	inc	dptr
      000581 E0               [24]  981 	movx	a,@dptr
      000582 FE               [12]  982 	mov	r6,a
      000583 A3               [24]  983 	inc	dptr
      000584 E0               [24]  984 	movx	a,@dptr
      000585 FF               [12]  985 	mov	r7,a
      000586 90r00r0D         [24]  986 	mov	dptr,#_asincosf_r_65536_26
      000589 EC               [12]  987 	mov	a,r4
      00058A F0               [24]  988 	movx	@dptr,a
      00058B ED               [12]  989 	mov	a,r5
      00058C A3               [24]  990 	inc	dptr
      00058D F0               [24]  991 	movx	@dptr,a
      00058E EE               [12]  992 	mov	a,r6
      00058F A3               [24]  993 	inc	dptr
      000590 F0               [24]  994 	movx	@dptr,a
      000591 EF               [12]  995 	mov	a,r7
      000592 B2 E7            [12]  996 	cpl	acc.7
      000594 A3               [24]  997 	inc	dptr
      000595 F0               [24]  998 	movx	@dptr,a
      000596                        999 00116$:
                                   1000 ;	asincosf.c:96: return r;
      000596 90r00r0D         [24] 1001 	mov	dptr,#_asincosf_r_65536_26
      000599 E0               [24] 1002 	movx	a,@dptr
      00059A FC               [12] 1003 	mov	r4,a
      00059B A3               [24] 1004 	inc	dptr
      00059C E0               [24] 1005 	movx	a,@dptr
      00059D FD               [12] 1006 	mov	r5,a
      00059E A3               [24] 1007 	inc	dptr
      00059F E0               [24] 1008 	movx	a,@dptr
      0005A0 FE               [12] 1009 	mov	r6,a
      0005A1 A3               [24] 1010 	inc	dptr
      0005A2 E0               [24] 1011 	movx	a,@dptr
      0005A3 FF               [12] 1012 	mov	r7,a
      0005A4 8C 82            [24] 1013 	mov	dpl,r4
      0005A6 8D 83            [24] 1014 	mov	dph,r5
      0005A8 8E F0            [24] 1015 	mov	b,r6
                                   1016 ;	asincosf.c:97: }
      0005AA 02r00r00         [24] 1017 	ljmp	__sdcc_banked_ret
                                   1018 	.area CSEG    (CODE)
                                   1019 	.area CONST   (CODE)
      000000                       1020 _asincosf_a_65536_26:
      000000 00 00 00 00           1021 	.byte #0x00, #0x00, #0x00, #0x00	;  0.000000e+00
      000004 DB 0F 49 3F           1022 	.byte #0xdb, #0x0f, #0x49, #0x3f	;  7.853982e-01
      000008                       1023 _asincosf_b_65536_26:
      000008 DB 0F C9 3F           1024 	.byte #0xdb, #0x0f, #0xc9, #0x3f	;  1.570796e+00
      00000C DB 0F 49 3F           1025 	.byte #0xdb, #0x0f, #0x49, #0x3f	;  7.853982e-01
                                   1026 	.area XINIT   (CODE)
                                   1027 	.area CABS    (ABS,CODE)
