                                      1 ;--------------------------------------------------------
                                      2 ; File Created by SDCC : free open source ISO C Compiler 
                                      3 ; Version 4.2.14 #0 (Linux)
                                      4 ;--------------------------------------------------------
                                      5 	.module ckd_add
                                      6 	.optsdcc -mmcs51 --model-huge
                                      7 	
                                      8 ;--------------------------------------------------------
                                      9 ; Public variables in this module
                                     10 ;--------------------------------------------------------
                                     11 	.globl ___ckd_add_ulong_PARM_3
                                     12 	.globl ___ckd_add_ulong_PARM_2
                                     13 	.globl ___ckd_add_long_PARM_3
                                     14 	.globl ___ckd_add_long_PARM_2
                                     15 	.globl ___ckd_add_uint_PARM_3
                                     16 	.globl ___ckd_add_uint_PARM_2
                                     17 	.globl ___ckd_add_int_PARM_3
                                     18 	.globl ___ckd_add_int_PARM_2
                                     19 	.globl ___ckd_add_ushort_PARM_3
                                     20 	.globl ___ckd_add_ushort_PARM_2
                                     21 	.globl ___ckd_add_short_PARM_3
                                     22 	.globl ___ckd_add_short_PARM_2
                                     23 	.globl ___ckd_add_uchar_PARM_3
                                     24 	.globl ___ckd_add_uchar_PARM_2
                                     25 	.globl ___ckd_add_schar_PARM_3
                                     26 	.globl ___ckd_add_schar_PARM_2
                                     27 	.globl ___ckd_add_schar
                                     28 	.globl ___ckd_add_uchar
                                     29 	.globl ___ckd_add_short
                                     30 	.globl ___ckd_add_ushort
                                     31 	.globl ___ckd_add_int
                                     32 	.globl ___ckd_add_uint
                                     33 	.globl ___ckd_add_long
                                     34 	.globl ___ckd_add_ulong
                                     35 ;--------------------------------------------------------
                                     36 ; special function registers
                                     37 ;--------------------------------------------------------
                                     38 	.area RSEG    (ABS,DATA)
      000000                         39 	.org 0x0000
                                     40 ;--------------------------------------------------------
                                     41 ; special function bits
                                     42 ;--------------------------------------------------------
                                     43 	.area RSEG    (ABS,DATA)
      000000                         44 	.org 0x0000
                                     45 ;--------------------------------------------------------
                                     46 ; overlayable register banks
                                     47 ;--------------------------------------------------------
                                     48 	.area REG_BANK_0	(REL,OVR,DATA)
      000000                         49 	.ds 8
                                     50 ;--------------------------------------------------------
                                     51 ; internal ram data
                                     52 ;--------------------------------------------------------
                                     53 	.area DSEG    (DATA)
                                     54 ;--------------------------------------------------------
                                     55 ; overlayable items in internal ram
                                     56 ;--------------------------------------------------------
                                     57 	.area	OSEG    (OVR,DATA)
      000000                         58 ___ckd_add_schar_sloc0_1_0:
      000000                         59 	.ds 8
                                     60 	.area	OSEG    (OVR,DATA)
      000000                         61 ___ckd_add_uchar_sloc0_1_0:
      000000                         62 	.ds 8
                                     63 	.area	OSEG    (OVR,DATA)
      000000                         64 ___ckd_add_short_sloc0_1_0:
      000000                         65 	.ds 8
                                     66 	.area	OSEG    (OVR,DATA)
      000000                         67 ___ckd_add_ushort_sloc0_1_0:
      000000                         68 	.ds 8
                                     69 	.area	OSEG    (OVR,DATA)
      000000                         70 ___ckd_add_int_sloc0_1_0:
      000000                         71 	.ds 8
                                     72 	.area	OSEG    (OVR,DATA)
      000000                         73 ___ckd_add_uint_sloc0_1_0:
      000000                         74 	.ds 8
                                     75 	.area	OSEG    (OVR,DATA)
      000000                         76 ___ckd_add_long_sloc0_1_0:
      000000                         77 	.ds 8
                                     78 	.area	OSEG    (OVR,DATA)
      000000                         79 ___ckd_add_ulong_sloc0_1_0:
      000000                         80 	.ds 8
                                     81 ;--------------------------------------------------------
                                     82 ; indirectly addressable internal ram data
                                     83 ;--------------------------------------------------------
                                     84 	.area ISEG    (DATA)
                                     85 ;--------------------------------------------------------
                                     86 ; absolute internal ram data
                                     87 ;--------------------------------------------------------
                                     88 	.area IABS    (ABS,DATA)
                                     89 	.area IABS    (ABS,DATA)
                                     90 ;--------------------------------------------------------
                                     91 ; bit data
                                     92 ;--------------------------------------------------------
                                     93 	.area BSEG    (BIT)
      000000                         94 ___ckd_add_schar_sloc1_1_0:
      000000                         95 	.ds 1
      000001                         96 ___ckd_add_uchar_sloc1_1_0:
      000001                         97 	.ds 1
      000002                         98 ___ckd_add_short_sloc1_1_0:
      000002                         99 	.ds 1
      000003                        100 ___ckd_add_ushort_sloc1_1_0:
      000003                        101 	.ds 1
      000004                        102 ___ckd_add_int_sloc1_1_0:
      000004                        103 	.ds 1
      000005                        104 ___ckd_add_uint_sloc1_1_0:
      000005                        105 	.ds 1
      000006                        106 ___ckd_add_long_sloc1_1_0:
      000006                        107 	.ds 1
      000007                        108 ___ckd_add_ulong_sloc1_1_0:
      000007                        109 	.ds 1
                                    110 ;--------------------------------------------------------
                                    111 ; paged external ram data
                                    112 ;--------------------------------------------------------
                                    113 	.area PSEG    (PAG,XDATA)
                                    114 ;--------------------------------------------------------
                                    115 ; uninitialized external ram data
                                    116 ;--------------------------------------------------------
                                    117 	.area XSEG    (XDATA)
      000000                        118 ___ckd_add_schar_PARM_2:
      000000                        119 	.ds 8
      000008                        120 ___ckd_add_schar_PARM_3:
      000008                        121 	.ds 8
      000010                        122 ___ckd_add_schar_r_65536_9:
      000010                        123 	.ds 3
      000013                        124 ___ckd_add_uchar_PARM_2:
      000013                        125 	.ds 8
      00001B                        126 ___ckd_add_uchar_PARM_3:
      00001B                        127 	.ds 8
      000023                        128 ___ckd_add_uchar_r_65536_11:
      000023                        129 	.ds 3
      000026                        130 ___ckd_add_short_PARM_2:
      000026                        131 	.ds 8
      00002E                        132 ___ckd_add_short_PARM_3:
      00002E                        133 	.ds 8
      000036                        134 ___ckd_add_short_r_65536_13:
      000036                        135 	.ds 3
      000039                        136 ___ckd_add_ushort_PARM_2:
      000039                        137 	.ds 8
      000041                        138 ___ckd_add_ushort_PARM_3:
      000041                        139 	.ds 8
      000049                        140 ___ckd_add_ushort_r_65536_15:
      000049                        141 	.ds 3
      00004C                        142 ___ckd_add_int_PARM_2:
      00004C                        143 	.ds 8
      000054                        144 ___ckd_add_int_PARM_3:
      000054                        145 	.ds 8
      00005C                        146 ___ckd_add_int_r_65536_17:
      00005C                        147 	.ds 3
      00005F                        148 ___ckd_add_uint_PARM_2:
      00005F                        149 	.ds 8
      000067                        150 ___ckd_add_uint_PARM_3:
      000067                        151 	.ds 8
      00006F                        152 ___ckd_add_uint_r_65536_19:
      00006F                        153 	.ds 3
      000072                        154 ___ckd_add_long_PARM_2:
      000072                        155 	.ds 8
      00007A                        156 ___ckd_add_long_PARM_3:
      00007A                        157 	.ds 8
      000082                        158 ___ckd_add_long_r_65536_21:
      000082                        159 	.ds 3
      000085                        160 ___ckd_add_ulong_PARM_2:
      000085                        161 	.ds 8
      00008D                        162 ___ckd_add_ulong_PARM_3:
      00008D                        163 	.ds 8
      000095                        164 ___ckd_add_ulong_r_65536_23:
      000095                        165 	.ds 3
                                    166 ;--------------------------------------------------------
                                    167 ; absolute external ram data
                                    168 ;--------------------------------------------------------
                                    169 	.area XABS    (ABS,XDATA)
                                    170 ;--------------------------------------------------------
                                    171 ; initialized external ram data
                                    172 ;--------------------------------------------------------
                                    173 	.area XISEG   (XDATA)
                                    174 	.area HOME    (CODE)
                                    175 	.area GSINIT0 (CODE)
                                    176 	.area GSINIT1 (CODE)
                                    177 	.area GSINIT2 (CODE)
                                    178 	.area GSINIT3 (CODE)
                                    179 	.area GSINIT4 (CODE)
                                    180 	.area GSINIT5 (CODE)
                                    181 	.area GSINIT  (CODE)
                                    182 	.area GSFINAL (CODE)
                                    183 	.area CSEG    (CODE)
                                    184 ;--------------------------------------------------------
                                    185 ; global & static initialisations
                                    186 ;--------------------------------------------------------
                                    187 	.area HOME    (CODE)
                                    188 	.area GSINIT  (CODE)
                                    189 	.area GSFINAL (CODE)
                                    190 	.area GSINIT  (CODE)
                                    191 ;--------------------------------------------------------
                                    192 ; Home
                                    193 ;--------------------------------------------------------
                                    194 	.area HOME    (CODE)
                                    195 	.area HOME    (CODE)
                                    196 ;--------------------------------------------------------
                                    197 ; code
                                    198 ;--------------------------------------------------------
                                    199 	.area CSEG    (CODE)
                                    200 ;------------------------------------------------------------
                                    201 ;Allocation info for local variables in function '__ckd_add_schar'
                                    202 ;------------------------------------------------------------
                                    203 ;a                         Allocated with name '___ckd_add_schar_PARM_2'
                                    204 ;b                         Allocated with name '___ckd_add_schar_PARM_3'
                                    205 ;r                         Allocated with name '___ckd_add_schar_r_65536_9'
                                    206 ;result                    Allocated with name '___ckd_add_schar_result_65536_10'
                                    207 ;sloc0                     Allocated with name '___ckd_add_schar_sloc0_1_0'
                                    208 ;------------------------------------------------------------
                                    209 ;	../../device/include/stdckdint.h:51: inline _Bool __ckd_add_schar __CKD_DEFAULT_IMPL(signed char, +)
                                    210 ;	-----------------------------------------
                                    211 ;	 function __ckd_add_schar
                                    212 ;	-----------------------------------------
      000000                        213 ___ckd_add_schar:
                           000007   214 	ar7 = 0x07
                           000006   215 	ar6 = 0x06
                           000005   216 	ar5 = 0x05
                           000004   217 	ar4 = 0x04
                           000003   218 	ar3 = 0x03
                           000002   219 	ar2 = 0x02
                           000001   220 	ar1 = 0x01
                           000000   221 	ar0 = 0x00
      000000 AF F0            [24]  222 	mov	r7,b
      000002 AE 83            [24]  223 	mov	r6,dph
      000004 E5 82            [12]  224 	mov	a,dpl
      000006 90r00r10         [24]  225 	mov	dptr,#___ckd_add_schar_r_65536_9
      000009 F0               [24]  226 	movx	@dptr,a
      00000A EE               [12]  227 	mov	a,r6
      00000B A3               [24]  228 	inc	dptr
      00000C F0               [24]  229 	movx	@dptr,a
      00000D EF               [12]  230 	mov	a,r7
      00000E A3               [24]  231 	inc	dptr
      00000F F0               [24]  232 	movx	@dptr,a
      000010 90r00r08         [24]  233 	mov	dptr,#___ckd_add_schar_PARM_3
      000013 E0               [24]  234 	movx	a,@dptr
      000014 F5*00            [12]  235 	mov	___ckd_add_schar_sloc0_1_0,a
      000016 A3               [24]  236 	inc	dptr
      000017 E0               [24]  237 	movx	a,@dptr
      000018 F5*01            [12]  238 	mov	(___ckd_add_schar_sloc0_1_0 + 1),a
      00001A A3               [24]  239 	inc	dptr
      00001B E0               [24]  240 	movx	a,@dptr
      00001C F5*02            [12]  241 	mov	(___ckd_add_schar_sloc0_1_0 + 2),a
      00001E A3               [24]  242 	inc	dptr
      00001F E0               [24]  243 	movx	a,@dptr
      000020 F5*03            [12]  244 	mov	(___ckd_add_schar_sloc0_1_0 + 3),a
      000022 A3               [24]  245 	inc	dptr
      000023 E0               [24]  246 	movx	a,@dptr
      000024 F5*04            [12]  247 	mov	(___ckd_add_schar_sloc0_1_0 + 4),a
      000026 A3               [24]  248 	inc	dptr
      000027 E0               [24]  249 	movx	a,@dptr
      000028 F5*05            [12]  250 	mov	(___ckd_add_schar_sloc0_1_0 + 5),a
      00002A A3               [24]  251 	inc	dptr
      00002B E0               [24]  252 	movx	a,@dptr
      00002C F5*06            [12]  253 	mov	(___ckd_add_schar_sloc0_1_0 + 6),a
      00002E A3               [24]  254 	inc	dptr
      00002F E0               [24]  255 	movx	a,@dptr
      000030 F5*07            [12]  256 	mov	(___ckd_add_schar_sloc0_1_0 + 7),a
      000032 90r00r00         [24]  257 	mov	dptr,#___ckd_add_schar_PARM_2
      000035 E0               [24]  258 	movx	a,@dptr
      000036 F8               [12]  259 	mov	r0,a
      000037 A3               [24]  260 	inc	dptr
      000038 E0               [24]  261 	movx	a,@dptr
      000039 F9               [12]  262 	mov	r1,a
      00003A A3               [24]  263 	inc	dptr
      00003B E0               [24]  264 	movx	a,@dptr
      00003C FA               [12]  265 	mov	r2,a
      00003D A3               [24]  266 	inc	dptr
      00003E E0               [24]  267 	movx	a,@dptr
      00003F FB               [12]  268 	mov	r3,a
      000040 A3               [24]  269 	inc	dptr
      000041 E0               [24]  270 	movx	a,@dptr
      000042 FC               [12]  271 	mov	r4,a
      000043 A3               [24]  272 	inc	dptr
      000044 E0               [24]  273 	movx	a,@dptr
      000045 FD               [12]  274 	mov	r5,a
      000046 A3               [24]  275 	inc	dptr
      000047 E0               [24]  276 	movx	a,@dptr
      000048 FE               [12]  277 	mov	r6,a
      000049 A3               [24]  278 	inc	dptr
      00004A E0               [24]  279 	movx	a,@dptr
      00004B FF               [12]  280 	mov	r7,a
      00004C E5*00            [12]  281 	mov	a,___ckd_add_schar_sloc0_1_0
      00004E 28               [12]  282 	add	a,r0
      00004F F5*00            [12]  283 	mov	___ckd_add_schar_sloc0_1_0,a
      000051 E5*01            [12]  284 	mov	a,(___ckd_add_schar_sloc0_1_0 + 1)
      000053 39               [12]  285 	addc	a,r1
      000054 F5*01            [12]  286 	mov	(___ckd_add_schar_sloc0_1_0 + 1),a
      000056 E5*02            [12]  287 	mov	a,(___ckd_add_schar_sloc0_1_0 + 2)
      000058 3A               [12]  288 	addc	a,r2
      000059 F5*02            [12]  289 	mov	(___ckd_add_schar_sloc0_1_0 + 2),a
      00005B E5*03            [12]  290 	mov	a,(___ckd_add_schar_sloc0_1_0 + 3)
      00005D 3B               [12]  291 	addc	a,r3
      00005E F5*03            [12]  292 	mov	(___ckd_add_schar_sloc0_1_0 + 3),a
      000060 E5*04            [12]  293 	mov	a,(___ckd_add_schar_sloc0_1_0 + 4)
      000062 3C               [12]  294 	addc	a,r4
      000063 F5*04            [12]  295 	mov	(___ckd_add_schar_sloc0_1_0 + 4),a
      000065 E5*05            [12]  296 	mov	a,(___ckd_add_schar_sloc0_1_0 + 5)
      000067 3D               [12]  297 	addc	a,r5
      000068 F5*05            [12]  298 	mov	(___ckd_add_schar_sloc0_1_0 + 5),a
      00006A E5*06            [12]  299 	mov	a,(___ckd_add_schar_sloc0_1_0 + 6)
      00006C 3E               [12]  300 	addc	a,r6
      00006D F5*06            [12]  301 	mov	(___ckd_add_schar_sloc0_1_0 + 6),a
      00006F E5*07            [12]  302 	mov	a,(___ckd_add_schar_sloc0_1_0 + 7)
      000071 3F               [12]  303 	addc	a,r7
      000072 F5*07            [12]  304 	mov	(___ckd_add_schar_sloc0_1_0 + 7),a
      000074 90r00r10         [24]  305 	mov	dptr,#___ckd_add_schar_r_65536_9
      000077 E0               [24]  306 	movx	a,@dptr
      000078 FD               [12]  307 	mov	r5,a
      000079 A3               [24]  308 	inc	dptr
      00007A E0               [24]  309 	movx	a,@dptr
      00007B FE               [12]  310 	mov	r6,a
      00007C A3               [24]  311 	inc	dptr
      00007D E0               [24]  312 	movx	a,@dptr
      00007E FF               [12]  313 	mov	r7,a
      00007F A8*00            [24]  314 	mov	r0,___ckd_add_schar_sloc0_1_0
      000081 8D 82            [24]  315 	mov	dpl,r5
      000083 8E 83            [24]  316 	mov	dph,r6
      000085 8F F0            [24]  317 	mov	b,r7
      000087 E8               [12]  318 	mov	a,r0
      000088 12r00r00         [24]  319 	lcall	__gptrput
      00008B 33               [12]  320 	rlc	a
      00008C 95 E0            [12]  321 	subb	a,acc
      00008E F9               [12]  322 	mov	r1,a
      00008F FA               [12]  323 	mov	r2,a
      000090 FB               [12]  324 	mov	r3,a
      000091 FC               [12]  325 	mov	r4,a
      000092 FD               [12]  326 	mov	r5,a
      000093 FE               [12]  327 	mov	r6,a
      000094 FF               [12]  328 	mov	r7,a
      000095 E8               [12]  329 	mov	a,r0
      000096 B5*00 1F         [24]  330 	cjne	a,___ckd_add_schar_sloc0_1_0,00103$
      000099 E9               [12]  331 	mov	a,r1
      00009A B5*01 1B         [24]  332 	cjne	a,(___ckd_add_schar_sloc0_1_0 + 1),00103$
      00009D EA               [12]  333 	mov	a,r2
      00009E B5*02 17         [24]  334 	cjne	a,(___ckd_add_schar_sloc0_1_0 + 2),00103$
      0000A1 EB               [12]  335 	mov	a,r3
      0000A2 B5*03 13         [24]  336 	cjne	a,(___ckd_add_schar_sloc0_1_0 + 3),00103$
      0000A5 EC               [12]  337 	mov	a,r4
      0000A6 B5*04 0F         [24]  338 	cjne	a,(___ckd_add_schar_sloc0_1_0 + 4),00103$
      0000A9 ED               [12]  339 	mov	a,r5
      0000AA B5*05 0B         [24]  340 	cjne	a,(___ckd_add_schar_sloc0_1_0 + 5),00103$
      0000AD EE               [12]  341 	mov	a,r6
      0000AE B5*06 07         [24]  342 	cjne	a,(___ckd_add_schar_sloc0_1_0 + 6),00103$
      0000B1 EF               [12]  343 	mov	a,r7
      0000B2 B5*07 03         [24]  344 	cjne	a,(___ckd_add_schar_sloc0_1_0 + 7),00103$
      0000B5 D3               [12]  345 	setb	c
      0000B6 80 01            [24]  346 	sjmp	00104$
      0000B8                        347 00103$:
      0000B8 C3               [12]  348 	clr	c
      0000B9                        349 00104$:
      0000B9 B3               [12]  350 	cpl	c
      0000BA 92*00            [24]  351 	mov	___ckd_add_schar_sloc1_1_0,c
      0000BC E4               [12]  352 	clr	a
      0000BD 33               [12]  353 	rlc	a
      0000BE F5 82            [12]  354 	mov	dpl,a
      0000C0 02r00r00         [24]  355 	ljmp	__sdcc_banked_ret
                                    356 ;------------------------------------------------------------
                                    357 ;Allocation info for local variables in function '__ckd_add_uchar'
                                    358 ;------------------------------------------------------------
                                    359 ;a                         Allocated with name '___ckd_add_uchar_PARM_2'
                                    360 ;b                         Allocated with name '___ckd_add_uchar_PARM_3'
                                    361 ;r                         Allocated with name '___ckd_add_uchar_r_65536_11'
                                    362 ;result                    Allocated with name '___ckd_add_uchar_result_65536_12'
                                    363 ;sloc0                     Allocated with name '___ckd_add_uchar_sloc0_1_0'
                                    364 ;------------------------------------------------------------
                                    365 ;	../../device/include/stdckdint.h:52: inline _Bool __ckd_add_uchar __CKD_DEFAULT_IMPL(unsigned char, +)
                                    366 ;	-----------------------------------------
                                    367 ;	 function __ckd_add_uchar
                                    368 ;	-----------------------------------------
      0000C3                        369 ___ckd_add_uchar:
      0000C3 AF F0            [24]  370 	mov	r7,b
      0000C5 AE 83            [24]  371 	mov	r6,dph
      0000C7 E5 82            [12]  372 	mov	a,dpl
      0000C9 90r00r23         [24]  373 	mov	dptr,#___ckd_add_uchar_r_65536_11
      0000CC F0               [24]  374 	movx	@dptr,a
      0000CD EE               [12]  375 	mov	a,r6
      0000CE A3               [24]  376 	inc	dptr
      0000CF F0               [24]  377 	movx	@dptr,a
      0000D0 EF               [12]  378 	mov	a,r7
      0000D1 A3               [24]  379 	inc	dptr
      0000D2 F0               [24]  380 	movx	@dptr,a
      0000D3 90r00r1B         [24]  381 	mov	dptr,#___ckd_add_uchar_PARM_3
      0000D6 E0               [24]  382 	movx	a,@dptr
      0000D7 F5*00            [12]  383 	mov	___ckd_add_uchar_sloc0_1_0,a
      0000D9 A3               [24]  384 	inc	dptr
      0000DA E0               [24]  385 	movx	a,@dptr
      0000DB F5*01            [12]  386 	mov	(___ckd_add_uchar_sloc0_1_0 + 1),a
      0000DD A3               [24]  387 	inc	dptr
      0000DE E0               [24]  388 	movx	a,@dptr
      0000DF F5*02            [12]  389 	mov	(___ckd_add_uchar_sloc0_1_0 + 2),a
      0000E1 A3               [24]  390 	inc	dptr
      0000E2 E0               [24]  391 	movx	a,@dptr
      0000E3 F5*03            [12]  392 	mov	(___ckd_add_uchar_sloc0_1_0 + 3),a
      0000E5 A3               [24]  393 	inc	dptr
      0000E6 E0               [24]  394 	movx	a,@dptr
      0000E7 F5*04            [12]  395 	mov	(___ckd_add_uchar_sloc0_1_0 + 4),a
      0000E9 A3               [24]  396 	inc	dptr
      0000EA E0               [24]  397 	movx	a,@dptr
      0000EB F5*05            [12]  398 	mov	(___ckd_add_uchar_sloc0_1_0 + 5),a
      0000ED A3               [24]  399 	inc	dptr
      0000EE E0               [24]  400 	movx	a,@dptr
      0000EF F5*06            [12]  401 	mov	(___ckd_add_uchar_sloc0_1_0 + 6),a
      0000F1 A3               [24]  402 	inc	dptr
      0000F2 E0               [24]  403 	movx	a,@dptr
      0000F3 F5*07            [12]  404 	mov	(___ckd_add_uchar_sloc0_1_0 + 7),a
      0000F5 90r00r13         [24]  405 	mov	dptr,#___ckd_add_uchar_PARM_2
      0000F8 E0               [24]  406 	movx	a,@dptr
      0000F9 F8               [12]  407 	mov	r0,a
      0000FA A3               [24]  408 	inc	dptr
      0000FB E0               [24]  409 	movx	a,@dptr
      0000FC F9               [12]  410 	mov	r1,a
      0000FD A3               [24]  411 	inc	dptr
      0000FE E0               [24]  412 	movx	a,@dptr
      0000FF FA               [12]  413 	mov	r2,a
      000100 A3               [24]  414 	inc	dptr
      000101 E0               [24]  415 	movx	a,@dptr
      000102 FB               [12]  416 	mov	r3,a
      000103 A3               [24]  417 	inc	dptr
      000104 E0               [24]  418 	movx	a,@dptr
      000105 FC               [12]  419 	mov	r4,a
      000106 A3               [24]  420 	inc	dptr
      000107 E0               [24]  421 	movx	a,@dptr
      000108 FD               [12]  422 	mov	r5,a
      000109 A3               [24]  423 	inc	dptr
      00010A E0               [24]  424 	movx	a,@dptr
      00010B FE               [12]  425 	mov	r6,a
      00010C A3               [24]  426 	inc	dptr
      00010D E0               [24]  427 	movx	a,@dptr
      00010E FF               [12]  428 	mov	r7,a
      00010F E5*00            [12]  429 	mov	a,___ckd_add_uchar_sloc0_1_0
      000111 28               [12]  430 	add	a,r0
      000112 F5*00            [12]  431 	mov	___ckd_add_uchar_sloc0_1_0,a
      000114 E5*01            [12]  432 	mov	a,(___ckd_add_uchar_sloc0_1_0 + 1)
      000116 39               [12]  433 	addc	a,r1
      000117 F5*01            [12]  434 	mov	(___ckd_add_uchar_sloc0_1_0 + 1),a
      000119 E5*02            [12]  435 	mov	a,(___ckd_add_uchar_sloc0_1_0 + 2)
      00011B 3A               [12]  436 	addc	a,r2
      00011C F5*02            [12]  437 	mov	(___ckd_add_uchar_sloc0_1_0 + 2),a
      00011E E5*03            [12]  438 	mov	a,(___ckd_add_uchar_sloc0_1_0 + 3)
      000120 3B               [12]  439 	addc	a,r3
      000121 F5*03            [12]  440 	mov	(___ckd_add_uchar_sloc0_1_0 + 3),a
      000123 E5*04            [12]  441 	mov	a,(___ckd_add_uchar_sloc0_1_0 + 4)
      000125 3C               [12]  442 	addc	a,r4
      000126 F5*04            [12]  443 	mov	(___ckd_add_uchar_sloc0_1_0 + 4),a
      000128 E5*05            [12]  444 	mov	a,(___ckd_add_uchar_sloc0_1_0 + 5)
      00012A 3D               [12]  445 	addc	a,r5
      00012B F5*05            [12]  446 	mov	(___ckd_add_uchar_sloc0_1_0 + 5),a
      00012D E5*06            [12]  447 	mov	a,(___ckd_add_uchar_sloc0_1_0 + 6)
      00012F 3E               [12]  448 	addc	a,r6
      000130 F5*06            [12]  449 	mov	(___ckd_add_uchar_sloc0_1_0 + 6),a
      000132 E5*07            [12]  450 	mov	a,(___ckd_add_uchar_sloc0_1_0 + 7)
      000134 3F               [12]  451 	addc	a,r7
      000135 F5*07            [12]  452 	mov	(___ckd_add_uchar_sloc0_1_0 + 7),a
      000137 90r00r23         [24]  453 	mov	dptr,#___ckd_add_uchar_r_65536_11
      00013A E0               [24]  454 	movx	a,@dptr
      00013B FD               [12]  455 	mov	r5,a
      00013C A3               [24]  456 	inc	dptr
      00013D E0               [24]  457 	movx	a,@dptr
      00013E FE               [12]  458 	mov	r6,a
      00013F A3               [24]  459 	inc	dptr
      000140 E0               [24]  460 	movx	a,@dptr
      000141 FF               [12]  461 	mov	r7,a
      000142 A8*00            [24]  462 	mov	r0,___ckd_add_uchar_sloc0_1_0
      000144 8D 82            [24]  463 	mov	dpl,r5
      000146 8E 83            [24]  464 	mov	dph,r6
      000148 8F F0            [24]  465 	mov	b,r7
      00014A E8               [12]  466 	mov	a,r0
      00014B 12r00r00         [24]  467 	lcall	__gptrput
      00014E E4               [12]  468 	clr	a
      00014F F9               [12]  469 	mov	r1,a
      000150 FA               [12]  470 	mov	r2,a
      000151 FB               [12]  471 	mov	r3,a
      000152 FC               [12]  472 	mov	r4,a
      000153 FD               [12]  473 	mov	r5,a
      000154 FE               [12]  474 	mov	r6,a
      000155 FF               [12]  475 	mov	r7,a
      000156 E8               [12]  476 	mov	a,r0
      000157 B5*00 1F         [24]  477 	cjne	a,___ckd_add_uchar_sloc0_1_0,00103$
      00015A E9               [12]  478 	mov	a,r1
      00015B B5*01 1B         [24]  479 	cjne	a,(___ckd_add_uchar_sloc0_1_0 + 1),00103$
      00015E EA               [12]  480 	mov	a,r2
      00015F B5*02 17         [24]  481 	cjne	a,(___ckd_add_uchar_sloc0_1_0 + 2),00103$
      000162 EB               [12]  482 	mov	a,r3
      000163 B5*03 13         [24]  483 	cjne	a,(___ckd_add_uchar_sloc0_1_0 + 3),00103$
      000166 EC               [12]  484 	mov	a,r4
      000167 B5*04 0F         [24]  485 	cjne	a,(___ckd_add_uchar_sloc0_1_0 + 4),00103$
      00016A ED               [12]  486 	mov	a,r5
      00016B B5*05 0B         [24]  487 	cjne	a,(___ckd_add_uchar_sloc0_1_0 + 5),00103$
      00016E EE               [12]  488 	mov	a,r6
      00016F B5*06 07         [24]  489 	cjne	a,(___ckd_add_uchar_sloc0_1_0 + 6),00103$
      000172 EF               [12]  490 	mov	a,r7
      000173 B5*07 03         [24]  491 	cjne	a,(___ckd_add_uchar_sloc0_1_0 + 7),00103$
      000176 D3               [12]  492 	setb	c
      000177 80 01            [24]  493 	sjmp	00104$
      000179                        494 00103$:
      000179 C3               [12]  495 	clr	c
      00017A                        496 00104$:
      00017A B3               [12]  497 	cpl	c
      00017B 92*01            [24]  498 	mov	___ckd_add_uchar_sloc1_1_0,c
      00017D E4               [12]  499 	clr	a
      00017E 33               [12]  500 	rlc	a
      00017F F5 82            [12]  501 	mov	dpl,a
      000181 02r00r00         [24]  502 	ljmp	__sdcc_banked_ret
                                    503 ;------------------------------------------------------------
                                    504 ;Allocation info for local variables in function '__ckd_add_short'
                                    505 ;------------------------------------------------------------
                                    506 ;a                         Allocated with name '___ckd_add_short_PARM_2'
                                    507 ;b                         Allocated with name '___ckd_add_short_PARM_3'
                                    508 ;r                         Allocated with name '___ckd_add_short_r_65536_13'
                                    509 ;result                    Allocated with name '___ckd_add_short_result_65536_14'
                                    510 ;sloc0                     Allocated with name '___ckd_add_short_sloc0_1_0'
                                    511 ;------------------------------------------------------------
                                    512 ;	../../device/include/stdckdint.h:53: inline _Bool __ckd_add_short __CKD_DEFAULT_IMPL(short, +)
                                    513 ;	-----------------------------------------
                                    514 ;	 function __ckd_add_short
                                    515 ;	-----------------------------------------
      000184                        516 ___ckd_add_short:
      000184 AF F0            [24]  517 	mov	r7,b
      000186 AE 83            [24]  518 	mov	r6,dph
      000188 E5 82            [12]  519 	mov	a,dpl
      00018A 90r00r36         [24]  520 	mov	dptr,#___ckd_add_short_r_65536_13
      00018D F0               [24]  521 	movx	@dptr,a
      00018E EE               [12]  522 	mov	a,r6
      00018F A3               [24]  523 	inc	dptr
      000190 F0               [24]  524 	movx	@dptr,a
      000191 EF               [12]  525 	mov	a,r7
      000192 A3               [24]  526 	inc	dptr
      000193 F0               [24]  527 	movx	@dptr,a
      000194 90r00r2E         [24]  528 	mov	dptr,#___ckd_add_short_PARM_3
      000197 E0               [24]  529 	movx	a,@dptr
      000198 F5*00            [12]  530 	mov	___ckd_add_short_sloc0_1_0,a
      00019A A3               [24]  531 	inc	dptr
      00019B E0               [24]  532 	movx	a,@dptr
      00019C F5*01            [12]  533 	mov	(___ckd_add_short_sloc0_1_0 + 1),a
      00019E A3               [24]  534 	inc	dptr
      00019F E0               [24]  535 	movx	a,@dptr
      0001A0 F5*02            [12]  536 	mov	(___ckd_add_short_sloc0_1_0 + 2),a
      0001A2 A3               [24]  537 	inc	dptr
      0001A3 E0               [24]  538 	movx	a,@dptr
      0001A4 F5*03            [12]  539 	mov	(___ckd_add_short_sloc0_1_0 + 3),a
      0001A6 A3               [24]  540 	inc	dptr
      0001A7 E0               [24]  541 	movx	a,@dptr
      0001A8 F5*04            [12]  542 	mov	(___ckd_add_short_sloc0_1_0 + 4),a
      0001AA A3               [24]  543 	inc	dptr
      0001AB E0               [24]  544 	movx	a,@dptr
      0001AC F5*05            [12]  545 	mov	(___ckd_add_short_sloc0_1_0 + 5),a
      0001AE A3               [24]  546 	inc	dptr
      0001AF E0               [24]  547 	movx	a,@dptr
      0001B0 F5*06            [12]  548 	mov	(___ckd_add_short_sloc0_1_0 + 6),a
      0001B2 A3               [24]  549 	inc	dptr
      0001B3 E0               [24]  550 	movx	a,@dptr
      0001B4 F5*07            [12]  551 	mov	(___ckd_add_short_sloc0_1_0 + 7),a
      0001B6 90r00r26         [24]  552 	mov	dptr,#___ckd_add_short_PARM_2
      0001B9 E0               [24]  553 	movx	a,@dptr
      0001BA F8               [12]  554 	mov	r0,a
      0001BB A3               [24]  555 	inc	dptr
      0001BC E0               [24]  556 	movx	a,@dptr
      0001BD F9               [12]  557 	mov	r1,a
      0001BE A3               [24]  558 	inc	dptr
      0001BF E0               [24]  559 	movx	a,@dptr
      0001C0 FA               [12]  560 	mov	r2,a
      0001C1 A3               [24]  561 	inc	dptr
      0001C2 E0               [24]  562 	movx	a,@dptr
      0001C3 FB               [12]  563 	mov	r3,a
      0001C4 A3               [24]  564 	inc	dptr
      0001C5 E0               [24]  565 	movx	a,@dptr
      0001C6 FC               [12]  566 	mov	r4,a
      0001C7 A3               [24]  567 	inc	dptr
      0001C8 E0               [24]  568 	movx	a,@dptr
      0001C9 FD               [12]  569 	mov	r5,a
      0001CA A3               [24]  570 	inc	dptr
      0001CB E0               [24]  571 	movx	a,@dptr
      0001CC FE               [12]  572 	mov	r6,a
      0001CD A3               [24]  573 	inc	dptr
      0001CE E0               [24]  574 	movx	a,@dptr
      0001CF FF               [12]  575 	mov	r7,a
      0001D0 E5*00            [12]  576 	mov	a,___ckd_add_short_sloc0_1_0
      0001D2 28               [12]  577 	add	a,r0
      0001D3 F5*00            [12]  578 	mov	___ckd_add_short_sloc0_1_0,a
      0001D5 E5*01            [12]  579 	mov	a,(___ckd_add_short_sloc0_1_0 + 1)
      0001D7 39               [12]  580 	addc	a,r1
      0001D8 F5*01            [12]  581 	mov	(___ckd_add_short_sloc0_1_0 + 1),a
      0001DA E5*02            [12]  582 	mov	a,(___ckd_add_short_sloc0_1_0 + 2)
      0001DC 3A               [12]  583 	addc	a,r2
      0001DD F5*02            [12]  584 	mov	(___ckd_add_short_sloc0_1_0 + 2),a
      0001DF E5*03            [12]  585 	mov	a,(___ckd_add_short_sloc0_1_0 + 3)
      0001E1 3B               [12]  586 	addc	a,r3
      0001E2 F5*03            [12]  587 	mov	(___ckd_add_short_sloc0_1_0 + 3),a
      0001E4 E5*04            [12]  588 	mov	a,(___ckd_add_short_sloc0_1_0 + 4)
      0001E6 3C               [12]  589 	addc	a,r4
      0001E7 F5*04            [12]  590 	mov	(___ckd_add_short_sloc0_1_0 + 4),a
      0001E9 E5*05            [12]  591 	mov	a,(___ckd_add_short_sloc0_1_0 + 5)
      0001EB 3D               [12]  592 	addc	a,r5
      0001EC F5*05            [12]  593 	mov	(___ckd_add_short_sloc0_1_0 + 5),a
      0001EE E5*06            [12]  594 	mov	a,(___ckd_add_short_sloc0_1_0 + 6)
      0001F0 3E               [12]  595 	addc	a,r6
      0001F1 F5*06            [12]  596 	mov	(___ckd_add_short_sloc0_1_0 + 6),a
      0001F3 E5*07            [12]  597 	mov	a,(___ckd_add_short_sloc0_1_0 + 7)
      0001F5 3F               [12]  598 	addc	a,r7
      0001F6 F5*07            [12]  599 	mov	(___ckd_add_short_sloc0_1_0 + 7),a
      0001F8 90r00r36         [24]  600 	mov	dptr,#___ckd_add_short_r_65536_13
      0001FB E0               [24]  601 	movx	a,@dptr
      0001FC FD               [12]  602 	mov	r5,a
      0001FD A3               [24]  603 	inc	dptr
      0001FE E0               [24]  604 	movx	a,@dptr
      0001FF FE               [12]  605 	mov	r6,a
      000200 A3               [24]  606 	inc	dptr
      000201 E0               [24]  607 	movx	a,@dptr
      000202 FF               [12]  608 	mov	r7,a
      000203 A8*00            [24]  609 	mov	r0,___ckd_add_short_sloc0_1_0
      000205 A9*01            [24]  610 	mov	r1,(___ckd_add_short_sloc0_1_0 + 1)
      000207 8D 82            [24]  611 	mov	dpl,r5
      000209 8E 83            [24]  612 	mov	dph,r6
      00020B 8F F0            [24]  613 	mov	b,r7
      00020D E8               [12]  614 	mov	a,r0
      00020E 12r00r00         [24]  615 	lcall	__gptrput
      000211 A3               [24]  616 	inc	dptr
      000212 E9               [12]  617 	mov	a,r1
      000213 12r00r00         [24]  618 	lcall	__gptrput
      000216 33               [12]  619 	rlc	a
      000217 95 E0            [12]  620 	subb	a,acc
      000219 FF               [12]  621 	mov	r7,a
      00021A FE               [12]  622 	mov	r6,a
      00021B FD               [12]  623 	mov	r5,a
      00021C FC               [12]  624 	mov	r4,a
      00021D FB               [12]  625 	mov	r3,a
      00021E FA               [12]  626 	mov	r2,a
      00021F E8               [12]  627 	mov	a,r0
      000220 B5*00 1F         [24]  628 	cjne	a,___ckd_add_short_sloc0_1_0,00103$
      000223 E9               [12]  629 	mov	a,r1
      000224 B5*01 1B         [24]  630 	cjne	a,(___ckd_add_short_sloc0_1_0 + 1),00103$
      000227 EF               [12]  631 	mov	a,r7
      000228 B5*02 17         [24]  632 	cjne	a,(___ckd_add_short_sloc0_1_0 + 2),00103$
      00022B EE               [12]  633 	mov	a,r6
      00022C B5*03 13         [24]  634 	cjne	a,(___ckd_add_short_sloc0_1_0 + 3),00103$
      00022F ED               [12]  635 	mov	a,r5
      000230 B5*04 0F         [24]  636 	cjne	a,(___ckd_add_short_sloc0_1_0 + 4),00103$
      000233 EC               [12]  637 	mov	a,r4
      000234 B5*05 0B         [24]  638 	cjne	a,(___ckd_add_short_sloc0_1_0 + 5),00103$
      000237 EB               [12]  639 	mov	a,r3
      000238 B5*06 07         [24]  640 	cjne	a,(___ckd_add_short_sloc0_1_0 + 6),00103$
      00023B EA               [12]  641 	mov	a,r2
      00023C B5*07 03         [24]  642 	cjne	a,(___ckd_add_short_sloc0_1_0 + 7),00103$
      00023F D3               [12]  643 	setb	c
      000240 80 01            [24]  644 	sjmp	00104$
      000242                        645 00103$:
      000242 C3               [12]  646 	clr	c
      000243                        647 00104$:
      000243 B3               [12]  648 	cpl	c
      000244 92*02            [24]  649 	mov	___ckd_add_short_sloc1_1_0,c
      000246 E4               [12]  650 	clr	a
      000247 33               [12]  651 	rlc	a
      000248 F5 82            [12]  652 	mov	dpl,a
      00024A 02r00r00         [24]  653 	ljmp	__sdcc_banked_ret
                                    654 ;------------------------------------------------------------
                                    655 ;Allocation info for local variables in function '__ckd_add_ushort'
                                    656 ;------------------------------------------------------------
                                    657 ;a                         Allocated with name '___ckd_add_ushort_PARM_2'
                                    658 ;b                         Allocated with name '___ckd_add_ushort_PARM_3'
                                    659 ;r                         Allocated with name '___ckd_add_ushort_r_65536_15'
                                    660 ;result                    Allocated with name '___ckd_add_ushort_result_65536_16'
                                    661 ;sloc0                     Allocated with name '___ckd_add_ushort_sloc0_1_0'
                                    662 ;------------------------------------------------------------
                                    663 ;	../../device/include/stdckdint.h:54: inline _Bool __ckd_add_ushort __CKD_DEFAULT_IMPL(unsigned short, +)
                                    664 ;	-----------------------------------------
                                    665 ;	 function __ckd_add_ushort
                                    666 ;	-----------------------------------------
      00024D                        667 ___ckd_add_ushort:
      00024D AF F0            [24]  668 	mov	r7,b
      00024F AE 83            [24]  669 	mov	r6,dph
      000251 E5 82            [12]  670 	mov	a,dpl
      000253 90r00r49         [24]  671 	mov	dptr,#___ckd_add_ushort_r_65536_15
      000256 F0               [24]  672 	movx	@dptr,a
      000257 EE               [12]  673 	mov	a,r6
      000258 A3               [24]  674 	inc	dptr
      000259 F0               [24]  675 	movx	@dptr,a
      00025A EF               [12]  676 	mov	a,r7
      00025B A3               [24]  677 	inc	dptr
      00025C F0               [24]  678 	movx	@dptr,a
      00025D 90r00r41         [24]  679 	mov	dptr,#___ckd_add_ushort_PARM_3
      000260 E0               [24]  680 	movx	a,@dptr
      000261 F5*00            [12]  681 	mov	___ckd_add_ushort_sloc0_1_0,a
      000263 A3               [24]  682 	inc	dptr
      000264 E0               [24]  683 	movx	a,@dptr
      000265 F5*01            [12]  684 	mov	(___ckd_add_ushort_sloc0_1_0 + 1),a
      000267 A3               [24]  685 	inc	dptr
      000268 E0               [24]  686 	movx	a,@dptr
      000269 F5*02            [12]  687 	mov	(___ckd_add_ushort_sloc0_1_0 + 2),a
      00026B A3               [24]  688 	inc	dptr
      00026C E0               [24]  689 	movx	a,@dptr
      00026D F5*03            [12]  690 	mov	(___ckd_add_ushort_sloc0_1_0 + 3),a
      00026F A3               [24]  691 	inc	dptr
      000270 E0               [24]  692 	movx	a,@dptr
      000271 F5*04            [12]  693 	mov	(___ckd_add_ushort_sloc0_1_0 + 4),a
      000273 A3               [24]  694 	inc	dptr
      000274 E0               [24]  695 	movx	a,@dptr
      000275 F5*05            [12]  696 	mov	(___ckd_add_ushort_sloc0_1_0 + 5),a
      000277 A3               [24]  697 	inc	dptr
      000278 E0               [24]  698 	movx	a,@dptr
      000279 F5*06            [12]  699 	mov	(___ckd_add_ushort_sloc0_1_0 + 6),a
      00027B A3               [24]  700 	inc	dptr
      00027C E0               [24]  701 	movx	a,@dptr
      00027D F5*07            [12]  702 	mov	(___ckd_add_ushort_sloc0_1_0 + 7),a
      00027F 90r00r39         [24]  703 	mov	dptr,#___ckd_add_ushort_PARM_2
      000282 E0               [24]  704 	movx	a,@dptr
      000283 F8               [12]  705 	mov	r0,a
      000284 A3               [24]  706 	inc	dptr
      000285 E0               [24]  707 	movx	a,@dptr
      000286 F9               [12]  708 	mov	r1,a
      000287 A3               [24]  709 	inc	dptr
      000288 E0               [24]  710 	movx	a,@dptr
      000289 FA               [12]  711 	mov	r2,a
      00028A A3               [24]  712 	inc	dptr
      00028B E0               [24]  713 	movx	a,@dptr
      00028C FB               [12]  714 	mov	r3,a
      00028D A3               [24]  715 	inc	dptr
      00028E E0               [24]  716 	movx	a,@dptr
      00028F FC               [12]  717 	mov	r4,a
      000290 A3               [24]  718 	inc	dptr
      000291 E0               [24]  719 	movx	a,@dptr
      000292 FD               [12]  720 	mov	r5,a
      000293 A3               [24]  721 	inc	dptr
      000294 E0               [24]  722 	movx	a,@dptr
      000295 FE               [12]  723 	mov	r6,a
      000296 A3               [24]  724 	inc	dptr
      000297 E0               [24]  725 	movx	a,@dptr
      000298 FF               [12]  726 	mov	r7,a
      000299 E5*00            [12]  727 	mov	a,___ckd_add_ushort_sloc0_1_0
      00029B 28               [12]  728 	add	a,r0
      00029C F5*00            [12]  729 	mov	___ckd_add_ushort_sloc0_1_0,a
      00029E E5*01            [12]  730 	mov	a,(___ckd_add_ushort_sloc0_1_0 + 1)
      0002A0 39               [12]  731 	addc	a,r1
      0002A1 F5*01            [12]  732 	mov	(___ckd_add_ushort_sloc0_1_0 + 1),a
      0002A3 E5*02            [12]  733 	mov	a,(___ckd_add_ushort_sloc0_1_0 + 2)
      0002A5 3A               [12]  734 	addc	a,r2
      0002A6 F5*02            [12]  735 	mov	(___ckd_add_ushort_sloc0_1_0 + 2),a
      0002A8 E5*03            [12]  736 	mov	a,(___ckd_add_ushort_sloc0_1_0 + 3)
      0002AA 3B               [12]  737 	addc	a,r3
      0002AB F5*03            [12]  738 	mov	(___ckd_add_ushort_sloc0_1_0 + 3),a
      0002AD E5*04            [12]  739 	mov	a,(___ckd_add_ushort_sloc0_1_0 + 4)
      0002AF 3C               [12]  740 	addc	a,r4
      0002B0 F5*04            [12]  741 	mov	(___ckd_add_ushort_sloc0_1_0 + 4),a
      0002B2 E5*05            [12]  742 	mov	a,(___ckd_add_ushort_sloc0_1_0 + 5)
      0002B4 3D               [12]  743 	addc	a,r5
      0002B5 F5*05            [12]  744 	mov	(___ckd_add_ushort_sloc0_1_0 + 5),a
      0002B7 E5*06            [12]  745 	mov	a,(___ckd_add_ushort_sloc0_1_0 + 6)
      0002B9 3E               [12]  746 	addc	a,r6
      0002BA F5*06            [12]  747 	mov	(___ckd_add_ushort_sloc0_1_0 + 6),a
      0002BC E5*07            [12]  748 	mov	a,(___ckd_add_ushort_sloc0_1_0 + 7)
      0002BE 3F               [12]  749 	addc	a,r7
      0002BF F5*07            [12]  750 	mov	(___ckd_add_ushort_sloc0_1_0 + 7),a
      0002C1 90r00r49         [24]  751 	mov	dptr,#___ckd_add_ushort_r_65536_15
      0002C4 E0               [24]  752 	movx	a,@dptr
      0002C5 FD               [12]  753 	mov	r5,a
      0002C6 A3               [24]  754 	inc	dptr
      0002C7 E0               [24]  755 	movx	a,@dptr
      0002C8 FE               [12]  756 	mov	r6,a
      0002C9 A3               [24]  757 	inc	dptr
      0002CA E0               [24]  758 	movx	a,@dptr
      0002CB FF               [12]  759 	mov	r7,a
      0002CC A8*00            [24]  760 	mov	r0,___ckd_add_ushort_sloc0_1_0
      0002CE A9*01            [24]  761 	mov	r1,(___ckd_add_ushort_sloc0_1_0 + 1)
      0002D0 8D 82            [24]  762 	mov	dpl,r5
      0002D2 8E 83            [24]  763 	mov	dph,r6
      0002D4 8F F0            [24]  764 	mov	b,r7
      0002D6 E8               [12]  765 	mov	a,r0
      0002D7 12r00r00         [24]  766 	lcall	__gptrput
      0002DA A3               [24]  767 	inc	dptr
      0002DB E9               [12]  768 	mov	a,r1
      0002DC 12r00r00         [24]  769 	lcall	__gptrput
      0002DF E4               [12]  770 	clr	a
      0002E0 FF               [12]  771 	mov	r7,a
      0002E1 FE               [12]  772 	mov	r6,a
      0002E2 FD               [12]  773 	mov	r5,a
      0002E3 FC               [12]  774 	mov	r4,a
      0002E4 FB               [12]  775 	mov	r3,a
      0002E5 FA               [12]  776 	mov	r2,a
      0002E6 E8               [12]  777 	mov	a,r0
      0002E7 B5*00 1F         [24]  778 	cjne	a,___ckd_add_ushort_sloc0_1_0,00103$
      0002EA E9               [12]  779 	mov	a,r1
      0002EB B5*01 1B         [24]  780 	cjne	a,(___ckd_add_ushort_sloc0_1_0 + 1),00103$
      0002EE EF               [12]  781 	mov	a,r7
      0002EF B5*02 17         [24]  782 	cjne	a,(___ckd_add_ushort_sloc0_1_0 + 2),00103$
      0002F2 EE               [12]  783 	mov	a,r6
      0002F3 B5*03 13         [24]  784 	cjne	a,(___ckd_add_ushort_sloc0_1_0 + 3),00103$
      0002F6 ED               [12]  785 	mov	a,r5
      0002F7 B5*04 0F         [24]  786 	cjne	a,(___ckd_add_ushort_sloc0_1_0 + 4),00103$
      0002FA EC               [12]  787 	mov	a,r4
      0002FB B5*05 0B         [24]  788 	cjne	a,(___ckd_add_ushort_sloc0_1_0 + 5),00103$
      0002FE EB               [12]  789 	mov	a,r3
      0002FF B5*06 07         [24]  790 	cjne	a,(___ckd_add_ushort_sloc0_1_0 + 6),00103$
      000302 EA               [12]  791 	mov	a,r2
      000303 B5*07 03         [24]  792 	cjne	a,(___ckd_add_ushort_sloc0_1_0 + 7),00103$
      000306 D3               [12]  793 	setb	c
      000307 80 01            [24]  794 	sjmp	00104$
      000309                        795 00103$:
      000309 C3               [12]  796 	clr	c
      00030A                        797 00104$:
      00030A B3               [12]  798 	cpl	c
      00030B 92*03            [24]  799 	mov	___ckd_add_ushort_sloc1_1_0,c
      00030D E4               [12]  800 	clr	a
      00030E 33               [12]  801 	rlc	a
      00030F F5 82            [12]  802 	mov	dpl,a
      000311 02r00r00         [24]  803 	ljmp	__sdcc_banked_ret
                                    804 ;------------------------------------------------------------
                                    805 ;Allocation info for local variables in function '__ckd_add_int'
                                    806 ;------------------------------------------------------------
                                    807 ;a                         Allocated with name '___ckd_add_int_PARM_2'
                                    808 ;b                         Allocated with name '___ckd_add_int_PARM_3'
                                    809 ;r                         Allocated with name '___ckd_add_int_r_65536_17'
                                    810 ;result                    Allocated with name '___ckd_add_int_result_65536_18'
                                    811 ;sloc0                     Allocated with name '___ckd_add_int_sloc0_1_0'
                                    812 ;------------------------------------------------------------
                                    813 ;	../../device/include/stdckdint.h:55: inline _Bool __ckd_add_int __CKD_DEFAULT_IMPL(int, +)
                                    814 ;	-----------------------------------------
                                    815 ;	 function __ckd_add_int
                                    816 ;	-----------------------------------------
      000314                        817 ___ckd_add_int:
      000314 AF F0            [24]  818 	mov	r7,b
      000316 AE 83            [24]  819 	mov	r6,dph
      000318 E5 82            [12]  820 	mov	a,dpl
      00031A 90r00r5C         [24]  821 	mov	dptr,#___ckd_add_int_r_65536_17
      00031D F0               [24]  822 	movx	@dptr,a
      00031E EE               [12]  823 	mov	a,r6
      00031F A3               [24]  824 	inc	dptr
      000320 F0               [24]  825 	movx	@dptr,a
      000321 EF               [12]  826 	mov	a,r7
      000322 A3               [24]  827 	inc	dptr
      000323 F0               [24]  828 	movx	@dptr,a
      000324 90r00r54         [24]  829 	mov	dptr,#___ckd_add_int_PARM_3
      000327 E0               [24]  830 	movx	a,@dptr
      000328 F5*00            [12]  831 	mov	___ckd_add_int_sloc0_1_0,a
      00032A A3               [24]  832 	inc	dptr
      00032B E0               [24]  833 	movx	a,@dptr
      00032C F5*01            [12]  834 	mov	(___ckd_add_int_sloc0_1_0 + 1),a
      00032E A3               [24]  835 	inc	dptr
      00032F E0               [24]  836 	movx	a,@dptr
      000330 F5*02            [12]  837 	mov	(___ckd_add_int_sloc0_1_0 + 2),a
      000332 A3               [24]  838 	inc	dptr
      000333 E0               [24]  839 	movx	a,@dptr
      000334 F5*03            [12]  840 	mov	(___ckd_add_int_sloc0_1_0 + 3),a
      000336 A3               [24]  841 	inc	dptr
      000337 E0               [24]  842 	movx	a,@dptr
      000338 F5*04            [12]  843 	mov	(___ckd_add_int_sloc0_1_0 + 4),a
      00033A A3               [24]  844 	inc	dptr
      00033B E0               [24]  845 	movx	a,@dptr
      00033C F5*05            [12]  846 	mov	(___ckd_add_int_sloc0_1_0 + 5),a
      00033E A3               [24]  847 	inc	dptr
      00033F E0               [24]  848 	movx	a,@dptr
      000340 F5*06            [12]  849 	mov	(___ckd_add_int_sloc0_1_0 + 6),a
      000342 A3               [24]  850 	inc	dptr
      000343 E0               [24]  851 	movx	a,@dptr
      000344 F5*07            [12]  852 	mov	(___ckd_add_int_sloc0_1_0 + 7),a
      000346 90r00r4C         [24]  853 	mov	dptr,#___ckd_add_int_PARM_2
      000349 E0               [24]  854 	movx	a,@dptr
      00034A F8               [12]  855 	mov	r0,a
      00034B A3               [24]  856 	inc	dptr
      00034C E0               [24]  857 	movx	a,@dptr
      00034D F9               [12]  858 	mov	r1,a
      00034E A3               [24]  859 	inc	dptr
      00034F E0               [24]  860 	movx	a,@dptr
      000350 FA               [12]  861 	mov	r2,a
      000351 A3               [24]  862 	inc	dptr
      000352 E0               [24]  863 	movx	a,@dptr
      000353 FB               [12]  864 	mov	r3,a
      000354 A3               [24]  865 	inc	dptr
      000355 E0               [24]  866 	movx	a,@dptr
      000356 FC               [12]  867 	mov	r4,a
      000357 A3               [24]  868 	inc	dptr
      000358 E0               [24]  869 	movx	a,@dptr
      000359 FD               [12]  870 	mov	r5,a
      00035A A3               [24]  871 	inc	dptr
      00035B E0               [24]  872 	movx	a,@dptr
      00035C FE               [12]  873 	mov	r6,a
      00035D A3               [24]  874 	inc	dptr
      00035E E0               [24]  875 	movx	a,@dptr
      00035F FF               [12]  876 	mov	r7,a
      000360 E5*00            [12]  877 	mov	a,___ckd_add_int_sloc0_1_0
      000362 28               [12]  878 	add	a,r0
      000363 F5*00            [12]  879 	mov	___ckd_add_int_sloc0_1_0,a
      000365 E5*01            [12]  880 	mov	a,(___ckd_add_int_sloc0_1_0 + 1)
      000367 39               [12]  881 	addc	a,r1
      000368 F5*01            [12]  882 	mov	(___ckd_add_int_sloc0_1_0 + 1),a
      00036A E5*02            [12]  883 	mov	a,(___ckd_add_int_sloc0_1_0 + 2)
      00036C 3A               [12]  884 	addc	a,r2
      00036D F5*02            [12]  885 	mov	(___ckd_add_int_sloc0_1_0 + 2),a
      00036F E5*03            [12]  886 	mov	a,(___ckd_add_int_sloc0_1_0 + 3)
      000371 3B               [12]  887 	addc	a,r3
      000372 F5*03            [12]  888 	mov	(___ckd_add_int_sloc0_1_0 + 3),a
      000374 E5*04            [12]  889 	mov	a,(___ckd_add_int_sloc0_1_0 + 4)
      000376 3C               [12]  890 	addc	a,r4
      000377 F5*04            [12]  891 	mov	(___ckd_add_int_sloc0_1_0 + 4),a
      000379 E5*05            [12]  892 	mov	a,(___ckd_add_int_sloc0_1_0 + 5)
      00037B 3D               [12]  893 	addc	a,r5
      00037C F5*05            [12]  894 	mov	(___ckd_add_int_sloc0_1_0 + 5),a
      00037E E5*06            [12]  895 	mov	a,(___ckd_add_int_sloc0_1_0 + 6)
      000380 3E               [12]  896 	addc	a,r6
      000381 F5*06            [12]  897 	mov	(___ckd_add_int_sloc0_1_0 + 6),a
      000383 E5*07            [12]  898 	mov	a,(___ckd_add_int_sloc0_1_0 + 7)
      000385 3F               [12]  899 	addc	a,r7
      000386 F5*07            [12]  900 	mov	(___ckd_add_int_sloc0_1_0 + 7),a
      000388 90r00r5C         [24]  901 	mov	dptr,#___ckd_add_int_r_65536_17
      00038B E0               [24]  902 	movx	a,@dptr
      00038C FD               [12]  903 	mov	r5,a
      00038D A3               [24]  904 	inc	dptr
      00038E E0               [24]  905 	movx	a,@dptr
      00038F FE               [12]  906 	mov	r6,a
      000390 A3               [24]  907 	inc	dptr
      000391 E0               [24]  908 	movx	a,@dptr
      000392 FF               [12]  909 	mov	r7,a
      000393 A8*00            [24]  910 	mov	r0,___ckd_add_int_sloc0_1_0
      000395 A9*01            [24]  911 	mov	r1,(___ckd_add_int_sloc0_1_0 + 1)
      000397 8D 82            [24]  912 	mov	dpl,r5
      000399 8E 83            [24]  913 	mov	dph,r6
      00039B 8F F0            [24]  914 	mov	b,r7
      00039D E8               [12]  915 	mov	a,r0
      00039E 12r00r00         [24]  916 	lcall	__gptrput
      0003A1 A3               [24]  917 	inc	dptr
      0003A2 E9               [12]  918 	mov	a,r1
      0003A3 12r00r00         [24]  919 	lcall	__gptrput
      0003A6 33               [12]  920 	rlc	a
      0003A7 95 E0            [12]  921 	subb	a,acc
      0003A9 FF               [12]  922 	mov	r7,a
      0003AA FE               [12]  923 	mov	r6,a
      0003AB FD               [12]  924 	mov	r5,a
      0003AC FC               [12]  925 	mov	r4,a
      0003AD FB               [12]  926 	mov	r3,a
      0003AE FA               [12]  927 	mov	r2,a
      0003AF E8               [12]  928 	mov	a,r0
      0003B0 B5*00 1F         [24]  929 	cjne	a,___ckd_add_int_sloc0_1_0,00103$
      0003B3 E9               [12]  930 	mov	a,r1
      0003B4 B5*01 1B         [24]  931 	cjne	a,(___ckd_add_int_sloc0_1_0 + 1),00103$
      0003B7 EF               [12]  932 	mov	a,r7
      0003B8 B5*02 17         [24]  933 	cjne	a,(___ckd_add_int_sloc0_1_0 + 2),00103$
      0003BB EE               [12]  934 	mov	a,r6
      0003BC B5*03 13         [24]  935 	cjne	a,(___ckd_add_int_sloc0_1_0 + 3),00103$
      0003BF ED               [12]  936 	mov	a,r5
      0003C0 B5*04 0F         [24]  937 	cjne	a,(___ckd_add_int_sloc0_1_0 + 4),00103$
      0003C3 EC               [12]  938 	mov	a,r4
      0003C4 B5*05 0B         [24]  939 	cjne	a,(___ckd_add_int_sloc0_1_0 + 5),00103$
      0003C7 EB               [12]  940 	mov	a,r3
      0003C8 B5*06 07         [24]  941 	cjne	a,(___ckd_add_int_sloc0_1_0 + 6),00103$
      0003CB EA               [12]  942 	mov	a,r2
      0003CC B5*07 03         [24]  943 	cjne	a,(___ckd_add_int_sloc0_1_0 + 7),00103$
      0003CF D3               [12]  944 	setb	c
      0003D0 80 01            [24]  945 	sjmp	00104$
      0003D2                        946 00103$:
      0003D2 C3               [12]  947 	clr	c
      0003D3                        948 00104$:
      0003D3 B3               [12]  949 	cpl	c
      0003D4 92*04            [24]  950 	mov	___ckd_add_int_sloc1_1_0,c
      0003D6 E4               [12]  951 	clr	a
      0003D7 33               [12]  952 	rlc	a
      0003D8 F5 82            [12]  953 	mov	dpl,a
      0003DA 02r00r00         [24]  954 	ljmp	__sdcc_banked_ret
                                    955 ;------------------------------------------------------------
                                    956 ;Allocation info for local variables in function '__ckd_add_uint'
                                    957 ;------------------------------------------------------------
                                    958 ;a                         Allocated with name '___ckd_add_uint_PARM_2'
                                    959 ;b                         Allocated with name '___ckd_add_uint_PARM_3'
                                    960 ;r                         Allocated with name '___ckd_add_uint_r_65536_19'
                                    961 ;result                    Allocated with name '___ckd_add_uint_result_65536_20'
                                    962 ;sloc0                     Allocated with name '___ckd_add_uint_sloc0_1_0'
                                    963 ;------------------------------------------------------------
                                    964 ;	../../device/include/stdckdint.h:56: inline _Bool __ckd_add_uint __CKD_DEFAULT_IMPL(unsigned int, +)
                                    965 ;	-----------------------------------------
                                    966 ;	 function __ckd_add_uint
                                    967 ;	-----------------------------------------
      0003DD                        968 ___ckd_add_uint:
      0003DD AF F0            [24]  969 	mov	r7,b
      0003DF AE 83            [24]  970 	mov	r6,dph
      0003E1 E5 82            [12]  971 	mov	a,dpl
      0003E3 90r00r6F         [24]  972 	mov	dptr,#___ckd_add_uint_r_65536_19
      0003E6 F0               [24]  973 	movx	@dptr,a
      0003E7 EE               [12]  974 	mov	a,r6
      0003E8 A3               [24]  975 	inc	dptr
      0003E9 F0               [24]  976 	movx	@dptr,a
      0003EA EF               [12]  977 	mov	a,r7
      0003EB A3               [24]  978 	inc	dptr
      0003EC F0               [24]  979 	movx	@dptr,a
      0003ED 90r00r67         [24]  980 	mov	dptr,#___ckd_add_uint_PARM_3
      0003F0 E0               [24]  981 	movx	a,@dptr
      0003F1 F5*00            [12]  982 	mov	___ckd_add_uint_sloc0_1_0,a
      0003F3 A3               [24]  983 	inc	dptr
      0003F4 E0               [24]  984 	movx	a,@dptr
      0003F5 F5*01            [12]  985 	mov	(___ckd_add_uint_sloc0_1_0 + 1),a
      0003F7 A3               [24]  986 	inc	dptr
      0003F8 E0               [24]  987 	movx	a,@dptr
      0003F9 F5*02            [12]  988 	mov	(___ckd_add_uint_sloc0_1_0 + 2),a
      0003FB A3               [24]  989 	inc	dptr
      0003FC E0               [24]  990 	movx	a,@dptr
      0003FD F5*03            [12]  991 	mov	(___ckd_add_uint_sloc0_1_0 + 3),a
      0003FF A3               [24]  992 	inc	dptr
      000400 E0               [24]  993 	movx	a,@dptr
      000401 F5*04            [12]  994 	mov	(___ckd_add_uint_sloc0_1_0 + 4),a
      000403 A3               [24]  995 	inc	dptr
      000404 E0               [24]  996 	movx	a,@dptr
      000405 F5*05            [12]  997 	mov	(___ckd_add_uint_sloc0_1_0 + 5),a
      000407 A3               [24]  998 	inc	dptr
      000408 E0               [24]  999 	movx	a,@dptr
      000409 F5*06            [12] 1000 	mov	(___ckd_add_uint_sloc0_1_0 + 6),a
      00040B A3               [24] 1001 	inc	dptr
      00040C E0               [24] 1002 	movx	a,@dptr
      00040D F5*07            [12] 1003 	mov	(___ckd_add_uint_sloc0_1_0 + 7),a
      00040F 90r00r5F         [24] 1004 	mov	dptr,#___ckd_add_uint_PARM_2
      000412 E0               [24] 1005 	movx	a,@dptr
      000413 F8               [12] 1006 	mov	r0,a
      000414 A3               [24] 1007 	inc	dptr
      000415 E0               [24] 1008 	movx	a,@dptr
      000416 F9               [12] 1009 	mov	r1,a
      000417 A3               [24] 1010 	inc	dptr
      000418 E0               [24] 1011 	movx	a,@dptr
      000419 FA               [12] 1012 	mov	r2,a
      00041A A3               [24] 1013 	inc	dptr
      00041B E0               [24] 1014 	movx	a,@dptr
      00041C FB               [12] 1015 	mov	r3,a
      00041D A3               [24] 1016 	inc	dptr
      00041E E0               [24] 1017 	movx	a,@dptr
      00041F FC               [12] 1018 	mov	r4,a
      000420 A3               [24] 1019 	inc	dptr
      000421 E0               [24] 1020 	movx	a,@dptr
      000422 FD               [12] 1021 	mov	r5,a
      000423 A3               [24] 1022 	inc	dptr
      000424 E0               [24] 1023 	movx	a,@dptr
      000425 FE               [12] 1024 	mov	r6,a
      000426 A3               [24] 1025 	inc	dptr
      000427 E0               [24] 1026 	movx	a,@dptr
      000428 FF               [12] 1027 	mov	r7,a
      000429 E5*00            [12] 1028 	mov	a,___ckd_add_uint_sloc0_1_0
      00042B 28               [12] 1029 	add	a,r0
      00042C F5*00            [12] 1030 	mov	___ckd_add_uint_sloc0_1_0,a
      00042E E5*01            [12] 1031 	mov	a,(___ckd_add_uint_sloc0_1_0 + 1)
      000430 39               [12] 1032 	addc	a,r1
      000431 F5*01            [12] 1033 	mov	(___ckd_add_uint_sloc0_1_0 + 1),a
      000433 E5*02            [12] 1034 	mov	a,(___ckd_add_uint_sloc0_1_0 + 2)
      000435 3A               [12] 1035 	addc	a,r2
      000436 F5*02            [12] 1036 	mov	(___ckd_add_uint_sloc0_1_0 + 2),a
      000438 E5*03            [12] 1037 	mov	a,(___ckd_add_uint_sloc0_1_0 + 3)
      00043A 3B               [12] 1038 	addc	a,r3
      00043B F5*03            [12] 1039 	mov	(___ckd_add_uint_sloc0_1_0 + 3),a
      00043D E5*04            [12] 1040 	mov	a,(___ckd_add_uint_sloc0_1_0 + 4)
      00043F 3C               [12] 1041 	addc	a,r4
      000440 F5*04            [12] 1042 	mov	(___ckd_add_uint_sloc0_1_0 + 4),a
      000442 E5*05            [12] 1043 	mov	a,(___ckd_add_uint_sloc0_1_0 + 5)
      000444 3D               [12] 1044 	addc	a,r5
      000445 F5*05            [12] 1045 	mov	(___ckd_add_uint_sloc0_1_0 + 5),a
      000447 E5*06            [12] 1046 	mov	a,(___ckd_add_uint_sloc0_1_0 + 6)
      000449 3E               [12] 1047 	addc	a,r6
      00044A F5*06            [12] 1048 	mov	(___ckd_add_uint_sloc0_1_0 + 6),a
      00044C E5*07            [12] 1049 	mov	a,(___ckd_add_uint_sloc0_1_0 + 7)
      00044E 3F               [12] 1050 	addc	a,r7
      00044F F5*07            [12] 1051 	mov	(___ckd_add_uint_sloc0_1_0 + 7),a
      000451 90r00r6F         [24] 1052 	mov	dptr,#___ckd_add_uint_r_65536_19
      000454 E0               [24] 1053 	movx	a,@dptr
      000455 FD               [12] 1054 	mov	r5,a
      000456 A3               [24] 1055 	inc	dptr
      000457 E0               [24] 1056 	movx	a,@dptr
      000458 FE               [12] 1057 	mov	r6,a
      000459 A3               [24] 1058 	inc	dptr
      00045A E0               [24] 1059 	movx	a,@dptr
      00045B FF               [12] 1060 	mov	r7,a
      00045C A8*00            [24] 1061 	mov	r0,___ckd_add_uint_sloc0_1_0
      00045E A9*01            [24] 1062 	mov	r1,(___ckd_add_uint_sloc0_1_0 + 1)
      000460 8D 82            [24] 1063 	mov	dpl,r5
      000462 8E 83            [24] 1064 	mov	dph,r6
      000464 8F F0            [24] 1065 	mov	b,r7
      000466 E8               [12] 1066 	mov	a,r0
      000467 12r00r00         [24] 1067 	lcall	__gptrput
      00046A A3               [24] 1068 	inc	dptr
      00046B E9               [12] 1069 	mov	a,r1
      00046C 12r00r00         [24] 1070 	lcall	__gptrput
      00046F E4               [12] 1071 	clr	a
      000470 FF               [12] 1072 	mov	r7,a
      000471 FE               [12] 1073 	mov	r6,a
      000472 FD               [12] 1074 	mov	r5,a
      000473 FC               [12] 1075 	mov	r4,a
      000474 FB               [12] 1076 	mov	r3,a
      000475 FA               [12] 1077 	mov	r2,a
      000476 E8               [12] 1078 	mov	a,r0
      000477 B5*00 1F         [24] 1079 	cjne	a,___ckd_add_uint_sloc0_1_0,00103$
      00047A E9               [12] 1080 	mov	a,r1
      00047B B5*01 1B         [24] 1081 	cjne	a,(___ckd_add_uint_sloc0_1_0 + 1),00103$
      00047E EF               [12] 1082 	mov	a,r7
      00047F B5*02 17         [24] 1083 	cjne	a,(___ckd_add_uint_sloc0_1_0 + 2),00103$
      000482 EE               [12] 1084 	mov	a,r6
      000483 B5*03 13         [24] 1085 	cjne	a,(___ckd_add_uint_sloc0_1_0 + 3),00103$
      000486 ED               [12] 1086 	mov	a,r5
      000487 B5*04 0F         [24] 1087 	cjne	a,(___ckd_add_uint_sloc0_1_0 + 4),00103$
      00048A EC               [12] 1088 	mov	a,r4
      00048B B5*05 0B         [24] 1089 	cjne	a,(___ckd_add_uint_sloc0_1_0 + 5),00103$
      00048E EB               [12] 1090 	mov	a,r3
      00048F B5*06 07         [24] 1091 	cjne	a,(___ckd_add_uint_sloc0_1_0 + 6),00103$
      000492 EA               [12] 1092 	mov	a,r2
      000493 B5*07 03         [24] 1093 	cjne	a,(___ckd_add_uint_sloc0_1_0 + 7),00103$
      000496 D3               [12] 1094 	setb	c
      000497 80 01            [24] 1095 	sjmp	00104$
      000499                       1096 00103$:
      000499 C3               [12] 1097 	clr	c
      00049A                       1098 00104$:
      00049A B3               [12] 1099 	cpl	c
      00049B 92*05            [24] 1100 	mov	___ckd_add_uint_sloc1_1_0,c
      00049D E4               [12] 1101 	clr	a
      00049E 33               [12] 1102 	rlc	a
      00049F F5 82            [12] 1103 	mov	dpl,a
      0004A1 02r00r00         [24] 1104 	ljmp	__sdcc_banked_ret
                                   1105 ;------------------------------------------------------------
                                   1106 ;Allocation info for local variables in function '__ckd_add_long'
                                   1107 ;------------------------------------------------------------
                                   1108 ;a                         Allocated with name '___ckd_add_long_PARM_2'
                                   1109 ;b                         Allocated with name '___ckd_add_long_PARM_3'
                                   1110 ;r                         Allocated with name '___ckd_add_long_r_65536_21'
                                   1111 ;result                    Allocated with name '___ckd_add_long_result_65536_22'
                                   1112 ;sloc0                     Allocated with name '___ckd_add_long_sloc0_1_0'
                                   1113 ;------------------------------------------------------------
                                   1114 ;	../../device/include/stdckdint.h:57: inline _Bool __ckd_add_long __CKD_DEFAULT_IMPL(long, +)
                                   1115 ;	-----------------------------------------
                                   1116 ;	 function __ckd_add_long
                                   1117 ;	-----------------------------------------
      0004A4                       1118 ___ckd_add_long:
      0004A4 AF F0            [24] 1119 	mov	r7,b
      0004A6 AE 83            [24] 1120 	mov	r6,dph
      0004A8 E5 82            [12] 1121 	mov	a,dpl
      0004AA 90r00r82         [24] 1122 	mov	dptr,#___ckd_add_long_r_65536_21
      0004AD F0               [24] 1123 	movx	@dptr,a
      0004AE EE               [12] 1124 	mov	a,r6
      0004AF A3               [24] 1125 	inc	dptr
      0004B0 F0               [24] 1126 	movx	@dptr,a
      0004B1 EF               [12] 1127 	mov	a,r7
      0004B2 A3               [24] 1128 	inc	dptr
      0004B3 F0               [24] 1129 	movx	@dptr,a
      0004B4 90r00r7A         [24] 1130 	mov	dptr,#___ckd_add_long_PARM_3
      0004B7 E0               [24] 1131 	movx	a,@dptr
      0004B8 F5*00            [12] 1132 	mov	___ckd_add_long_sloc0_1_0,a
      0004BA A3               [24] 1133 	inc	dptr
      0004BB E0               [24] 1134 	movx	a,@dptr
      0004BC F5*01            [12] 1135 	mov	(___ckd_add_long_sloc0_1_0 + 1),a
      0004BE A3               [24] 1136 	inc	dptr
      0004BF E0               [24] 1137 	movx	a,@dptr
      0004C0 F5*02            [12] 1138 	mov	(___ckd_add_long_sloc0_1_0 + 2),a
      0004C2 A3               [24] 1139 	inc	dptr
      0004C3 E0               [24] 1140 	movx	a,@dptr
      0004C4 F5*03            [12] 1141 	mov	(___ckd_add_long_sloc0_1_0 + 3),a
      0004C6 A3               [24] 1142 	inc	dptr
      0004C7 E0               [24] 1143 	movx	a,@dptr
      0004C8 F5*04            [12] 1144 	mov	(___ckd_add_long_sloc0_1_0 + 4),a
      0004CA A3               [24] 1145 	inc	dptr
      0004CB E0               [24] 1146 	movx	a,@dptr
      0004CC F5*05            [12] 1147 	mov	(___ckd_add_long_sloc0_1_0 + 5),a
      0004CE A3               [24] 1148 	inc	dptr
      0004CF E0               [24] 1149 	movx	a,@dptr
      0004D0 F5*06            [12] 1150 	mov	(___ckd_add_long_sloc0_1_0 + 6),a
      0004D2 A3               [24] 1151 	inc	dptr
      0004D3 E0               [24] 1152 	movx	a,@dptr
      0004D4 F5*07            [12] 1153 	mov	(___ckd_add_long_sloc0_1_0 + 7),a
      0004D6 90r00r72         [24] 1154 	mov	dptr,#___ckd_add_long_PARM_2
      0004D9 E0               [24] 1155 	movx	a,@dptr
      0004DA F8               [12] 1156 	mov	r0,a
      0004DB A3               [24] 1157 	inc	dptr
      0004DC E0               [24] 1158 	movx	a,@dptr
      0004DD F9               [12] 1159 	mov	r1,a
      0004DE A3               [24] 1160 	inc	dptr
      0004DF E0               [24] 1161 	movx	a,@dptr
      0004E0 FA               [12] 1162 	mov	r2,a
      0004E1 A3               [24] 1163 	inc	dptr
      0004E2 E0               [24] 1164 	movx	a,@dptr
      0004E3 FB               [12] 1165 	mov	r3,a
      0004E4 A3               [24] 1166 	inc	dptr
      0004E5 E0               [24] 1167 	movx	a,@dptr
      0004E6 FC               [12] 1168 	mov	r4,a
      0004E7 A3               [24] 1169 	inc	dptr
      0004E8 E0               [24] 1170 	movx	a,@dptr
      0004E9 FD               [12] 1171 	mov	r5,a
      0004EA A3               [24] 1172 	inc	dptr
      0004EB E0               [24] 1173 	movx	a,@dptr
      0004EC FE               [12] 1174 	mov	r6,a
      0004ED A3               [24] 1175 	inc	dptr
      0004EE E0               [24] 1176 	movx	a,@dptr
      0004EF FF               [12] 1177 	mov	r7,a
      0004F0 E5*00            [12] 1178 	mov	a,___ckd_add_long_sloc0_1_0
      0004F2 28               [12] 1179 	add	a,r0
      0004F3 F5*00            [12] 1180 	mov	___ckd_add_long_sloc0_1_0,a
      0004F5 E5*01            [12] 1181 	mov	a,(___ckd_add_long_sloc0_1_0 + 1)
      0004F7 39               [12] 1182 	addc	a,r1
      0004F8 F5*01            [12] 1183 	mov	(___ckd_add_long_sloc0_1_0 + 1),a
      0004FA E5*02            [12] 1184 	mov	a,(___ckd_add_long_sloc0_1_0 + 2)
      0004FC 3A               [12] 1185 	addc	a,r2
      0004FD F5*02            [12] 1186 	mov	(___ckd_add_long_sloc0_1_0 + 2),a
      0004FF E5*03            [12] 1187 	mov	a,(___ckd_add_long_sloc0_1_0 + 3)
      000501 3B               [12] 1188 	addc	a,r3
      000502 F5*03            [12] 1189 	mov	(___ckd_add_long_sloc0_1_0 + 3),a
      000504 E5*04            [12] 1190 	mov	a,(___ckd_add_long_sloc0_1_0 + 4)
      000506 3C               [12] 1191 	addc	a,r4
      000507 F5*04            [12] 1192 	mov	(___ckd_add_long_sloc0_1_0 + 4),a
      000509 E5*05            [12] 1193 	mov	a,(___ckd_add_long_sloc0_1_0 + 5)
      00050B 3D               [12] 1194 	addc	a,r5
      00050C F5*05            [12] 1195 	mov	(___ckd_add_long_sloc0_1_0 + 5),a
      00050E E5*06            [12] 1196 	mov	a,(___ckd_add_long_sloc0_1_0 + 6)
      000510 3E               [12] 1197 	addc	a,r6
      000511 F5*06            [12] 1198 	mov	(___ckd_add_long_sloc0_1_0 + 6),a
      000513 E5*07            [12] 1199 	mov	a,(___ckd_add_long_sloc0_1_0 + 7)
      000515 3F               [12] 1200 	addc	a,r7
      000516 F5*07            [12] 1201 	mov	(___ckd_add_long_sloc0_1_0 + 7),a
      000518 90r00r82         [24] 1202 	mov	dptr,#___ckd_add_long_r_65536_21
      00051B E0               [24] 1203 	movx	a,@dptr
      00051C FD               [12] 1204 	mov	r5,a
      00051D A3               [24] 1205 	inc	dptr
      00051E E0               [24] 1206 	movx	a,@dptr
      00051F FE               [12] 1207 	mov	r6,a
      000520 A3               [24] 1208 	inc	dptr
      000521 E0               [24] 1209 	movx	a,@dptr
      000522 FF               [12] 1210 	mov	r7,a
      000523 A8*00            [24] 1211 	mov	r0,___ckd_add_long_sloc0_1_0
      000525 A9*01            [24] 1212 	mov	r1,(___ckd_add_long_sloc0_1_0 + 1)
      000527 AA*02            [24] 1213 	mov	r2,(___ckd_add_long_sloc0_1_0 + 2)
      000529 AB*03            [24] 1214 	mov	r3,(___ckd_add_long_sloc0_1_0 + 3)
      00052B 8D 82            [24] 1215 	mov	dpl,r5
      00052D 8E 83            [24] 1216 	mov	dph,r6
      00052F 8F F0            [24] 1217 	mov	b,r7
      000531 E8               [12] 1218 	mov	a,r0
      000532 12r00r00         [24] 1219 	lcall	__gptrput
      000535 A3               [24] 1220 	inc	dptr
      000536 E9               [12] 1221 	mov	a,r1
      000537 12r00r00         [24] 1222 	lcall	__gptrput
      00053A A3               [24] 1223 	inc	dptr
      00053B EA               [12] 1224 	mov	a,r2
      00053C 12r00r00         [24] 1225 	lcall	__gptrput
      00053F A3               [24] 1226 	inc	dptr
      000540 EB               [12] 1227 	mov	a,r3
      000541 12r00r00         [24] 1228 	lcall	__gptrput
      000544 33               [12] 1229 	rlc	a
      000545 95 E0            [12] 1230 	subb	a,acc
      000547 FF               [12] 1231 	mov	r7,a
      000548 FE               [12] 1232 	mov	r6,a
      000549 FD               [12] 1233 	mov	r5,a
      00054A FC               [12] 1234 	mov	r4,a
      00054B E8               [12] 1235 	mov	a,r0
      00054C B5*00 1F         [24] 1236 	cjne	a,___ckd_add_long_sloc0_1_0,00103$
      00054F E9               [12] 1237 	mov	a,r1
      000550 B5*01 1B         [24] 1238 	cjne	a,(___ckd_add_long_sloc0_1_0 + 1),00103$
      000553 EA               [12] 1239 	mov	a,r2
      000554 B5*02 17         [24] 1240 	cjne	a,(___ckd_add_long_sloc0_1_0 + 2),00103$
      000557 EB               [12] 1241 	mov	a,r3
      000558 B5*03 13         [24] 1242 	cjne	a,(___ckd_add_long_sloc0_1_0 + 3),00103$
      00055B EF               [12] 1243 	mov	a,r7
      00055C B5*04 0F         [24] 1244 	cjne	a,(___ckd_add_long_sloc0_1_0 + 4),00103$
      00055F EE               [12] 1245 	mov	a,r6
      000560 B5*05 0B         [24] 1246 	cjne	a,(___ckd_add_long_sloc0_1_0 + 5),00103$
      000563 ED               [12] 1247 	mov	a,r5
      000564 B5*06 07         [24] 1248 	cjne	a,(___ckd_add_long_sloc0_1_0 + 6),00103$
      000567 EC               [12] 1249 	mov	a,r4
      000568 B5*07 03         [24] 1250 	cjne	a,(___ckd_add_long_sloc0_1_0 + 7),00103$
      00056B D3               [12] 1251 	setb	c
      00056C 80 01            [24] 1252 	sjmp	00104$
      00056E                       1253 00103$:
      00056E C3               [12] 1254 	clr	c
      00056F                       1255 00104$:
      00056F B3               [12] 1256 	cpl	c
      000570 92*06            [24] 1257 	mov	___ckd_add_long_sloc1_1_0,c
      000572 E4               [12] 1258 	clr	a
      000573 33               [12] 1259 	rlc	a
      000574 F5 82            [12] 1260 	mov	dpl,a
      000576 02r00r00         [24] 1261 	ljmp	__sdcc_banked_ret
                                   1262 ;------------------------------------------------------------
                                   1263 ;Allocation info for local variables in function '__ckd_add_ulong'
                                   1264 ;------------------------------------------------------------
                                   1265 ;a                         Allocated with name '___ckd_add_ulong_PARM_2'
                                   1266 ;b                         Allocated with name '___ckd_add_ulong_PARM_3'
                                   1267 ;r                         Allocated with name '___ckd_add_ulong_r_65536_23'
                                   1268 ;result                    Allocated with name '___ckd_add_ulong_result_65536_24'
                                   1269 ;sloc0                     Allocated with name '___ckd_add_ulong_sloc0_1_0'
                                   1270 ;------------------------------------------------------------
                                   1271 ;	../../device/include/stdckdint.h:58: inline _Bool __ckd_add_ulong __CKD_DEFAULT_IMPL(unsigned long, +)
                                   1272 ;	-----------------------------------------
                                   1273 ;	 function __ckd_add_ulong
                                   1274 ;	-----------------------------------------
      000579                       1275 ___ckd_add_ulong:
      000579 AF F0            [24] 1276 	mov	r7,b
      00057B AE 83            [24] 1277 	mov	r6,dph
      00057D E5 82            [12] 1278 	mov	a,dpl
      00057F 90r00r95         [24] 1279 	mov	dptr,#___ckd_add_ulong_r_65536_23
      000582 F0               [24] 1280 	movx	@dptr,a
      000583 EE               [12] 1281 	mov	a,r6
      000584 A3               [24] 1282 	inc	dptr
      000585 F0               [24] 1283 	movx	@dptr,a
      000586 EF               [12] 1284 	mov	a,r7
      000587 A3               [24] 1285 	inc	dptr
      000588 F0               [24] 1286 	movx	@dptr,a
      000589 90r00r8D         [24] 1287 	mov	dptr,#___ckd_add_ulong_PARM_3
      00058C E0               [24] 1288 	movx	a,@dptr
      00058D F5*00            [12] 1289 	mov	___ckd_add_ulong_sloc0_1_0,a
      00058F A3               [24] 1290 	inc	dptr
      000590 E0               [24] 1291 	movx	a,@dptr
      000591 F5*01            [12] 1292 	mov	(___ckd_add_ulong_sloc0_1_0 + 1),a
      000593 A3               [24] 1293 	inc	dptr
      000594 E0               [24] 1294 	movx	a,@dptr
      000595 F5*02            [12] 1295 	mov	(___ckd_add_ulong_sloc0_1_0 + 2),a
      000597 A3               [24] 1296 	inc	dptr
      000598 E0               [24] 1297 	movx	a,@dptr
      000599 F5*03            [12] 1298 	mov	(___ckd_add_ulong_sloc0_1_0 + 3),a
      00059B A3               [24] 1299 	inc	dptr
      00059C E0               [24] 1300 	movx	a,@dptr
      00059D F5*04            [12] 1301 	mov	(___ckd_add_ulong_sloc0_1_0 + 4),a
      00059F A3               [24] 1302 	inc	dptr
      0005A0 E0               [24] 1303 	movx	a,@dptr
      0005A1 F5*05            [12] 1304 	mov	(___ckd_add_ulong_sloc0_1_0 + 5),a
      0005A3 A3               [24] 1305 	inc	dptr
      0005A4 E0               [24] 1306 	movx	a,@dptr
      0005A5 F5*06            [12] 1307 	mov	(___ckd_add_ulong_sloc0_1_0 + 6),a
      0005A7 A3               [24] 1308 	inc	dptr
      0005A8 E0               [24] 1309 	movx	a,@dptr
      0005A9 F5*07            [12] 1310 	mov	(___ckd_add_ulong_sloc0_1_0 + 7),a
      0005AB 90r00r85         [24] 1311 	mov	dptr,#___ckd_add_ulong_PARM_2
      0005AE E0               [24] 1312 	movx	a,@dptr
      0005AF F8               [12] 1313 	mov	r0,a
      0005B0 A3               [24] 1314 	inc	dptr
      0005B1 E0               [24] 1315 	movx	a,@dptr
      0005B2 F9               [12] 1316 	mov	r1,a
      0005B3 A3               [24] 1317 	inc	dptr
      0005B4 E0               [24] 1318 	movx	a,@dptr
      0005B5 FA               [12] 1319 	mov	r2,a
      0005B6 A3               [24] 1320 	inc	dptr
      0005B7 E0               [24] 1321 	movx	a,@dptr
      0005B8 FB               [12] 1322 	mov	r3,a
      0005B9 A3               [24] 1323 	inc	dptr
      0005BA E0               [24] 1324 	movx	a,@dptr
      0005BB FC               [12] 1325 	mov	r4,a
      0005BC A3               [24] 1326 	inc	dptr
      0005BD E0               [24] 1327 	movx	a,@dptr
      0005BE FD               [12] 1328 	mov	r5,a
      0005BF A3               [24] 1329 	inc	dptr
      0005C0 E0               [24] 1330 	movx	a,@dptr
      0005C1 FE               [12] 1331 	mov	r6,a
      0005C2 A3               [24] 1332 	inc	dptr
      0005C3 E0               [24] 1333 	movx	a,@dptr
      0005C4 FF               [12] 1334 	mov	r7,a
      0005C5 E5*00            [12] 1335 	mov	a,___ckd_add_ulong_sloc0_1_0
      0005C7 28               [12] 1336 	add	a,r0
      0005C8 F5*00            [12] 1337 	mov	___ckd_add_ulong_sloc0_1_0,a
      0005CA E5*01            [12] 1338 	mov	a,(___ckd_add_ulong_sloc0_1_0 + 1)
      0005CC 39               [12] 1339 	addc	a,r1
      0005CD F5*01            [12] 1340 	mov	(___ckd_add_ulong_sloc0_1_0 + 1),a
      0005CF E5*02            [12] 1341 	mov	a,(___ckd_add_ulong_sloc0_1_0 + 2)
      0005D1 3A               [12] 1342 	addc	a,r2
      0005D2 F5*02            [12] 1343 	mov	(___ckd_add_ulong_sloc0_1_0 + 2),a
      0005D4 E5*03            [12] 1344 	mov	a,(___ckd_add_ulong_sloc0_1_0 + 3)
      0005D6 3B               [12] 1345 	addc	a,r3
      0005D7 F5*03            [12] 1346 	mov	(___ckd_add_ulong_sloc0_1_0 + 3),a
      0005D9 E5*04            [12] 1347 	mov	a,(___ckd_add_ulong_sloc0_1_0 + 4)
      0005DB 3C               [12] 1348 	addc	a,r4
      0005DC F5*04            [12] 1349 	mov	(___ckd_add_ulong_sloc0_1_0 + 4),a
      0005DE E5*05            [12] 1350 	mov	a,(___ckd_add_ulong_sloc0_1_0 + 5)
      0005E0 3D               [12] 1351 	addc	a,r5
      0005E1 F5*05            [12] 1352 	mov	(___ckd_add_ulong_sloc0_1_0 + 5),a
      0005E3 E5*06            [12] 1353 	mov	a,(___ckd_add_ulong_sloc0_1_0 + 6)
      0005E5 3E               [12] 1354 	addc	a,r6
      0005E6 F5*06            [12] 1355 	mov	(___ckd_add_ulong_sloc0_1_0 + 6),a
      0005E8 E5*07            [12] 1356 	mov	a,(___ckd_add_ulong_sloc0_1_0 + 7)
      0005EA 3F               [12] 1357 	addc	a,r7
      0005EB F5*07            [12] 1358 	mov	(___ckd_add_ulong_sloc0_1_0 + 7),a
      0005ED 90r00r95         [24] 1359 	mov	dptr,#___ckd_add_ulong_r_65536_23
      0005F0 E0               [24] 1360 	movx	a,@dptr
      0005F1 FD               [12] 1361 	mov	r5,a
      0005F2 A3               [24] 1362 	inc	dptr
      0005F3 E0               [24] 1363 	movx	a,@dptr
      0005F4 FE               [12] 1364 	mov	r6,a
      0005F5 A3               [24] 1365 	inc	dptr
      0005F6 E0               [24] 1366 	movx	a,@dptr
      0005F7 FF               [12] 1367 	mov	r7,a
      0005F8 A8*00            [24] 1368 	mov	r0,___ckd_add_ulong_sloc0_1_0
      0005FA A9*01            [24] 1369 	mov	r1,(___ckd_add_ulong_sloc0_1_0 + 1)
      0005FC AA*02            [24] 1370 	mov	r2,(___ckd_add_ulong_sloc0_1_0 + 2)
      0005FE AB*03            [24] 1371 	mov	r3,(___ckd_add_ulong_sloc0_1_0 + 3)
      000600 8D 82            [24] 1372 	mov	dpl,r5
      000602 8E 83            [24] 1373 	mov	dph,r6
      000604 8F F0            [24] 1374 	mov	b,r7
      000606 E8               [12] 1375 	mov	a,r0
      000607 12r00r00         [24] 1376 	lcall	__gptrput
      00060A A3               [24] 1377 	inc	dptr
      00060B E9               [12] 1378 	mov	a,r1
      00060C 12r00r00         [24] 1379 	lcall	__gptrput
      00060F A3               [24] 1380 	inc	dptr
      000610 EA               [12] 1381 	mov	a,r2
      000611 12r00r00         [24] 1382 	lcall	__gptrput
      000614 A3               [24] 1383 	inc	dptr
      000615 EB               [12] 1384 	mov	a,r3
      000616 12r00r00         [24] 1385 	lcall	__gptrput
      000619 E4               [12] 1386 	clr	a
      00061A FF               [12] 1387 	mov	r7,a
      00061B FE               [12] 1388 	mov	r6,a
      00061C FD               [12] 1389 	mov	r5,a
      00061D FC               [12] 1390 	mov	r4,a
      00061E E8               [12] 1391 	mov	a,r0
      00061F B5*00 1F         [24] 1392 	cjne	a,___ckd_add_ulong_sloc0_1_0,00103$
      000622 E9               [12] 1393 	mov	a,r1
      000623 B5*01 1B         [24] 1394 	cjne	a,(___ckd_add_ulong_sloc0_1_0 + 1),00103$
      000626 EA               [12] 1395 	mov	a,r2
      000627 B5*02 17         [24] 1396 	cjne	a,(___ckd_add_ulong_sloc0_1_0 + 2),00103$
      00062A EB               [12] 1397 	mov	a,r3
      00062B B5*03 13         [24] 1398 	cjne	a,(___ckd_add_ulong_sloc0_1_0 + 3),00103$
      00062E EF               [12] 1399 	mov	a,r7
      00062F B5*04 0F         [24] 1400 	cjne	a,(___ckd_add_ulong_sloc0_1_0 + 4),00103$
      000632 EE               [12] 1401 	mov	a,r6
      000633 B5*05 0B         [24] 1402 	cjne	a,(___ckd_add_ulong_sloc0_1_0 + 5),00103$
      000636 ED               [12] 1403 	mov	a,r5
      000637 B5*06 07         [24] 1404 	cjne	a,(___ckd_add_ulong_sloc0_1_0 + 6),00103$
      00063A EC               [12] 1405 	mov	a,r4
      00063B B5*07 03         [24] 1406 	cjne	a,(___ckd_add_ulong_sloc0_1_0 + 7),00103$
      00063E D3               [12] 1407 	setb	c
      00063F 80 01            [24] 1408 	sjmp	00104$
      000641                       1409 00103$:
      000641 C3               [12] 1410 	clr	c
      000642                       1411 00104$:
      000642 B3               [12] 1412 	cpl	c
      000643 92*07            [24] 1413 	mov	___ckd_add_ulong_sloc1_1_0,c
      000645 E4               [12] 1414 	clr	a
      000646 33               [12] 1415 	rlc	a
      000647 F5 82            [12] 1416 	mov	dpl,a
      000649 02r00r00         [24] 1417 	ljmp	__sdcc_banked_ret
                                   1418 	.area CSEG    (CODE)
                                   1419 	.area CONST   (CODE)
                                   1420 	.area XINIT   (CODE)
                                   1421 	.area CABS    (ABS,CODE)
