                                      1 ;--------------------------------------------------------
                                      2 ; File Created by SDCC : free open source ISO C Compiler 
                                      3 ; Version 4.2.14 #0 (Linux)
                                      4 ;--------------------------------------------------------
                                      5 	.module strtoul
                                      6 	.optsdcc -mmcs51 --model-huge
                                      7 	
                                      8 ;--------------------------------------------------------
                                      9 ; Public variables in this module
                                     10 ;--------------------------------------------------------
                                     11 	.globl _strncmp
                                     12 	.globl _strtoul_PARM_3
                                     13 	.globl _strtoul_PARM_2
                                     14 	.globl _strtoul
                                     15 ;--------------------------------------------------------
                                     16 ; special function registers
                                     17 ;--------------------------------------------------------
                                     18 	.area RSEG    (ABS,DATA)
      000000                         19 	.org 0x0000
                                     20 ;--------------------------------------------------------
                                     21 ; special function bits
                                     22 ;--------------------------------------------------------
                                     23 	.area RSEG    (ABS,DATA)
      000000                         24 	.org 0x0000
                                     25 ;--------------------------------------------------------
                                     26 ; overlayable register banks
                                     27 ;--------------------------------------------------------
                                     28 	.area REG_BANK_0	(REL,OVR,DATA)
      000000                         29 	.ds 8
                                     30 ;--------------------------------------------------------
                                     31 ; internal ram data
                                     32 ;--------------------------------------------------------
                                     33 	.area DSEG    (DATA)
      000000                         34 _strtoul_sloc0_1_0:
      000000                         35 	.ds 3
      000003                         36 _strtoul_sloc1_1_0:
      000003                         37 	.ds 2
      000005                         38 _strtoul_sloc2_1_0:
      000005                         39 	.ds 3
      000008                         40 _strtoul_sloc3_1_0:
      000008                         41 	.ds 8
      000010                         42 _strtoul_sloc4_1_0:
      000010                         43 	.ds 8
                                     44 ;--------------------------------------------------------
                                     45 ; overlayable items in internal ram
                                     46 ;--------------------------------------------------------
                                     47 ;--------------------------------------------------------
                                     48 ; indirectly addressable internal ram data
                                     49 ;--------------------------------------------------------
                                     50 	.area ISEG    (DATA)
                                     51 ;--------------------------------------------------------
                                     52 ; absolute internal ram data
                                     53 ;--------------------------------------------------------
                                     54 	.area IABS    (ABS,DATA)
                                     55 	.area IABS    (ABS,DATA)
                                     56 ;--------------------------------------------------------
                                     57 ; bit data
                                     58 ;--------------------------------------------------------
                                     59 	.area BSEG    (BIT)
      000000                         60 _strtoul_sloc5_1_0:
      000000                         61 	.ds 1
                                     62 ;--------------------------------------------------------
                                     63 ; paged external ram data
                                     64 ;--------------------------------------------------------
                                     65 	.area PSEG    (PAG,XDATA)
                                     66 ;--------------------------------------------------------
                                     67 ; uninitialized external ram data
                                     68 ;--------------------------------------------------------
                                     69 	.area XSEG    (XDATA)
      000000                         70 __isdigit_PARM_2:
      000000                         71 	.ds 1
      000001                         72 __isdigit_c_65536_137:
      000001                         73 	.ds 1
      000002                         74 __isdigit_v_65536_138:
      000002                         75 	.ds 1
      000003                         76 _strtoul_PARM_2:
      000003                         77 	.ds 3
      000006                         78 _strtoul_PARM_3:
      000006                         79 	.ds 2
      000008                         80 _strtoul_nptr_65536_139:
      000008                         81 	.ds 3
      00000B                         82 _strtoul_ptr_65536_140:
      00000B                         83 	.ds 3
      00000E                         84 _strtoul_ret_65536_140:
      00000E                         85 	.ds 4
      000012                         86 _strtoul_range_error_65536_140:
      000012                         87 	.ds 1
      000013                         88 _strtoul_neg_65536_140:
      000013                         89 	.ds 1
      000014                         90 _strtoul___2621440012_262144_147:
      000014                         91 	.ds 1
      000015                         92 _strtoul_result_393216_157:
      000015                         93 	.ds 8
                                     94 ;--------------------------------------------------------
                                     95 ; absolute external ram data
                                     96 ;--------------------------------------------------------
                                     97 	.area XABS    (ABS,XDATA)
                                     98 ;--------------------------------------------------------
                                     99 ; initialized external ram data
                                    100 ;--------------------------------------------------------
                                    101 	.area XISEG   (XDATA)
                                    102 	.area HOME    (CODE)
                                    103 	.area GSINIT0 (CODE)
                                    104 	.area GSINIT1 (CODE)
                                    105 	.area GSINIT2 (CODE)
                                    106 	.area GSINIT3 (CODE)
                                    107 	.area GSINIT4 (CODE)
                                    108 	.area GSINIT5 (CODE)
                                    109 	.area GSINIT  (CODE)
                                    110 	.area GSFINAL (CODE)
                                    111 	.area CSEG    (CODE)
                                    112 ;--------------------------------------------------------
                                    113 ; global & static initialisations
                                    114 ;--------------------------------------------------------
                                    115 	.area HOME    (CODE)
                                    116 	.area GSINIT  (CODE)
                                    117 	.area GSFINAL (CODE)
                                    118 	.area GSINIT  (CODE)
                                    119 ;--------------------------------------------------------
                                    120 ; Home
                                    121 ;--------------------------------------------------------
                                    122 	.area HOME    (CODE)
                                    123 	.area HOME    (CODE)
                                    124 ;--------------------------------------------------------
                                    125 ; code
                                    126 ;--------------------------------------------------------
                                    127 	.area CSEG    (CODE)
                                    128 ;------------------------------------------------------------
                                    129 ;Allocation info for local variables in function '_isdigit'
                                    130 ;------------------------------------------------------------
                                    131 ;base                      Allocated with name '__isdigit_PARM_2'
                                    132 ;c                         Allocated with name '__isdigit_c_65536_137'
                                    133 ;v                         Allocated with name '__isdigit_v_65536_138'
                                    134 ;------------------------------------------------------------
                                    135 ;	strtoul.c:40: static signed char _isdigit(const char c, unsigned char base)
                                    136 ;	-----------------------------------------
                                    137 ;	 function _isdigit
                                    138 ;	-----------------------------------------
      000000                        139 __isdigit:
                           000007   140 	ar7 = 0x07
                           000006   141 	ar6 = 0x06
                           000005   142 	ar5 = 0x05
                           000004   143 	ar4 = 0x04
                           000003   144 	ar3 = 0x03
                           000002   145 	ar2 = 0x02
                           000001   146 	ar1 = 0x01
                           000000   147 	ar0 = 0x00
      000000 E5 82            [12]  148 	mov	a,dpl
      000002 90r00r01         [24]  149 	mov	dptr,#__isdigit_c_65536_137
      000005 F0               [24]  150 	movx	@dptr,a
                                    151 ;	strtoul.c:44: if (c >= '0' && c <= '9')
      000006 E0               [24]  152 	movx	a,@dptr
      000007 FF               [12]  153 	mov	r7,a
      000008 BF 30 00         [24]  154 	cjne	r7,#0x30,00145$
      00000B                        155 00145$:
      00000B 40 0E            [24]  156 	jc	00110$
      00000D EF               [12]  157 	mov	a,r7
      00000E 24 C6            [12]  158 	add	a,#0xff - 0x39
      000010 40 09            [24]  159 	jc	00110$
                                    160 ;	strtoul.c:45: v = c - '0';
      000012 EF               [12]  161 	mov	a,r7
      000013 24 D0            [12]  162 	add	a,#0xd0
      000015 90r00r02         [24]  163 	mov	dptr,#__isdigit_v_65536_138
      000018 F0               [24]  164 	movx	@dptr,a
      000019 80 35            [24]  165 	sjmp	00111$
      00001B                        166 00110$:
                                    167 ;	strtoul.c:46: else if (c >= 'a' && c <='z')
      00001B 90r00r01         [24]  168 	mov	dptr,#__isdigit_c_65536_137
      00001E E0               [24]  169 	movx	a,@dptr
      00001F FF               [12]  170 	mov	r7,a
      000020 BF 61 00         [24]  171 	cjne	r7,#0x61,00148$
      000023                        172 00148$:
      000023 40 0E            [24]  173 	jc	00106$
      000025 EF               [12]  174 	mov	a,r7
      000026 24 85            [12]  175 	add	a,#0xff - 0x7a
      000028 40 09            [24]  176 	jc	00106$
                                    177 ;	strtoul.c:47: v = c - 'a' + 10;
      00002A 90r00r02         [24]  178 	mov	dptr,#__isdigit_v_65536_138
      00002D 74 A9            [12]  179 	mov	a,#0xa9
      00002F 2F               [12]  180 	add	a,r7
      000030 F0               [24]  181 	movx	@dptr,a
      000031 80 1D            [24]  182 	sjmp	00111$
      000033                        183 00106$:
                                    184 ;	strtoul.c:48: else if (c >= 'A' && c <='Z')
      000033 90r00r01         [24]  185 	mov	dptr,#__isdigit_c_65536_137
      000036 E0               [24]  186 	movx	a,@dptr
      000037 FF               [12]  187 	mov	r7,a
      000038 BF 41 00         [24]  188 	cjne	r7,#0x41,00151$
      00003B                        189 00151$:
      00003B 40 0E            [24]  190 	jc	00102$
      00003D EF               [12]  191 	mov	a,r7
      00003E 24 A5            [12]  192 	add	a,#0xff - 0x5a
      000040 40 09            [24]  193 	jc	00102$
                                    194 ;	strtoul.c:49: v = c - 'A' + 10;
      000042 90r00r02         [24]  195 	mov	dptr,#__isdigit_v_65536_138
      000045 74 C9            [12]  196 	mov	a,#0xc9
      000047 2F               [12]  197 	add	a,r7
      000048 F0               [24]  198 	movx	@dptr,a
      000049 80 05            [24]  199 	sjmp	00111$
      00004B                        200 00102$:
                                    201 ;	strtoul.c:51: return (-1);
      00004B 75 82 FF         [24]  202 	mov	dpl,#0xff
      00004E 80 16            [24]  203 	sjmp	00115$
      000050                        204 00111$:
                                    205 ;	strtoul.c:53: if (v >= base)
      000050 90r00r02         [24]  206 	mov	dptr,#__isdigit_v_65536_138
      000053 E0               [24]  207 	movx	a,@dptr
      000054 FF               [12]  208 	mov	r7,a
      000055 90r00r00         [24]  209 	mov	dptr,#__isdigit_PARM_2
      000058 E0               [24]  210 	movx	a,@dptr
      000059 FE               [12]  211 	mov	r6,a
      00005A C3               [12]  212 	clr	c
      00005B EF               [12]  213 	mov	a,r7
      00005C 9E               [12]  214 	subb	a,r6
      00005D 40 05            [24]  215 	jc	00114$
                                    216 ;	strtoul.c:54: return (-1);
      00005F 75 82 FF         [24]  217 	mov	dpl,#0xff
      000062 80 02            [24]  218 	sjmp	00115$
      000064                        219 00114$:
                                    220 ;	strtoul.c:56: return (v);
      000064 8F 82            [24]  221 	mov	dpl,r7
      000066                        222 00115$:
                                    223 ;	strtoul.c:57: }
      000066 02r00r00         [24]  224 	ljmp	__sdcc_banked_ret
                                    225 ;------------------------------------------------------------
                                    226 ;Allocation info for local variables in function 'strtoul'
                                    227 ;------------------------------------------------------------
                                    228 ;sloc0                     Allocated with name '_strtoul_sloc0_1_0'
                                    229 ;sloc1                     Allocated with name '_strtoul_sloc1_1_0'
                                    230 ;sloc2                     Allocated with name '_strtoul_sloc2_1_0'
                                    231 ;sloc3                     Allocated with name '_strtoul_sloc3_1_0'
                                    232 ;sloc4                     Allocated with name '_strtoul_sloc4_1_0'
                                    233 ;endptr                    Allocated with name '_strtoul_PARM_2'
                                    234 ;base                      Allocated with name '_strtoul_PARM_3'
                                    235 ;nptr                      Allocated with name '_strtoul_nptr_65536_139'
                                    236 ;__1310720004              Allocated with name '_strtoul___1310720004_131072_140'
                                    237 ;ptr                       Allocated with name '_strtoul_ptr_65536_140'
                                    238 ;ret                       Allocated with name '_strtoul_ret_65536_140'
                                    239 ;range_error               Allocated with name '_strtoul_range_error_65536_140'
                                    240 ;neg                       Allocated with name '_strtoul_neg_65536_140'
                                    241 ;__1310720005              Allocated with name '_strtoul___1310720005_131072_149'
                                    242 ;c                         Allocated with name '_strtoul_c_196608_150'
                                    243 ;__2621440017              Allocated with name '_strtoul___2621440017_262144_147'
                                    244 ;__2621440012              Allocated with name '_strtoul___2621440012_262144_147'
                                    245 ;__2621440007              Allocated with name '_strtoul___2621440007_262144_147'
                                    246 ;oldret                    Allocated with name '_strtoul_oldret_196608_147'
                                    247 ;digit                     Allocated with name '_strtoul_digit_196608_147'
                                    248 ;__2621440008              Allocated with name '_strtoul___2621440008_262144_152'
                                    249 ;__2621440009              Allocated with name '_strtoul___2621440009_262144_152'
                                    250 ;__2621440010              Allocated with name '_strtoul___2621440010_262144_152'
                                    251 ;r                         Allocated with name '_strtoul_r_327680_153'
                                    252 ;a                         Allocated with name '_strtoul_a_327680_153'
                                    253 ;b                         Allocated with name '_strtoul_b_327680_153'
                                    254 ;result                    Allocated with name '_strtoul_result_393216_154'
                                    255 ;__2621440013              Allocated with name '_strtoul___2621440013_262144_155'
                                    256 ;__2621440014              Allocated with name '_strtoul___2621440014_262144_155'
                                    257 ;__2621440015              Allocated with name '_strtoul___2621440015_262144_155'
                                    258 ;r                         Allocated with name '_strtoul_r_327680_156'
                                    259 ;a                         Allocated with name '_strtoul_a_327680_156'
                                    260 ;b                         Allocated with name '_strtoul_b_327680_156'
                                    261 ;result                    Allocated with name '_strtoul_result_393216_157'
                                    262 ;__2621440018              Allocated with name '_strtoul___2621440018_262144_158'
                                    263 ;__2621440019              Allocated with name '_strtoul___2621440019_262144_158'
                                    264 ;__2621440020              Allocated with name '_strtoul___2621440020_262144_158'
                                    265 ;r                         Allocated with name '_strtoul_r_327680_159'
                                    266 ;a                         Allocated with name '_strtoul_a_327680_159'
                                    267 ;b                         Allocated with name '_strtoul_b_327680_159'
                                    268 ;result                    Allocated with name '_strtoul_result_393216_160'
                                    269 ;------------------------------------------------------------
                                    270 ;	strtoul.c:59: unsigned long int strtoul(const char *nptr, char **endptr, int base)
                                    271 ;	-----------------------------------------
                                    272 ;	 function strtoul
                                    273 ;	-----------------------------------------
      000069                        274 _strtoul:
      000069 AF F0            [24]  275 	mov	r7,b
      00006B AE 83            [24]  276 	mov	r6,dph
      00006D E5 82            [12]  277 	mov	a,dpl
      00006F 90r00r08         [24]  278 	mov	dptr,#_strtoul_nptr_65536_139
      000072 F0               [24]  279 	movx	@dptr,a
      000073 EE               [12]  280 	mov	a,r6
      000074 A3               [24]  281 	inc	dptr
      000075 F0               [24]  282 	movx	@dptr,a
      000076 EF               [12]  283 	mov	a,r7
      000077 A3               [24]  284 	inc	dptr
      000078 F0               [24]  285 	movx	@dptr,a
                                    286 ;	strtoul.c:61: const char *ptr = nptr;
      000079 90r00r08         [24]  287 	mov	dptr,#_strtoul_nptr_65536_139
      00007C E0               [24]  288 	movx	a,@dptr
      00007D FD               [12]  289 	mov	r5,a
      00007E A3               [24]  290 	inc	dptr
      00007F E0               [24]  291 	movx	a,@dptr
      000080 FE               [12]  292 	mov	r6,a
      000081 A3               [24]  293 	inc	dptr
      000082 E0               [24]  294 	movx	a,@dptr
      000083 FF               [12]  295 	mov	r7,a
                                    296 ;	strtoul.c:63: bool range_error = false;
      000084 90r00r12         [24]  297 	mov	dptr,#_strtoul_range_error_65536_140
      000087 E4               [12]  298 	clr	a
      000088 F0               [24]  299 	movx	@dptr,a
                                    300 ;	strtoul.c:64: bool neg = false;
      000089 90r00r13         [24]  301 	mov	dptr,#_strtoul_neg_65536_140
      00008C F0               [24]  302 	movx	@dptr,a
                                    303 ;	strtoul.c:66: while (isblank (*ptr))
      00008D                        304 00101$:
      00008D 8D 82            [24]  305 	mov	dpl,r5
      00008F 8E 83            [24]  306 	mov	dph,r6
      000091 8F F0            [24]  307 	mov	b,r7
      000093 12r00r00         [24]  308 	lcall	__gptrget
      000096 FC               [12]  309 	mov	r4,a
                                    310 ;	../../device/include/ctype.h:53: return ((unsigned char)c == ' ' || (unsigned char)c == '\t');
      000097 BC 20 02         [24]  311 	cjne	r4,#0x20,00214$
      00009A 80 03            [24]  312 	sjmp	00141$
      00009C                        313 00214$:
      00009C BC 09 07         [24]  314 	cjne	r4,#0x09,00163$
      00009F                        315 00141$:
                                    316 ;	strtoul.c:67: ptr++;
      00009F 0D               [12]  317 	inc	r5
      0000A0 BD 00 EA         [24]  318 	cjne	r5,#0x00,00101$
      0000A3 0E               [12]  319 	inc	r6
      0000A4 80 E7            [24]  320 	sjmp	00101$
      0000A6                        321 00163$:
      0000A6 90r00r0B         [24]  322 	mov	dptr,#_strtoul_ptr_65536_140
      0000A9 ED               [12]  323 	mov	a,r5
      0000AA F0               [24]  324 	movx	@dptr,a
      0000AB EE               [12]  325 	mov	a,r6
      0000AC A3               [24]  326 	inc	dptr
      0000AD F0               [24]  327 	movx	@dptr,a
      0000AE EF               [12]  328 	mov	a,r7
      0000AF A3               [24]  329 	inc	dptr
      0000B0 F0               [24]  330 	movx	@dptr,a
                                    331 ;	strtoul.c:70: switch(*ptr)
      0000B1 8D 02            [24]  332 	mov	ar2,r5
      0000B3 8E 03            [24]  333 	mov	ar3,r6
      0000B5 8F 04            [24]  334 	mov	ar4,r7
      0000B7 8D 82            [24]  335 	mov	dpl,r5
      0000B9 8E 83            [24]  336 	mov	dph,r6
      0000BB 8F F0            [24]  337 	mov	b,r7
      0000BD 12r00r00         [24]  338 	lcall	__gptrget
      0000C0 FF               [12]  339 	mov	r7,a
      0000C1 BF 2B 02         [24]  340 	cjne	r7,#0x2b,00218$
      0000C4 80 09            [24]  341 	sjmp	00105$
      0000C6                        342 00218$:
      0000C6 BF 2D 14         [24]  343 	cjne	r7,#0x2d,00106$
                                    344 ;	strtoul.c:73: neg = true;
      0000C9 90r00r13         [24]  345 	mov	dptr,#_strtoul_neg_65536_140
      0000CC 74 01            [12]  346 	mov	a,#0x01
      0000CE F0               [24]  347 	movx	@dptr,a
                                    348 ;	strtoul.c:74: case '+':
      0000CF                        349 00105$:
                                    350 ;	strtoul.c:75: ptr++;
      0000CF 90r00r0B         [24]  351 	mov	dptr,#_strtoul_ptr_65536_140
      0000D2 74 01            [12]  352 	mov	a,#0x01
      0000D4 2A               [12]  353 	add	a,r2
      0000D5 F0               [24]  354 	movx	@dptr,a
      0000D6 E4               [12]  355 	clr	a
      0000D7 3B               [12]  356 	addc	a,r3
      0000D8 A3               [24]  357 	inc	dptr
      0000D9 F0               [24]  358 	movx	@dptr,a
      0000DA EC               [12]  359 	mov	a,r4
      0000DB A3               [24]  360 	inc	dptr
      0000DC F0               [24]  361 	movx	@dptr,a
                                    362 ;	strtoul.c:76: }
      0000DD                        363 00106$:
                                    364 ;	strtoul.c:79: if (!base)
      0000DD 90r00r06         [24]  365 	mov	dptr,#_strtoul_PARM_3
      0000E0 E0               [24]  366 	movx	a,@dptr
      0000E1 FE               [12]  367 	mov	r6,a
      0000E2 A3               [24]  368 	inc	dptr
      0000E3 E0               [24]  369 	movx	a,@dptr
      0000E4 FF               [12]  370 	mov	r7,a
      0000E5 90r00r06         [24]  371 	mov	dptr,#_strtoul_PARM_3
      0000E8 E0               [24]  372 	movx	a,@dptr
      0000E9 F5 F0            [12]  373 	mov	b,a
      0000EB A3               [24]  374 	inc	dptr
      0000EC E0               [24]  375 	movx	a,@dptr
      0000ED 45 F0            [12]  376 	orl	a,b
      0000EF 60 03            [24]  377 	jz	00221$
      0000F1 02r01rCA         [24]  378 	ljmp	00119$
      0000F4                        379 00221$:
                                    380 ;	strtoul.c:81: if (!strncmp (ptr, "0x", 2) || !strncmp (ptr, "0X", 2))
      0000F4 90r00r0B         [24]  381 	mov	dptr,#_strtoul_ptr_65536_140
      0000F7 E0               [24]  382 	movx	a,@dptr
      0000F8 FB               [12]  383 	mov	r3,a
      0000F9 A3               [24]  384 	inc	dptr
      0000FA E0               [24]  385 	movx	a,@dptr
      0000FB FC               [12]  386 	mov	r4,a
      0000FC A3               [24]  387 	inc	dptr
      0000FD E0               [24]  388 	movx	a,@dptr
      0000FE FD               [12]  389 	mov	r5,a
      0000FF 90r00r00         [24]  390 	mov	dptr,#_strncmp_PARM_2
      000102 74r00            [12]  391 	mov	a,#___str_0
      000104 F0               [24]  392 	movx	@dptr,a
      000105 74s00            [12]  393 	mov	a,#(___str_0 >> 8)
      000107 A3               [24]  394 	inc	dptr
      000108 F0               [24]  395 	movx	@dptr,a
      000109 74 80            [12]  396 	mov	a,#0x80
      00010B A3               [24]  397 	inc	dptr
      00010C F0               [24]  398 	movx	@dptr,a
      00010D 90r00r00         [24]  399 	mov	dptr,#_strncmp_PARM_3
      000110 74 02            [12]  400 	mov	a,#0x02
      000112 F0               [24]  401 	movx	@dptr,a
      000113 E4               [12]  402 	clr	a
      000114 A3               [24]  403 	inc	dptr
      000115 F0               [24]  404 	movx	@dptr,a
      000116 8B 82            [24]  405 	mov	dpl,r3
      000118 8C 83            [24]  406 	mov	dph,r4
      00011A 8D F0            [24]  407 	mov	b,r5
      00011C 78r00            [12]  408 	mov	r0,#_strncmp
      00011E 79s00            [12]  409 	mov	r1,#(_strncmp >> 8)
      000120 7As00            [12]  410 	mov	r2,#(_strncmp >> 16)
      000122 12r00r00         [24]  411 	lcall	__sdcc_banked_call
      000125 E5 82            [12]  412 	mov	a,dpl
      000127 85 83 F0         [24]  413 	mov	b,dph
      00012A 45 F0            [12]  414 	orl	a,b
      00012C 60 3A            [24]  415 	jz	00110$
      00012E 90r00r0B         [24]  416 	mov	dptr,#_strtoul_ptr_65536_140
      000131 E0               [24]  417 	movx	a,@dptr
      000132 FB               [12]  418 	mov	r3,a
      000133 A3               [24]  419 	inc	dptr
      000134 E0               [24]  420 	movx	a,@dptr
      000135 FC               [12]  421 	mov	r4,a
      000136 A3               [24]  422 	inc	dptr
      000137 E0               [24]  423 	movx	a,@dptr
      000138 FD               [12]  424 	mov	r5,a
      000139 90r00r00         [24]  425 	mov	dptr,#_strncmp_PARM_2
      00013C 74r03            [12]  426 	mov	a,#___str_1
      00013E F0               [24]  427 	movx	@dptr,a
      00013F 74s00            [12]  428 	mov	a,#(___str_1 >> 8)
      000141 A3               [24]  429 	inc	dptr
      000142 F0               [24]  430 	movx	@dptr,a
      000143 74 80            [12]  431 	mov	a,#0x80
      000145 A3               [24]  432 	inc	dptr
      000146 F0               [24]  433 	movx	@dptr,a
      000147 90r00r00         [24]  434 	mov	dptr,#_strncmp_PARM_3
      00014A 74 02            [12]  435 	mov	a,#0x02
      00014C F0               [24]  436 	movx	@dptr,a
      00014D E4               [12]  437 	clr	a
      00014E A3               [24]  438 	inc	dptr
      00014F F0               [24]  439 	movx	@dptr,a
      000150 8B 82            [24]  440 	mov	dpl,r3
      000152 8C 83            [24]  441 	mov	dph,r4
      000154 8D F0            [24]  442 	mov	b,r5
      000156 78r00            [12]  443 	mov	r0,#_strncmp
      000158 79s00            [12]  444 	mov	r1,#(_strncmp >> 8)
      00015A 7As00            [12]  445 	mov	r2,#(_strncmp >> 16)
      00015C 12r00r00         [24]  446 	lcall	__sdcc_banked_call
      00015F E5 82            [12]  447 	mov	a,dpl
      000161 85 83 F0         [24]  448 	mov	b,dph
      000164 45 F0            [12]  449 	orl	a,b
      000166 70 25            [24]  450 	jnz	00111$
      000168                        451 00110$:
                                    452 ;	strtoul.c:83: base = 16;
      000168 90r00r06         [24]  453 	mov	dptr,#_strtoul_PARM_3
      00016B 74 10            [12]  454 	mov	a,#0x10
      00016D F0               [24]  455 	movx	@dptr,a
      00016E E4               [12]  456 	clr	a
      00016F A3               [24]  457 	inc	dptr
      000170 F0               [24]  458 	movx	@dptr,a
                                    459 ;	strtoul.c:84: ptr += 2;
      000171 90r00r0B         [24]  460 	mov	dptr,#_strtoul_ptr_65536_140
      000174 E0               [24]  461 	movx	a,@dptr
      000175 FB               [12]  462 	mov	r3,a
      000176 A3               [24]  463 	inc	dptr
      000177 E0               [24]  464 	movx	a,@dptr
      000178 FC               [12]  465 	mov	r4,a
      000179 A3               [24]  466 	inc	dptr
      00017A E0               [24]  467 	movx	a,@dptr
      00017B FD               [12]  468 	mov	r5,a
      00017C 90r00r0B         [24]  469 	mov	dptr,#_strtoul_ptr_65536_140
      00017F 74 02            [12]  470 	mov	a,#0x02
      000181 2B               [12]  471 	add	a,r3
      000182 F0               [24]  472 	movx	@dptr,a
      000183 E4               [12]  473 	clr	a
      000184 3C               [12]  474 	addc	a,r4
      000185 A3               [24]  475 	inc	dptr
      000186 F0               [24]  476 	movx	@dptr,a
      000187 ED               [12]  477 	mov	a,r5
      000188 A3               [24]  478 	inc	dptr
      000189 F0               [24]  479 	movx	@dptr,a
      00018A 02r02r62         [24]  480 	ljmp	00120$
      00018D                        481 00111$:
                                    482 ;	strtoul.c:86: else if (*ptr == '0')
      00018D 90r00r0B         [24]  483 	mov	dptr,#_strtoul_ptr_65536_140
      000190 E0               [24]  484 	movx	a,@dptr
      000191 FB               [12]  485 	mov	r3,a
      000192 A3               [24]  486 	inc	dptr
      000193 E0               [24]  487 	movx	a,@dptr
      000194 FC               [12]  488 	mov	r4,a
      000195 A3               [24]  489 	inc	dptr
      000196 E0               [24]  490 	movx	a,@dptr
      000197 FD               [12]  491 	mov	r5,a
      000198 8B 82            [24]  492 	mov	dpl,r3
      00019A 8C 83            [24]  493 	mov	dph,r4
      00019C 8D F0            [24]  494 	mov	b,r5
      00019E 12r00r00         [24]  495 	lcall	__gptrget
      0001A1 FA               [12]  496 	mov	r2,a
      0001A2 BA 30 19         [24]  497 	cjne	r2,#0x30,00108$
                                    498 ;	strtoul.c:88: base = 8;
      0001A5 90r00r06         [24]  499 	mov	dptr,#_strtoul_PARM_3
      0001A8 74 08            [12]  500 	mov	a,#0x08
      0001AA F0               [24]  501 	movx	@dptr,a
      0001AB E4               [12]  502 	clr	a
      0001AC A3               [24]  503 	inc	dptr
      0001AD F0               [24]  504 	movx	@dptr,a
                                    505 ;	strtoul.c:89: ptr++;
      0001AE 90r00r0B         [24]  506 	mov	dptr,#_strtoul_ptr_65536_140
      0001B1 04               [12]  507 	inc	a
      0001B2 2B               [12]  508 	add	a,r3
      0001B3 F0               [24]  509 	movx	@dptr,a
      0001B4 E4               [12]  510 	clr	a
      0001B5 3C               [12]  511 	addc	a,r4
      0001B6 A3               [24]  512 	inc	dptr
      0001B7 F0               [24]  513 	movx	@dptr,a
      0001B8 ED               [12]  514 	mov	a,r5
      0001B9 A3               [24]  515 	inc	dptr
      0001BA F0               [24]  516 	movx	@dptr,a
      0001BB 02r02r62         [24]  517 	ljmp	00120$
      0001BE                        518 00108$:
                                    519 ;	strtoul.c:92: base = 10;
      0001BE 90r00r06         [24]  520 	mov	dptr,#_strtoul_PARM_3
      0001C1 74 0A            [12]  521 	mov	a,#0x0a
      0001C3 F0               [24]  522 	movx	@dptr,a
      0001C4 E4               [12]  523 	clr	a
      0001C5 A3               [24]  524 	inc	dptr
      0001C6 F0               [24]  525 	movx	@dptr,a
      0001C7 02r02r62         [24]  526 	ljmp	00120$
      0001CA                        527 00119$:
                                    528 ;	strtoul.c:95: else if (base == 16 && (!strncmp (ptr, "0x", 2) || !strncmp (ptr, "0X", 2)))
      0001CA BE 10 05         [24]  529 	cjne	r6,#0x10,00226$
      0001CD BF 00 02         [24]  530 	cjne	r7,#0x00,00226$
      0001D0 80 03            [24]  531 	sjmp	00227$
      0001D2                        532 00226$:
      0001D2 02r02r62         [24]  533 	ljmp	00120$
      0001D5                        534 00227$:
      0001D5 90r00r0B         [24]  535 	mov	dptr,#_strtoul_ptr_65536_140
      0001D8 E0               [24]  536 	movx	a,@dptr
      0001D9 FD               [12]  537 	mov	r5,a
      0001DA A3               [24]  538 	inc	dptr
      0001DB E0               [24]  539 	movx	a,@dptr
      0001DC FE               [12]  540 	mov	r6,a
      0001DD A3               [24]  541 	inc	dptr
      0001DE E0               [24]  542 	movx	a,@dptr
      0001DF FF               [12]  543 	mov	r7,a
      0001E0 90r00r00         [24]  544 	mov	dptr,#_strncmp_PARM_2
      0001E3 74r00            [12]  545 	mov	a,#___str_0
      0001E5 F0               [24]  546 	movx	@dptr,a
      0001E6 74s00            [12]  547 	mov	a,#(___str_0 >> 8)
      0001E8 A3               [24]  548 	inc	dptr
      0001E9 F0               [24]  549 	movx	@dptr,a
      0001EA 74 80            [12]  550 	mov	a,#0x80
      0001EC A3               [24]  551 	inc	dptr
      0001ED F0               [24]  552 	movx	@dptr,a
      0001EE 90r00r00         [24]  553 	mov	dptr,#_strncmp_PARM_3
      0001F1 74 02            [12]  554 	mov	a,#0x02
      0001F3 F0               [24]  555 	movx	@dptr,a
      0001F4 E4               [12]  556 	clr	a
      0001F5 A3               [24]  557 	inc	dptr
      0001F6 F0               [24]  558 	movx	@dptr,a
      0001F7 8D 82            [24]  559 	mov	dpl,r5
      0001F9 8E 83            [24]  560 	mov	dph,r6
      0001FB 8F F0            [24]  561 	mov	b,r7
      0001FD 78r00            [12]  562 	mov	r0,#_strncmp
      0001FF 79s00            [12]  563 	mov	r1,#(_strncmp >> 8)
      000201 7As00            [12]  564 	mov	r2,#(_strncmp >> 16)
      000203 12r00r00         [24]  565 	lcall	__sdcc_banked_call
      000206 E5 82            [12]  566 	mov	a,dpl
      000208 85 83 F0         [24]  567 	mov	b,dph
      00020B 45 F0            [12]  568 	orl	a,b
      00020D 60 3A            [24]  569 	jz	00114$
      00020F 90r00r0B         [24]  570 	mov	dptr,#_strtoul_ptr_65536_140
      000212 E0               [24]  571 	movx	a,@dptr
      000213 FD               [12]  572 	mov	r5,a
      000214 A3               [24]  573 	inc	dptr
      000215 E0               [24]  574 	movx	a,@dptr
      000216 FE               [12]  575 	mov	r6,a
      000217 A3               [24]  576 	inc	dptr
      000218 E0               [24]  577 	movx	a,@dptr
      000219 FF               [12]  578 	mov	r7,a
      00021A 90r00r00         [24]  579 	mov	dptr,#_strncmp_PARM_2
      00021D 74r03            [12]  580 	mov	a,#___str_1
      00021F F0               [24]  581 	movx	@dptr,a
      000220 74s00            [12]  582 	mov	a,#(___str_1 >> 8)
      000222 A3               [24]  583 	inc	dptr
      000223 F0               [24]  584 	movx	@dptr,a
      000224 74 80            [12]  585 	mov	a,#0x80
      000226 A3               [24]  586 	inc	dptr
      000227 F0               [24]  587 	movx	@dptr,a
      000228 90r00r00         [24]  588 	mov	dptr,#_strncmp_PARM_3
      00022B 74 02            [12]  589 	mov	a,#0x02
      00022D F0               [24]  590 	movx	@dptr,a
      00022E E4               [12]  591 	clr	a
      00022F A3               [24]  592 	inc	dptr
      000230 F0               [24]  593 	movx	@dptr,a
      000231 8D 82            [24]  594 	mov	dpl,r5
      000233 8E 83            [24]  595 	mov	dph,r6
      000235 8F F0            [24]  596 	mov	b,r7
      000237 78r00            [12]  597 	mov	r0,#_strncmp
      000239 79s00            [12]  598 	mov	r1,#(_strncmp >> 8)
      00023B 7As00            [12]  599 	mov	r2,#(_strncmp >> 16)
      00023D 12r00r00         [24]  600 	lcall	__sdcc_banked_call
      000240 E5 82            [12]  601 	mov	a,dpl
      000242 85 83 F0         [24]  602 	mov	b,dph
      000245 45 F0            [12]  603 	orl	a,b
      000247 70 19            [24]  604 	jnz	00120$
      000249                        605 00114$:
                                    606 ;	strtoul.c:96: ptr += 2;
      000249 90r00r0B         [24]  607 	mov	dptr,#_strtoul_ptr_65536_140
      00024C E0               [24]  608 	movx	a,@dptr
      00024D FD               [12]  609 	mov	r5,a
      00024E A3               [24]  610 	inc	dptr
      00024F E0               [24]  611 	movx	a,@dptr
      000250 FE               [12]  612 	mov	r6,a
      000251 A3               [24]  613 	inc	dptr
      000252 E0               [24]  614 	movx	a,@dptr
      000253 FF               [12]  615 	mov	r7,a
      000254 90r00r0B         [24]  616 	mov	dptr,#_strtoul_ptr_65536_140
      000257 74 02            [12]  617 	mov	a,#0x02
      000259 2D               [12]  618 	add	a,r5
      00025A F0               [24]  619 	movx	@dptr,a
      00025B E4               [12]  620 	clr	a
      00025C 3E               [12]  621 	addc	a,r6
      00025D A3               [24]  622 	inc	dptr
      00025E F0               [24]  623 	movx	@dptr,a
      00025F EF               [12]  624 	mov	a,r7
      000260 A3               [24]  625 	inc	dptr
      000261 F0               [24]  626 	movx	@dptr,a
      000262                        627 00120$:
                                    628 ;	strtoul.c:100: if (_isdigit (*ptr, base) < 0)
      000262 90r00r0B         [24]  629 	mov	dptr,#_strtoul_ptr_65536_140
      000265 E0               [24]  630 	movx	a,@dptr
      000266 FD               [12]  631 	mov	r5,a
      000267 A3               [24]  632 	inc	dptr
      000268 E0               [24]  633 	movx	a,@dptr
      000269 FE               [12]  634 	mov	r6,a
      00026A A3               [24]  635 	inc	dptr
      00026B E0               [24]  636 	movx	a,@dptr
      00026C FF               [12]  637 	mov	r7,a
      00026D 8D 82            [24]  638 	mov	dpl,r5
      00026F 8E 83            [24]  639 	mov	dph,r6
      000271 8F F0            [24]  640 	mov	b,r7
      000273 12r00r00         [24]  641 	lcall	__gptrget
      000276 FC               [12]  642 	mov	r4,a
      000277 90r00r06         [24]  643 	mov	dptr,#_strtoul_PARM_3
      00027A E0               [24]  644 	movx	a,@dptr
      00027B FA               [12]  645 	mov	r2,a
      00027C A3               [24]  646 	inc	dptr
      00027D E0               [24]  647 	movx	a,@dptr
      00027E FB               [12]  648 	mov	r3,a
      00027F 90r00r00         [24]  649 	mov	dptr,#__isdigit_PARM_2
      000282 EA               [12]  650 	mov	a,r2
      000283 F0               [24]  651 	movx	@dptr,a
      000284 8C 82            [24]  652 	mov	dpl,r4
      000286 C0 07            [24]  653 	push	ar7
      000288 C0 06            [24]  654 	push	ar6
      00028A C0 05            [24]  655 	push	ar5
      00028C C0 03            [24]  656 	push	ar3
      00028E C0 02            [24]  657 	push	ar2
      000290 78r00            [12]  658 	mov	r0,#__isdigit
      000292 79s00            [12]  659 	mov	r1,#(__isdigit >> 8)
      000294 7As00            [12]  660 	mov	r2,#(__isdigit >> 16)
      000296 12r00r00         [24]  661 	lcall	__sdcc_banked_call
      000299 AC 82            [24]  662 	mov	r4,dpl
      00029B D0 02            [24]  663 	pop	ar2
      00029D D0 03            [24]  664 	pop	ar3
      00029F D0 05            [24]  665 	pop	ar5
      0002A1 D0 06            [24]  666 	pop	ar6
      0002A3 D0 07            [24]  667 	pop	ar7
      0002A5 EC               [12]  668 	mov	a,r4
      0002A6 30 E7 45         [24]  669 	jnb	acc.7,00124$
                                    670 ;	strtoul.c:102: if (endptr)
      0002A9 90r00r03         [24]  671 	mov	dptr,#_strtoul_PARM_2
      0002AC E0               [24]  672 	movx	a,@dptr
      0002AD F5*00            [12]  673 	mov	_strtoul_sloc0_1_0,a
      0002AF A3               [24]  674 	inc	dptr
      0002B0 E0               [24]  675 	movx	a,@dptr
      0002B1 F5*01            [12]  676 	mov	(_strtoul_sloc0_1_0 + 1),a
      0002B3 A3               [24]  677 	inc	dptr
      0002B4 E0               [24]  678 	movx	a,@dptr
      0002B5 F5*02            [12]  679 	mov	(_strtoul_sloc0_1_0 + 2),a
      0002B7 90r00r03         [24]  680 	mov	dptr,#_strtoul_PARM_2
      0002BA E0               [24]  681 	movx	a,@dptr
      0002BB F5 F0            [12]  682 	mov	b,a
      0002BD A3               [24]  683 	inc	dptr
      0002BE E0               [24]  684 	movx	a,@dptr
      0002BF 45 F0            [12]  685 	orl	a,b
      0002C1 60 22            [24]  686 	jz	00122$
                                    687 ;	strtoul.c:103: *endptr = (char*)nptr;
      0002C3 90r00r08         [24]  688 	mov	dptr,#_strtoul_nptr_65536_139
      0002C6 E0               [24]  689 	movx	a,@dptr
      0002C7 F8               [12]  690 	mov	r0,a
      0002C8 A3               [24]  691 	inc	dptr
      0002C9 E0               [24]  692 	movx	a,@dptr
      0002CA F9               [12]  693 	mov	r1,a
      0002CB A3               [24]  694 	inc	dptr
      0002CC E0               [24]  695 	movx	a,@dptr
      0002CD FC               [12]  696 	mov	r4,a
      0002CE 85*00 82         [24]  697 	mov	dpl,_strtoul_sloc0_1_0
      0002D1 85*01 83         [24]  698 	mov	dph,(_strtoul_sloc0_1_0 + 1)
      0002D4 85*02 F0         [24]  699 	mov	b,(_strtoul_sloc0_1_0 + 2)
      0002D7 E8               [12]  700 	mov	a,r0
      0002D8 12r00r00         [24]  701 	lcall	__gptrput
      0002DB A3               [24]  702 	inc	dptr
      0002DC E9               [12]  703 	mov	a,r1
      0002DD 12r00r00         [24]  704 	lcall	__gptrput
      0002E0 A3               [24]  705 	inc	dptr
      0002E1 EC               [12]  706 	mov	a,r4
      0002E2 12r00r00         [24]  707 	lcall	__gptrput
      0002E5                        708 00122$:
                                    709 ;	strtoul.c:104: return (0);
      0002E5 90 00 00         [24]  710 	mov	dptr,#(0x00&0x00ff)
      0002E8 E4               [12]  711 	clr	a
      0002E9 F5 F0            [12]  712 	mov	b,a
      0002EB 02r00r00         [24]  713 	ljmp	__sdcc_banked_ret
      0002EE                        714 00124$:
                                    715 ;	strtoul.c:107: for (ret = 0;; ptr++)
      0002EE 90r00r0E         [24]  716 	mov	dptr,#_strtoul_ret_65536_140
      0002F1 E4               [12]  717 	clr	a
      0002F2 F0               [24]  718 	movx	@dptr,a
      0002F3 A3               [24]  719 	inc	dptr
      0002F4 F0               [24]  720 	movx	@dptr,a
      0002F5 A3               [24]  721 	inc	dptr
      0002F6 F0               [24]  722 	movx	@dptr,a
      0002F7 A3               [24]  723 	inc	dptr
      0002F8 F0               [24]  724 	movx	@dptr,a
      0002F9 8A*03            [24]  725 	mov	_strtoul_sloc1_1_0,r2
      0002FB 8B*04            [24]  726 	mov	(_strtoul_sloc1_1_0 + 1),r3
      0002FD 8D*05            [24]  727 	mov	_strtoul_sloc2_1_0,r5
      0002FF 8E*06            [24]  728 	mov	(_strtoul_sloc2_1_0 + 1),r6
      000301 8F*07            [24]  729 	mov	(_strtoul_sloc2_1_0 + 2),r7
      000303                        730 00136$:
                                    731 ;	strtoul.c:110: signed char digit = _isdigit (*ptr, base);
      000303 85*05 82         [24]  732 	mov	dpl,_strtoul_sloc2_1_0
      000306 85*06 83         [24]  733 	mov	dph,(_strtoul_sloc2_1_0 + 1)
      000309 85*07 F0         [24]  734 	mov	b,(_strtoul_sloc2_1_0 + 2)
      00030C 12r00r00         [24]  735 	lcall	__gptrget
      00030F FA               [12]  736 	mov	r2,a
      000310 90r00r00         [24]  737 	mov	dptr,#__isdigit_PARM_2
      000313 E5*03            [12]  738 	mov	a,_strtoul_sloc1_1_0
      000315 F0               [24]  739 	movx	@dptr,a
      000316 8A 82            [24]  740 	mov	dpl,r2
      000318 78r00            [12]  741 	mov	r0,#__isdigit
      00031A 79s00            [12]  742 	mov	r1,#(__isdigit >> 8)
      00031C 7As00            [12]  743 	mov	r2,#(__isdigit >> 16)
      00031E 12r00r00         [24]  744 	lcall	__sdcc_banked_call
                                    745 ;	strtoul.c:112: if (digit < 0)
      000321 E5 82            [12]  746 	mov	a,dpl
      000323 F5*00            [12]  747 	mov	_strtoul_sloc0_1_0,a
      000325 30 E7 03         [24]  748 	jnb	acc.7,00232$
      000328 02r04r62         [24]  749 	ljmp	00127$
      00032B                        750 00232$:
                                    751 ;	strtoul.c:117: range_error |= ckd_mul(&ret, ret, base);
      00032B 85*03*08         [24]  752 	mov	_strtoul_sloc3_1_0,_strtoul_sloc1_1_0
      00032E E5*04            [12]  753 	mov	a,(_strtoul_sloc1_1_0 + 1)
      000330 F5*09            [12]  754 	mov	(_strtoul_sloc3_1_0 + 1),a
      000332 33               [12]  755 	rlc	a
      000333 95 E0            [12]  756 	subb	a,acc
      000335 F5*0A            [12]  757 	mov	(_strtoul_sloc3_1_0 + 2),a
      000337 F5*0B            [12]  758 	mov	(_strtoul_sloc3_1_0 + 3),a
      000339 F5*0C            [12]  759 	mov	(_strtoul_sloc3_1_0 + 4),a
      00033B F5*0D            [12]  760 	mov	(_strtoul_sloc3_1_0 + 5),a
      00033D F5*0E            [12]  761 	mov	(_strtoul_sloc3_1_0 + 6),a
      00033F F5*0F            [12]  762 	mov	(_strtoul_sloc3_1_0 + 7),a
      000341 90r00r0E         [24]  763 	mov	dptr,#_strtoul_ret_65536_140
      000344 E0               [24]  764 	movx	a,@dptr
      000345 FC               [12]  765 	mov	r4,a
      000346 A3               [24]  766 	inc	dptr
      000347 E0               [24]  767 	movx	a,@dptr
      000348 FD               [12]  768 	mov	r5,a
      000349 A3               [24]  769 	inc	dptr
      00034A E0               [24]  770 	movx	a,@dptr
      00034B FE               [12]  771 	mov	r6,a
      00034C A3               [24]  772 	inc	dptr
      00034D E0               [24]  773 	movx	a,@dptr
      00034E FF               [12]  774 	mov	r7,a
      00034F 8C 00            [24]  775 	mov	ar0,r4
      000351 8D 01            [24]  776 	mov	ar1,r5
      000353 8E 02            [24]  777 	mov	ar2,r6
      000355 8F 03            [24]  778 	mov	ar3,r7
      000357 7C 00            [12]  779 	mov	r4,#0x00
      000359 7D 00            [12]  780 	mov	r5,#0x00
      00035B 7E 00            [12]  781 	mov	r6,#0x00
      00035D 7F 00            [12]  782 	mov	r7,#0x00
                                    783 ;	../../device/include/stdckdint.h:76: inline _Bool __ckd_mul_ulong __CKD_DEFAULT_IMPL(unsigned long, *)
      00035F 90r00r00         [24]  784 	mov	dptr,#__mullonglong_PARM_2
      000362 E5*08            [12]  785 	mov	a,_strtoul_sloc3_1_0
      000364 F0               [24]  786 	movx	@dptr,a
      000365 E5*09            [12]  787 	mov	a,(_strtoul_sloc3_1_0 + 1)
      000367 A3               [24]  788 	inc	dptr
      000368 F0               [24]  789 	movx	@dptr,a
      000369 E5*0A            [12]  790 	mov	a,(_strtoul_sloc3_1_0 + 2)
      00036B A3               [24]  791 	inc	dptr
      00036C F0               [24]  792 	movx	@dptr,a
      00036D E5*0B            [12]  793 	mov	a,(_strtoul_sloc3_1_0 + 3)
      00036F A3               [24]  794 	inc	dptr
      000370 F0               [24]  795 	movx	@dptr,a
      000371 E5*0C            [12]  796 	mov	a,(_strtoul_sloc3_1_0 + 4)
      000373 A3               [24]  797 	inc	dptr
      000374 F0               [24]  798 	movx	@dptr,a
      000375 E5*0D            [12]  799 	mov	a,(_strtoul_sloc3_1_0 + 5)
      000377 A3               [24]  800 	inc	dptr
      000378 F0               [24]  801 	movx	@dptr,a
      000379 E5*0E            [12]  802 	mov	a,(_strtoul_sloc3_1_0 + 6)
      00037B A3               [24]  803 	inc	dptr
      00037C F0               [24]  804 	movx	@dptr,a
      00037D E5*0F            [12]  805 	mov	a,(_strtoul_sloc3_1_0 + 7)
      00037F A3               [24]  806 	inc	dptr
      000380 F0               [24]  807 	movx	@dptr,a
      000381 88 82            [24]  808 	mov	dpl,r0
      000383 89 83            [24]  809 	mov	dph,r1
      000385 8A F0            [24]  810 	mov	b,r2
      000387 EB               [12]  811 	mov	a,r3
      000388 12r00r00         [24]  812 	lcall	__mullonglong
      00038B A8 82            [24]  813 	mov	r0,dpl
      00038D A9 83            [24]  814 	mov	r1,dph
      00038F AA F0            [24]  815 	mov	r2,b
      000391 FB               [12]  816 	mov	r3,a
      000392 90r00r15         [24]  817 	mov	dptr,#_strtoul_result_393216_157
      000395 E8               [12]  818 	mov	a,r0
      000396 F0               [24]  819 	movx	@dptr,a
      000397 E9               [12]  820 	mov	a,r1
      000398 A3               [24]  821 	inc	dptr
      000399 F0               [24]  822 	movx	@dptr,a
      00039A EA               [12]  823 	mov	a,r2
      00039B A3               [24]  824 	inc	dptr
      00039C F0               [24]  825 	movx	@dptr,a
      00039D EB               [12]  826 	mov	a,r3
      00039E A3               [24]  827 	inc	dptr
      00039F F0               [24]  828 	movx	@dptr,a
      0003A0 EC               [12]  829 	mov	a,r4
      0003A1 A3               [24]  830 	inc	dptr
      0003A2 F0               [24]  831 	movx	@dptr,a
      0003A3 ED               [12]  832 	mov	a,r5
      0003A4 A3               [24]  833 	inc	dptr
      0003A5 F0               [24]  834 	movx	@dptr,a
      0003A6 EE               [12]  835 	mov	a,r6
      0003A7 A3               [24]  836 	inc	dptr
      0003A8 F0               [24]  837 	movx	@dptr,a
      0003A9 EF               [12]  838 	mov	a,r7
      0003AA A3               [24]  839 	inc	dptr
      0003AB F0               [24]  840 	movx	@dptr,a
      0003AC 88*08            [24]  841 	mov	_strtoul_sloc3_1_0,r0
      0003AE 89*09            [24]  842 	mov	(_strtoul_sloc3_1_0 + 1),r1
      0003B0 8A*0A            [24]  843 	mov	(_strtoul_sloc3_1_0 + 2),r2
      0003B2 8B*0B            [24]  844 	mov	(_strtoul_sloc3_1_0 + 3),r3
      0003B4 90r00r0E         [24]  845 	mov	dptr,#_strtoul_ret_65536_140
      0003B7 E5*08            [12]  846 	mov	a,_strtoul_sloc3_1_0
      0003B9 F0               [24]  847 	movx	@dptr,a
      0003BA E5*09            [12]  848 	mov	a,(_strtoul_sloc3_1_0 + 1)
      0003BC A3               [24]  849 	inc	dptr
      0003BD F0               [24]  850 	movx	@dptr,a
      0003BE E5*0A            [12]  851 	mov	a,(_strtoul_sloc3_1_0 + 2)
      0003C0 A3               [24]  852 	inc	dptr
      0003C1 F0               [24]  853 	movx	@dptr,a
      0003C2 E5*0B            [12]  854 	mov	a,(_strtoul_sloc3_1_0 + 3)
      0003C4 A3               [24]  855 	inc	dptr
      0003C5 F0               [24]  856 	movx	@dptr,a
      0003C6 90r00r15         [24]  857 	mov	dptr,#_strtoul_result_393216_157
      0003C9 E0               [24]  858 	movx	a,@dptr
      0003CA F5*10            [12]  859 	mov	_strtoul_sloc4_1_0,a
      0003CC A3               [24]  860 	inc	dptr
      0003CD E0               [24]  861 	movx	a,@dptr
      0003CE F5*11            [12]  862 	mov	(_strtoul_sloc4_1_0 + 1),a
      0003D0 A3               [24]  863 	inc	dptr
      0003D1 E0               [24]  864 	movx	a,@dptr
      0003D2 F5*12            [12]  865 	mov	(_strtoul_sloc4_1_0 + 2),a
      0003D4 A3               [24]  866 	inc	dptr
      0003D5 E0               [24]  867 	movx	a,@dptr
      0003D6 F5*13            [12]  868 	mov	(_strtoul_sloc4_1_0 + 3),a
      0003D8 A3               [24]  869 	inc	dptr
      0003D9 E0               [24]  870 	movx	a,@dptr
      0003DA F5*14            [12]  871 	mov	(_strtoul_sloc4_1_0 + 4),a
      0003DC A3               [24]  872 	inc	dptr
      0003DD E0               [24]  873 	movx	a,@dptr
      0003DE F5*15            [12]  874 	mov	(_strtoul_sloc4_1_0 + 5),a
      0003E0 A3               [24]  875 	inc	dptr
      0003E1 E0               [24]  876 	movx	a,@dptr
      0003E2 F5*16            [12]  877 	mov	(_strtoul_sloc4_1_0 + 6),a
      0003E4 A3               [24]  878 	inc	dptr
      0003E5 E0               [24]  879 	movx	a,@dptr
      0003E6 F5*17            [12]  880 	mov	(_strtoul_sloc4_1_0 + 7),a
      0003E8 A8*08            [24]  881 	mov	r0,_strtoul_sloc3_1_0
      0003EA A9*09            [24]  882 	mov	r1,(_strtoul_sloc3_1_0 + 1)
      0003EC AA*0A            [24]  883 	mov	r2,(_strtoul_sloc3_1_0 + 2)
      0003EE AB*0B            [24]  884 	mov	r3,(_strtoul_sloc3_1_0 + 3)
      0003F0 E4               [12]  885 	clr	a
      0003F1 FC               [12]  886 	mov	r4,a
      0003F2 FD               [12]  887 	mov	r5,a
      0003F3 FE               [12]  888 	mov	r6,a
      0003F4 FF               [12]  889 	mov	r7,a
      0003F5 E8               [12]  890 	mov	a,r0
      0003F6 B5*10 1F         [24]  891 	cjne	a,_strtoul_sloc4_1_0,00233$
      0003F9 E9               [12]  892 	mov	a,r1
      0003FA B5*11 1B         [24]  893 	cjne	a,(_strtoul_sloc4_1_0 + 1),00233$
      0003FD EA               [12]  894 	mov	a,r2
      0003FE B5*12 17         [24]  895 	cjne	a,(_strtoul_sloc4_1_0 + 2),00233$
      000401 EB               [12]  896 	mov	a,r3
      000402 B5*13 13         [24]  897 	cjne	a,(_strtoul_sloc4_1_0 + 3),00233$
      000405 EC               [12]  898 	mov	a,r4
      000406 B5*14 0F         [24]  899 	cjne	a,(_strtoul_sloc4_1_0 + 4),00233$
      000409 ED               [12]  900 	mov	a,r5
      00040A B5*15 0B         [24]  901 	cjne	a,(_strtoul_sloc4_1_0 + 5),00233$
      00040D EE               [12]  902 	mov	a,r6
      00040E B5*16 07         [24]  903 	cjne	a,(_strtoul_sloc4_1_0 + 6),00233$
      000411 EF               [12]  904 	mov	a,r7
      000412 B5*17 03         [24]  905 	cjne	a,(_strtoul_sloc4_1_0 + 7),00233$
      000415 D3               [12]  906 	setb	c
      000416 80 01            [24]  907 	sjmp	00234$
      000418                        908 00233$:
      000418 C3               [12]  909 	clr	c
      000419                        910 00234$:
      000419 92*00            [24]  911 	mov	_strtoul_sloc5_1_0,c
      00041B 90r00r14         [24]  912 	mov	dptr,#_strtoul___2621440012_262144_147
      00041E B3               [12]  913 	cpl	c
      00041F E4               [12]  914 	clr	a
      000420 33               [12]  915 	rlc	a
      000421 F0               [24]  916 	movx	@dptr,a
                                    917 ;	strtoul.c:117: range_error |= ckd_mul(&ret, ret, base);
      000422 90r00r14         [24]  918 	mov	dptr,#_strtoul___2621440012_262144_147
      000425 E0               [24]  919 	movx	a,@dptr
      000426 FF               [12]  920 	mov	r7,a
      000427 90r00r12         [24]  921 	mov	dptr,#_strtoul_range_error_65536_140
      00042A E0               [24]  922 	movx	a,@dptr
      00042B 4F               [12]  923 	orl	a,r7
      00042C F0               [24]  924 	movx	@dptr,a
                                    925 ;	strtoul.c:125: ret += (unsigned char)digit;
      00042D AA*00            [24]  926 	mov	r2,_strtoul_sloc0_1_0
      00042F 90r00r0E         [24]  927 	mov	dptr,#_strtoul_ret_65536_140
      000432 E0               [24]  928 	movx	a,@dptr
      000433 FC               [12]  929 	mov	r4,a
      000434 A3               [24]  930 	inc	dptr
      000435 E0               [24]  931 	movx	a,@dptr
      000436 FD               [12]  932 	mov	r5,a
      000437 A3               [24]  933 	inc	dptr
      000438 E0               [24]  934 	movx	a,@dptr
      000439 FE               [12]  935 	mov	r6,a
      00043A A3               [24]  936 	inc	dptr
      00043B E0               [24]  937 	movx	a,@dptr
      00043C FF               [12]  938 	mov	r7,a
      00043D 8A 00            [24]  939 	mov	ar0,r2
      00043F 79 00            [12]  940 	mov	r1,#0x00
      000441 7A 00            [12]  941 	mov	r2,#0x00
      000443 7B 00            [12]  942 	mov	r3,#0x00
      000445 90r00r0E         [24]  943 	mov	dptr,#_strtoul_ret_65536_140
      000448 E8               [12]  944 	mov	a,r0
      000449 2C               [12]  945 	add	a,r4
      00044A F0               [24]  946 	movx	@dptr,a
      00044B E9               [12]  947 	mov	a,r1
      00044C 3D               [12]  948 	addc	a,r5
      00044D A3               [24]  949 	inc	dptr
      00044E F0               [24]  950 	movx	@dptr,a
      00044F EA               [12]  951 	mov	a,r2
      000450 3E               [12]  952 	addc	a,r6
      000451 A3               [24]  953 	inc	dptr
      000452 F0               [24]  954 	movx	@dptr,a
      000453 EB               [12]  955 	mov	a,r3
      000454 3F               [12]  956 	addc	a,r7
      000455 A3               [24]  957 	inc	dptr
      000456 F0               [24]  958 	movx	@dptr,a
                                    959 ;	strtoul.c:107: for (ret = 0;; ptr++)
      000457 05*05            [12]  960 	inc	_strtoul_sloc2_1_0
      000459 E4               [12]  961 	clr	a
      00045A B5*05 02         [24]  962 	cjne	a,_strtoul_sloc2_1_0,00235$
      00045D 05*06            [12]  963 	inc	(_strtoul_sloc2_1_0 + 1)
      00045F                        964 00235$:
      00045F 02r03r03         [24]  965 	ljmp	00136$
      000462                        966 00127$:
                                    967 ;	strtoul.c:128: if (endptr)
      000462 90r00r03         [24]  968 	mov	dptr,#_strtoul_PARM_2
      000465 E0               [24]  969 	movx	a,@dptr
      000466 FD               [12]  970 	mov	r5,a
      000467 A3               [24]  971 	inc	dptr
      000468 E0               [24]  972 	movx	a,@dptr
      000469 FE               [12]  973 	mov	r6,a
      00046A A3               [24]  974 	inc	dptr
      00046B E0               [24]  975 	movx	a,@dptr
      00046C FF               [12]  976 	mov	r7,a
      00046D 90r00r03         [24]  977 	mov	dptr,#_strtoul_PARM_2
      000470 E0               [24]  978 	movx	a,@dptr
      000471 F5 F0            [12]  979 	mov	b,a
      000473 A3               [24]  980 	inc	dptr
      000474 E0               [24]  981 	movx	a,@dptr
      000475 45 F0            [12]  982 	orl	a,b
      000477 60 17            [24]  983 	jz	00129$
                                    984 ;	strtoul.c:129: *endptr = (char*)ptr;
      000479 8D 82            [24]  985 	mov	dpl,r5
      00047B 8E 83            [24]  986 	mov	dph,r6
      00047D 8F F0            [24]  987 	mov	b,r7
      00047F E5*05            [12]  988 	mov	a,_strtoul_sloc2_1_0
      000481 12r00r00         [24]  989 	lcall	__gptrput
      000484 A3               [24]  990 	inc	dptr
      000485 E5*06            [12]  991 	mov	a,(_strtoul_sloc2_1_0 + 1)
      000487 12r00r00         [24]  992 	lcall	__gptrput
      00048A A3               [24]  993 	inc	dptr
      00048B E5*07            [12]  994 	mov	a,(_strtoul_sloc2_1_0 + 2)
      00048D 12r00r00         [24]  995 	lcall	__gptrput
      000490                        996 00129$:
                                    997 ;	strtoul.c:131: if (range_error)
      000490 90r00r12         [24]  998 	mov	dptr,#_strtoul_range_error_65536_140
      000493 E0               [24]  999 	movx	a,@dptr
      000494 60 12            [24] 1000 	jz	00131$
                                   1001 ;	strtoul.c:133: errno = ERANGE;
      000496 90r00r00         [24] 1002 	mov	dptr,#_errno
      000499 74 22            [12] 1003 	mov	a,#0x22
      00049B F0               [24] 1004 	movx	@dptr,a
      00049C E4               [12] 1005 	clr	a
      00049D A3               [24] 1006 	inc	dptr
      00049E F0               [24] 1007 	movx	@dptr,a
                                   1008 ;	strtoul.c:134: return (ULONG_MAX);
      00049F 90 FF FF         [24] 1009 	mov	dptr,#0xffff
      0004A2 74 FF            [12] 1010 	mov	a,#0xff
      0004A4 F5 F0            [12] 1011 	mov	b,a
      0004A6 80 38            [24] 1012 	sjmp	00138$
      0004A8                       1013 00131$:
                                   1014 ;	strtoul.c:137: return (neg ? -ret : ret);
      0004A8 90r00r13         [24] 1015 	mov	dptr,#_strtoul_neg_65536_140
      0004AB E0               [24] 1016 	movx	a,@dptr
      0004AC 60 1D            [24] 1017 	jz	00143$
      0004AE 90r00r0E         [24] 1018 	mov	dptr,#_strtoul_ret_65536_140
      0004B1 E0               [24] 1019 	movx	a,@dptr
      0004B2 FC               [12] 1020 	mov	r4,a
      0004B3 A3               [24] 1021 	inc	dptr
      0004B4 E0               [24] 1022 	movx	a,@dptr
      0004B5 FD               [12] 1023 	mov	r5,a
      0004B6 A3               [24] 1024 	inc	dptr
      0004B7 E0               [24] 1025 	movx	a,@dptr
      0004B8 FE               [12] 1026 	mov	r6,a
      0004B9 A3               [24] 1027 	inc	dptr
      0004BA E0               [24] 1028 	movx	a,@dptr
      0004BB FF               [12] 1029 	mov	r7,a
      0004BC C3               [12] 1030 	clr	c
      0004BD E4               [12] 1031 	clr	a
      0004BE 9C               [12] 1032 	subb	a,r4
      0004BF FC               [12] 1033 	mov	r4,a
      0004C0 E4               [12] 1034 	clr	a
      0004C1 9D               [12] 1035 	subb	a,r5
      0004C2 FD               [12] 1036 	mov	r5,a
      0004C3 E4               [12] 1037 	clr	a
      0004C4 9E               [12] 1038 	subb	a,r6
      0004C5 FE               [12] 1039 	mov	r6,a
      0004C6 E4               [12] 1040 	clr	a
      0004C7 9F               [12] 1041 	subb	a,r7
      0004C8 FF               [12] 1042 	mov	r7,a
      0004C9 80 0E            [24] 1043 	sjmp	00144$
      0004CB                       1044 00143$:
      0004CB 90r00r0E         [24] 1045 	mov	dptr,#_strtoul_ret_65536_140
      0004CE E0               [24] 1046 	movx	a,@dptr
      0004CF FC               [12] 1047 	mov	r4,a
      0004D0 A3               [24] 1048 	inc	dptr
      0004D1 E0               [24] 1049 	movx	a,@dptr
      0004D2 FD               [12] 1050 	mov	r5,a
      0004D3 A3               [24] 1051 	inc	dptr
      0004D4 E0               [24] 1052 	movx	a,@dptr
      0004D5 FE               [12] 1053 	mov	r6,a
      0004D6 A3               [24] 1054 	inc	dptr
      0004D7 E0               [24] 1055 	movx	a,@dptr
      0004D8 FF               [12] 1056 	mov	r7,a
      0004D9                       1057 00144$:
      0004D9 8C 82            [24] 1058 	mov	dpl,r4
      0004DB 8D 83            [24] 1059 	mov	dph,r5
      0004DD 8E F0            [24] 1060 	mov	b,r6
      0004DF EF               [12] 1061 	mov	a,r7
      0004E0                       1062 00138$:
                                   1063 ;	strtoul.c:138: }
      0004E0 02r00r00         [24] 1064 	ljmp	__sdcc_banked_ret
                                   1065 	.area CSEG    (CODE)
                                   1066 	.area CONST   (CODE)
                                   1067 	.area CONST   (CODE)
      000000                       1068 ___str_0:
      000000 30 78                 1069 	.ascii "0x"
      000002 00                    1070 	.db 0x00
                                   1071 	.area CSEG    (CODE)
                                   1072 	.area CONST   (CODE)
      000003                       1073 ___str_1:
      000003 30 58                 1074 	.ascii "0X"
      000005 00                    1075 	.db 0x00
                                   1076 	.area CSEG    (CODE)
                                   1077 	.area XINIT   (CODE)
                                   1078 	.area CABS    (ABS,CODE)
