                                      1 ;--------------------------------------------------------
                                      2 ; File Created by SDCC : free open source ISO C Compiler 
                                      3 ; Version 4.2.14 #0 (Linux)
                                      4 ;--------------------------------------------------------
                                      5 	.module tancotf
                                      6 	.optsdcc -mmcs51 --model-huge
                                      7 	
                                      8 ;--------------------------------------------------------
                                      9 ; Public variables in this module
                                     10 ;--------------------------------------------------------
                                     11 	.globl _tancotf
                                     12 	.globl _fabsf
                                     13 	.globl _tancotf_PARM_2
                                     14 ;--------------------------------------------------------
                                     15 ; special function registers
                                     16 ;--------------------------------------------------------
                                     17 	.area RSEG    (ABS,DATA)
      000000                         18 	.org 0x0000
                                     19 ;--------------------------------------------------------
                                     20 ; special function bits
                                     21 ;--------------------------------------------------------
                                     22 	.area RSEG    (ABS,DATA)
      000000                         23 	.org 0x0000
                                     24 ;--------------------------------------------------------
                                     25 ; overlayable register banks
                                     26 ;--------------------------------------------------------
                                     27 	.area REG_BANK_0	(REL,OVR,DATA)
      000000                         28 	.ds 8
                                     29 ;--------------------------------------------------------
                                     30 ; internal ram data
                                     31 ;--------------------------------------------------------
                                     32 	.area DSEG    (DATA)
      000000                         33 _tancotf_sloc0_1_0:
      000000                         34 	.ds 2
      000002                         35 _tancotf_sloc1_1_0:
      000002                         36 	.ds 4
      000006                         37 _tancotf_sloc2_1_0:
      000006                         38 	.ds 4
                                     39 ;--------------------------------------------------------
                                     40 ; overlayable items in internal ram
                                     41 ;--------------------------------------------------------
                                     42 ;--------------------------------------------------------
                                     43 ; indirectly addressable internal ram data
                                     44 ;--------------------------------------------------------
                                     45 	.area ISEG    (DATA)
                                     46 ;--------------------------------------------------------
                                     47 ; absolute internal ram data
                                     48 ;--------------------------------------------------------
                                     49 	.area IABS    (ABS,DATA)
                                     50 	.area IABS    (ABS,DATA)
                                     51 ;--------------------------------------------------------
                                     52 ; bit data
                                     53 ;--------------------------------------------------------
                                     54 	.area BSEG    (BIT)
                                     55 ;--------------------------------------------------------
                                     56 ; paged external ram data
                                     57 ;--------------------------------------------------------
                                     58 	.area PSEG    (PAG,XDATA)
                                     59 ;--------------------------------------------------------
                                     60 ; uninitialized external ram data
                                     61 ;--------------------------------------------------------
                                     62 	.area XSEG    (XDATA)
      000000                         63 _tancotf_PARM_2:
      000000                         64 	.ds 1
      000001                         65 _tancotf_x_65536_25:
      000001                         66 	.ds 4
      000005                         67 _tancotf_xnum_65536_26:
      000005                         68 	.ds 4
      000009                         69 _tancotf_xden_65536_26:
      000009                         70 	.ds 4
                                     71 ;--------------------------------------------------------
                                     72 ; absolute external ram data
                                     73 ;--------------------------------------------------------
                                     74 	.area XABS    (ABS,XDATA)
                                     75 ;--------------------------------------------------------
                                     76 ; initialized external ram data
                                     77 ;--------------------------------------------------------
                                     78 	.area XISEG   (XDATA)
                                     79 	.area HOME    (CODE)
                                     80 	.area GSINIT0 (CODE)
                                     81 	.area GSINIT1 (CODE)
                                     82 	.area GSINIT2 (CODE)
                                     83 	.area GSINIT3 (CODE)
                                     84 	.area GSINIT4 (CODE)
                                     85 	.area GSINIT5 (CODE)
                                     86 	.area GSINIT  (CODE)
                                     87 	.area GSFINAL (CODE)
                                     88 	.area CSEG    (CODE)
                                     89 ;--------------------------------------------------------
                                     90 ; global & static initialisations
                                     91 ;--------------------------------------------------------
                                     92 	.area HOME    (CODE)
                                     93 	.area GSINIT  (CODE)
                                     94 	.area GSFINAL (CODE)
                                     95 	.area GSINIT  (CODE)
                                     96 ;--------------------------------------------------------
                                     97 ; Home
                                     98 ;--------------------------------------------------------
                                     99 	.area HOME    (CODE)
                                    100 	.area HOME    (CODE)
                                    101 ;--------------------------------------------------------
                                    102 ; code
                                    103 ;--------------------------------------------------------
                                    104 	.area CSEG    (CODE)
                                    105 ;------------------------------------------------------------
                                    106 ;Allocation info for local variables in function 'tancotf'
                                    107 ;------------------------------------------------------------
                                    108 ;sloc0                     Allocated with name '_tancotf_sloc0_1_0'
                                    109 ;sloc1                     Allocated with name '_tancotf_sloc1_1_0'
                                    110 ;sloc2                     Allocated with name '_tancotf_sloc2_1_0'
                                    111 ;iscotan                   Allocated with name '_tancotf_PARM_2'
                                    112 ;x                         Allocated with name '_tancotf_x_65536_25'
                                    113 ;f                         Allocated with name '_tancotf_f_65536_26'
                                    114 ;g                         Allocated with name '_tancotf_g_65536_26'
                                    115 ;xn                        Allocated with name '_tancotf_xn_65536_26'
                                    116 ;xnum                      Allocated with name '_tancotf_xnum_65536_26'
                                    117 ;xden                      Allocated with name '_tancotf_xden_65536_26'
                                    118 ;n                         Allocated with name '_tancotf_n_65536_26'
                                    119 ;------------------------------------------------------------
                                    120 ;	tancotf.c:53: float tancotf(float x, bool iscotan)
                                    121 ;	-----------------------------------------
                                    122 ;	 function tancotf
                                    123 ;	-----------------------------------------
      000000                        124 _tancotf:
                           000007   125 	ar7 = 0x07
                           000006   126 	ar6 = 0x06
                           000005   127 	ar5 = 0x05
                           000004   128 	ar4 = 0x04
                           000003   129 	ar3 = 0x03
                           000002   130 	ar2 = 0x02
                           000001   131 	ar1 = 0x01
                           000000   132 	ar0 = 0x00
      000000 AF 82            [24]  133 	mov	r7,dpl
      000002 AE 83            [24]  134 	mov	r6,dph
      000004 AD F0            [24]  135 	mov	r5,b
      000006 FC               [12]  136 	mov	r4,a
      000007 90r00r01         [24]  137 	mov	dptr,#_tancotf_x_65536_25
      00000A EF               [12]  138 	mov	a,r7
      00000B F0               [24]  139 	movx	@dptr,a
      00000C EE               [12]  140 	mov	a,r6
      00000D A3               [24]  141 	inc	dptr
      00000E F0               [24]  142 	movx	@dptr,a
      00000F ED               [12]  143 	mov	a,r5
      000010 A3               [24]  144 	inc	dptr
      000011 F0               [24]  145 	movx	@dptr,a
      000012 EC               [12]  146 	mov	a,r4
      000013 A3               [24]  147 	inc	dptr
      000014 F0               [24]  148 	movx	@dptr,a
                                    149 ;	tancotf.c:58: if (fabsf(x) > YMAX)
      000015 90r00r01         [24]  150 	mov	dptr,#_tancotf_x_65536_25
      000018 E0               [24]  151 	movx	a,@dptr
      000019 FC               [12]  152 	mov	r4,a
      00001A A3               [24]  153 	inc	dptr
      00001B E0               [24]  154 	movx	a,@dptr
      00001C FD               [12]  155 	mov	r5,a
      00001D A3               [24]  156 	inc	dptr
      00001E E0               [24]  157 	movx	a,@dptr
      00001F FE               [12]  158 	mov	r6,a
      000020 A3               [24]  159 	inc	dptr
      000021 E0               [24]  160 	movx	a,@dptr
      000022 FF               [12]  161 	mov	r7,a
      000023 8C 82            [24]  162 	mov	dpl,r4
      000025 8D 83            [24]  163 	mov	dph,r5
      000027 8E F0            [24]  164 	mov	b,r6
      000029 C0 07            [24]  165 	push	ar7
      00002B C0 06            [24]  166 	push	ar6
      00002D C0 05            [24]  167 	push	ar5
      00002F C0 04            [24]  168 	push	ar4
      000031 78r00            [12]  169 	mov	r0,#_fabsf
      000033 79s00            [12]  170 	mov	r1,#(_fabsf >> 8)
      000035 7As00            [12]  171 	mov	r2,#(_fabsf >> 16)
      000037 12r00r00         [24]  172 	lcall	__sdcc_banked_call
      00003A A8 82            [24]  173 	mov	r0,dpl
      00003C A9 83            [24]  174 	mov	r1,dph
      00003E AA F0            [24]  175 	mov	r2,b
      000040 FB               [12]  176 	mov	r3,a
      000041 C0 00            [24]  177 	push	ar0
      000043 C0 01            [24]  178 	push	ar1
      000045 C0 02            [24]  179 	push	ar2
      000047 C0 03            [24]  180 	push	ar3
      000049 90 08 00         [24]  181 	mov	dptr,#0x0800
      00004C 75 F0 C9         [24]  182 	mov	b,#0xc9
      00004F 74 45            [12]  183 	mov	a,#0x45
      000051 12r00r00         [24]  184 	lcall	___fslt
      000054 AB 82            [24]  185 	mov	r3,dpl
      000056 E5 81            [12]  186 	mov	a,sp
      000058 24 FC            [12]  187 	add	a,#0xfc
      00005A F5 81            [12]  188 	mov	sp,a
      00005C D0 04            [24]  189 	pop	ar4
      00005E D0 05            [24]  190 	pop	ar5
      000060 D0 06            [24]  191 	pop	ar6
      000062 D0 07            [24]  192 	pop	ar7
      000064 EB               [12]  193 	mov	a,r3
      000065 60 11            [24]  194 	jz	00102$
                                    195 ;	tancotf.c:60: errno = ERANGE;
      000067 90r00r00         [24]  196 	mov	dptr,#_errno
      00006A 74 22            [12]  197 	mov	a,#0x22
      00006C F0               [24]  198 	movx	@dptr,a
      00006D E4               [12]  199 	clr	a
      00006E A3               [24]  200 	inc	dptr
      00006F F0               [24]  201 	movx	@dptr,a
                                    202 ;	tancotf.c:61: return 0.0;
      000070 90 00 00         [24]  203 	mov	dptr,#0x0000
      000073 F5 F0            [12]  204 	mov	b,a
      000075 02r00r00         [24]  205 	ljmp	__sdcc_banked_ret
      000078                        206 00102$:
                                    207 ;	tancotf.c:65: n=(x*TWO_O_PI+(x>0.0?0.5:-0.5)); /*works for +-x*/
      000078 C0 07            [24]  208 	push	ar7
      00007A C0 06            [24]  209 	push	ar6
      00007C C0 05            [24]  210 	push	ar5
      00007E C0 04            [24]  211 	push	ar4
      000080 C0 04            [24]  212 	push	ar4
      000082 C0 05            [24]  213 	push	ar5
      000084 C0 06            [24]  214 	push	ar6
      000086 C0 07            [24]  215 	push	ar7
      000088 90 F9 83         [24]  216 	mov	dptr,#0xf983
      00008B 75 F0 22         [24]  217 	mov	b,#0x22
      00008E 74 3F            [12]  218 	mov	a,#0x3f
      000090 12r00r00         [24]  219 	lcall	___fsmul
      000093 A8 82            [24]  220 	mov	r0,dpl
      000095 A9 83            [24]  221 	mov	r1,dph
      000097 AA F0            [24]  222 	mov	r2,b
      000099 FB               [12]  223 	mov	r3,a
      00009A E5 81            [12]  224 	mov	a,sp
      00009C 24 FC            [12]  225 	add	a,#0xfc
      00009E F5 81            [12]  226 	mov	sp,a
      0000A0 D0 04            [24]  227 	pop	ar4
      0000A2 D0 05            [24]  228 	pop	ar5
      0000A4 D0 06            [24]  229 	pop	ar6
      0000A6 D0 07            [24]  230 	pop	ar7
      0000A8 C0 03            [24]  231 	push	ar3
      0000AA C0 02            [24]  232 	push	ar2
      0000AC C0 01            [24]  233 	push	ar1
      0000AE C0 00            [24]  234 	push	ar0
      0000B0 C0 04            [24]  235 	push	ar4
      0000B2 C0 05            [24]  236 	push	ar5
      0000B4 C0 06            [24]  237 	push	ar6
      0000B6 C0 07            [24]  238 	push	ar7
      0000B8 90 00 00         [24]  239 	mov	dptr,#(0x00&0x00ff)
      0000BB E4               [12]  240 	clr	a
      0000BC F5 F0            [12]  241 	mov	b,a
      0000BE 12r00r00         [24]  242 	lcall	___fslt
      0000C1 AF 82            [24]  243 	mov	r7,dpl
      0000C3 E5 81            [12]  244 	mov	a,sp
      0000C5 24 FC            [12]  245 	add	a,#0xfc
      0000C7 F5 81            [12]  246 	mov	sp,a
      0000C9 D0 00            [24]  247 	pop	ar0
      0000CB D0 01            [24]  248 	pop	ar1
      0000CD D0 02            [24]  249 	pop	ar2
      0000CF D0 03            [24]  250 	pop	ar3
      0000D1 EF               [12]  251 	mov	a,r7
      0000D2 60 0A            [24]  252 	jz	00117$
      0000D4 7C 00            [12]  253 	mov	r4,#0x00
      0000D6 7D 00            [12]  254 	mov	r5,#0x00
      0000D8 7E 00            [12]  255 	mov	r6,#0x00
      0000DA 7F 3F            [12]  256 	mov	r7,#0x3f
      0000DC 80 08            [24]  257 	sjmp	00118$
      0000DE                        258 00117$:
      0000DE 7C 00            [12]  259 	mov	r4,#0x00
      0000E0 7D 00            [12]  260 	mov	r5,#0x00
      0000E2 7E 00            [12]  261 	mov	r6,#0x00
      0000E4 7F BF            [12]  262 	mov	r7,#0xbf
      0000E6                        263 00118$:
      0000E6 C0 04            [24]  264 	push	ar4
      0000E8 C0 05            [24]  265 	push	ar5
      0000EA C0 06            [24]  266 	push	ar6
      0000EC C0 07            [24]  267 	push	ar7
      0000EE 88 82            [24]  268 	mov	dpl,r0
      0000F0 89 83            [24]  269 	mov	dph,r1
      0000F2 8A F0            [24]  270 	mov	b,r2
      0000F4 EB               [12]  271 	mov	a,r3
      0000F5 12r00r00         [24]  272 	lcall	___fsadd
      0000F8 AC 82            [24]  273 	mov	r4,dpl
      0000FA AD 83            [24]  274 	mov	r5,dph
      0000FC AE F0            [24]  275 	mov	r6,b
      0000FE FF               [12]  276 	mov	r7,a
      0000FF E5 81            [12]  277 	mov	a,sp
      000101 24 FC            [12]  278 	add	a,#0xfc
      000103 F5 81            [12]  279 	mov	sp,a
      000105 8C 82            [24]  280 	mov	dpl,r4
      000107 8D 83            [24]  281 	mov	dph,r5
      000109 8E F0            [24]  282 	mov	b,r6
      00010B EF               [12]  283 	mov	a,r7
      00010C 12r00r00         [24]  284 	lcall	___fs2sint
                                    285 ;	tancotf.c:66: xn=n;
      00010F 85 82*00         [24]  286 	mov	_tancotf_sloc0_1_0,dpl
      000112 85 83*01         [24]  287 	mov  (_tancotf_sloc0_1_0 + 1),dph
      000115 12r00r00         [24]  288 	lcall	___sint2fs
      000118 AA 82            [24]  289 	mov	r2,dpl
      00011A AB 83            [24]  290 	mov	r3,dph
      00011C AC F0            [24]  291 	mov	r4,b
      00011E FD               [12]  292 	mov	r5,a
                                    293 ;	tancotf.c:68: xnum=(int)x;
      00011F 90r00r01         [24]  294 	mov	dptr,#_tancotf_x_65536_25
      000122 E0               [24]  295 	movx	a,@dptr
      000123 F5*02            [12]  296 	mov	_tancotf_sloc1_1_0,a
      000125 A3               [24]  297 	inc	dptr
      000126 E0               [24]  298 	movx	a,@dptr
      000127 F5*03            [12]  299 	mov	(_tancotf_sloc1_1_0 + 1),a
      000129 A3               [24]  300 	inc	dptr
      00012A E0               [24]  301 	movx	a,@dptr
      00012B F5*04            [12]  302 	mov	(_tancotf_sloc1_1_0 + 2),a
      00012D A3               [24]  303 	inc	dptr
      00012E E0               [24]  304 	movx	a,@dptr
      00012F F5*05            [12]  305 	mov	(_tancotf_sloc1_1_0 + 3),a
      000131 85*02 82         [24]  306 	mov	dpl,_tancotf_sloc1_1_0
      000134 85*03 83         [24]  307 	mov	dph,(_tancotf_sloc1_1_0 + 1)
      000137 85*04 F0         [24]  308 	mov	b,(_tancotf_sloc1_1_0 + 2)
      00013A C0 05            [24]  309 	push	ar5
      00013C C0 04            [24]  310 	push	ar4
      00013E C0 03            [24]  311 	push	ar3
      000140 C0 02            [24]  312 	push	ar2
      000142 12r00r00         [24]  313 	lcall	___fs2sint
      000145 12r00r00         [24]  314 	lcall	___sint2fs
      000148 85 82*06         [24]  315 	mov	_tancotf_sloc2_1_0,dpl
      00014B 85 83*07         [24]  316 	mov	(_tancotf_sloc2_1_0 + 1),dph
      00014E 85 F0*08         [24]  317 	mov	(_tancotf_sloc2_1_0 + 2),b
      000151 F5*09            [12]  318 	mov	(_tancotf_sloc2_1_0 + 3),a
                                    319 ;	tancotf.c:69: xden=x-xnum;
      000153 C0*06            [24]  320 	push	_tancotf_sloc2_1_0
      000155 C0*07            [24]  321 	push	(_tancotf_sloc2_1_0 + 1)
      000157 C0*08            [24]  322 	push	(_tancotf_sloc2_1_0 + 2)
      000159 C0*09            [24]  323 	push	(_tancotf_sloc2_1_0 + 3)
                                    324 ;	tancotf.c:70: f=((xnum-xn*C1)+xden)-xn*C2;
      00015B 85*02 82         [24]  325 	mov	dpl,_tancotf_sloc1_1_0
      00015E 85*03 83         [24]  326 	mov	dph,(_tancotf_sloc1_1_0 + 1)
      000161 85*04 F0         [24]  327 	mov	b,(_tancotf_sloc1_1_0 + 2)
      000164 E5*05            [12]  328 	mov	a,(_tancotf_sloc1_1_0 + 3)
      000166 12r00r00         [24]  329 	lcall	___fssub
      000169 85 82*02         [24]  330 	mov	_tancotf_sloc1_1_0,dpl
      00016C 85 83*03         [24]  331 	mov	(_tancotf_sloc1_1_0 + 1),dph
      00016F 85 F0*04         [24]  332 	mov	(_tancotf_sloc1_1_0 + 2),b
      000172 F5*05            [12]  333 	mov	(_tancotf_sloc1_1_0 + 3),a
      000174 E5 81            [12]  334 	mov	a,sp
      000176 24 FC            [12]  335 	add	a,#0xfc
      000178 F5 81            [12]  336 	mov	sp,a
      00017A D0 02            [24]  337 	pop	ar2
      00017C D0 03            [24]  338 	pop	ar3
      00017E D0 04            [24]  339 	pop	ar4
      000180 D0 05            [24]  340 	pop	ar5
      000182 C0 05            [24]  341 	push	ar5
      000184 C0 04            [24]  342 	push	ar4
      000186 C0 03            [24]  343 	push	ar3
      000188 C0 02            [24]  344 	push	ar2
      00018A C0 02            [24]  345 	push	ar2
      00018C C0 03            [24]  346 	push	ar3
      00018E C0 04            [24]  347 	push	ar4
      000190 C0 05            [24]  348 	push	ar5
      000192 90 00 00         [24]  349 	mov	dptr,#0x0000
      000195 75 F0 C9         [24]  350 	mov	b,#0xc9
      000198 74 3F            [12]  351 	mov	a,#0x3f
      00019A 12r00r00         [24]  352 	lcall	___fsmul
      00019D A8 82            [24]  353 	mov	r0,dpl
      00019F A9 83            [24]  354 	mov	r1,dph
      0001A1 AE F0            [24]  355 	mov	r6,b
      0001A3 FF               [12]  356 	mov	r7,a
      0001A4 E5 81            [12]  357 	mov	a,sp
      0001A6 24 FC            [12]  358 	add	a,#0xfc
      0001A8 F5 81            [12]  359 	mov	sp,a
      0001AA C0 00            [24]  360 	push	ar0
      0001AC C0 01            [24]  361 	push	ar1
      0001AE C0 06            [24]  362 	push	ar6
      0001B0 C0 07            [24]  363 	push	ar7
      0001B2 85*06 82         [24]  364 	mov	dpl,_tancotf_sloc2_1_0
      0001B5 85*07 83         [24]  365 	mov	dph,(_tancotf_sloc2_1_0 + 1)
      0001B8 85*08 F0         [24]  366 	mov	b,(_tancotf_sloc2_1_0 + 2)
      0001BB E5*09            [12]  367 	mov	a,(_tancotf_sloc2_1_0 + 3)
      0001BD 12r00r00         [24]  368 	lcall	___fssub
      0001C0 A8 82            [24]  369 	mov	r0,dpl
      0001C2 A9 83            [24]  370 	mov	r1,dph
      0001C4 AE F0            [24]  371 	mov	r6,b
      0001C6 FF               [12]  372 	mov	r7,a
      0001C7 E5 81            [12]  373 	mov	a,sp
      0001C9 24 FC            [12]  374 	add	a,#0xfc
      0001CB F5 81            [12]  375 	mov	sp,a
      0001CD C0*02            [24]  376 	push	_tancotf_sloc1_1_0
      0001CF C0*03            [24]  377 	push	(_tancotf_sloc1_1_0 + 1)
      0001D1 C0*04            [24]  378 	push	(_tancotf_sloc1_1_0 + 2)
      0001D3 C0*05            [24]  379 	push	(_tancotf_sloc1_1_0 + 3)
      0001D5 88 82            [24]  380 	mov	dpl,r0
      0001D7 89 83            [24]  381 	mov	dph,r1
      0001D9 8E F0            [24]  382 	mov	b,r6
      0001DB EF               [12]  383 	mov	a,r7
      0001DC 12r00r00         [24]  384 	lcall	___fsadd
      0001DF A8 82            [24]  385 	mov	r0,dpl
      0001E1 A9 83            [24]  386 	mov	r1,dph
      0001E3 AE F0            [24]  387 	mov	r6,b
      0001E5 FF               [12]  388 	mov	r7,a
      0001E6 E5 81            [12]  389 	mov	a,sp
      0001E8 24 FC            [12]  390 	add	a,#0xfc
      0001EA F5 81            [12]  391 	mov	sp,a
      0001EC D0 02            [24]  392 	pop	ar2
      0001EE D0 03            [24]  393 	pop	ar3
      0001F0 D0 04            [24]  394 	pop	ar4
      0001F2 D0 05            [24]  395 	pop	ar5
      0001F4 C0 07            [24]  396 	push	ar7
      0001F6 C0 06            [24]  397 	push	ar6
      0001F8 C0 01            [24]  398 	push	ar1
      0001FA C0 00            [24]  399 	push	ar0
      0001FC C0 02            [24]  400 	push	ar2
      0001FE C0 03            [24]  401 	push	ar3
      000200 C0 04            [24]  402 	push	ar4
      000202 C0 05            [24]  403 	push	ar5
      000204 90 AA 22         [24]  404 	mov	dptr,#0xaa22
      000207 75 F0 FD         [24]  405 	mov	b,#0xfd
      00020A 74 39            [12]  406 	mov	a,#0x39
      00020C 12r00r00         [24]  407 	lcall	___fsmul
      00020F AA 82            [24]  408 	mov	r2,dpl
      000211 AB 83            [24]  409 	mov	r3,dph
      000213 AC F0            [24]  410 	mov	r4,b
      000215 FD               [12]  411 	mov	r5,a
      000216 E5 81            [12]  412 	mov	a,sp
      000218 24 FC            [12]  413 	add	a,#0xfc
      00021A F5 81            [12]  414 	mov	sp,a
      00021C D0 00            [24]  415 	pop	ar0
      00021E D0 01            [24]  416 	pop	ar1
      000220 D0 06            [24]  417 	pop	ar6
      000222 D0 07            [24]  418 	pop	ar7
      000224 C0 02            [24]  419 	push	ar2
      000226 C0 03            [24]  420 	push	ar3
      000228 C0 04            [24]  421 	push	ar4
      00022A C0 05            [24]  422 	push	ar5
                                    423 ;	tancotf.c:72: if (fabsf(f) < EPS)
      00022C 88 82            [24]  424 	mov	dpl,r0
      00022E 89 83            [24]  425 	mov	dph,r1
      000230 8E F0            [24]  426 	mov	b,r6
      000232 EF               [12]  427 	mov	a,r7
      000233 12r00r00         [24]  428 	lcall	___fssub
      000236 AC 82            [24]  429 	mov	r4,dpl
      000238 AD 83            [24]  430 	mov	r5,dph
      00023A AE F0            [24]  431 	mov	r6,b
      00023C FF               [12]  432 	mov	r7,a
      00023D E5 81            [12]  433 	mov	a,sp
      00023F 24 FC            [12]  434 	add	a,#0xfc
      000241 F5 81            [12]  435 	mov	sp,a
      000243 8C 82            [24]  436 	mov	dpl,r4
      000245 8D 83            [24]  437 	mov	dph,r5
      000247 8E F0            [24]  438 	mov	b,r6
      000249 EF               [12]  439 	mov	a,r7
      00024A C0 07            [24]  440 	push	ar7
      00024C C0 06            [24]  441 	push	ar6
      00024E C0 05            [24]  442 	push	ar5
      000250 C0 04            [24]  443 	push	ar4
      000252 78r00            [12]  444 	mov	r0,#_fabsf
      000254 79s00            [12]  445 	mov	r1,#(_fabsf >> 8)
      000256 7As00            [12]  446 	mov	r2,#(_fabsf >> 16)
      000258 12r00r00         [24]  447 	lcall	__sdcc_banked_call
      00025B A8 82            [24]  448 	mov	r0,dpl
      00025D A9 83            [24]  449 	mov	r1,dph
      00025F AA F0            [24]  450 	mov	r2,b
      000261 FB               [12]  451 	mov	r3,a
      000262 E4               [12]  452 	clr	a
      000263 C0 E0            [24]  453 	push	acc
      000265 C0 E0            [24]  454 	push	acc
      000267 74 80            [12]  455 	mov	a,#0x80
      000269 C0 E0            [24]  456 	push	acc
      00026B 74 39            [12]  457 	mov	a,#0x39
      00026D C0 E0            [24]  458 	push	acc
      00026F 88 82            [24]  459 	mov	dpl,r0
      000271 89 83            [24]  460 	mov	dph,r1
      000273 8A F0            [24]  461 	mov	b,r2
      000275 EB               [12]  462 	mov	a,r3
      000276 12r00r00         [24]  463 	lcall	___fslt
      000279 AB 82            [24]  464 	mov	r3,dpl
      00027B E5 81            [12]  465 	mov	a,sp
      00027D 24 FC            [12]  466 	add	a,#0xfc
      00027F F5 81            [12]  467 	mov	sp,a
      000281 D0 04            [24]  468 	pop	ar4
      000283 D0 05            [24]  469 	pop	ar5
      000285 D0 06            [24]  470 	pop	ar6
      000287 D0 07            [24]  471 	pop	ar7
      000289 EB               [12]  472 	mov	a,r3
      00028A 60 20            [24]  473 	jz	00104$
                                    474 ;	tancotf.c:74: xnum = f;
      00028C 90r00r05         [24]  475 	mov	dptr,#_tancotf_xnum_65536_26
      00028F EC               [12]  476 	mov	a,r4
      000290 F0               [24]  477 	movx	@dptr,a
      000291 ED               [12]  478 	mov	a,r5
      000292 A3               [24]  479 	inc	dptr
      000293 F0               [24]  480 	movx	@dptr,a
      000294 EE               [12]  481 	mov	a,r6
      000295 A3               [24]  482 	inc	dptr
      000296 F0               [24]  483 	movx	@dptr,a
      000297 EF               [12]  484 	mov	a,r7
      000298 A3               [24]  485 	inc	dptr
      000299 F0               [24]  486 	movx	@dptr,a
                                    487 ;	tancotf.c:75: xden = 1.0;
      00029A 90r00r09         [24]  488 	mov	dptr,#_tancotf_xden_65536_26
      00029D E4               [12]  489 	clr	a
      00029E F0               [24]  490 	movx	@dptr,a
      00029F A3               [24]  491 	inc	dptr
      0002A0 F0               [24]  492 	movx	@dptr,a
      0002A1 74 80            [12]  493 	mov	a,#0x80
      0002A3 A3               [24]  494 	inc	dptr
      0002A4 F0               [24]  495 	movx	@dptr,a
      0002A5 74 3F            [12]  496 	mov	a,#0x3f
      0002A7 A3               [24]  497 	inc	dptr
      0002A8 F0               [24]  498 	movx	@dptr,a
      0002A9 02r03rF2         [24]  499 	ljmp	00105$
      0002AC                        500 00104$:
                                    501 ;	tancotf.c:79: g = f*f;
      0002AC C0 07            [24]  502 	push	ar7
      0002AE C0 06            [24]  503 	push	ar6
      0002B0 C0 05            [24]  504 	push	ar5
      0002B2 C0 04            [24]  505 	push	ar4
      0002B4 C0 04            [24]  506 	push	ar4
      0002B6 C0 05            [24]  507 	push	ar5
      0002B8 C0 06            [24]  508 	push	ar6
      0002BA C0 07            [24]  509 	push	ar7
                                    510 ;	tancotf.c:80: xnum = P(f,g);
      0002BC 8C 82            [24]  511 	mov	dpl,r4
      0002BE 8D 83            [24]  512 	mov	dph,r5
      0002C0 8E F0            [24]  513 	mov	b,r6
      0002C2 EF               [12]  514 	mov	a,r7
      0002C3 12r00r00         [24]  515 	lcall	___fsmul
      0002C6 85 82*06         [24]  516 	mov	_tancotf_sloc2_1_0,dpl
      0002C9 85 83*07         [24]  517 	mov	(_tancotf_sloc2_1_0 + 1),dph
      0002CC 85 F0*08         [24]  518 	mov	(_tancotf_sloc2_1_0 + 2),b
      0002CF F5*09            [12]  519 	mov	(_tancotf_sloc2_1_0 + 3),a
      0002D1 E5 81            [12]  520 	mov	a,sp
      0002D3 24 FC            [12]  521 	add	a,#0xfc
      0002D5 F5 81            [12]  522 	mov	sp,a
      0002D7 C0*06            [24]  523 	push	_tancotf_sloc2_1_0
      0002D9 C0*07            [24]  524 	push	(_tancotf_sloc2_1_0 + 1)
      0002DB C0*08            [24]  525 	push	(_tancotf_sloc2_1_0 + 2)
      0002DD C0*09            [24]  526 	push	(_tancotf_sloc2_1_0 + 3)
      0002DF 90 33 B8         [24]  527 	mov	dptr,#0x33b8
      0002E2 75 F0 C4         [24]  528 	mov	b,#0xc4
      0002E5 74 BD            [12]  529 	mov	a,#0xbd
      0002E7 12r00r00         [24]  530 	lcall	___fsmul
      0002EA A8 82            [24]  531 	mov	r0,dpl
      0002EC A9 83            [24]  532 	mov	r1,dph
      0002EE AA F0            [24]  533 	mov	r2,b
      0002F0 FB               [12]  534 	mov	r3,a
      0002F1 E5 81            [12]  535 	mov	a,sp
      0002F3 24 FC            [12]  536 	add	a,#0xfc
      0002F5 F5 81            [12]  537 	mov	sp,a
      0002F7 D0 04            [24]  538 	pop	ar4
      0002F9 D0 05            [24]  539 	pop	ar5
      0002FB D0 06            [24]  540 	pop	ar6
      0002FD D0 07            [24]  541 	pop	ar7
      0002FF C0 07            [24]  542 	push	ar7
      000301 C0 06            [24]  543 	push	ar6
      000303 C0 05            [24]  544 	push	ar5
      000305 C0 04            [24]  545 	push	ar4
      000307 C0 04            [24]  546 	push	ar4
      000309 C0 05            [24]  547 	push	ar5
      00030B C0 06            [24]  548 	push	ar6
      00030D C0 07            [24]  549 	push	ar7
      00030F 88 82            [24]  550 	mov	dpl,r0
      000311 89 83            [24]  551 	mov	dph,r1
      000313 8A F0            [24]  552 	mov	b,r2
      000315 EB               [12]  553 	mov	a,r3
      000316 12r00r00         [24]  554 	lcall	___fsmul
      000319 A8 82            [24]  555 	mov	r0,dpl
      00031B A9 83            [24]  556 	mov	r1,dph
      00031D AA F0            [24]  557 	mov	r2,b
      00031F FB               [12]  558 	mov	r3,a
      000320 E5 81            [12]  559 	mov	a,sp
      000322 24 FC            [12]  560 	add	a,#0xfc
      000324 F5 81            [12]  561 	mov	sp,a
      000326 D0 04            [24]  562 	pop	ar4
      000328 D0 05            [24]  563 	pop	ar5
      00032A D0 06            [24]  564 	pop	ar6
      00032C D0 07            [24]  565 	pop	ar7
      00032E C0 04            [24]  566 	push	ar4
      000330 C0 05            [24]  567 	push	ar5
      000332 C0 06            [24]  568 	push	ar6
      000334 C0 07            [24]  569 	push	ar7
      000336 88 82            [24]  570 	mov	dpl,r0
      000338 89 83            [24]  571 	mov	dph,r1
      00033A 8A F0            [24]  572 	mov	b,r2
      00033C EB               [12]  573 	mov	a,r3
      00033D 12r00r00         [24]  574 	lcall	___fsadd
      000340 AC 82            [24]  575 	mov	r4,dpl
      000342 AD 83            [24]  576 	mov	r5,dph
      000344 AE F0            [24]  577 	mov	r6,b
      000346 FF               [12]  578 	mov	r7,a
      000347 E5 81            [12]  579 	mov	a,sp
      000349 24 FC            [12]  580 	add	a,#0xfc
      00034B F5 81            [12]  581 	mov	sp,a
      00034D 90r00r05         [24]  582 	mov	dptr,#_tancotf_xnum_65536_26
      000350 EC               [12]  583 	mov	a,r4
      000351 F0               [24]  584 	movx	@dptr,a
      000352 ED               [12]  585 	mov	a,r5
      000353 A3               [24]  586 	inc	dptr
      000354 F0               [24]  587 	movx	@dptr,a
      000355 EE               [12]  588 	mov	a,r6
      000356 A3               [24]  589 	inc	dptr
      000357 F0               [24]  590 	movx	@dptr,a
      000358 EF               [12]  591 	mov	a,r7
      000359 A3               [24]  592 	inc	dptr
      00035A F0               [24]  593 	movx	@dptr,a
                                    594 ;	tancotf.c:81: xden = Q(g);
      00035B C0*06            [24]  595 	push	_tancotf_sloc2_1_0
      00035D C0*07            [24]  596 	push	(_tancotf_sloc2_1_0 + 1)
      00035F C0*08            [24]  597 	push	(_tancotf_sloc2_1_0 + 2)
      000361 C0*09            [24]  598 	push	(_tancotf_sloc2_1_0 + 3)
      000363 90 33 75         [24]  599 	mov	dptr,#0x3375
      000366 75 F0 1F         [24]  600 	mov	b,#0x1f
      000369 74 3C            [12]  601 	mov	a,#0x3c
      00036B 12r00r00         [24]  602 	lcall	___fsmul
      00036E AC 82            [24]  603 	mov	r4,dpl
      000370 AD 83            [24]  604 	mov	r5,dph
      000372 AE F0            [24]  605 	mov	r6,b
      000374 FF               [12]  606 	mov	r7,a
      000375 E5 81            [12]  607 	mov	a,sp
      000377 24 FC            [12]  608 	add	a,#0xfc
      000379 F5 81            [12]  609 	mov	sp,a
      00037B 74 AF            [12]  610 	mov	a,#0xaf
      00037D C0 E0            [24]  611 	push	acc
      00037F 74 B7            [12]  612 	mov	a,#0xb7
      000381 C0 E0            [24]  613 	push	acc
      000383 03               [12]  614 	rr	a
      000384 C0 E0            [24]  615 	push	acc
      000386 74 BE            [12]  616 	mov	a,#0xbe
      000388 C0 E0            [24]  617 	push	acc
      00038A 8C 82            [24]  618 	mov	dpl,r4
      00038C 8D 83            [24]  619 	mov	dph,r5
      00038E 8E F0            [24]  620 	mov	b,r6
      000390 EF               [12]  621 	mov	a,r7
      000391 12r00r00         [24]  622 	lcall	___fsadd
      000394 AC 82            [24]  623 	mov	r4,dpl
      000396 AD 83            [24]  624 	mov	r5,dph
      000398 AE F0            [24]  625 	mov	r6,b
      00039A FF               [12]  626 	mov	r7,a
      00039B E5 81            [12]  627 	mov	a,sp
      00039D 24 FC            [12]  628 	add	a,#0xfc
      00039F F5 81            [12]  629 	mov	sp,a
      0003A1 C0*06            [24]  630 	push	_tancotf_sloc2_1_0
      0003A3 C0*07            [24]  631 	push	(_tancotf_sloc2_1_0 + 1)
      0003A5 C0*08            [24]  632 	push	(_tancotf_sloc2_1_0 + 2)
      0003A7 C0*09            [24]  633 	push	(_tancotf_sloc2_1_0 + 3)
      0003A9 8C 82            [24]  634 	mov	dpl,r4
      0003AB 8D 83            [24]  635 	mov	dph,r5
      0003AD 8E F0            [24]  636 	mov	b,r6
      0003AF EF               [12]  637 	mov	a,r7
      0003B0 12r00r00         [24]  638 	lcall	___fsmul
      0003B3 AC 82            [24]  639 	mov	r4,dpl
      0003B5 AD 83            [24]  640 	mov	r5,dph
      0003B7 AE F0            [24]  641 	mov	r6,b
      0003B9 FF               [12]  642 	mov	r7,a
      0003BA E5 81            [12]  643 	mov	a,sp
      0003BC 24 FC            [12]  644 	add	a,#0xfc
      0003BE F5 81            [12]  645 	mov	sp,a
      0003C0 E4               [12]  646 	clr	a
      0003C1 C0 E0            [24]  647 	push	acc
      0003C3 C0 E0            [24]  648 	push	acc
      0003C5 74 80            [12]  649 	mov	a,#0x80
      0003C7 C0 E0            [24]  650 	push	acc
      0003C9 74 3F            [12]  651 	mov	a,#0x3f
      0003CB C0 E0            [24]  652 	push	acc
      0003CD 8C 82            [24]  653 	mov	dpl,r4
      0003CF 8D 83            [24]  654 	mov	dph,r5
      0003D1 8E F0            [24]  655 	mov	b,r6
      0003D3 EF               [12]  656 	mov	a,r7
      0003D4 12r00r00         [24]  657 	lcall	___fsadd
      0003D7 AC 82            [24]  658 	mov	r4,dpl
      0003D9 AD 83            [24]  659 	mov	r5,dph
      0003DB AE F0            [24]  660 	mov	r6,b
      0003DD FF               [12]  661 	mov	r7,a
      0003DE E5 81            [12]  662 	mov	a,sp
      0003E0 24 FC            [12]  663 	add	a,#0xfc
      0003E2 F5 81            [12]  664 	mov	sp,a
      0003E4 90r00r09         [24]  665 	mov	dptr,#_tancotf_xden_65536_26
      0003E7 EC               [12]  666 	mov	a,r4
      0003E8 F0               [24]  667 	movx	@dptr,a
      0003E9 ED               [12]  668 	mov	a,r5
      0003EA A3               [24]  669 	inc	dptr
      0003EB F0               [24]  670 	movx	@dptr,a
      0003EC EE               [12]  671 	mov	a,r6
      0003ED A3               [24]  672 	inc	dptr
      0003EE F0               [24]  673 	movx	@dptr,a
      0003EF EF               [12]  674 	mov	a,r7
      0003F0 A3               [24]  675 	inc	dptr
      0003F1 F0               [24]  676 	movx	@dptr,a
      0003F2                        677 00105$:
                                    678 ;	tancotf.c:84: if(n&1)
      0003F2 E5*00            [12]  679 	mov	a,_tancotf_sloc0_1_0
      0003F4 20 E0 03         [24]  680 	jb	acc.0,00146$
      0003F7 02r04r86         [24]  681 	ljmp	00113$
      0003FA                        682 00146$:
                                    683 ;	tancotf.c:87: if(iscotan) return (-xnum/xden);
      0003FA 90r00r00         [24]  684 	mov	dptr,#_tancotf_PARM_2
      0003FD E0               [24]  685 	movx	a,@dptr
      0003FE 60 43            [24]  686 	jz	00107$
      000400 90r00r05         [24]  687 	mov	dptr,#_tancotf_xnum_65536_26
      000403 E0               [24]  688 	movx	a,@dptr
      000404 FC               [12]  689 	mov	r4,a
      000405 A3               [24]  690 	inc	dptr
      000406 E0               [24]  691 	movx	a,@dptr
      000407 FD               [12]  692 	mov	r5,a
      000408 A3               [24]  693 	inc	dptr
      000409 E0               [24]  694 	movx	a,@dptr
      00040A FE               [12]  695 	mov	r6,a
      00040B A3               [24]  696 	inc	dptr
      00040C E0               [24]  697 	movx	a,@dptr
      00040D B2 E7            [12]  698 	cpl	acc.7
      00040F FF               [12]  699 	mov	r7,a
      000410 90r00r09         [24]  700 	mov	dptr,#_tancotf_xden_65536_26
      000413 E0               [24]  701 	movx	a,@dptr
      000414 C0 E0            [24]  702 	push	acc
      000416 A3               [24]  703 	inc	dptr
      000417 E0               [24]  704 	movx	a,@dptr
      000418 C0 E0            [24]  705 	push	acc
      00041A A3               [24]  706 	inc	dptr
      00041B E0               [24]  707 	movx	a,@dptr
      00041C C0 E0            [24]  708 	push	acc
      00041E A3               [24]  709 	inc	dptr
      00041F E0               [24]  710 	movx	a,@dptr
      000420 C0 E0            [24]  711 	push	acc
      000422 8C 82            [24]  712 	mov	dpl,r4
      000424 8D 83            [24]  713 	mov	dph,r5
      000426 8E F0            [24]  714 	mov	b,r6
      000428 EF               [12]  715 	mov	a,r7
      000429 12r00r00         [24]  716 	lcall	___fsdiv
      00042C AC 82            [24]  717 	mov	r4,dpl
      00042E AD 83            [24]  718 	mov	r5,dph
      000430 AE F0            [24]  719 	mov	r6,b
      000432 FF               [12]  720 	mov	r7,a
      000433 E5 81            [12]  721 	mov	a,sp
      000435 24 FC            [12]  722 	add	a,#0xfc
      000437 F5 81            [12]  723 	mov	sp,a
      000439 8C 82            [24]  724 	mov	dpl,r4
      00043B 8D 83            [24]  725 	mov	dph,r5
      00043D 8E F0            [24]  726 	mov	b,r6
      00043F EF               [12]  727 	mov	a,r7
      000440 02r00r00         [24]  728 	ljmp	__sdcc_banked_ret
      000443                        729 00107$:
                                    730 ;	tancotf.c:88: else return (-xden/xnum);
      000443 90r00r09         [24]  731 	mov	dptr,#_tancotf_xden_65536_26
      000446 E0               [24]  732 	movx	a,@dptr
      000447 FC               [12]  733 	mov	r4,a
      000448 A3               [24]  734 	inc	dptr
      000449 E0               [24]  735 	movx	a,@dptr
      00044A FD               [12]  736 	mov	r5,a
      00044B A3               [24]  737 	inc	dptr
      00044C E0               [24]  738 	movx	a,@dptr
      00044D FE               [12]  739 	mov	r6,a
      00044E A3               [24]  740 	inc	dptr
      00044F E0               [24]  741 	movx	a,@dptr
      000450 B2 E7            [12]  742 	cpl	acc.7
      000452 FF               [12]  743 	mov	r7,a
      000453 90r00r05         [24]  744 	mov	dptr,#_tancotf_xnum_65536_26
      000456 E0               [24]  745 	movx	a,@dptr
      000457 C0 E0            [24]  746 	push	acc
      000459 A3               [24]  747 	inc	dptr
      00045A E0               [24]  748 	movx	a,@dptr
      00045B C0 E0            [24]  749 	push	acc
      00045D A3               [24]  750 	inc	dptr
      00045E E0               [24]  751 	movx	a,@dptr
      00045F C0 E0            [24]  752 	push	acc
      000461 A3               [24]  753 	inc	dptr
      000462 E0               [24]  754 	movx	a,@dptr
      000463 C0 E0            [24]  755 	push	acc
      000465 8C 82            [24]  756 	mov	dpl,r4
      000467 8D 83            [24]  757 	mov	dph,r5
      000469 8E F0            [24]  758 	mov	b,r6
      00046B EF               [12]  759 	mov	a,r7
      00046C 12r00r00         [24]  760 	lcall	___fsdiv
      00046F AC 82            [24]  761 	mov	r4,dpl
      000471 AD 83            [24]  762 	mov	r5,dph
      000473 AE F0            [24]  763 	mov	r6,b
      000475 FF               [12]  764 	mov	r7,a
      000476 E5 81            [12]  765 	mov	a,sp
      000478 24 FC            [12]  766 	add	a,#0xfc
      00047A F5 81            [12]  767 	mov	sp,a
      00047C 8C 82            [24]  768 	mov	dpl,r4
      00047E 8D 83            [24]  769 	mov	dph,r5
      000480 8E F0            [24]  770 	mov	b,r6
      000482 EF               [12]  771 	mov	a,r7
      000483 02r00r00         [24]  772 	ljmp	__sdcc_banked_ret
      000486                        773 00113$:
                                    774 ;	tancotf.c:92: if(iscotan) return (xden/xnum);
      000486 90r00r00         [24]  775 	mov	dptr,#_tancotf_PARM_2
      000489 E0               [24]  776 	movx	a,@dptr
      00048A 60 40            [24]  777 	jz	00110$
      00048C 90r00r09         [24]  778 	mov	dptr,#_tancotf_xden_65536_26
      00048F E0               [24]  779 	movx	a,@dptr
      000490 FC               [12]  780 	mov	r4,a
      000491 A3               [24]  781 	inc	dptr
      000492 E0               [24]  782 	movx	a,@dptr
      000493 FD               [12]  783 	mov	r5,a
      000494 A3               [24]  784 	inc	dptr
      000495 E0               [24]  785 	movx	a,@dptr
      000496 FE               [12]  786 	mov	r6,a
      000497 A3               [24]  787 	inc	dptr
      000498 E0               [24]  788 	movx	a,@dptr
      000499 FF               [12]  789 	mov	r7,a
      00049A 90r00r05         [24]  790 	mov	dptr,#_tancotf_xnum_65536_26
      00049D E0               [24]  791 	movx	a,@dptr
      00049E C0 E0            [24]  792 	push	acc
      0004A0 A3               [24]  793 	inc	dptr
      0004A1 E0               [24]  794 	movx	a,@dptr
      0004A2 C0 E0            [24]  795 	push	acc
      0004A4 A3               [24]  796 	inc	dptr
      0004A5 E0               [24]  797 	movx	a,@dptr
      0004A6 C0 E0            [24]  798 	push	acc
      0004A8 A3               [24]  799 	inc	dptr
      0004A9 E0               [24]  800 	movx	a,@dptr
      0004AA C0 E0            [24]  801 	push	acc
      0004AC 8C 82            [24]  802 	mov	dpl,r4
      0004AE 8D 83            [24]  803 	mov	dph,r5
      0004B0 8E F0            [24]  804 	mov	b,r6
      0004B2 EF               [12]  805 	mov	a,r7
      0004B3 12r00r00         [24]  806 	lcall	___fsdiv
      0004B6 AC 82            [24]  807 	mov	r4,dpl
      0004B8 AD 83            [24]  808 	mov	r5,dph
      0004BA AE F0            [24]  809 	mov	r6,b
      0004BC FF               [12]  810 	mov	r7,a
      0004BD E5 81            [12]  811 	mov	a,sp
      0004BF 24 FC            [12]  812 	add	a,#0xfc
      0004C1 F5 81            [12]  813 	mov	sp,a
      0004C3 8C 82            [24]  814 	mov	dpl,r4
      0004C5 8D 83            [24]  815 	mov	dph,r5
      0004C7 8E F0            [24]  816 	mov	b,r6
      0004C9 EF               [12]  817 	mov	a,r7
      0004CA 80 3E            [24]  818 	sjmp	00115$
      0004CC                        819 00110$:
                                    820 ;	tancotf.c:93: else return (xnum/xden);
      0004CC 90r00r05         [24]  821 	mov	dptr,#_tancotf_xnum_65536_26
      0004CF E0               [24]  822 	movx	a,@dptr
      0004D0 FC               [12]  823 	mov	r4,a
      0004D1 A3               [24]  824 	inc	dptr
      0004D2 E0               [24]  825 	movx	a,@dptr
      0004D3 FD               [12]  826 	mov	r5,a
      0004D4 A3               [24]  827 	inc	dptr
      0004D5 E0               [24]  828 	movx	a,@dptr
      0004D6 FE               [12]  829 	mov	r6,a
      0004D7 A3               [24]  830 	inc	dptr
      0004D8 E0               [24]  831 	movx	a,@dptr
      0004D9 FF               [12]  832 	mov	r7,a
      0004DA 90r00r09         [24]  833 	mov	dptr,#_tancotf_xden_65536_26
      0004DD E0               [24]  834 	movx	a,@dptr
      0004DE C0 E0            [24]  835 	push	acc
      0004E0 A3               [24]  836 	inc	dptr
      0004E1 E0               [24]  837 	movx	a,@dptr
      0004E2 C0 E0            [24]  838 	push	acc
      0004E4 A3               [24]  839 	inc	dptr
      0004E5 E0               [24]  840 	movx	a,@dptr
      0004E6 C0 E0            [24]  841 	push	acc
      0004E8 A3               [24]  842 	inc	dptr
      0004E9 E0               [24]  843 	movx	a,@dptr
      0004EA C0 E0            [24]  844 	push	acc
      0004EC 8C 82            [24]  845 	mov	dpl,r4
      0004EE 8D 83            [24]  846 	mov	dph,r5
      0004F0 8E F0            [24]  847 	mov	b,r6
      0004F2 EF               [12]  848 	mov	a,r7
      0004F3 12r00r00         [24]  849 	lcall	___fsdiv
      0004F6 AC 82            [24]  850 	mov	r4,dpl
      0004F8 AD 83            [24]  851 	mov	r5,dph
      0004FA AE F0            [24]  852 	mov	r6,b
      0004FC FF               [12]  853 	mov	r7,a
      0004FD E5 81            [12]  854 	mov	a,sp
      0004FF 24 FC            [12]  855 	add	a,#0xfc
      000501 F5 81            [12]  856 	mov	sp,a
      000503 8C 82            [24]  857 	mov	dpl,r4
      000505 8D 83            [24]  858 	mov	dph,r5
      000507 8E F0            [24]  859 	mov	b,r6
      000509 EF               [12]  860 	mov	a,r7
      00050A                        861 00115$:
                                    862 ;	tancotf.c:95: }
      00050A 02r00r00         [24]  863 	ljmp	__sdcc_banked_ret
                                    864 	.area CSEG    (CODE)
                                    865 	.area CONST   (CODE)
                                    866 	.area XINIT   (CODE)
                                    867 	.area CABS    (ABS,CODE)
